ARM GAS  /tmp/cc8gkcIc.s 			page 1


   1              		.cpu cortex-m3
   2              		.arch armv7-m
   3              		.fpu softvfp
   4              		.eabi_attribute 20, 1
   5              		.eabi_attribute 21, 1
   6              		.eabi_attribute 23, 3
   7              		.eabi_attribute 24, 1
   8              		.eabi_attribute 25, 1
   9              		.eabi_attribute 26, 1
  10              		.eabi_attribute 30, 1
  11              		.eabi_attribute 34, 1
  12              		.eabi_attribute 18, 4
  13              		.file	"i2c.c"
  14              		.text
  15              	.Ltext0:
  16              		.cfi_sections	.debug_frame
  17              		.section	.text.I2C_WriteAdress,"ax",%progbits
  18              		.align	1
  19              		.syntax unified
  20              		.thumb
  21              		.thumb_func
  23              	I2C_WriteAdress:
  24              	.LVL0:
  25              	.LFB951:
  26              		.file 1 "Core/Src/i2c.c"
   1:Core/Src/i2c.c **** /* USER CODE BEGIN Header */
   2:Core/Src/i2c.c **** /**
   3:Core/Src/i2c.c ****   ******************************************************************************
   4:Core/Src/i2c.c ****   * @file    i2c.c
   5:Core/Src/i2c.c ****   * @brief   This file provides code for the configuration
   6:Core/Src/i2c.c ****   *          of the I2C instances.
   7:Core/Src/i2c.c ****   ******************************************************************************
   8:Core/Src/i2c.c ****   * @attention
   9:Core/Src/i2c.c ****   *
  10:Core/Src/i2c.c ****   * Copyright (c) 2025 STMicroelectronics.
  11:Core/Src/i2c.c ****   * All rights reserved.
  12:Core/Src/i2c.c ****   *
  13:Core/Src/i2c.c ****   * This software is licensed under terms that can be found in the LICENSE file
  14:Core/Src/i2c.c ****   * in the root directory of this software component.
  15:Core/Src/i2c.c ****   * If no LICENSE file comes with this software, it is provided AS-IS.
  16:Core/Src/i2c.c ****   *
  17:Core/Src/i2c.c ****   ******************************************************************************
  18:Core/Src/i2c.c ****   */
  19:Core/Src/i2c.c **** /* USER CODE END Header */
  20:Core/Src/i2c.c **** /* Includes ------------------------------------------------------------------*/
  21:Core/Src/i2c.c **** #include "i2c.h"
  22:Core/Src/i2c.c **** 
  23:Core/Src/i2c.c **** /* USER CODE BEGIN 0 */
  24:Core/Src/i2c.c **** #include "typedef.h"
  25:Core/Src/i2c.c **** #include "usart.h"
  26:Core/Src/i2c.c **** #include "i2c.h"
  27:Core/Src/i2c.c **** #include "tim.h"
  28:Core/Src/i2c.c **** 
  29:Core/Src/i2c.c **** // Defines ---------------------------------------------------------------------//  
  30:Core/Src/i2c.c **** #define EEPROM_I2C I2C1
  31:Core/Src/i2c.c **** 
  32:Core/Src/i2c.c **** // Functions -------------------------------------------------------------------//
ARM GAS  /tmp/cc8gkcIc.s 			page 2


  33:Core/Src/i2c.c **** static uint8_t I2C_WriteAdress ( uint8_t, uint16_t );
  34:Core/Src/i2c.c **** 
  35:Core/Src/i2c.c **** // Private variables ----------------------------------------------------------//
  36:Core/Src/i2c.c **** volatile uint8_t i2c_end_timeout = 0;
  37:Core/Src/i2c.c **** 
  38:Core/Src/i2c.c **** /* USER CODE END 0 */
  39:Core/Src/i2c.c **** 
  40:Core/Src/i2c.c **** /* I2C1 init function */
  41:Core/Src/i2c.c **** void MX_I2C1_Init(void)
  42:Core/Src/i2c.c **** {
  43:Core/Src/i2c.c **** 
  44:Core/Src/i2c.c ****   /* USER CODE BEGIN I2C1_Init 0 */
  45:Core/Src/i2c.c **** 
  46:Core/Src/i2c.c ****   /* USER CODE END I2C1_Init 0 */
  47:Core/Src/i2c.c **** 
  48:Core/Src/i2c.c ****   LL_I2C_InitTypeDef I2C_InitStruct = {0};
  49:Core/Src/i2c.c **** 
  50:Core/Src/i2c.c ****   LL_GPIO_InitTypeDef GPIO_InitStruct = {0};
  51:Core/Src/i2c.c **** 
  52:Core/Src/i2c.c ****   LL_APB2_GRP1_EnableClock(LL_APB2_GRP1_PERIPH_GPIOB);
  53:Core/Src/i2c.c ****   /**I2C1 GPIO Configuration
  54:Core/Src/i2c.c ****   PB8   ------> I2C1_SCL
  55:Core/Src/i2c.c ****   PB9   ------> I2C1_SDA
  56:Core/Src/i2c.c ****   */
  57:Core/Src/i2c.c ****   GPIO_InitStruct.Pin = EEPROM_SCL_Pin|EEPROM_SDA_Pin;
  58:Core/Src/i2c.c ****   GPIO_InitStruct.Mode = LL_GPIO_MODE_ALTERNATE;
  59:Core/Src/i2c.c ****   GPIO_InitStruct.Speed = LL_GPIO_SPEED_FREQ_HIGH;
  60:Core/Src/i2c.c ****   GPIO_InitStruct.OutputType = LL_GPIO_OUTPUT_OPENDRAIN;
  61:Core/Src/i2c.c ****   LL_GPIO_Init(GPIOB, &GPIO_InitStruct);
  62:Core/Src/i2c.c **** 
  63:Core/Src/i2c.c ****   LL_GPIO_AF_EnableRemap_I2C1();
  64:Core/Src/i2c.c **** 
  65:Core/Src/i2c.c ****   /* Peripheral clock enable */
  66:Core/Src/i2c.c ****   LL_APB1_GRP1_EnableClock(LL_APB1_GRP1_PERIPH_I2C1);
  67:Core/Src/i2c.c **** 
  68:Core/Src/i2c.c ****   /* USER CODE BEGIN I2C1_Init 1 */
  69:Core/Src/i2c.c **** 
  70:Core/Src/i2c.c ****   /* USER CODE END I2C1_Init 1 */
  71:Core/Src/i2c.c **** 
  72:Core/Src/i2c.c ****   /** I2C Initialization
  73:Core/Src/i2c.c ****   */
  74:Core/Src/i2c.c ****   LL_I2C_DisableOwnAddress2(I2C1);
  75:Core/Src/i2c.c ****   LL_I2C_DisableGeneralCall(I2C1);
  76:Core/Src/i2c.c ****   LL_I2C_EnableClockStretching(I2C1);
  77:Core/Src/i2c.c ****   I2C_InitStruct.PeripheralMode = LL_I2C_MODE_I2C;
  78:Core/Src/i2c.c ****   I2C_InitStruct.ClockSpeed = 400000;
  79:Core/Src/i2c.c ****   I2C_InitStruct.DutyCycle = LL_I2C_DUTYCYCLE_2;
  80:Core/Src/i2c.c ****   I2C_InitStruct.OwnAddress1 = 0;
  81:Core/Src/i2c.c ****   I2C_InitStruct.TypeAcknowledge = LL_I2C_ACK;
  82:Core/Src/i2c.c ****   I2C_InitStruct.OwnAddrSize = LL_I2C_OWNADDRESS1_7BIT;
  83:Core/Src/i2c.c ****   LL_I2C_Init(I2C1, &I2C_InitStruct);
  84:Core/Src/i2c.c ****   LL_I2C_SetOwnAddress2(I2C1, 0);
  85:Core/Src/i2c.c ****   /* USER CODE BEGIN I2C1_Init 2 */
  86:Core/Src/i2c.c **** 
  87:Core/Src/i2c.c ****   /* USER CODE END I2C1_Init 2 */
  88:Core/Src/i2c.c **** 
  89:Core/Src/i2c.c **** }
ARM GAS  /tmp/cc8gkcIc.s 			page 3


  90:Core/Src/i2c.c **** 
  91:Core/Src/i2c.c **** /* USER CODE BEGIN 1 */
  92:Core/Src/i2c.c **** //------------------------------------------------------------------------------//
  93:Core/Src/i2c.c **** static uint8_t I2C_WriteAdress (uint8_t slave_addr, uint16_t reg_addr)
  94:Core/Src/i2c.c **** {
  27              		.loc 1 94 1 view -0
  28              		.cfi_startproc
  29              		@ args = 0, pretend = 0, frame = 8
  30              		@ frame_needed = 0, uses_anonymous_args = 0
  31              		.loc 1 94 1 is_stmt 0 view .LVU1
  32 0000 70B5     		push	{r4, r5, r6, lr}
  33              	.LCFI0:
  34              		.cfi_def_cfa_offset 16
  35              		.cfi_offset 4, -16
  36              		.cfi_offset 5, -12
  37              		.cfi_offset 6, -8
  38              		.cfi_offset 14, -4
  39 0002 82B0     		sub	sp, sp, #8
  40              	.LCFI1:
  41              		.cfi_def_cfa_offset 24
  42 0004 0546     		mov	r5, r0
  43 0006 0C46     		mov	r4, r1
  95:Core/Src/i2c.c ****   LL_I2C_DisableBitPOS(EEPROM_I2C); //Disable Pos
  44              		.loc 1 95 3 is_stmt 1 view .LVU2
  45              	.LVL1:
  46              	.LBB96:
  47              	.LBI96:
  48              		.file 2 "Drivers/STM32F1xx_HAL_Driver/Inc/stm32f1xx_ll_i2c.h"
   1:Drivers/STM32F1xx_HAL_Driver/Inc/stm32f1xx_ll_i2c.h **** /**
   2:Drivers/STM32F1xx_HAL_Driver/Inc/stm32f1xx_ll_i2c.h ****   ******************************************************************************
   3:Drivers/STM32F1xx_HAL_Driver/Inc/stm32f1xx_ll_i2c.h ****   * @file    stm32f1xx_ll_i2c.h
   4:Drivers/STM32F1xx_HAL_Driver/Inc/stm32f1xx_ll_i2c.h ****   * @author  MCD Application Team
   5:Drivers/STM32F1xx_HAL_Driver/Inc/stm32f1xx_ll_i2c.h ****   * @brief   Header file of I2C LL module.
   6:Drivers/STM32F1xx_HAL_Driver/Inc/stm32f1xx_ll_i2c.h ****   ******************************************************************************
   7:Drivers/STM32F1xx_HAL_Driver/Inc/stm32f1xx_ll_i2c.h ****   * @attention
   8:Drivers/STM32F1xx_HAL_Driver/Inc/stm32f1xx_ll_i2c.h ****   *
   9:Drivers/STM32F1xx_HAL_Driver/Inc/stm32f1xx_ll_i2c.h ****   * Copyright (c) 2016 STMicroelectronics.
  10:Drivers/STM32F1xx_HAL_Driver/Inc/stm32f1xx_ll_i2c.h ****   * All rights reserved.
  11:Drivers/STM32F1xx_HAL_Driver/Inc/stm32f1xx_ll_i2c.h ****   *
  12:Drivers/STM32F1xx_HAL_Driver/Inc/stm32f1xx_ll_i2c.h ****   * This software is licensed under terms that can be found in the LICENSE file
  13:Drivers/STM32F1xx_HAL_Driver/Inc/stm32f1xx_ll_i2c.h ****   * in the root directory of this software component.
  14:Drivers/STM32F1xx_HAL_Driver/Inc/stm32f1xx_ll_i2c.h ****   * If no LICENSE file comes with this software, it is provided AS-IS.
  15:Drivers/STM32F1xx_HAL_Driver/Inc/stm32f1xx_ll_i2c.h ****   *
  16:Drivers/STM32F1xx_HAL_Driver/Inc/stm32f1xx_ll_i2c.h ****   ******************************************************************************
  17:Drivers/STM32F1xx_HAL_Driver/Inc/stm32f1xx_ll_i2c.h ****   */
  18:Drivers/STM32F1xx_HAL_Driver/Inc/stm32f1xx_ll_i2c.h **** 
  19:Drivers/STM32F1xx_HAL_Driver/Inc/stm32f1xx_ll_i2c.h **** /* Define to prevent recursive inclusion -------------------------------------*/
  20:Drivers/STM32F1xx_HAL_Driver/Inc/stm32f1xx_ll_i2c.h **** #ifndef __STM32F1xx_LL_I2C_H
  21:Drivers/STM32F1xx_HAL_Driver/Inc/stm32f1xx_ll_i2c.h **** #define __STM32F1xx_LL_I2C_H
  22:Drivers/STM32F1xx_HAL_Driver/Inc/stm32f1xx_ll_i2c.h **** 
  23:Drivers/STM32F1xx_HAL_Driver/Inc/stm32f1xx_ll_i2c.h **** #ifdef __cplusplus
  24:Drivers/STM32F1xx_HAL_Driver/Inc/stm32f1xx_ll_i2c.h **** extern "C" {
  25:Drivers/STM32F1xx_HAL_Driver/Inc/stm32f1xx_ll_i2c.h **** #endif
  26:Drivers/STM32F1xx_HAL_Driver/Inc/stm32f1xx_ll_i2c.h **** 
  27:Drivers/STM32F1xx_HAL_Driver/Inc/stm32f1xx_ll_i2c.h **** /* Includes ------------------------------------------------------------------*/
  28:Drivers/STM32F1xx_HAL_Driver/Inc/stm32f1xx_ll_i2c.h **** #include "stm32f1xx.h"
  29:Drivers/STM32F1xx_HAL_Driver/Inc/stm32f1xx_ll_i2c.h **** 
ARM GAS  /tmp/cc8gkcIc.s 			page 4


  30:Drivers/STM32F1xx_HAL_Driver/Inc/stm32f1xx_ll_i2c.h **** /** @addtogroup STM32F1xx_LL_Driver
  31:Drivers/STM32F1xx_HAL_Driver/Inc/stm32f1xx_ll_i2c.h ****   * @{
  32:Drivers/STM32F1xx_HAL_Driver/Inc/stm32f1xx_ll_i2c.h ****   */
  33:Drivers/STM32F1xx_HAL_Driver/Inc/stm32f1xx_ll_i2c.h **** 
  34:Drivers/STM32F1xx_HAL_Driver/Inc/stm32f1xx_ll_i2c.h **** #if defined (I2C1) || defined (I2C2)
  35:Drivers/STM32F1xx_HAL_Driver/Inc/stm32f1xx_ll_i2c.h **** 
  36:Drivers/STM32F1xx_HAL_Driver/Inc/stm32f1xx_ll_i2c.h **** /** @defgroup I2C_LL I2C
  37:Drivers/STM32F1xx_HAL_Driver/Inc/stm32f1xx_ll_i2c.h ****   * @{
  38:Drivers/STM32F1xx_HAL_Driver/Inc/stm32f1xx_ll_i2c.h ****   */
  39:Drivers/STM32F1xx_HAL_Driver/Inc/stm32f1xx_ll_i2c.h **** 
  40:Drivers/STM32F1xx_HAL_Driver/Inc/stm32f1xx_ll_i2c.h **** /* Private types -------------------------------------------------------------*/
  41:Drivers/STM32F1xx_HAL_Driver/Inc/stm32f1xx_ll_i2c.h **** /* Private variables ---------------------------------------------------------*/
  42:Drivers/STM32F1xx_HAL_Driver/Inc/stm32f1xx_ll_i2c.h **** 
  43:Drivers/STM32F1xx_HAL_Driver/Inc/stm32f1xx_ll_i2c.h **** /* Private constants ---------------------------------------------------------*/
  44:Drivers/STM32F1xx_HAL_Driver/Inc/stm32f1xx_ll_i2c.h **** /** @defgroup I2C_LL_Private_Constants I2C Private Constants
  45:Drivers/STM32F1xx_HAL_Driver/Inc/stm32f1xx_ll_i2c.h ****   * @{
  46:Drivers/STM32F1xx_HAL_Driver/Inc/stm32f1xx_ll_i2c.h ****   */
  47:Drivers/STM32F1xx_HAL_Driver/Inc/stm32f1xx_ll_i2c.h **** 
  48:Drivers/STM32F1xx_HAL_Driver/Inc/stm32f1xx_ll_i2c.h **** /* Defines used to perform compute and check in the macros */
  49:Drivers/STM32F1xx_HAL_Driver/Inc/stm32f1xx_ll_i2c.h **** #define LL_I2C_MAX_SPEED_STANDARD           100000U
  50:Drivers/STM32F1xx_HAL_Driver/Inc/stm32f1xx_ll_i2c.h **** #define LL_I2C_MAX_SPEED_FAST               400000U
  51:Drivers/STM32F1xx_HAL_Driver/Inc/stm32f1xx_ll_i2c.h **** /**
  52:Drivers/STM32F1xx_HAL_Driver/Inc/stm32f1xx_ll_i2c.h ****   * @}
  53:Drivers/STM32F1xx_HAL_Driver/Inc/stm32f1xx_ll_i2c.h ****   */
  54:Drivers/STM32F1xx_HAL_Driver/Inc/stm32f1xx_ll_i2c.h **** 
  55:Drivers/STM32F1xx_HAL_Driver/Inc/stm32f1xx_ll_i2c.h **** /* Private macros ------------------------------------------------------------*/
  56:Drivers/STM32F1xx_HAL_Driver/Inc/stm32f1xx_ll_i2c.h **** #if defined(USE_FULL_LL_DRIVER)
  57:Drivers/STM32F1xx_HAL_Driver/Inc/stm32f1xx_ll_i2c.h **** /** @defgroup I2C_LL_Private_Macros I2C Private Macros
  58:Drivers/STM32F1xx_HAL_Driver/Inc/stm32f1xx_ll_i2c.h ****   * @{
  59:Drivers/STM32F1xx_HAL_Driver/Inc/stm32f1xx_ll_i2c.h ****   */
  60:Drivers/STM32F1xx_HAL_Driver/Inc/stm32f1xx_ll_i2c.h **** /**
  61:Drivers/STM32F1xx_HAL_Driver/Inc/stm32f1xx_ll_i2c.h ****   * @}
  62:Drivers/STM32F1xx_HAL_Driver/Inc/stm32f1xx_ll_i2c.h ****   */
  63:Drivers/STM32F1xx_HAL_Driver/Inc/stm32f1xx_ll_i2c.h **** #endif /*USE_FULL_LL_DRIVER*/
  64:Drivers/STM32F1xx_HAL_Driver/Inc/stm32f1xx_ll_i2c.h **** 
  65:Drivers/STM32F1xx_HAL_Driver/Inc/stm32f1xx_ll_i2c.h **** /* Exported types ------------------------------------------------------------*/
  66:Drivers/STM32F1xx_HAL_Driver/Inc/stm32f1xx_ll_i2c.h **** #if defined(USE_FULL_LL_DRIVER)
  67:Drivers/STM32F1xx_HAL_Driver/Inc/stm32f1xx_ll_i2c.h **** /** @defgroup I2C_LL_ES_INIT I2C Exported Init structure
  68:Drivers/STM32F1xx_HAL_Driver/Inc/stm32f1xx_ll_i2c.h ****   * @{
  69:Drivers/STM32F1xx_HAL_Driver/Inc/stm32f1xx_ll_i2c.h ****   */
  70:Drivers/STM32F1xx_HAL_Driver/Inc/stm32f1xx_ll_i2c.h **** typedef struct
  71:Drivers/STM32F1xx_HAL_Driver/Inc/stm32f1xx_ll_i2c.h **** {
  72:Drivers/STM32F1xx_HAL_Driver/Inc/stm32f1xx_ll_i2c.h ****   uint32_t PeripheralMode;      /*!< Specifies the peripheral mode.
  73:Drivers/STM32F1xx_HAL_Driver/Inc/stm32f1xx_ll_i2c.h ****                                      This parameter can be a value of @ref I2C_LL_EC_PERIPHERAL_MOD
  74:Drivers/STM32F1xx_HAL_Driver/Inc/stm32f1xx_ll_i2c.h **** 
  75:Drivers/STM32F1xx_HAL_Driver/Inc/stm32f1xx_ll_i2c.h ****                                      This feature can be modified afterwards using unitary function
  76:Drivers/STM32F1xx_HAL_Driver/Inc/stm32f1xx_ll_i2c.h **** 
  77:Drivers/STM32F1xx_HAL_Driver/Inc/stm32f1xx_ll_i2c.h ****   uint32_t ClockSpeed;          /*!< Specifies the clock frequency.
  78:Drivers/STM32F1xx_HAL_Driver/Inc/stm32f1xx_ll_i2c.h ****                                      This parameter must be set to a value lower than 400kHz (in Hz
  79:Drivers/STM32F1xx_HAL_Driver/Inc/stm32f1xx_ll_i2c.h **** 
  80:Drivers/STM32F1xx_HAL_Driver/Inc/stm32f1xx_ll_i2c.h ****                                      This feature can be modified afterwards using unitary function
  81:Drivers/STM32F1xx_HAL_Driver/Inc/stm32f1xx_ll_i2c.h ****                                      or @ref LL_I2C_SetDutyCycle() or @ref LL_I2C_SetClockSpeedMode
  82:Drivers/STM32F1xx_HAL_Driver/Inc/stm32f1xx_ll_i2c.h **** 
  83:Drivers/STM32F1xx_HAL_Driver/Inc/stm32f1xx_ll_i2c.h ****   uint32_t DutyCycle;           /*!< Specifies the I2C fast mode duty cycle.
  84:Drivers/STM32F1xx_HAL_Driver/Inc/stm32f1xx_ll_i2c.h ****                                      This parameter can be a value of @ref I2C_LL_EC_DUTYCYCLE
  85:Drivers/STM32F1xx_HAL_Driver/Inc/stm32f1xx_ll_i2c.h **** 
  86:Drivers/STM32F1xx_HAL_Driver/Inc/stm32f1xx_ll_i2c.h ****                                      This feature can be modified afterwards using unitary function
ARM GAS  /tmp/cc8gkcIc.s 			page 5


  87:Drivers/STM32F1xx_HAL_Driver/Inc/stm32f1xx_ll_i2c.h **** 
  88:Drivers/STM32F1xx_HAL_Driver/Inc/stm32f1xx_ll_i2c.h ****   uint32_t OwnAddress1;         /*!< Specifies the device own address 1.
  89:Drivers/STM32F1xx_HAL_Driver/Inc/stm32f1xx_ll_i2c.h ****                                      This parameter must be a value between Min_Data = 0x00 and Max
  90:Drivers/STM32F1xx_HAL_Driver/Inc/stm32f1xx_ll_i2c.h **** 
  91:Drivers/STM32F1xx_HAL_Driver/Inc/stm32f1xx_ll_i2c.h ****                                      This feature can be modified afterwards using unitary function
  92:Drivers/STM32F1xx_HAL_Driver/Inc/stm32f1xx_ll_i2c.h **** 
  93:Drivers/STM32F1xx_HAL_Driver/Inc/stm32f1xx_ll_i2c.h ****   uint32_t TypeAcknowledge;     /*!< Specifies the ACKnowledge or Non ACKnowledge condition after t
  94:Drivers/STM32F1xx_HAL_Driver/Inc/stm32f1xx_ll_i2c.h ****                                      This parameter can be a value of @ref I2C_LL_EC_I2C_ACKNOWLEDG
  95:Drivers/STM32F1xx_HAL_Driver/Inc/stm32f1xx_ll_i2c.h **** 
  96:Drivers/STM32F1xx_HAL_Driver/Inc/stm32f1xx_ll_i2c.h ****                                      This feature can be modified afterwards using unitary function
  97:Drivers/STM32F1xx_HAL_Driver/Inc/stm32f1xx_ll_i2c.h **** 
  98:Drivers/STM32F1xx_HAL_Driver/Inc/stm32f1xx_ll_i2c.h ****   uint32_t OwnAddrSize;         /*!< Specifies the device own address 1 size (7-bit or 10-bit).
  99:Drivers/STM32F1xx_HAL_Driver/Inc/stm32f1xx_ll_i2c.h ****                                      This parameter can be a value of @ref I2C_LL_EC_OWNADDRESS1
 100:Drivers/STM32F1xx_HAL_Driver/Inc/stm32f1xx_ll_i2c.h **** 
 101:Drivers/STM32F1xx_HAL_Driver/Inc/stm32f1xx_ll_i2c.h ****                                      This feature can be modified afterwards using unitary function
 102:Drivers/STM32F1xx_HAL_Driver/Inc/stm32f1xx_ll_i2c.h **** } LL_I2C_InitTypeDef;
 103:Drivers/STM32F1xx_HAL_Driver/Inc/stm32f1xx_ll_i2c.h **** /**
 104:Drivers/STM32F1xx_HAL_Driver/Inc/stm32f1xx_ll_i2c.h ****   * @}
 105:Drivers/STM32F1xx_HAL_Driver/Inc/stm32f1xx_ll_i2c.h ****   */
 106:Drivers/STM32F1xx_HAL_Driver/Inc/stm32f1xx_ll_i2c.h **** #endif /*USE_FULL_LL_DRIVER*/
 107:Drivers/STM32F1xx_HAL_Driver/Inc/stm32f1xx_ll_i2c.h **** 
 108:Drivers/STM32F1xx_HAL_Driver/Inc/stm32f1xx_ll_i2c.h **** /* Exported constants --------------------------------------------------------*/
 109:Drivers/STM32F1xx_HAL_Driver/Inc/stm32f1xx_ll_i2c.h **** /** @defgroup I2C_LL_Exported_Constants I2C Exported Constants
 110:Drivers/STM32F1xx_HAL_Driver/Inc/stm32f1xx_ll_i2c.h ****   * @{
 111:Drivers/STM32F1xx_HAL_Driver/Inc/stm32f1xx_ll_i2c.h ****   */
 112:Drivers/STM32F1xx_HAL_Driver/Inc/stm32f1xx_ll_i2c.h **** 
 113:Drivers/STM32F1xx_HAL_Driver/Inc/stm32f1xx_ll_i2c.h **** /** @defgroup I2C_LL_EC_GET_FLAG Get Flags Defines
 114:Drivers/STM32F1xx_HAL_Driver/Inc/stm32f1xx_ll_i2c.h ****   * @brief    Flags defines which can be used with LL_I2C_ReadReg function
 115:Drivers/STM32F1xx_HAL_Driver/Inc/stm32f1xx_ll_i2c.h ****   * @{
 116:Drivers/STM32F1xx_HAL_Driver/Inc/stm32f1xx_ll_i2c.h ****   */
 117:Drivers/STM32F1xx_HAL_Driver/Inc/stm32f1xx_ll_i2c.h **** #define LL_I2C_SR1_SB                       I2C_SR1_SB              /*!< Start Bit (master mode)   
 118:Drivers/STM32F1xx_HAL_Driver/Inc/stm32f1xx_ll_i2c.h **** #define LL_I2C_SR1_ADDR                     I2C_SR1_ADDR            /*!< Address sent (master mode)
 119:Drivers/STM32F1xx_HAL_Driver/Inc/stm32f1xx_ll_i2c.h ****                                                                          Address matched flag (slav
 120:Drivers/STM32F1xx_HAL_Driver/Inc/stm32f1xx_ll_i2c.h **** #define LL_I2C_SR1_BTF                      I2C_SR1_BTF             /*!< Byte Transfer Finished fla
 121:Drivers/STM32F1xx_HAL_Driver/Inc/stm32f1xx_ll_i2c.h **** #define LL_I2C_SR1_ADD10                    I2C_SR1_ADD10           /*!< 10-bit header sent (master
 122:Drivers/STM32F1xx_HAL_Driver/Inc/stm32f1xx_ll_i2c.h **** #define LL_I2C_SR1_STOPF                    I2C_SR1_STOPF           /*!< Stop detection flag (slave
 123:Drivers/STM32F1xx_HAL_Driver/Inc/stm32f1xx_ll_i2c.h **** #define LL_I2C_SR1_RXNE                     I2C_SR1_RXNE            /*!< Data register not empty (r
 124:Drivers/STM32F1xx_HAL_Driver/Inc/stm32f1xx_ll_i2c.h **** #define LL_I2C_SR1_TXE                      I2C_SR1_TXE             /*!< Data register empty (trans
 125:Drivers/STM32F1xx_HAL_Driver/Inc/stm32f1xx_ll_i2c.h **** #define LL_I2C_SR1_BERR                     I2C_SR1_BERR            /*!< Bus error                 
 126:Drivers/STM32F1xx_HAL_Driver/Inc/stm32f1xx_ll_i2c.h **** #define LL_I2C_SR1_ARLO                     I2C_SR1_ARLO            /*!< Arbitration lost          
 127:Drivers/STM32F1xx_HAL_Driver/Inc/stm32f1xx_ll_i2c.h **** #define LL_I2C_SR1_AF                       I2C_SR1_AF              /*!< Acknowledge failure flag  
 128:Drivers/STM32F1xx_HAL_Driver/Inc/stm32f1xx_ll_i2c.h **** #define LL_I2C_SR1_OVR                      I2C_SR1_OVR             /*!< Overrun/Underrun          
 129:Drivers/STM32F1xx_HAL_Driver/Inc/stm32f1xx_ll_i2c.h **** #define LL_I2C_SR1_PECERR                   I2C_ISR_PECERR          /*!< PEC Error in reception (SM
 130:Drivers/STM32F1xx_HAL_Driver/Inc/stm32f1xx_ll_i2c.h **** #define LL_I2C_SR1_TIMEOUT                  I2C_ISR_TIMEOUT         /*!< Timeout detection flag (SM
 131:Drivers/STM32F1xx_HAL_Driver/Inc/stm32f1xx_ll_i2c.h **** #define LL_I2C_SR1_SMALERT                  I2C_ISR_SMALERT         /*!< SMBus alert (SMBus mode)  
 132:Drivers/STM32F1xx_HAL_Driver/Inc/stm32f1xx_ll_i2c.h **** #define LL_I2C_SR2_MSL                      I2C_SR2_MSL             /*!< Master/Slave flag         
 133:Drivers/STM32F1xx_HAL_Driver/Inc/stm32f1xx_ll_i2c.h **** #define LL_I2C_SR2_BUSY                     I2C_SR2_BUSY            /*!< Bus busy flag             
 134:Drivers/STM32F1xx_HAL_Driver/Inc/stm32f1xx_ll_i2c.h **** #define LL_I2C_SR2_TRA                      I2C_SR2_TRA             /*!< Transmitter/receiver direc
 135:Drivers/STM32F1xx_HAL_Driver/Inc/stm32f1xx_ll_i2c.h **** #define LL_I2C_SR2_GENCALL                  I2C_SR2_GENCALL         /*!< General call address (Slav
 136:Drivers/STM32F1xx_HAL_Driver/Inc/stm32f1xx_ll_i2c.h **** #define LL_I2C_SR2_SMBDEFAULT               I2C_SR2_SMBDEFAULT      /*!< SMBus Device default addre
 137:Drivers/STM32F1xx_HAL_Driver/Inc/stm32f1xx_ll_i2c.h **** #define LL_I2C_SR2_SMBHOST                  I2C_SR2_SMBHOST         /*!< SMBus Host address (Slave 
 138:Drivers/STM32F1xx_HAL_Driver/Inc/stm32f1xx_ll_i2c.h **** #define LL_I2C_SR2_DUALF                    I2C_SR2_DUALF           /*!< Dual flag  (Slave mode)   
 139:Drivers/STM32F1xx_HAL_Driver/Inc/stm32f1xx_ll_i2c.h **** /**
 140:Drivers/STM32F1xx_HAL_Driver/Inc/stm32f1xx_ll_i2c.h ****   * @}
 141:Drivers/STM32F1xx_HAL_Driver/Inc/stm32f1xx_ll_i2c.h ****   */
 142:Drivers/STM32F1xx_HAL_Driver/Inc/stm32f1xx_ll_i2c.h **** 
 143:Drivers/STM32F1xx_HAL_Driver/Inc/stm32f1xx_ll_i2c.h **** /** @defgroup I2C_LL_EC_IT IT Defines
ARM GAS  /tmp/cc8gkcIc.s 			page 6


 144:Drivers/STM32F1xx_HAL_Driver/Inc/stm32f1xx_ll_i2c.h ****   * @brief    IT defines which can be used with LL_I2C_ReadReg and  LL_I2C_WriteReg functions
 145:Drivers/STM32F1xx_HAL_Driver/Inc/stm32f1xx_ll_i2c.h ****   * @{
 146:Drivers/STM32F1xx_HAL_Driver/Inc/stm32f1xx_ll_i2c.h ****   */
 147:Drivers/STM32F1xx_HAL_Driver/Inc/stm32f1xx_ll_i2c.h **** #define LL_I2C_CR2_ITEVTEN                  I2C_CR2_ITEVTEN         /*!< Events interrupts enable *
 148:Drivers/STM32F1xx_HAL_Driver/Inc/stm32f1xx_ll_i2c.h **** #define LL_I2C_CR2_ITBUFEN                  I2C_CR2_ITBUFEN         /*!< Buffer interrupts enable *
 149:Drivers/STM32F1xx_HAL_Driver/Inc/stm32f1xx_ll_i2c.h **** #define LL_I2C_CR2_ITERREN                  I2C_CR2_ITERREN         /*!< Error interrupts enable  *
 150:Drivers/STM32F1xx_HAL_Driver/Inc/stm32f1xx_ll_i2c.h **** /**
 151:Drivers/STM32F1xx_HAL_Driver/Inc/stm32f1xx_ll_i2c.h ****   * @}
 152:Drivers/STM32F1xx_HAL_Driver/Inc/stm32f1xx_ll_i2c.h ****   */
 153:Drivers/STM32F1xx_HAL_Driver/Inc/stm32f1xx_ll_i2c.h **** 
 154:Drivers/STM32F1xx_HAL_Driver/Inc/stm32f1xx_ll_i2c.h **** /** @defgroup I2C_LL_EC_OWNADDRESS1 Own Address 1 Length
 155:Drivers/STM32F1xx_HAL_Driver/Inc/stm32f1xx_ll_i2c.h ****   * @{
 156:Drivers/STM32F1xx_HAL_Driver/Inc/stm32f1xx_ll_i2c.h ****   */
 157:Drivers/STM32F1xx_HAL_Driver/Inc/stm32f1xx_ll_i2c.h **** #define LL_I2C_OWNADDRESS1_7BIT             0x00004000U                                /*!< Own add
 158:Drivers/STM32F1xx_HAL_Driver/Inc/stm32f1xx_ll_i2c.h **** #define LL_I2C_OWNADDRESS1_10BIT            (uint32_t)(I2C_OAR1_ADDMODE | 0x00004000U) /*!< Own add
 159:Drivers/STM32F1xx_HAL_Driver/Inc/stm32f1xx_ll_i2c.h **** /**
 160:Drivers/STM32F1xx_HAL_Driver/Inc/stm32f1xx_ll_i2c.h ****   * @}
 161:Drivers/STM32F1xx_HAL_Driver/Inc/stm32f1xx_ll_i2c.h ****   */
 162:Drivers/STM32F1xx_HAL_Driver/Inc/stm32f1xx_ll_i2c.h **** 
 163:Drivers/STM32F1xx_HAL_Driver/Inc/stm32f1xx_ll_i2c.h **** /** @defgroup I2C_LL_EC_DUTYCYCLE Fast Mode Duty Cycle
 164:Drivers/STM32F1xx_HAL_Driver/Inc/stm32f1xx_ll_i2c.h ****   * @{
 165:Drivers/STM32F1xx_HAL_Driver/Inc/stm32f1xx_ll_i2c.h ****   */
 166:Drivers/STM32F1xx_HAL_Driver/Inc/stm32f1xx_ll_i2c.h **** #define LL_I2C_DUTYCYCLE_2                  0x00000000U             /*!< I2C fast mode Tlow/Thigh =
 167:Drivers/STM32F1xx_HAL_Driver/Inc/stm32f1xx_ll_i2c.h **** #define LL_I2C_DUTYCYCLE_16_9               I2C_CCR_DUTY            /*!< I2C fast mode Tlow/Thigh =
 168:Drivers/STM32F1xx_HAL_Driver/Inc/stm32f1xx_ll_i2c.h **** /**
 169:Drivers/STM32F1xx_HAL_Driver/Inc/stm32f1xx_ll_i2c.h ****   * @}
 170:Drivers/STM32F1xx_HAL_Driver/Inc/stm32f1xx_ll_i2c.h ****   */
 171:Drivers/STM32F1xx_HAL_Driver/Inc/stm32f1xx_ll_i2c.h **** 
 172:Drivers/STM32F1xx_HAL_Driver/Inc/stm32f1xx_ll_i2c.h **** /** @defgroup I2C_LL_EC_CLOCK_SPEED_MODE Master Clock Speed Mode
 173:Drivers/STM32F1xx_HAL_Driver/Inc/stm32f1xx_ll_i2c.h ****   * @{
 174:Drivers/STM32F1xx_HAL_Driver/Inc/stm32f1xx_ll_i2c.h ****   */
 175:Drivers/STM32F1xx_HAL_Driver/Inc/stm32f1xx_ll_i2c.h **** #define LL_I2C_CLOCK_SPEED_STANDARD_MODE    0x00000000U             /*!< Master clock speed range i
 176:Drivers/STM32F1xx_HAL_Driver/Inc/stm32f1xx_ll_i2c.h **** #define LL_I2C_CLOCK_SPEED_FAST_MODE        I2C_CCR_FS              /*!< Master clock speed range i
 177:Drivers/STM32F1xx_HAL_Driver/Inc/stm32f1xx_ll_i2c.h **** /**
 178:Drivers/STM32F1xx_HAL_Driver/Inc/stm32f1xx_ll_i2c.h ****   * @}
 179:Drivers/STM32F1xx_HAL_Driver/Inc/stm32f1xx_ll_i2c.h ****   */
 180:Drivers/STM32F1xx_HAL_Driver/Inc/stm32f1xx_ll_i2c.h **** 
 181:Drivers/STM32F1xx_HAL_Driver/Inc/stm32f1xx_ll_i2c.h **** /** @defgroup I2C_LL_EC_PERIPHERAL_MODE Peripheral Mode
 182:Drivers/STM32F1xx_HAL_Driver/Inc/stm32f1xx_ll_i2c.h ****   * @{
 183:Drivers/STM32F1xx_HAL_Driver/Inc/stm32f1xx_ll_i2c.h ****   */
 184:Drivers/STM32F1xx_HAL_Driver/Inc/stm32f1xx_ll_i2c.h **** #define LL_I2C_MODE_I2C                     0x00000000U                                            
 185:Drivers/STM32F1xx_HAL_Driver/Inc/stm32f1xx_ll_i2c.h **** #define LL_I2C_MODE_SMBUS_HOST              (uint32_t)(I2C_CR1_SMBUS | I2C_CR1_SMBTYPE | I2C_CR1_EN
 186:Drivers/STM32F1xx_HAL_Driver/Inc/stm32f1xx_ll_i2c.h **** #define LL_I2C_MODE_SMBUS_DEVICE            I2C_CR1_SMBUS                                          
 187:Drivers/STM32F1xx_HAL_Driver/Inc/stm32f1xx_ll_i2c.h **** #define LL_I2C_MODE_SMBUS_DEVICE_ARP        (uint32_t)(I2C_CR1_SMBUS | I2C_CR1_ENARP)              
 188:Drivers/STM32F1xx_HAL_Driver/Inc/stm32f1xx_ll_i2c.h **** /**
 189:Drivers/STM32F1xx_HAL_Driver/Inc/stm32f1xx_ll_i2c.h ****   * @}
 190:Drivers/STM32F1xx_HAL_Driver/Inc/stm32f1xx_ll_i2c.h ****   */
 191:Drivers/STM32F1xx_HAL_Driver/Inc/stm32f1xx_ll_i2c.h **** 
 192:Drivers/STM32F1xx_HAL_Driver/Inc/stm32f1xx_ll_i2c.h **** /** @defgroup I2C_LL_EC_I2C_ACKNOWLEDGE Acknowledge Generation
 193:Drivers/STM32F1xx_HAL_Driver/Inc/stm32f1xx_ll_i2c.h ****   * @{
 194:Drivers/STM32F1xx_HAL_Driver/Inc/stm32f1xx_ll_i2c.h ****   */
 195:Drivers/STM32F1xx_HAL_Driver/Inc/stm32f1xx_ll_i2c.h **** #define LL_I2C_ACK                          I2C_CR1_ACK             /*!< ACK is sent after current 
 196:Drivers/STM32F1xx_HAL_Driver/Inc/stm32f1xx_ll_i2c.h **** #define LL_I2C_NACK                         0x00000000U             /*!< NACK is sent after current
 197:Drivers/STM32F1xx_HAL_Driver/Inc/stm32f1xx_ll_i2c.h **** /**
 198:Drivers/STM32F1xx_HAL_Driver/Inc/stm32f1xx_ll_i2c.h ****   * @}
 199:Drivers/STM32F1xx_HAL_Driver/Inc/stm32f1xx_ll_i2c.h ****   */
 200:Drivers/STM32F1xx_HAL_Driver/Inc/stm32f1xx_ll_i2c.h **** 
ARM GAS  /tmp/cc8gkcIc.s 			page 7


 201:Drivers/STM32F1xx_HAL_Driver/Inc/stm32f1xx_ll_i2c.h **** /** @defgroup I2C_LL_EC_DIRECTION Read Write Direction
 202:Drivers/STM32F1xx_HAL_Driver/Inc/stm32f1xx_ll_i2c.h ****   * @{
 203:Drivers/STM32F1xx_HAL_Driver/Inc/stm32f1xx_ll_i2c.h ****   */
 204:Drivers/STM32F1xx_HAL_Driver/Inc/stm32f1xx_ll_i2c.h **** #define LL_I2C_DIRECTION_WRITE              I2C_SR2_TRA             /*!< Bus is in write transfer *
 205:Drivers/STM32F1xx_HAL_Driver/Inc/stm32f1xx_ll_i2c.h **** #define LL_I2C_DIRECTION_READ               0x00000000U             /*!< Bus is in read transfer  *
 206:Drivers/STM32F1xx_HAL_Driver/Inc/stm32f1xx_ll_i2c.h **** /**
 207:Drivers/STM32F1xx_HAL_Driver/Inc/stm32f1xx_ll_i2c.h ****   * @}
 208:Drivers/STM32F1xx_HAL_Driver/Inc/stm32f1xx_ll_i2c.h ****   */
 209:Drivers/STM32F1xx_HAL_Driver/Inc/stm32f1xx_ll_i2c.h **** 
 210:Drivers/STM32F1xx_HAL_Driver/Inc/stm32f1xx_ll_i2c.h **** /**
 211:Drivers/STM32F1xx_HAL_Driver/Inc/stm32f1xx_ll_i2c.h ****   * @}
 212:Drivers/STM32F1xx_HAL_Driver/Inc/stm32f1xx_ll_i2c.h ****   */
 213:Drivers/STM32F1xx_HAL_Driver/Inc/stm32f1xx_ll_i2c.h **** 
 214:Drivers/STM32F1xx_HAL_Driver/Inc/stm32f1xx_ll_i2c.h **** /* Exported macro ------------------------------------------------------------*/
 215:Drivers/STM32F1xx_HAL_Driver/Inc/stm32f1xx_ll_i2c.h **** /** @defgroup I2C_LL_Exported_Macros I2C Exported Macros
 216:Drivers/STM32F1xx_HAL_Driver/Inc/stm32f1xx_ll_i2c.h ****   * @{
 217:Drivers/STM32F1xx_HAL_Driver/Inc/stm32f1xx_ll_i2c.h ****   */
 218:Drivers/STM32F1xx_HAL_Driver/Inc/stm32f1xx_ll_i2c.h **** 
 219:Drivers/STM32F1xx_HAL_Driver/Inc/stm32f1xx_ll_i2c.h **** /** @defgroup I2C_LL_EM_WRITE_READ Common Write and read registers Macros
 220:Drivers/STM32F1xx_HAL_Driver/Inc/stm32f1xx_ll_i2c.h ****   * @{
 221:Drivers/STM32F1xx_HAL_Driver/Inc/stm32f1xx_ll_i2c.h ****   */
 222:Drivers/STM32F1xx_HAL_Driver/Inc/stm32f1xx_ll_i2c.h **** 
 223:Drivers/STM32F1xx_HAL_Driver/Inc/stm32f1xx_ll_i2c.h **** /**
 224:Drivers/STM32F1xx_HAL_Driver/Inc/stm32f1xx_ll_i2c.h ****   * @brief  Write a value in I2C register
 225:Drivers/STM32F1xx_HAL_Driver/Inc/stm32f1xx_ll_i2c.h ****   * @param  __INSTANCE__ I2C Instance
 226:Drivers/STM32F1xx_HAL_Driver/Inc/stm32f1xx_ll_i2c.h ****   * @param  __REG__ Register to be written
 227:Drivers/STM32F1xx_HAL_Driver/Inc/stm32f1xx_ll_i2c.h ****   * @param  __VALUE__ Value to be written in the register
 228:Drivers/STM32F1xx_HAL_Driver/Inc/stm32f1xx_ll_i2c.h ****   * @retval None
 229:Drivers/STM32F1xx_HAL_Driver/Inc/stm32f1xx_ll_i2c.h ****   */
 230:Drivers/STM32F1xx_HAL_Driver/Inc/stm32f1xx_ll_i2c.h **** #define LL_I2C_WriteReg(__INSTANCE__, __REG__, __VALUE__) WRITE_REG(__INSTANCE__->__REG__, (__VALUE
 231:Drivers/STM32F1xx_HAL_Driver/Inc/stm32f1xx_ll_i2c.h **** 
 232:Drivers/STM32F1xx_HAL_Driver/Inc/stm32f1xx_ll_i2c.h **** /**
 233:Drivers/STM32F1xx_HAL_Driver/Inc/stm32f1xx_ll_i2c.h ****   * @brief  Read a value in I2C register
 234:Drivers/STM32F1xx_HAL_Driver/Inc/stm32f1xx_ll_i2c.h ****   * @param  __INSTANCE__ I2C Instance
 235:Drivers/STM32F1xx_HAL_Driver/Inc/stm32f1xx_ll_i2c.h ****   * @param  __REG__ Register to be read
 236:Drivers/STM32F1xx_HAL_Driver/Inc/stm32f1xx_ll_i2c.h ****   * @retval Register value
 237:Drivers/STM32F1xx_HAL_Driver/Inc/stm32f1xx_ll_i2c.h ****   */
 238:Drivers/STM32F1xx_HAL_Driver/Inc/stm32f1xx_ll_i2c.h **** #define LL_I2C_ReadReg(__INSTANCE__, __REG__) READ_REG(__INSTANCE__->__REG__)
 239:Drivers/STM32F1xx_HAL_Driver/Inc/stm32f1xx_ll_i2c.h **** /**
 240:Drivers/STM32F1xx_HAL_Driver/Inc/stm32f1xx_ll_i2c.h ****   * @}
 241:Drivers/STM32F1xx_HAL_Driver/Inc/stm32f1xx_ll_i2c.h ****   */
 242:Drivers/STM32F1xx_HAL_Driver/Inc/stm32f1xx_ll_i2c.h **** 
 243:Drivers/STM32F1xx_HAL_Driver/Inc/stm32f1xx_ll_i2c.h **** /** @defgroup I2C_LL_EM_Exported_Macros_Helper Exported Macros Helper
 244:Drivers/STM32F1xx_HAL_Driver/Inc/stm32f1xx_ll_i2c.h ****   * @{
 245:Drivers/STM32F1xx_HAL_Driver/Inc/stm32f1xx_ll_i2c.h ****   */
 246:Drivers/STM32F1xx_HAL_Driver/Inc/stm32f1xx_ll_i2c.h **** 
 247:Drivers/STM32F1xx_HAL_Driver/Inc/stm32f1xx_ll_i2c.h **** /**
 248:Drivers/STM32F1xx_HAL_Driver/Inc/stm32f1xx_ll_i2c.h ****   * @brief  Convert Peripheral Clock Frequency in Mhz.
 249:Drivers/STM32F1xx_HAL_Driver/Inc/stm32f1xx_ll_i2c.h ****   * @param  __PCLK__ This parameter must be a value of peripheral clock (in Hz).
 250:Drivers/STM32F1xx_HAL_Driver/Inc/stm32f1xx_ll_i2c.h ****   * @retval Value of peripheral clock (in Mhz)
 251:Drivers/STM32F1xx_HAL_Driver/Inc/stm32f1xx_ll_i2c.h ****   */
 252:Drivers/STM32F1xx_HAL_Driver/Inc/stm32f1xx_ll_i2c.h **** #define __LL_I2C_FREQ_HZ_TO_MHZ(__PCLK__)                               (uint32_t)((__PCLK__)/10000
 253:Drivers/STM32F1xx_HAL_Driver/Inc/stm32f1xx_ll_i2c.h **** 
 254:Drivers/STM32F1xx_HAL_Driver/Inc/stm32f1xx_ll_i2c.h **** /**
 255:Drivers/STM32F1xx_HAL_Driver/Inc/stm32f1xx_ll_i2c.h ****   * @brief  Convert Peripheral Clock Frequency in Hz.
 256:Drivers/STM32F1xx_HAL_Driver/Inc/stm32f1xx_ll_i2c.h ****   * @param  __PCLK__ This parameter must be a value of peripheral clock (in Mhz).
 257:Drivers/STM32F1xx_HAL_Driver/Inc/stm32f1xx_ll_i2c.h ****   * @retval Value of peripheral clock (in Hz)
ARM GAS  /tmp/cc8gkcIc.s 			page 8


 258:Drivers/STM32F1xx_HAL_Driver/Inc/stm32f1xx_ll_i2c.h ****   */
 259:Drivers/STM32F1xx_HAL_Driver/Inc/stm32f1xx_ll_i2c.h **** #define __LL_I2C_FREQ_MHZ_TO_HZ(__PCLK__)                               (uint32_t)((__PCLK__)*10000
 260:Drivers/STM32F1xx_HAL_Driver/Inc/stm32f1xx_ll_i2c.h **** 
 261:Drivers/STM32F1xx_HAL_Driver/Inc/stm32f1xx_ll_i2c.h **** /**
 262:Drivers/STM32F1xx_HAL_Driver/Inc/stm32f1xx_ll_i2c.h ****   * @brief  Compute I2C Clock rising time.
 263:Drivers/STM32F1xx_HAL_Driver/Inc/stm32f1xx_ll_i2c.h ****   * @param  __FREQRANGE__ This parameter must be a value of peripheral clock (in Mhz).
 264:Drivers/STM32F1xx_HAL_Driver/Inc/stm32f1xx_ll_i2c.h ****   * @param  __SPEED__ This parameter must be a value lower than 400kHz (in Hz).
 265:Drivers/STM32F1xx_HAL_Driver/Inc/stm32f1xx_ll_i2c.h ****   * @retval Value between Min_Data=0x02 and Max_Data=0x3F
 266:Drivers/STM32F1xx_HAL_Driver/Inc/stm32f1xx_ll_i2c.h ****   */
 267:Drivers/STM32F1xx_HAL_Driver/Inc/stm32f1xx_ll_i2c.h **** #define __LL_I2C_RISE_TIME(__FREQRANGE__, __SPEED__)                    (uint32_t)(((__SPEED__) <= 
 268:Drivers/STM32F1xx_HAL_Driver/Inc/stm32f1xx_ll_i2c.h **** 
 269:Drivers/STM32F1xx_HAL_Driver/Inc/stm32f1xx_ll_i2c.h **** /**
 270:Drivers/STM32F1xx_HAL_Driver/Inc/stm32f1xx_ll_i2c.h ****   * @brief  Compute Speed clock range to a Clock Control Register (I2C_CCR_CCR) value.
 271:Drivers/STM32F1xx_HAL_Driver/Inc/stm32f1xx_ll_i2c.h ****   * @param  __PCLK__ This parameter must be a value of peripheral clock (in Hz).
 272:Drivers/STM32F1xx_HAL_Driver/Inc/stm32f1xx_ll_i2c.h ****   * @param  __SPEED__ This parameter must be a value lower than 400kHz (in Hz).
 273:Drivers/STM32F1xx_HAL_Driver/Inc/stm32f1xx_ll_i2c.h ****   * @param  __DUTYCYCLE__ This parameter can be one of the following values:
 274:Drivers/STM32F1xx_HAL_Driver/Inc/stm32f1xx_ll_i2c.h ****   *         @arg @ref LL_I2C_DUTYCYCLE_2
 275:Drivers/STM32F1xx_HAL_Driver/Inc/stm32f1xx_ll_i2c.h ****   *         @arg @ref LL_I2C_DUTYCYCLE_16_9
 276:Drivers/STM32F1xx_HAL_Driver/Inc/stm32f1xx_ll_i2c.h ****   * @retval Value between Min_Data=0x004 and Max_Data=0xFFF, except in FAST DUTY mode where Min_Dat
 277:Drivers/STM32F1xx_HAL_Driver/Inc/stm32f1xx_ll_i2c.h ****   */
 278:Drivers/STM32F1xx_HAL_Driver/Inc/stm32f1xx_ll_i2c.h **** #define __LL_I2C_SPEED_TO_CCR(__PCLK__, __SPEED__, __DUTYCYCLE__)       (uint32_t)(((__SPEED__) <= 
 279:Drivers/STM32F1xx_HAL_Driver/Inc/stm32f1xx_ll_i2c.h ****                                                                                   (__LL_I2C_SPEED_S
 280:Drivers/STM32F1xx_HAL_Driver/Inc/stm32f1xx_ll_i2c.h ****                                                                                   (__LL_I2C_SPEED_F
 281:Drivers/STM32F1xx_HAL_Driver/Inc/stm32f1xx_ll_i2c.h **** 
 282:Drivers/STM32F1xx_HAL_Driver/Inc/stm32f1xx_ll_i2c.h **** /**
 283:Drivers/STM32F1xx_HAL_Driver/Inc/stm32f1xx_ll_i2c.h ****   * @brief  Compute Speed Standard clock range to a Clock Control Register (I2C_CCR_CCR) value.
 284:Drivers/STM32F1xx_HAL_Driver/Inc/stm32f1xx_ll_i2c.h ****   * @param  __PCLK__ This parameter must be a value of peripheral clock (in Hz).
 285:Drivers/STM32F1xx_HAL_Driver/Inc/stm32f1xx_ll_i2c.h ****   * @param  __SPEED__ This parameter must be a value lower than 100kHz (in Hz).
 286:Drivers/STM32F1xx_HAL_Driver/Inc/stm32f1xx_ll_i2c.h ****   * @retval Value between Min_Data=0x004 and Max_Data=0xFFF.
 287:Drivers/STM32F1xx_HAL_Driver/Inc/stm32f1xx_ll_i2c.h ****   */
 288:Drivers/STM32F1xx_HAL_Driver/Inc/stm32f1xx_ll_i2c.h **** #define __LL_I2C_SPEED_STANDARD_TO_CCR(__PCLK__, __SPEED__)             (uint32_t)(((((__PCLK__)/((
 289:Drivers/STM32F1xx_HAL_Driver/Inc/stm32f1xx_ll_i2c.h **** 
 290:Drivers/STM32F1xx_HAL_Driver/Inc/stm32f1xx_ll_i2c.h **** /**
 291:Drivers/STM32F1xx_HAL_Driver/Inc/stm32f1xx_ll_i2c.h ****   * @brief  Compute Speed Fast clock range to a Clock Control Register (I2C_CCR_CCR) value.
 292:Drivers/STM32F1xx_HAL_Driver/Inc/stm32f1xx_ll_i2c.h ****   * @param  __PCLK__ This parameter must be a value of peripheral clock (in Hz).
 293:Drivers/STM32F1xx_HAL_Driver/Inc/stm32f1xx_ll_i2c.h ****   * @param  __SPEED__ This parameter must be a value between Min_Data=100Khz and Max_Data=400Khz (i
 294:Drivers/STM32F1xx_HAL_Driver/Inc/stm32f1xx_ll_i2c.h ****   * @param  __DUTYCYCLE__ This parameter can be one of the following values:
 295:Drivers/STM32F1xx_HAL_Driver/Inc/stm32f1xx_ll_i2c.h ****   *         @arg @ref LL_I2C_DUTYCYCLE_2
 296:Drivers/STM32F1xx_HAL_Driver/Inc/stm32f1xx_ll_i2c.h ****   *         @arg @ref LL_I2C_DUTYCYCLE_16_9
 297:Drivers/STM32F1xx_HAL_Driver/Inc/stm32f1xx_ll_i2c.h ****   * @retval Value between Min_Data=0x001 and Max_Data=0xFFF
 298:Drivers/STM32F1xx_HAL_Driver/Inc/stm32f1xx_ll_i2c.h ****   */
 299:Drivers/STM32F1xx_HAL_Driver/Inc/stm32f1xx_ll_i2c.h **** #define __LL_I2C_SPEED_FAST_TO_CCR(__PCLK__, __SPEED__, __DUTYCYCLE__)  (uint32_t)(((__DUTYCYCLE__)
 300:Drivers/STM32F1xx_HAL_Driver/Inc/stm32f1xx_ll_i2c.h ****                                                                             (((((__PCLK__) / ((__SP
 301:Drivers/STM32F1xx_HAL_Driver/Inc/stm32f1xx_ll_i2c.h ****                                                                             (((((__PCLK__) / ((__SP
 302:Drivers/STM32F1xx_HAL_Driver/Inc/stm32f1xx_ll_i2c.h **** 
 303:Drivers/STM32F1xx_HAL_Driver/Inc/stm32f1xx_ll_i2c.h **** /**
 304:Drivers/STM32F1xx_HAL_Driver/Inc/stm32f1xx_ll_i2c.h ****   * @brief  Get the Least significant bits of a 10-Bits address.
 305:Drivers/STM32F1xx_HAL_Driver/Inc/stm32f1xx_ll_i2c.h ****   * @param  __ADDRESS__ This parameter must be a value of a 10-Bits slave address.
 306:Drivers/STM32F1xx_HAL_Driver/Inc/stm32f1xx_ll_i2c.h ****   * @retval Value between Min_Data=0x00 and Max_Data=0xFF
 307:Drivers/STM32F1xx_HAL_Driver/Inc/stm32f1xx_ll_i2c.h ****   */
 308:Drivers/STM32F1xx_HAL_Driver/Inc/stm32f1xx_ll_i2c.h **** #define __LL_I2C_10BIT_ADDRESS(__ADDRESS__)                             ((uint8_t)((uint16_t)((__AD
 309:Drivers/STM32F1xx_HAL_Driver/Inc/stm32f1xx_ll_i2c.h **** 
 310:Drivers/STM32F1xx_HAL_Driver/Inc/stm32f1xx_ll_i2c.h **** /**
 311:Drivers/STM32F1xx_HAL_Driver/Inc/stm32f1xx_ll_i2c.h ****   * @brief  Convert a 10-Bits address to a 10-Bits header with Write direction.
 312:Drivers/STM32F1xx_HAL_Driver/Inc/stm32f1xx_ll_i2c.h ****   * @param  __ADDRESS__ This parameter must be a value of a 10-Bits slave address.
 313:Drivers/STM32F1xx_HAL_Driver/Inc/stm32f1xx_ll_i2c.h ****   * @retval Value between Min_Data=0xF0 and Max_Data=0xF6
 314:Drivers/STM32F1xx_HAL_Driver/Inc/stm32f1xx_ll_i2c.h ****   */
ARM GAS  /tmp/cc8gkcIc.s 			page 9


 315:Drivers/STM32F1xx_HAL_Driver/Inc/stm32f1xx_ll_i2c.h **** #define __LL_I2C_10BIT_HEADER_WRITE(__ADDRESS__)                        ((uint8_t)((uint16_t)((uint
 316:Drivers/STM32F1xx_HAL_Driver/Inc/stm32f1xx_ll_i2c.h **** 
 317:Drivers/STM32F1xx_HAL_Driver/Inc/stm32f1xx_ll_i2c.h **** /**
 318:Drivers/STM32F1xx_HAL_Driver/Inc/stm32f1xx_ll_i2c.h ****   * @brief  Convert a 10-Bits address to a 10-Bits header with Read direction.
 319:Drivers/STM32F1xx_HAL_Driver/Inc/stm32f1xx_ll_i2c.h ****   * @param  __ADDRESS__ This parameter must be a value of a 10-Bits slave address.
 320:Drivers/STM32F1xx_HAL_Driver/Inc/stm32f1xx_ll_i2c.h ****   * @retval Value between Min_Data=0xF1 and Max_Data=0xF7
 321:Drivers/STM32F1xx_HAL_Driver/Inc/stm32f1xx_ll_i2c.h ****   */
 322:Drivers/STM32F1xx_HAL_Driver/Inc/stm32f1xx_ll_i2c.h **** #define __LL_I2C_10BIT_HEADER_READ(__ADDRESS__)                         ((uint8_t)((uint16_t)((uint
 323:Drivers/STM32F1xx_HAL_Driver/Inc/stm32f1xx_ll_i2c.h **** 
 324:Drivers/STM32F1xx_HAL_Driver/Inc/stm32f1xx_ll_i2c.h **** /**
 325:Drivers/STM32F1xx_HAL_Driver/Inc/stm32f1xx_ll_i2c.h ****   * @}
 326:Drivers/STM32F1xx_HAL_Driver/Inc/stm32f1xx_ll_i2c.h ****   */
 327:Drivers/STM32F1xx_HAL_Driver/Inc/stm32f1xx_ll_i2c.h **** 
 328:Drivers/STM32F1xx_HAL_Driver/Inc/stm32f1xx_ll_i2c.h **** /**
 329:Drivers/STM32F1xx_HAL_Driver/Inc/stm32f1xx_ll_i2c.h ****   * @}
 330:Drivers/STM32F1xx_HAL_Driver/Inc/stm32f1xx_ll_i2c.h ****   */
 331:Drivers/STM32F1xx_HAL_Driver/Inc/stm32f1xx_ll_i2c.h **** 
 332:Drivers/STM32F1xx_HAL_Driver/Inc/stm32f1xx_ll_i2c.h **** /* Exported functions --------------------------------------------------------*/
 333:Drivers/STM32F1xx_HAL_Driver/Inc/stm32f1xx_ll_i2c.h **** 
 334:Drivers/STM32F1xx_HAL_Driver/Inc/stm32f1xx_ll_i2c.h **** /** @defgroup I2C_LL_Exported_Functions I2C Exported Functions
 335:Drivers/STM32F1xx_HAL_Driver/Inc/stm32f1xx_ll_i2c.h ****   * @{
 336:Drivers/STM32F1xx_HAL_Driver/Inc/stm32f1xx_ll_i2c.h ****   */
 337:Drivers/STM32F1xx_HAL_Driver/Inc/stm32f1xx_ll_i2c.h **** 
 338:Drivers/STM32F1xx_HAL_Driver/Inc/stm32f1xx_ll_i2c.h **** /** @defgroup I2C_LL_EF_Configuration Configuration
 339:Drivers/STM32F1xx_HAL_Driver/Inc/stm32f1xx_ll_i2c.h ****   * @{
 340:Drivers/STM32F1xx_HAL_Driver/Inc/stm32f1xx_ll_i2c.h ****   */
 341:Drivers/STM32F1xx_HAL_Driver/Inc/stm32f1xx_ll_i2c.h **** 
 342:Drivers/STM32F1xx_HAL_Driver/Inc/stm32f1xx_ll_i2c.h **** /**
 343:Drivers/STM32F1xx_HAL_Driver/Inc/stm32f1xx_ll_i2c.h ****   * @brief  Enable I2C peripheral (PE = 1).
 344:Drivers/STM32F1xx_HAL_Driver/Inc/stm32f1xx_ll_i2c.h ****   * @rmtoll CR1          PE            LL_I2C_Enable
 345:Drivers/STM32F1xx_HAL_Driver/Inc/stm32f1xx_ll_i2c.h ****   * @param  I2Cx I2C Instance.
 346:Drivers/STM32F1xx_HAL_Driver/Inc/stm32f1xx_ll_i2c.h ****   * @retval None
 347:Drivers/STM32F1xx_HAL_Driver/Inc/stm32f1xx_ll_i2c.h ****   */
 348:Drivers/STM32F1xx_HAL_Driver/Inc/stm32f1xx_ll_i2c.h **** __STATIC_INLINE void LL_I2C_Enable(I2C_TypeDef *I2Cx)
 349:Drivers/STM32F1xx_HAL_Driver/Inc/stm32f1xx_ll_i2c.h **** {
 350:Drivers/STM32F1xx_HAL_Driver/Inc/stm32f1xx_ll_i2c.h ****   SET_BIT(I2Cx->CR1, I2C_CR1_PE);
 351:Drivers/STM32F1xx_HAL_Driver/Inc/stm32f1xx_ll_i2c.h **** }
 352:Drivers/STM32F1xx_HAL_Driver/Inc/stm32f1xx_ll_i2c.h **** 
 353:Drivers/STM32F1xx_HAL_Driver/Inc/stm32f1xx_ll_i2c.h **** /**
 354:Drivers/STM32F1xx_HAL_Driver/Inc/stm32f1xx_ll_i2c.h ****   * @brief  Disable I2C peripheral (PE = 0).
 355:Drivers/STM32F1xx_HAL_Driver/Inc/stm32f1xx_ll_i2c.h ****   * @rmtoll CR1          PE            LL_I2C_Disable
 356:Drivers/STM32F1xx_HAL_Driver/Inc/stm32f1xx_ll_i2c.h ****   * @param  I2Cx I2C Instance.
 357:Drivers/STM32F1xx_HAL_Driver/Inc/stm32f1xx_ll_i2c.h ****   * @retval None
 358:Drivers/STM32F1xx_HAL_Driver/Inc/stm32f1xx_ll_i2c.h ****   */
 359:Drivers/STM32F1xx_HAL_Driver/Inc/stm32f1xx_ll_i2c.h **** __STATIC_INLINE void LL_I2C_Disable(I2C_TypeDef *I2Cx)
 360:Drivers/STM32F1xx_HAL_Driver/Inc/stm32f1xx_ll_i2c.h **** {
 361:Drivers/STM32F1xx_HAL_Driver/Inc/stm32f1xx_ll_i2c.h ****   CLEAR_BIT(I2Cx->CR1, I2C_CR1_PE);
 362:Drivers/STM32F1xx_HAL_Driver/Inc/stm32f1xx_ll_i2c.h **** }
 363:Drivers/STM32F1xx_HAL_Driver/Inc/stm32f1xx_ll_i2c.h **** 
 364:Drivers/STM32F1xx_HAL_Driver/Inc/stm32f1xx_ll_i2c.h **** /**
 365:Drivers/STM32F1xx_HAL_Driver/Inc/stm32f1xx_ll_i2c.h ****   * @brief  Check if the I2C peripheral is enabled or disabled.
 366:Drivers/STM32F1xx_HAL_Driver/Inc/stm32f1xx_ll_i2c.h ****   * @rmtoll CR1          PE            LL_I2C_IsEnabled
 367:Drivers/STM32F1xx_HAL_Driver/Inc/stm32f1xx_ll_i2c.h ****   * @param  I2Cx I2C Instance.
 368:Drivers/STM32F1xx_HAL_Driver/Inc/stm32f1xx_ll_i2c.h ****   * @retval State of bit (1 or 0).
 369:Drivers/STM32F1xx_HAL_Driver/Inc/stm32f1xx_ll_i2c.h ****   */
 370:Drivers/STM32F1xx_HAL_Driver/Inc/stm32f1xx_ll_i2c.h **** __STATIC_INLINE uint32_t LL_I2C_IsEnabled(I2C_TypeDef *I2Cx)
 371:Drivers/STM32F1xx_HAL_Driver/Inc/stm32f1xx_ll_i2c.h **** {
ARM GAS  /tmp/cc8gkcIc.s 			page 10


 372:Drivers/STM32F1xx_HAL_Driver/Inc/stm32f1xx_ll_i2c.h ****   return (READ_BIT(I2Cx->CR1, I2C_CR1_PE) == (I2C_CR1_PE));
 373:Drivers/STM32F1xx_HAL_Driver/Inc/stm32f1xx_ll_i2c.h **** }
 374:Drivers/STM32F1xx_HAL_Driver/Inc/stm32f1xx_ll_i2c.h **** 
 375:Drivers/STM32F1xx_HAL_Driver/Inc/stm32f1xx_ll_i2c.h **** 
 376:Drivers/STM32F1xx_HAL_Driver/Inc/stm32f1xx_ll_i2c.h **** /**
 377:Drivers/STM32F1xx_HAL_Driver/Inc/stm32f1xx_ll_i2c.h ****   * @brief  Enable DMA transmission requests.
 378:Drivers/STM32F1xx_HAL_Driver/Inc/stm32f1xx_ll_i2c.h ****   * @rmtoll CR2          DMAEN         LL_I2C_EnableDMAReq_TX
 379:Drivers/STM32F1xx_HAL_Driver/Inc/stm32f1xx_ll_i2c.h ****   * @param  I2Cx I2C Instance.
 380:Drivers/STM32F1xx_HAL_Driver/Inc/stm32f1xx_ll_i2c.h ****   * @retval None
 381:Drivers/STM32F1xx_HAL_Driver/Inc/stm32f1xx_ll_i2c.h ****   */
 382:Drivers/STM32F1xx_HAL_Driver/Inc/stm32f1xx_ll_i2c.h **** __STATIC_INLINE void LL_I2C_EnableDMAReq_TX(I2C_TypeDef *I2Cx)
 383:Drivers/STM32F1xx_HAL_Driver/Inc/stm32f1xx_ll_i2c.h **** {
 384:Drivers/STM32F1xx_HAL_Driver/Inc/stm32f1xx_ll_i2c.h ****   SET_BIT(I2Cx->CR2, I2C_CR2_DMAEN);
 385:Drivers/STM32F1xx_HAL_Driver/Inc/stm32f1xx_ll_i2c.h **** }
 386:Drivers/STM32F1xx_HAL_Driver/Inc/stm32f1xx_ll_i2c.h **** 
 387:Drivers/STM32F1xx_HAL_Driver/Inc/stm32f1xx_ll_i2c.h **** /**
 388:Drivers/STM32F1xx_HAL_Driver/Inc/stm32f1xx_ll_i2c.h ****   * @brief  Disable DMA transmission requests.
 389:Drivers/STM32F1xx_HAL_Driver/Inc/stm32f1xx_ll_i2c.h ****   * @rmtoll CR2          DMAEN         LL_I2C_DisableDMAReq_TX
 390:Drivers/STM32F1xx_HAL_Driver/Inc/stm32f1xx_ll_i2c.h ****   * @param  I2Cx I2C Instance.
 391:Drivers/STM32F1xx_HAL_Driver/Inc/stm32f1xx_ll_i2c.h ****   * @retval None
 392:Drivers/STM32F1xx_HAL_Driver/Inc/stm32f1xx_ll_i2c.h ****   */
 393:Drivers/STM32F1xx_HAL_Driver/Inc/stm32f1xx_ll_i2c.h **** __STATIC_INLINE void LL_I2C_DisableDMAReq_TX(I2C_TypeDef *I2Cx)
 394:Drivers/STM32F1xx_HAL_Driver/Inc/stm32f1xx_ll_i2c.h **** {
 395:Drivers/STM32F1xx_HAL_Driver/Inc/stm32f1xx_ll_i2c.h ****   CLEAR_BIT(I2Cx->CR2, I2C_CR2_DMAEN);
 396:Drivers/STM32F1xx_HAL_Driver/Inc/stm32f1xx_ll_i2c.h **** }
 397:Drivers/STM32F1xx_HAL_Driver/Inc/stm32f1xx_ll_i2c.h **** 
 398:Drivers/STM32F1xx_HAL_Driver/Inc/stm32f1xx_ll_i2c.h **** /**
 399:Drivers/STM32F1xx_HAL_Driver/Inc/stm32f1xx_ll_i2c.h ****   * @brief  Check if DMA transmission requests are enabled or disabled.
 400:Drivers/STM32F1xx_HAL_Driver/Inc/stm32f1xx_ll_i2c.h ****   * @rmtoll CR2          DMAEN         LL_I2C_IsEnabledDMAReq_TX
 401:Drivers/STM32F1xx_HAL_Driver/Inc/stm32f1xx_ll_i2c.h ****   * @param  I2Cx I2C Instance.
 402:Drivers/STM32F1xx_HAL_Driver/Inc/stm32f1xx_ll_i2c.h ****   * @retval State of bit (1 or 0).
 403:Drivers/STM32F1xx_HAL_Driver/Inc/stm32f1xx_ll_i2c.h ****   */
 404:Drivers/STM32F1xx_HAL_Driver/Inc/stm32f1xx_ll_i2c.h **** __STATIC_INLINE uint32_t LL_I2C_IsEnabledDMAReq_TX(I2C_TypeDef *I2Cx)
 405:Drivers/STM32F1xx_HAL_Driver/Inc/stm32f1xx_ll_i2c.h **** {
 406:Drivers/STM32F1xx_HAL_Driver/Inc/stm32f1xx_ll_i2c.h ****   return (READ_BIT(I2Cx->CR2, I2C_CR2_DMAEN) == (I2C_CR2_DMAEN));
 407:Drivers/STM32F1xx_HAL_Driver/Inc/stm32f1xx_ll_i2c.h **** }
 408:Drivers/STM32F1xx_HAL_Driver/Inc/stm32f1xx_ll_i2c.h **** 
 409:Drivers/STM32F1xx_HAL_Driver/Inc/stm32f1xx_ll_i2c.h **** /**
 410:Drivers/STM32F1xx_HAL_Driver/Inc/stm32f1xx_ll_i2c.h ****   * @brief  Enable DMA reception requests.
 411:Drivers/STM32F1xx_HAL_Driver/Inc/stm32f1xx_ll_i2c.h ****   * @rmtoll CR2          DMAEN         LL_I2C_EnableDMAReq_RX
 412:Drivers/STM32F1xx_HAL_Driver/Inc/stm32f1xx_ll_i2c.h ****   * @param  I2Cx I2C Instance.
 413:Drivers/STM32F1xx_HAL_Driver/Inc/stm32f1xx_ll_i2c.h ****   * @retval None
 414:Drivers/STM32F1xx_HAL_Driver/Inc/stm32f1xx_ll_i2c.h ****   */
 415:Drivers/STM32F1xx_HAL_Driver/Inc/stm32f1xx_ll_i2c.h **** __STATIC_INLINE void LL_I2C_EnableDMAReq_RX(I2C_TypeDef *I2Cx)
 416:Drivers/STM32F1xx_HAL_Driver/Inc/stm32f1xx_ll_i2c.h **** {
 417:Drivers/STM32F1xx_HAL_Driver/Inc/stm32f1xx_ll_i2c.h ****   SET_BIT(I2Cx->CR2, I2C_CR2_DMAEN);
 418:Drivers/STM32F1xx_HAL_Driver/Inc/stm32f1xx_ll_i2c.h **** }
 419:Drivers/STM32F1xx_HAL_Driver/Inc/stm32f1xx_ll_i2c.h **** 
 420:Drivers/STM32F1xx_HAL_Driver/Inc/stm32f1xx_ll_i2c.h **** /**
 421:Drivers/STM32F1xx_HAL_Driver/Inc/stm32f1xx_ll_i2c.h ****   * @brief  Disable DMA reception requests.
 422:Drivers/STM32F1xx_HAL_Driver/Inc/stm32f1xx_ll_i2c.h ****   * @rmtoll CR2          DMAEN         LL_I2C_DisableDMAReq_RX
 423:Drivers/STM32F1xx_HAL_Driver/Inc/stm32f1xx_ll_i2c.h ****   * @param  I2Cx I2C Instance.
 424:Drivers/STM32F1xx_HAL_Driver/Inc/stm32f1xx_ll_i2c.h ****   * @retval None
 425:Drivers/STM32F1xx_HAL_Driver/Inc/stm32f1xx_ll_i2c.h ****   */
 426:Drivers/STM32F1xx_HAL_Driver/Inc/stm32f1xx_ll_i2c.h **** __STATIC_INLINE void LL_I2C_DisableDMAReq_RX(I2C_TypeDef *I2Cx)
 427:Drivers/STM32F1xx_HAL_Driver/Inc/stm32f1xx_ll_i2c.h **** {
 428:Drivers/STM32F1xx_HAL_Driver/Inc/stm32f1xx_ll_i2c.h ****   CLEAR_BIT(I2Cx->CR2, I2C_CR2_DMAEN);
ARM GAS  /tmp/cc8gkcIc.s 			page 11


 429:Drivers/STM32F1xx_HAL_Driver/Inc/stm32f1xx_ll_i2c.h **** }
 430:Drivers/STM32F1xx_HAL_Driver/Inc/stm32f1xx_ll_i2c.h **** 
 431:Drivers/STM32F1xx_HAL_Driver/Inc/stm32f1xx_ll_i2c.h **** /**
 432:Drivers/STM32F1xx_HAL_Driver/Inc/stm32f1xx_ll_i2c.h ****   * @brief  Check if DMA reception requests are enabled or disabled.
 433:Drivers/STM32F1xx_HAL_Driver/Inc/stm32f1xx_ll_i2c.h ****   * @rmtoll CR2          DMAEN         LL_I2C_IsEnabledDMAReq_RX
 434:Drivers/STM32F1xx_HAL_Driver/Inc/stm32f1xx_ll_i2c.h ****   * @param  I2Cx I2C Instance.
 435:Drivers/STM32F1xx_HAL_Driver/Inc/stm32f1xx_ll_i2c.h ****   * @retval State of bit (1 or 0).
 436:Drivers/STM32F1xx_HAL_Driver/Inc/stm32f1xx_ll_i2c.h ****   */
 437:Drivers/STM32F1xx_HAL_Driver/Inc/stm32f1xx_ll_i2c.h **** __STATIC_INLINE uint32_t LL_I2C_IsEnabledDMAReq_RX(I2C_TypeDef *I2Cx)
 438:Drivers/STM32F1xx_HAL_Driver/Inc/stm32f1xx_ll_i2c.h **** {
 439:Drivers/STM32F1xx_HAL_Driver/Inc/stm32f1xx_ll_i2c.h ****   return (READ_BIT(I2Cx->CR2, I2C_CR2_DMAEN) == (I2C_CR2_DMAEN));
 440:Drivers/STM32F1xx_HAL_Driver/Inc/stm32f1xx_ll_i2c.h **** }
 441:Drivers/STM32F1xx_HAL_Driver/Inc/stm32f1xx_ll_i2c.h **** 
 442:Drivers/STM32F1xx_HAL_Driver/Inc/stm32f1xx_ll_i2c.h **** /**
 443:Drivers/STM32F1xx_HAL_Driver/Inc/stm32f1xx_ll_i2c.h ****   * @brief  Get the data register address used for DMA transfer.
 444:Drivers/STM32F1xx_HAL_Driver/Inc/stm32f1xx_ll_i2c.h ****   * @rmtoll DR           DR            LL_I2C_DMA_GetRegAddr
 445:Drivers/STM32F1xx_HAL_Driver/Inc/stm32f1xx_ll_i2c.h ****   * @param  I2Cx I2C Instance.
 446:Drivers/STM32F1xx_HAL_Driver/Inc/stm32f1xx_ll_i2c.h ****   * @retval Address of data register
 447:Drivers/STM32F1xx_HAL_Driver/Inc/stm32f1xx_ll_i2c.h ****   */
 448:Drivers/STM32F1xx_HAL_Driver/Inc/stm32f1xx_ll_i2c.h **** __STATIC_INLINE uint32_t LL_I2C_DMA_GetRegAddr(I2C_TypeDef *I2Cx)
 449:Drivers/STM32F1xx_HAL_Driver/Inc/stm32f1xx_ll_i2c.h **** {
 450:Drivers/STM32F1xx_HAL_Driver/Inc/stm32f1xx_ll_i2c.h ****   return (uint32_t) & (I2Cx->DR);
 451:Drivers/STM32F1xx_HAL_Driver/Inc/stm32f1xx_ll_i2c.h **** }
 452:Drivers/STM32F1xx_HAL_Driver/Inc/stm32f1xx_ll_i2c.h **** 
 453:Drivers/STM32F1xx_HAL_Driver/Inc/stm32f1xx_ll_i2c.h **** /**
 454:Drivers/STM32F1xx_HAL_Driver/Inc/stm32f1xx_ll_i2c.h ****   * @brief  Enable Clock stretching.
 455:Drivers/STM32F1xx_HAL_Driver/Inc/stm32f1xx_ll_i2c.h ****   * @note   This bit can only be programmed when the I2C is disabled (PE = 0).
 456:Drivers/STM32F1xx_HAL_Driver/Inc/stm32f1xx_ll_i2c.h ****   * @rmtoll CR1          NOSTRETCH     LL_I2C_EnableClockStretching
 457:Drivers/STM32F1xx_HAL_Driver/Inc/stm32f1xx_ll_i2c.h ****   * @param  I2Cx I2C Instance.
 458:Drivers/STM32F1xx_HAL_Driver/Inc/stm32f1xx_ll_i2c.h ****   * @retval None
 459:Drivers/STM32F1xx_HAL_Driver/Inc/stm32f1xx_ll_i2c.h ****   */
 460:Drivers/STM32F1xx_HAL_Driver/Inc/stm32f1xx_ll_i2c.h **** __STATIC_INLINE void LL_I2C_EnableClockStretching(I2C_TypeDef *I2Cx)
 461:Drivers/STM32F1xx_HAL_Driver/Inc/stm32f1xx_ll_i2c.h **** {
 462:Drivers/STM32F1xx_HAL_Driver/Inc/stm32f1xx_ll_i2c.h ****   CLEAR_BIT(I2Cx->CR1, I2C_CR1_NOSTRETCH);
 463:Drivers/STM32F1xx_HAL_Driver/Inc/stm32f1xx_ll_i2c.h **** }
 464:Drivers/STM32F1xx_HAL_Driver/Inc/stm32f1xx_ll_i2c.h **** 
 465:Drivers/STM32F1xx_HAL_Driver/Inc/stm32f1xx_ll_i2c.h **** /**
 466:Drivers/STM32F1xx_HAL_Driver/Inc/stm32f1xx_ll_i2c.h ****   * @brief  Disable Clock stretching.
 467:Drivers/STM32F1xx_HAL_Driver/Inc/stm32f1xx_ll_i2c.h ****   * @note   This bit can only be programmed when the I2C is disabled (PE = 0).
 468:Drivers/STM32F1xx_HAL_Driver/Inc/stm32f1xx_ll_i2c.h ****   * @rmtoll CR1          NOSTRETCH     LL_I2C_DisableClockStretching
 469:Drivers/STM32F1xx_HAL_Driver/Inc/stm32f1xx_ll_i2c.h ****   * @param  I2Cx I2C Instance.
 470:Drivers/STM32F1xx_HAL_Driver/Inc/stm32f1xx_ll_i2c.h ****   * @retval None
 471:Drivers/STM32F1xx_HAL_Driver/Inc/stm32f1xx_ll_i2c.h ****   */
 472:Drivers/STM32F1xx_HAL_Driver/Inc/stm32f1xx_ll_i2c.h **** __STATIC_INLINE void LL_I2C_DisableClockStretching(I2C_TypeDef *I2Cx)
 473:Drivers/STM32F1xx_HAL_Driver/Inc/stm32f1xx_ll_i2c.h **** {
 474:Drivers/STM32F1xx_HAL_Driver/Inc/stm32f1xx_ll_i2c.h ****   SET_BIT(I2Cx->CR1, I2C_CR1_NOSTRETCH);
 475:Drivers/STM32F1xx_HAL_Driver/Inc/stm32f1xx_ll_i2c.h **** }
 476:Drivers/STM32F1xx_HAL_Driver/Inc/stm32f1xx_ll_i2c.h **** 
 477:Drivers/STM32F1xx_HAL_Driver/Inc/stm32f1xx_ll_i2c.h **** /**
 478:Drivers/STM32F1xx_HAL_Driver/Inc/stm32f1xx_ll_i2c.h ****   * @brief  Check if Clock stretching is enabled or disabled.
 479:Drivers/STM32F1xx_HAL_Driver/Inc/stm32f1xx_ll_i2c.h ****   * @rmtoll CR1          NOSTRETCH     LL_I2C_IsEnabledClockStretching
 480:Drivers/STM32F1xx_HAL_Driver/Inc/stm32f1xx_ll_i2c.h ****   * @param  I2Cx I2C Instance.
 481:Drivers/STM32F1xx_HAL_Driver/Inc/stm32f1xx_ll_i2c.h ****   * @retval State of bit (1 or 0).
 482:Drivers/STM32F1xx_HAL_Driver/Inc/stm32f1xx_ll_i2c.h ****   */
 483:Drivers/STM32F1xx_HAL_Driver/Inc/stm32f1xx_ll_i2c.h **** __STATIC_INLINE uint32_t LL_I2C_IsEnabledClockStretching(I2C_TypeDef *I2Cx)
 484:Drivers/STM32F1xx_HAL_Driver/Inc/stm32f1xx_ll_i2c.h **** {
 485:Drivers/STM32F1xx_HAL_Driver/Inc/stm32f1xx_ll_i2c.h ****   return (READ_BIT(I2Cx->CR1, I2C_CR1_NOSTRETCH) != (I2C_CR1_NOSTRETCH));
ARM GAS  /tmp/cc8gkcIc.s 			page 12


 486:Drivers/STM32F1xx_HAL_Driver/Inc/stm32f1xx_ll_i2c.h **** }
 487:Drivers/STM32F1xx_HAL_Driver/Inc/stm32f1xx_ll_i2c.h **** 
 488:Drivers/STM32F1xx_HAL_Driver/Inc/stm32f1xx_ll_i2c.h **** /**
 489:Drivers/STM32F1xx_HAL_Driver/Inc/stm32f1xx_ll_i2c.h ****   * @brief  Enable General Call.
 490:Drivers/STM32F1xx_HAL_Driver/Inc/stm32f1xx_ll_i2c.h ****   * @note   When enabled the Address 0x00 is ACKed.
 491:Drivers/STM32F1xx_HAL_Driver/Inc/stm32f1xx_ll_i2c.h ****   * @rmtoll CR1          ENGC          LL_I2C_EnableGeneralCall
 492:Drivers/STM32F1xx_HAL_Driver/Inc/stm32f1xx_ll_i2c.h ****   * @param  I2Cx I2C Instance.
 493:Drivers/STM32F1xx_HAL_Driver/Inc/stm32f1xx_ll_i2c.h ****   * @retval None
 494:Drivers/STM32F1xx_HAL_Driver/Inc/stm32f1xx_ll_i2c.h ****   */
 495:Drivers/STM32F1xx_HAL_Driver/Inc/stm32f1xx_ll_i2c.h **** __STATIC_INLINE void LL_I2C_EnableGeneralCall(I2C_TypeDef *I2Cx)
 496:Drivers/STM32F1xx_HAL_Driver/Inc/stm32f1xx_ll_i2c.h **** {
 497:Drivers/STM32F1xx_HAL_Driver/Inc/stm32f1xx_ll_i2c.h ****   SET_BIT(I2Cx->CR1, I2C_CR1_ENGC);
 498:Drivers/STM32F1xx_HAL_Driver/Inc/stm32f1xx_ll_i2c.h **** }
 499:Drivers/STM32F1xx_HAL_Driver/Inc/stm32f1xx_ll_i2c.h **** 
 500:Drivers/STM32F1xx_HAL_Driver/Inc/stm32f1xx_ll_i2c.h **** /**
 501:Drivers/STM32F1xx_HAL_Driver/Inc/stm32f1xx_ll_i2c.h ****   * @brief  Disable General Call.
 502:Drivers/STM32F1xx_HAL_Driver/Inc/stm32f1xx_ll_i2c.h ****   * @note   When disabled the Address 0x00 is NACKed.
 503:Drivers/STM32F1xx_HAL_Driver/Inc/stm32f1xx_ll_i2c.h ****   * @rmtoll CR1          ENGC          LL_I2C_DisableGeneralCall
 504:Drivers/STM32F1xx_HAL_Driver/Inc/stm32f1xx_ll_i2c.h ****   * @param  I2Cx I2C Instance.
 505:Drivers/STM32F1xx_HAL_Driver/Inc/stm32f1xx_ll_i2c.h ****   * @retval None
 506:Drivers/STM32F1xx_HAL_Driver/Inc/stm32f1xx_ll_i2c.h ****   */
 507:Drivers/STM32F1xx_HAL_Driver/Inc/stm32f1xx_ll_i2c.h **** __STATIC_INLINE void LL_I2C_DisableGeneralCall(I2C_TypeDef *I2Cx)
 508:Drivers/STM32F1xx_HAL_Driver/Inc/stm32f1xx_ll_i2c.h **** {
 509:Drivers/STM32F1xx_HAL_Driver/Inc/stm32f1xx_ll_i2c.h ****   CLEAR_BIT(I2Cx->CR1, I2C_CR1_ENGC);
 510:Drivers/STM32F1xx_HAL_Driver/Inc/stm32f1xx_ll_i2c.h **** }
 511:Drivers/STM32F1xx_HAL_Driver/Inc/stm32f1xx_ll_i2c.h **** 
 512:Drivers/STM32F1xx_HAL_Driver/Inc/stm32f1xx_ll_i2c.h **** /**
 513:Drivers/STM32F1xx_HAL_Driver/Inc/stm32f1xx_ll_i2c.h ****   * @brief  Check if General Call is enabled or disabled.
 514:Drivers/STM32F1xx_HAL_Driver/Inc/stm32f1xx_ll_i2c.h ****   * @rmtoll CR1          ENGC          LL_I2C_IsEnabledGeneralCall
 515:Drivers/STM32F1xx_HAL_Driver/Inc/stm32f1xx_ll_i2c.h ****   * @param  I2Cx I2C Instance.
 516:Drivers/STM32F1xx_HAL_Driver/Inc/stm32f1xx_ll_i2c.h ****   * @retval State of bit (1 or 0).
 517:Drivers/STM32F1xx_HAL_Driver/Inc/stm32f1xx_ll_i2c.h ****   */
 518:Drivers/STM32F1xx_HAL_Driver/Inc/stm32f1xx_ll_i2c.h **** __STATIC_INLINE uint32_t LL_I2C_IsEnabledGeneralCall(I2C_TypeDef *I2Cx)
 519:Drivers/STM32F1xx_HAL_Driver/Inc/stm32f1xx_ll_i2c.h **** {
 520:Drivers/STM32F1xx_HAL_Driver/Inc/stm32f1xx_ll_i2c.h ****   return (READ_BIT(I2Cx->CR1, I2C_CR1_ENGC) == (I2C_CR1_ENGC));
 521:Drivers/STM32F1xx_HAL_Driver/Inc/stm32f1xx_ll_i2c.h **** }
 522:Drivers/STM32F1xx_HAL_Driver/Inc/stm32f1xx_ll_i2c.h **** 
 523:Drivers/STM32F1xx_HAL_Driver/Inc/stm32f1xx_ll_i2c.h **** /**
 524:Drivers/STM32F1xx_HAL_Driver/Inc/stm32f1xx_ll_i2c.h ****   * @brief  Set the Own Address1.
 525:Drivers/STM32F1xx_HAL_Driver/Inc/stm32f1xx_ll_i2c.h ****   * @rmtoll OAR1         ADD0          LL_I2C_SetOwnAddress1\n
 526:Drivers/STM32F1xx_HAL_Driver/Inc/stm32f1xx_ll_i2c.h ****   *         OAR1         ADD1_7        LL_I2C_SetOwnAddress1\n
 527:Drivers/STM32F1xx_HAL_Driver/Inc/stm32f1xx_ll_i2c.h ****   *         OAR1         ADD8_9        LL_I2C_SetOwnAddress1\n
 528:Drivers/STM32F1xx_HAL_Driver/Inc/stm32f1xx_ll_i2c.h ****   *         OAR1         ADDMODE       LL_I2C_SetOwnAddress1
 529:Drivers/STM32F1xx_HAL_Driver/Inc/stm32f1xx_ll_i2c.h ****   * @param  I2Cx I2C Instance.
 530:Drivers/STM32F1xx_HAL_Driver/Inc/stm32f1xx_ll_i2c.h ****   * @param  OwnAddress1 This parameter must be a value between Min_Data=0 and Max_Data=0x3FF.
 531:Drivers/STM32F1xx_HAL_Driver/Inc/stm32f1xx_ll_i2c.h ****   * @param  OwnAddrSize This parameter can be one of the following values:
 532:Drivers/STM32F1xx_HAL_Driver/Inc/stm32f1xx_ll_i2c.h ****   *         @arg @ref LL_I2C_OWNADDRESS1_7BIT
 533:Drivers/STM32F1xx_HAL_Driver/Inc/stm32f1xx_ll_i2c.h ****   *         @arg @ref LL_I2C_OWNADDRESS1_10BIT
 534:Drivers/STM32F1xx_HAL_Driver/Inc/stm32f1xx_ll_i2c.h ****   * @retval None
 535:Drivers/STM32F1xx_HAL_Driver/Inc/stm32f1xx_ll_i2c.h ****   */
 536:Drivers/STM32F1xx_HAL_Driver/Inc/stm32f1xx_ll_i2c.h **** __STATIC_INLINE void LL_I2C_SetOwnAddress1(I2C_TypeDef *I2Cx, uint32_t OwnAddress1, uint32_t OwnAdd
 537:Drivers/STM32F1xx_HAL_Driver/Inc/stm32f1xx_ll_i2c.h **** {
 538:Drivers/STM32F1xx_HAL_Driver/Inc/stm32f1xx_ll_i2c.h ****   MODIFY_REG(I2Cx->OAR1, I2C_OAR1_ADD0 | I2C_OAR1_ADD1_7 | I2C_OAR1_ADD8_9 | I2C_OAR1_ADDMODE, OwnA
 539:Drivers/STM32F1xx_HAL_Driver/Inc/stm32f1xx_ll_i2c.h **** }
 540:Drivers/STM32F1xx_HAL_Driver/Inc/stm32f1xx_ll_i2c.h **** 
 541:Drivers/STM32F1xx_HAL_Driver/Inc/stm32f1xx_ll_i2c.h **** /**
 542:Drivers/STM32F1xx_HAL_Driver/Inc/stm32f1xx_ll_i2c.h ****   * @brief  Set the 7bits Own Address2.
ARM GAS  /tmp/cc8gkcIc.s 			page 13


 543:Drivers/STM32F1xx_HAL_Driver/Inc/stm32f1xx_ll_i2c.h ****   * @note   This action has no effect if own address2 is enabled.
 544:Drivers/STM32F1xx_HAL_Driver/Inc/stm32f1xx_ll_i2c.h ****   * @rmtoll OAR2         ADD2          LL_I2C_SetOwnAddress2
 545:Drivers/STM32F1xx_HAL_Driver/Inc/stm32f1xx_ll_i2c.h ****   * @param  I2Cx I2C Instance.
 546:Drivers/STM32F1xx_HAL_Driver/Inc/stm32f1xx_ll_i2c.h ****   * @param  OwnAddress2 This parameter must be a value between Min_Data=0 and Max_Data=0x7F.
 547:Drivers/STM32F1xx_HAL_Driver/Inc/stm32f1xx_ll_i2c.h ****   * @retval None
 548:Drivers/STM32F1xx_HAL_Driver/Inc/stm32f1xx_ll_i2c.h ****   */
 549:Drivers/STM32F1xx_HAL_Driver/Inc/stm32f1xx_ll_i2c.h **** __STATIC_INLINE void LL_I2C_SetOwnAddress2(I2C_TypeDef *I2Cx, uint32_t OwnAddress2)
 550:Drivers/STM32F1xx_HAL_Driver/Inc/stm32f1xx_ll_i2c.h **** {
 551:Drivers/STM32F1xx_HAL_Driver/Inc/stm32f1xx_ll_i2c.h ****   MODIFY_REG(I2Cx->OAR2, I2C_OAR2_ADD2, OwnAddress2);
 552:Drivers/STM32F1xx_HAL_Driver/Inc/stm32f1xx_ll_i2c.h **** }
 553:Drivers/STM32F1xx_HAL_Driver/Inc/stm32f1xx_ll_i2c.h **** 
 554:Drivers/STM32F1xx_HAL_Driver/Inc/stm32f1xx_ll_i2c.h **** /**
 555:Drivers/STM32F1xx_HAL_Driver/Inc/stm32f1xx_ll_i2c.h ****   * @brief  Enable acknowledge on Own Address2 match address.
 556:Drivers/STM32F1xx_HAL_Driver/Inc/stm32f1xx_ll_i2c.h ****   * @rmtoll OAR2         ENDUAL        LL_I2C_EnableOwnAddress2
 557:Drivers/STM32F1xx_HAL_Driver/Inc/stm32f1xx_ll_i2c.h ****   * @param  I2Cx I2C Instance.
 558:Drivers/STM32F1xx_HAL_Driver/Inc/stm32f1xx_ll_i2c.h ****   * @retval None
 559:Drivers/STM32F1xx_HAL_Driver/Inc/stm32f1xx_ll_i2c.h ****   */
 560:Drivers/STM32F1xx_HAL_Driver/Inc/stm32f1xx_ll_i2c.h **** __STATIC_INLINE void LL_I2C_EnableOwnAddress2(I2C_TypeDef *I2Cx)
 561:Drivers/STM32F1xx_HAL_Driver/Inc/stm32f1xx_ll_i2c.h **** {
 562:Drivers/STM32F1xx_HAL_Driver/Inc/stm32f1xx_ll_i2c.h ****   SET_BIT(I2Cx->OAR2, I2C_OAR2_ENDUAL);
 563:Drivers/STM32F1xx_HAL_Driver/Inc/stm32f1xx_ll_i2c.h **** }
 564:Drivers/STM32F1xx_HAL_Driver/Inc/stm32f1xx_ll_i2c.h **** 
 565:Drivers/STM32F1xx_HAL_Driver/Inc/stm32f1xx_ll_i2c.h **** /**
 566:Drivers/STM32F1xx_HAL_Driver/Inc/stm32f1xx_ll_i2c.h ****   * @brief  Disable  acknowledge on Own Address2 match address.
 567:Drivers/STM32F1xx_HAL_Driver/Inc/stm32f1xx_ll_i2c.h ****   * @rmtoll OAR2         ENDUAL        LL_I2C_DisableOwnAddress2
 568:Drivers/STM32F1xx_HAL_Driver/Inc/stm32f1xx_ll_i2c.h ****   * @param  I2Cx I2C Instance.
 569:Drivers/STM32F1xx_HAL_Driver/Inc/stm32f1xx_ll_i2c.h ****   * @retval None
 570:Drivers/STM32F1xx_HAL_Driver/Inc/stm32f1xx_ll_i2c.h ****   */
 571:Drivers/STM32F1xx_HAL_Driver/Inc/stm32f1xx_ll_i2c.h **** __STATIC_INLINE void LL_I2C_DisableOwnAddress2(I2C_TypeDef *I2Cx)
 572:Drivers/STM32F1xx_HAL_Driver/Inc/stm32f1xx_ll_i2c.h **** {
 573:Drivers/STM32F1xx_HAL_Driver/Inc/stm32f1xx_ll_i2c.h ****   CLEAR_BIT(I2Cx->OAR2, I2C_OAR2_ENDUAL);
 574:Drivers/STM32F1xx_HAL_Driver/Inc/stm32f1xx_ll_i2c.h **** }
 575:Drivers/STM32F1xx_HAL_Driver/Inc/stm32f1xx_ll_i2c.h **** 
 576:Drivers/STM32F1xx_HAL_Driver/Inc/stm32f1xx_ll_i2c.h **** /**
 577:Drivers/STM32F1xx_HAL_Driver/Inc/stm32f1xx_ll_i2c.h ****   * @brief  Check if Own Address1 acknowledge is enabled or disabled.
 578:Drivers/STM32F1xx_HAL_Driver/Inc/stm32f1xx_ll_i2c.h ****   * @rmtoll OAR2         ENDUAL        LL_I2C_IsEnabledOwnAddress2
 579:Drivers/STM32F1xx_HAL_Driver/Inc/stm32f1xx_ll_i2c.h ****   * @param  I2Cx I2C Instance.
 580:Drivers/STM32F1xx_HAL_Driver/Inc/stm32f1xx_ll_i2c.h ****   * @retval State of bit (1 or 0).
 581:Drivers/STM32F1xx_HAL_Driver/Inc/stm32f1xx_ll_i2c.h ****   */
 582:Drivers/STM32F1xx_HAL_Driver/Inc/stm32f1xx_ll_i2c.h **** __STATIC_INLINE uint32_t LL_I2C_IsEnabledOwnAddress2(I2C_TypeDef *I2Cx)
 583:Drivers/STM32F1xx_HAL_Driver/Inc/stm32f1xx_ll_i2c.h **** {
 584:Drivers/STM32F1xx_HAL_Driver/Inc/stm32f1xx_ll_i2c.h ****   return (READ_BIT(I2Cx->OAR2, I2C_OAR2_ENDUAL) == (I2C_OAR2_ENDUAL));
 585:Drivers/STM32F1xx_HAL_Driver/Inc/stm32f1xx_ll_i2c.h **** }
 586:Drivers/STM32F1xx_HAL_Driver/Inc/stm32f1xx_ll_i2c.h **** 
 587:Drivers/STM32F1xx_HAL_Driver/Inc/stm32f1xx_ll_i2c.h **** /**
 588:Drivers/STM32F1xx_HAL_Driver/Inc/stm32f1xx_ll_i2c.h ****   * @brief  Configure the Peripheral clock frequency.
 589:Drivers/STM32F1xx_HAL_Driver/Inc/stm32f1xx_ll_i2c.h ****   * @rmtoll CR2          FREQ          LL_I2C_SetPeriphClock
 590:Drivers/STM32F1xx_HAL_Driver/Inc/stm32f1xx_ll_i2c.h ****   * @param  I2Cx I2C Instance.
 591:Drivers/STM32F1xx_HAL_Driver/Inc/stm32f1xx_ll_i2c.h ****   * @param  PeriphClock Peripheral Clock (in Hz)
 592:Drivers/STM32F1xx_HAL_Driver/Inc/stm32f1xx_ll_i2c.h ****   * @retval None
 593:Drivers/STM32F1xx_HAL_Driver/Inc/stm32f1xx_ll_i2c.h ****   */
 594:Drivers/STM32F1xx_HAL_Driver/Inc/stm32f1xx_ll_i2c.h **** __STATIC_INLINE void LL_I2C_SetPeriphClock(I2C_TypeDef *I2Cx, uint32_t PeriphClock)
 595:Drivers/STM32F1xx_HAL_Driver/Inc/stm32f1xx_ll_i2c.h **** {
 596:Drivers/STM32F1xx_HAL_Driver/Inc/stm32f1xx_ll_i2c.h ****   MODIFY_REG(I2Cx->CR2, I2C_CR2_FREQ, __LL_I2C_FREQ_HZ_TO_MHZ(PeriphClock));
 597:Drivers/STM32F1xx_HAL_Driver/Inc/stm32f1xx_ll_i2c.h **** }
 598:Drivers/STM32F1xx_HAL_Driver/Inc/stm32f1xx_ll_i2c.h **** 
 599:Drivers/STM32F1xx_HAL_Driver/Inc/stm32f1xx_ll_i2c.h **** /**
ARM GAS  /tmp/cc8gkcIc.s 			page 14


 600:Drivers/STM32F1xx_HAL_Driver/Inc/stm32f1xx_ll_i2c.h ****   * @brief  Get the Peripheral clock frequency.
 601:Drivers/STM32F1xx_HAL_Driver/Inc/stm32f1xx_ll_i2c.h ****   * @rmtoll CR2          FREQ          LL_I2C_GetPeriphClock
 602:Drivers/STM32F1xx_HAL_Driver/Inc/stm32f1xx_ll_i2c.h ****   * @param  I2Cx I2C Instance.
 603:Drivers/STM32F1xx_HAL_Driver/Inc/stm32f1xx_ll_i2c.h ****   * @retval Value of Peripheral Clock (in Hz)
 604:Drivers/STM32F1xx_HAL_Driver/Inc/stm32f1xx_ll_i2c.h ****   */
 605:Drivers/STM32F1xx_HAL_Driver/Inc/stm32f1xx_ll_i2c.h **** __STATIC_INLINE uint32_t LL_I2C_GetPeriphClock(I2C_TypeDef *I2Cx)
 606:Drivers/STM32F1xx_HAL_Driver/Inc/stm32f1xx_ll_i2c.h **** {
 607:Drivers/STM32F1xx_HAL_Driver/Inc/stm32f1xx_ll_i2c.h ****   return (uint32_t)(__LL_I2C_FREQ_MHZ_TO_HZ(READ_BIT(I2Cx->CR2, I2C_CR2_FREQ)));
 608:Drivers/STM32F1xx_HAL_Driver/Inc/stm32f1xx_ll_i2c.h **** }
 609:Drivers/STM32F1xx_HAL_Driver/Inc/stm32f1xx_ll_i2c.h **** 
 610:Drivers/STM32F1xx_HAL_Driver/Inc/stm32f1xx_ll_i2c.h **** /**
 611:Drivers/STM32F1xx_HAL_Driver/Inc/stm32f1xx_ll_i2c.h ****   * @brief  Configure the Duty cycle (Fast mode only).
 612:Drivers/STM32F1xx_HAL_Driver/Inc/stm32f1xx_ll_i2c.h ****   * @rmtoll CCR          DUTY          LL_I2C_SetDutyCycle
 613:Drivers/STM32F1xx_HAL_Driver/Inc/stm32f1xx_ll_i2c.h ****   * @param  I2Cx I2C Instance.
 614:Drivers/STM32F1xx_HAL_Driver/Inc/stm32f1xx_ll_i2c.h ****   * @param  DutyCycle This parameter can be one of the following values:
 615:Drivers/STM32F1xx_HAL_Driver/Inc/stm32f1xx_ll_i2c.h ****   *         @arg @ref LL_I2C_DUTYCYCLE_2
 616:Drivers/STM32F1xx_HAL_Driver/Inc/stm32f1xx_ll_i2c.h ****   *         @arg @ref LL_I2C_DUTYCYCLE_16_9
 617:Drivers/STM32F1xx_HAL_Driver/Inc/stm32f1xx_ll_i2c.h ****   * @retval None
 618:Drivers/STM32F1xx_HAL_Driver/Inc/stm32f1xx_ll_i2c.h ****   */
 619:Drivers/STM32F1xx_HAL_Driver/Inc/stm32f1xx_ll_i2c.h **** __STATIC_INLINE void LL_I2C_SetDutyCycle(I2C_TypeDef *I2Cx, uint32_t DutyCycle)
 620:Drivers/STM32F1xx_HAL_Driver/Inc/stm32f1xx_ll_i2c.h **** {
 621:Drivers/STM32F1xx_HAL_Driver/Inc/stm32f1xx_ll_i2c.h ****   MODIFY_REG(I2Cx->CCR, I2C_CCR_DUTY, DutyCycle);
 622:Drivers/STM32F1xx_HAL_Driver/Inc/stm32f1xx_ll_i2c.h **** }
 623:Drivers/STM32F1xx_HAL_Driver/Inc/stm32f1xx_ll_i2c.h **** 
 624:Drivers/STM32F1xx_HAL_Driver/Inc/stm32f1xx_ll_i2c.h **** /**
 625:Drivers/STM32F1xx_HAL_Driver/Inc/stm32f1xx_ll_i2c.h ****   * @brief  Get the Duty cycle (Fast mode only).
 626:Drivers/STM32F1xx_HAL_Driver/Inc/stm32f1xx_ll_i2c.h ****   * @rmtoll CCR          DUTY          LL_I2C_GetDutyCycle
 627:Drivers/STM32F1xx_HAL_Driver/Inc/stm32f1xx_ll_i2c.h ****   * @param  I2Cx I2C Instance.
 628:Drivers/STM32F1xx_HAL_Driver/Inc/stm32f1xx_ll_i2c.h ****   * @retval Returned value can be one of the following values:
 629:Drivers/STM32F1xx_HAL_Driver/Inc/stm32f1xx_ll_i2c.h ****   *         @arg @ref LL_I2C_DUTYCYCLE_2
 630:Drivers/STM32F1xx_HAL_Driver/Inc/stm32f1xx_ll_i2c.h ****   *         @arg @ref LL_I2C_DUTYCYCLE_16_9
 631:Drivers/STM32F1xx_HAL_Driver/Inc/stm32f1xx_ll_i2c.h ****   */
 632:Drivers/STM32F1xx_HAL_Driver/Inc/stm32f1xx_ll_i2c.h **** __STATIC_INLINE uint32_t LL_I2C_GetDutyCycle(I2C_TypeDef *I2Cx)
 633:Drivers/STM32F1xx_HAL_Driver/Inc/stm32f1xx_ll_i2c.h **** {
 634:Drivers/STM32F1xx_HAL_Driver/Inc/stm32f1xx_ll_i2c.h ****   return (uint32_t)(READ_BIT(I2Cx->CCR, I2C_CCR_DUTY));
 635:Drivers/STM32F1xx_HAL_Driver/Inc/stm32f1xx_ll_i2c.h **** }
 636:Drivers/STM32F1xx_HAL_Driver/Inc/stm32f1xx_ll_i2c.h **** 
 637:Drivers/STM32F1xx_HAL_Driver/Inc/stm32f1xx_ll_i2c.h **** /**
 638:Drivers/STM32F1xx_HAL_Driver/Inc/stm32f1xx_ll_i2c.h ****   * @brief  Configure the I2C master clock speed mode.
 639:Drivers/STM32F1xx_HAL_Driver/Inc/stm32f1xx_ll_i2c.h ****   * @rmtoll CCR          FS            LL_I2C_SetClockSpeedMode
 640:Drivers/STM32F1xx_HAL_Driver/Inc/stm32f1xx_ll_i2c.h ****   * @param  I2Cx I2C Instance.
 641:Drivers/STM32F1xx_HAL_Driver/Inc/stm32f1xx_ll_i2c.h ****   * @param  ClockSpeedMode This parameter can be one of the following values:
 642:Drivers/STM32F1xx_HAL_Driver/Inc/stm32f1xx_ll_i2c.h ****   *         @arg @ref LL_I2C_CLOCK_SPEED_STANDARD_MODE
 643:Drivers/STM32F1xx_HAL_Driver/Inc/stm32f1xx_ll_i2c.h ****   *         @arg @ref LL_I2C_CLOCK_SPEED_FAST_MODE
 644:Drivers/STM32F1xx_HAL_Driver/Inc/stm32f1xx_ll_i2c.h ****   * @retval None
 645:Drivers/STM32F1xx_HAL_Driver/Inc/stm32f1xx_ll_i2c.h ****   */
 646:Drivers/STM32F1xx_HAL_Driver/Inc/stm32f1xx_ll_i2c.h **** __STATIC_INLINE void LL_I2C_SetClockSpeedMode(I2C_TypeDef *I2Cx, uint32_t ClockSpeedMode)
 647:Drivers/STM32F1xx_HAL_Driver/Inc/stm32f1xx_ll_i2c.h **** {
 648:Drivers/STM32F1xx_HAL_Driver/Inc/stm32f1xx_ll_i2c.h ****   MODIFY_REG(I2Cx->CCR, I2C_CCR_FS, ClockSpeedMode);
 649:Drivers/STM32F1xx_HAL_Driver/Inc/stm32f1xx_ll_i2c.h **** }
 650:Drivers/STM32F1xx_HAL_Driver/Inc/stm32f1xx_ll_i2c.h **** 
 651:Drivers/STM32F1xx_HAL_Driver/Inc/stm32f1xx_ll_i2c.h **** /**
 652:Drivers/STM32F1xx_HAL_Driver/Inc/stm32f1xx_ll_i2c.h ****   * @brief  Get the the I2C master speed mode.
 653:Drivers/STM32F1xx_HAL_Driver/Inc/stm32f1xx_ll_i2c.h ****   * @rmtoll CCR          FS            LL_I2C_GetClockSpeedMode
 654:Drivers/STM32F1xx_HAL_Driver/Inc/stm32f1xx_ll_i2c.h ****   * @param  I2Cx I2C Instance.
 655:Drivers/STM32F1xx_HAL_Driver/Inc/stm32f1xx_ll_i2c.h ****   * @retval Returned value can be one of the following values:
 656:Drivers/STM32F1xx_HAL_Driver/Inc/stm32f1xx_ll_i2c.h ****   *         @arg @ref LL_I2C_CLOCK_SPEED_STANDARD_MODE
ARM GAS  /tmp/cc8gkcIc.s 			page 15


 657:Drivers/STM32F1xx_HAL_Driver/Inc/stm32f1xx_ll_i2c.h ****   *         @arg @ref LL_I2C_CLOCK_SPEED_FAST_MODE
 658:Drivers/STM32F1xx_HAL_Driver/Inc/stm32f1xx_ll_i2c.h ****   */
 659:Drivers/STM32F1xx_HAL_Driver/Inc/stm32f1xx_ll_i2c.h **** __STATIC_INLINE uint32_t LL_I2C_GetClockSpeedMode(I2C_TypeDef *I2Cx)
 660:Drivers/STM32F1xx_HAL_Driver/Inc/stm32f1xx_ll_i2c.h **** {
 661:Drivers/STM32F1xx_HAL_Driver/Inc/stm32f1xx_ll_i2c.h ****   return (uint32_t)(READ_BIT(I2Cx->CCR, I2C_CCR_FS));
 662:Drivers/STM32F1xx_HAL_Driver/Inc/stm32f1xx_ll_i2c.h **** }
 663:Drivers/STM32F1xx_HAL_Driver/Inc/stm32f1xx_ll_i2c.h **** 
 664:Drivers/STM32F1xx_HAL_Driver/Inc/stm32f1xx_ll_i2c.h **** /**
 665:Drivers/STM32F1xx_HAL_Driver/Inc/stm32f1xx_ll_i2c.h ****   * @brief  Configure the SCL, SDA rising time.
 666:Drivers/STM32F1xx_HAL_Driver/Inc/stm32f1xx_ll_i2c.h ****   * @note   This bit can only be programmed when the I2C is disabled (PE = 0).
 667:Drivers/STM32F1xx_HAL_Driver/Inc/stm32f1xx_ll_i2c.h ****   * @rmtoll TRISE        TRISE         LL_I2C_SetRiseTime
 668:Drivers/STM32F1xx_HAL_Driver/Inc/stm32f1xx_ll_i2c.h ****   * @param  I2Cx I2C Instance.
 669:Drivers/STM32F1xx_HAL_Driver/Inc/stm32f1xx_ll_i2c.h ****   * @param  RiseTime This parameter must be a value between Min_Data=0x02 and Max_Data=0x3F.
 670:Drivers/STM32F1xx_HAL_Driver/Inc/stm32f1xx_ll_i2c.h ****   * @retval None
 671:Drivers/STM32F1xx_HAL_Driver/Inc/stm32f1xx_ll_i2c.h ****   */
 672:Drivers/STM32F1xx_HAL_Driver/Inc/stm32f1xx_ll_i2c.h **** __STATIC_INLINE void LL_I2C_SetRiseTime(I2C_TypeDef *I2Cx, uint32_t RiseTime)
 673:Drivers/STM32F1xx_HAL_Driver/Inc/stm32f1xx_ll_i2c.h **** {
 674:Drivers/STM32F1xx_HAL_Driver/Inc/stm32f1xx_ll_i2c.h ****   MODIFY_REG(I2Cx->TRISE, I2C_TRISE_TRISE, RiseTime);
 675:Drivers/STM32F1xx_HAL_Driver/Inc/stm32f1xx_ll_i2c.h **** }
 676:Drivers/STM32F1xx_HAL_Driver/Inc/stm32f1xx_ll_i2c.h **** 
 677:Drivers/STM32F1xx_HAL_Driver/Inc/stm32f1xx_ll_i2c.h **** /**
 678:Drivers/STM32F1xx_HAL_Driver/Inc/stm32f1xx_ll_i2c.h ****   * @brief  Get the SCL, SDA rising time.
 679:Drivers/STM32F1xx_HAL_Driver/Inc/stm32f1xx_ll_i2c.h ****   * @rmtoll TRISE        TRISE         LL_I2C_GetRiseTime
 680:Drivers/STM32F1xx_HAL_Driver/Inc/stm32f1xx_ll_i2c.h ****   * @param  I2Cx I2C Instance.
 681:Drivers/STM32F1xx_HAL_Driver/Inc/stm32f1xx_ll_i2c.h ****   * @retval Value between Min_Data=0x02 and Max_Data=0x3F
 682:Drivers/STM32F1xx_HAL_Driver/Inc/stm32f1xx_ll_i2c.h ****   */
 683:Drivers/STM32F1xx_HAL_Driver/Inc/stm32f1xx_ll_i2c.h **** __STATIC_INLINE uint32_t LL_I2C_GetRiseTime(I2C_TypeDef *I2Cx)
 684:Drivers/STM32F1xx_HAL_Driver/Inc/stm32f1xx_ll_i2c.h **** {
 685:Drivers/STM32F1xx_HAL_Driver/Inc/stm32f1xx_ll_i2c.h ****   return (uint32_t)(READ_BIT(I2Cx->TRISE, I2C_TRISE_TRISE));
 686:Drivers/STM32F1xx_HAL_Driver/Inc/stm32f1xx_ll_i2c.h **** }
 687:Drivers/STM32F1xx_HAL_Driver/Inc/stm32f1xx_ll_i2c.h **** 
 688:Drivers/STM32F1xx_HAL_Driver/Inc/stm32f1xx_ll_i2c.h **** /**
 689:Drivers/STM32F1xx_HAL_Driver/Inc/stm32f1xx_ll_i2c.h ****   * @brief  Configure the SCL high and low period.
 690:Drivers/STM32F1xx_HAL_Driver/Inc/stm32f1xx_ll_i2c.h ****   * @note   This bit can only be programmed when the I2C is disabled (PE = 0).
 691:Drivers/STM32F1xx_HAL_Driver/Inc/stm32f1xx_ll_i2c.h ****   * @rmtoll CCR          CCR           LL_I2C_SetClockPeriod
 692:Drivers/STM32F1xx_HAL_Driver/Inc/stm32f1xx_ll_i2c.h ****   * @param  I2Cx I2C Instance.
 693:Drivers/STM32F1xx_HAL_Driver/Inc/stm32f1xx_ll_i2c.h ****   * @param  ClockPeriod This parameter must be a value between Min_Data=0x004 and Max_Data=0xFFF, e
 694:Drivers/STM32F1xx_HAL_Driver/Inc/stm32f1xx_ll_i2c.h ****   * @retval None
 695:Drivers/STM32F1xx_HAL_Driver/Inc/stm32f1xx_ll_i2c.h ****   */
 696:Drivers/STM32F1xx_HAL_Driver/Inc/stm32f1xx_ll_i2c.h **** __STATIC_INLINE void LL_I2C_SetClockPeriod(I2C_TypeDef *I2Cx, uint32_t ClockPeriod)
 697:Drivers/STM32F1xx_HAL_Driver/Inc/stm32f1xx_ll_i2c.h **** {
 698:Drivers/STM32F1xx_HAL_Driver/Inc/stm32f1xx_ll_i2c.h ****   MODIFY_REG(I2Cx->CCR, I2C_CCR_CCR, ClockPeriod);
 699:Drivers/STM32F1xx_HAL_Driver/Inc/stm32f1xx_ll_i2c.h **** }
 700:Drivers/STM32F1xx_HAL_Driver/Inc/stm32f1xx_ll_i2c.h **** 
 701:Drivers/STM32F1xx_HAL_Driver/Inc/stm32f1xx_ll_i2c.h **** /**
 702:Drivers/STM32F1xx_HAL_Driver/Inc/stm32f1xx_ll_i2c.h ****   * @brief  Get the SCL high and low period.
 703:Drivers/STM32F1xx_HAL_Driver/Inc/stm32f1xx_ll_i2c.h ****   * @rmtoll CCR          CCR           LL_I2C_GetClockPeriod
 704:Drivers/STM32F1xx_HAL_Driver/Inc/stm32f1xx_ll_i2c.h ****   * @param  I2Cx I2C Instance.
 705:Drivers/STM32F1xx_HAL_Driver/Inc/stm32f1xx_ll_i2c.h ****   * @retval Value between Min_Data=0x004 and Max_Data=0xFFF, except in FAST DUTY mode where Min_Dat
 706:Drivers/STM32F1xx_HAL_Driver/Inc/stm32f1xx_ll_i2c.h ****   */
 707:Drivers/STM32F1xx_HAL_Driver/Inc/stm32f1xx_ll_i2c.h **** __STATIC_INLINE uint32_t LL_I2C_GetClockPeriod(I2C_TypeDef *I2Cx)
 708:Drivers/STM32F1xx_HAL_Driver/Inc/stm32f1xx_ll_i2c.h **** {
 709:Drivers/STM32F1xx_HAL_Driver/Inc/stm32f1xx_ll_i2c.h ****   return (uint32_t)(READ_BIT(I2Cx->CCR, I2C_CCR_CCR));
 710:Drivers/STM32F1xx_HAL_Driver/Inc/stm32f1xx_ll_i2c.h **** }
 711:Drivers/STM32F1xx_HAL_Driver/Inc/stm32f1xx_ll_i2c.h **** 
 712:Drivers/STM32F1xx_HAL_Driver/Inc/stm32f1xx_ll_i2c.h **** /**
 713:Drivers/STM32F1xx_HAL_Driver/Inc/stm32f1xx_ll_i2c.h ****   * @brief  Configure the SCL speed.
ARM GAS  /tmp/cc8gkcIc.s 			page 16


 714:Drivers/STM32F1xx_HAL_Driver/Inc/stm32f1xx_ll_i2c.h ****   * @note   This bit can only be programmed when the I2C is disabled (PE = 0).
 715:Drivers/STM32F1xx_HAL_Driver/Inc/stm32f1xx_ll_i2c.h ****   * @rmtoll CR2          FREQ          LL_I2C_ConfigSpeed\n
 716:Drivers/STM32F1xx_HAL_Driver/Inc/stm32f1xx_ll_i2c.h ****   *         TRISE        TRISE         LL_I2C_ConfigSpeed\n
 717:Drivers/STM32F1xx_HAL_Driver/Inc/stm32f1xx_ll_i2c.h ****   *         CCR          FS            LL_I2C_ConfigSpeed\n
 718:Drivers/STM32F1xx_HAL_Driver/Inc/stm32f1xx_ll_i2c.h ****   *         CCR          DUTY          LL_I2C_ConfigSpeed\n
 719:Drivers/STM32F1xx_HAL_Driver/Inc/stm32f1xx_ll_i2c.h ****   *         CCR          CCR           LL_I2C_ConfigSpeed
 720:Drivers/STM32F1xx_HAL_Driver/Inc/stm32f1xx_ll_i2c.h ****   * @param  I2Cx I2C Instance.
 721:Drivers/STM32F1xx_HAL_Driver/Inc/stm32f1xx_ll_i2c.h ****   * @param  PeriphClock Peripheral Clock (in Hz)
 722:Drivers/STM32F1xx_HAL_Driver/Inc/stm32f1xx_ll_i2c.h ****   * @param  ClockSpeed This parameter must be a value lower than 400kHz (in Hz).
 723:Drivers/STM32F1xx_HAL_Driver/Inc/stm32f1xx_ll_i2c.h ****   * @param  DutyCycle This parameter can be one of the following values:
 724:Drivers/STM32F1xx_HAL_Driver/Inc/stm32f1xx_ll_i2c.h ****   *         @arg @ref LL_I2C_DUTYCYCLE_2
 725:Drivers/STM32F1xx_HAL_Driver/Inc/stm32f1xx_ll_i2c.h ****   *         @arg @ref LL_I2C_DUTYCYCLE_16_9
 726:Drivers/STM32F1xx_HAL_Driver/Inc/stm32f1xx_ll_i2c.h ****   * @retval None
 727:Drivers/STM32F1xx_HAL_Driver/Inc/stm32f1xx_ll_i2c.h ****   */
 728:Drivers/STM32F1xx_HAL_Driver/Inc/stm32f1xx_ll_i2c.h **** __STATIC_INLINE void LL_I2C_ConfigSpeed(I2C_TypeDef *I2Cx, uint32_t PeriphClock, uint32_t ClockSpee
 729:Drivers/STM32F1xx_HAL_Driver/Inc/stm32f1xx_ll_i2c.h ****                                         uint32_t DutyCycle)
 730:Drivers/STM32F1xx_HAL_Driver/Inc/stm32f1xx_ll_i2c.h **** {
 731:Drivers/STM32F1xx_HAL_Driver/Inc/stm32f1xx_ll_i2c.h ****   uint32_t freqrange = 0x0U;
 732:Drivers/STM32F1xx_HAL_Driver/Inc/stm32f1xx_ll_i2c.h ****   uint32_t clockconfig = 0x0U;
 733:Drivers/STM32F1xx_HAL_Driver/Inc/stm32f1xx_ll_i2c.h **** 
 734:Drivers/STM32F1xx_HAL_Driver/Inc/stm32f1xx_ll_i2c.h ****   /* Compute frequency range */
 735:Drivers/STM32F1xx_HAL_Driver/Inc/stm32f1xx_ll_i2c.h ****   freqrange = __LL_I2C_FREQ_HZ_TO_MHZ(PeriphClock);
 736:Drivers/STM32F1xx_HAL_Driver/Inc/stm32f1xx_ll_i2c.h **** 
 737:Drivers/STM32F1xx_HAL_Driver/Inc/stm32f1xx_ll_i2c.h ****   /* Configure I2Cx: Frequency range register */
 738:Drivers/STM32F1xx_HAL_Driver/Inc/stm32f1xx_ll_i2c.h ****   MODIFY_REG(I2Cx->CR2, I2C_CR2_FREQ, freqrange);
 739:Drivers/STM32F1xx_HAL_Driver/Inc/stm32f1xx_ll_i2c.h **** 
 740:Drivers/STM32F1xx_HAL_Driver/Inc/stm32f1xx_ll_i2c.h ****   /* Configure I2Cx: Rise Time register */
 741:Drivers/STM32F1xx_HAL_Driver/Inc/stm32f1xx_ll_i2c.h ****   MODIFY_REG(I2Cx->TRISE, I2C_TRISE_TRISE, __LL_I2C_RISE_TIME(freqrange, ClockSpeed));
 742:Drivers/STM32F1xx_HAL_Driver/Inc/stm32f1xx_ll_i2c.h **** 
 743:Drivers/STM32F1xx_HAL_Driver/Inc/stm32f1xx_ll_i2c.h ****   /* Configure Speed mode, Duty Cycle and Clock control register value */
 744:Drivers/STM32F1xx_HAL_Driver/Inc/stm32f1xx_ll_i2c.h ****   if (ClockSpeed > LL_I2C_MAX_SPEED_STANDARD)
 745:Drivers/STM32F1xx_HAL_Driver/Inc/stm32f1xx_ll_i2c.h ****   {
 746:Drivers/STM32F1xx_HAL_Driver/Inc/stm32f1xx_ll_i2c.h ****     /* Set Speed mode at fast and duty cycle for Clock Speed request in fast clock range */
 747:Drivers/STM32F1xx_HAL_Driver/Inc/stm32f1xx_ll_i2c.h ****     clockconfig = LL_I2C_CLOCK_SPEED_FAST_MODE                                          | \
 748:Drivers/STM32F1xx_HAL_Driver/Inc/stm32f1xx_ll_i2c.h ****                   __LL_I2C_SPEED_FAST_TO_CCR(PeriphClock, ClockSpeed, DutyCycle)        | \
 749:Drivers/STM32F1xx_HAL_Driver/Inc/stm32f1xx_ll_i2c.h ****                   DutyCycle;
 750:Drivers/STM32F1xx_HAL_Driver/Inc/stm32f1xx_ll_i2c.h ****   }
 751:Drivers/STM32F1xx_HAL_Driver/Inc/stm32f1xx_ll_i2c.h ****   else
 752:Drivers/STM32F1xx_HAL_Driver/Inc/stm32f1xx_ll_i2c.h ****   {
 753:Drivers/STM32F1xx_HAL_Driver/Inc/stm32f1xx_ll_i2c.h ****     /* Set Speed mode at standard for Clock Speed request in standard clock range */
 754:Drivers/STM32F1xx_HAL_Driver/Inc/stm32f1xx_ll_i2c.h ****     clockconfig = LL_I2C_CLOCK_SPEED_STANDARD_MODE                                      | \
 755:Drivers/STM32F1xx_HAL_Driver/Inc/stm32f1xx_ll_i2c.h ****                   __LL_I2C_SPEED_STANDARD_TO_CCR(PeriphClock, ClockSpeed);
 756:Drivers/STM32F1xx_HAL_Driver/Inc/stm32f1xx_ll_i2c.h ****   }
 757:Drivers/STM32F1xx_HAL_Driver/Inc/stm32f1xx_ll_i2c.h **** 
 758:Drivers/STM32F1xx_HAL_Driver/Inc/stm32f1xx_ll_i2c.h ****   /* Configure I2Cx: Clock control register */
 759:Drivers/STM32F1xx_HAL_Driver/Inc/stm32f1xx_ll_i2c.h ****   MODIFY_REG(I2Cx->CCR, (I2C_CCR_FS | I2C_CCR_DUTY | I2C_CCR_CCR), clockconfig);
 760:Drivers/STM32F1xx_HAL_Driver/Inc/stm32f1xx_ll_i2c.h **** }
 761:Drivers/STM32F1xx_HAL_Driver/Inc/stm32f1xx_ll_i2c.h **** 
 762:Drivers/STM32F1xx_HAL_Driver/Inc/stm32f1xx_ll_i2c.h **** /**
 763:Drivers/STM32F1xx_HAL_Driver/Inc/stm32f1xx_ll_i2c.h ****   * @brief  Configure peripheral mode.
 764:Drivers/STM32F1xx_HAL_Driver/Inc/stm32f1xx_ll_i2c.h ****   * @note   Macro IS_SMBUS_ALL_INSTANCE(I2Cx) can be used to check whether or not
 765:Drivers/STM32F1xx_HAL_Driver/Inc/stm32f1xx_ll_i2c.h ****   *         SMBus feature is supported by the I2Cx Instance.
 766:Drivers/STM32F1xx_HAL_Driver/Inc/stm32f1xx_ll_i2c.h ****   * @rmtoll CR1          SMBUS         LL_I2C_SetMode\n
 767:Drivers/STM32F1xx_HAL_Driver/Inc/stm32f1xx_ll_i2c.h ****   *         CR1          SMBTYPE       LL_I2C_SetMode\n
 768:Drivers/STM32F1xx_HAL_Driver/Inc/stm32f1xx_ll_i2c.h ****   *         CR1          ENARP         LL_I2C_SetMode
 769:Drivers/STM32F1xx_HAL_Driver/Inc/stm32f1xx_ll_i2c.h ****   * @param  I2Cx I2C Instance.
 770:Drivers/STM32F1xx_HAL_Driver/Inc/stm32f1xx_ll_i2c.h ****   * @param  PeripheralMode This parameter can be one of the following values:
ARM GAS  /tmp/cc8gkcIc.s 			page 17


 771:Drivers/STM32F1xx_HAL_Driver/Inc/stm32f1xx_ll_i2c.h ****   *         @arg @ref LL_I2C_MODE_I2C
 772:Drivers/STM32F1xx_HAL_Driver/Inc/stm32f1xx_ll_i2c.h ****   *         @arg @ref LL_I2C_MODE_SMBUS_HOST
 773:Drivers/STM32F1xx_HAL_Driver/Inc/stm32f1xx_ll_i2c.h ****   *         @arg @ref LL_I2C_MODE_SMBUS_DEVICE
 774:Drivers/STM32F1xx_HAL_Driver/Inc/stm32f1xx_ll_i2c.h ****   *         @arg @ref LL_I2C_MODE_SMBUS_DEVICE_ARP
 775:Drivers/STM32F1xx_HAL_Driver/Inc/stm32f1xx_ll_i2c.h ****   * @retval None
 776:Drivers/STM32F1xx_HAL_Driver/Inc/stm32f1xx_ll_i2c.h ****   */
 777:Drivers/STM32F1xx_HAL_Driver/Inc/stm32f1xx_ll_i2c.h **** __STATIC_INLINE void LL_I2C_SetMode(I2C_TypeDef *I2Cx, uint32_t PeripheralMode)
 778:Drivers/STM32F1xx_HAL_Driver/Inc/stm32f1xx_ll_i2c.h **** {
 779:Drivers/STM32F1xx_HAL_Driver/Inc/stm32f1xx_ll_i2c.h ****   MODIFY_REG(I2Cx->CR1, I2C_CR1_SMBUS | I2C_CR1_SMBTYPE | I2C_CR1_ENARP, PeripheralMode);
 780:Drivers/STM32F1xx_HAL_Driver/Inc/stm32f1xx_ll_i2c.h **** }
 781:Drivers/STM32F1xx_HAL_Driver/Inc/stm32f1xx_ll_i2c.h **** 
 782:Drivers/STM32F1xx_HAL_Driver/Inc/stm32f1xx_ll_i2c.h **** /**
 783:Drivers/STM32F1xx_HAL_Driver/Inc/stm32f1xx_ll_i2c.h ****   * @brief  Get peripheral mode.
 784:Drivers/STM32F1xx_HAL_Driver/Inc/stm32f1xx_ll_i2c.h ****   * @note   Macro IS_SMBUS_ALL_INSTANCE(I2Cx) can be used to check whether or not
 785:Drivers/STM32F1xx_HAL_Driver/Inc/stm32f1xx_ll_i2c.h ****   *         SMBus feature is supported by the I2Cx Instance.
 786:Drivers/STM32F1xx_HAL_Driver/Inc/stm32f1xx_ll_i2c.h ****   * @rmtoll CR1          SMBUS         LL_I2C_GetMode\n
 787:Drivers/STM32F1xx_HAL_Driver/Inc/stm32f1xx_ll_i2c.h ****   *         CR1          SMBTYPE       LL_I2C_GetMode\n
 788:Drivers/STM32F1xx_HAL_Driver/Inc/stm32f1xx_ll_i2c.h ****   *         CR1          ENARP         LL_I2C_GetMode
 789:Drivers/STM32F1xx_HAL_Driver/Inc/stm32f1xx_ll_i2c.h ****   * @param  I2Cx I2C Instance.
 790:Drivers/STM32F1xx_HAL_Driver/Inc/stm32f1xx_ll_i2c.h ****   * @retval Returned value can be one of the following values:
 791:Drivers/STM32F1xx_HAL_Driver/Inc/stm32f1xx_ll_i2c.h ****   *         @arg @ref LL_I2C_MODE_I2C
 792:Drivers/STM32F1xx_HAL_Driver/Inc/stm32f1xx_ll_i2c.h ****   *         @arg @ref LL_I2C_MODE_SMBUS_HOST
 793:Drivers/STM32F1xx_HAL_Driver/Inc/stm32f1xx_ll_i2c.h ****   *         @arg @ref LL_I2C_MODE_SMBUS_DEVICE
 794:Drivers/STM32F1xx_HAL_Driver/Inc/stm32f1xx_ll_i2c.h ****   *         @arg @ref LL_I2C_MODE_SMBUS_DEVICE_ARP
 795:Drivers/STM32F1xx_HAL_Driver/Inc/stm32f1xx_ll_i2c.h ****   */
 796:Drivers/STM32F1xx_HAL_Driver/Inc/stm32f1xx_ll_i2c.h **** __STATIC_INLINE uint32_t LL_I2C_GetMode(I2C_TypeDef *I2Cx)
 797:Drivers/STM32F1xx_HAL_Driver/Inc/stm32f1xx_ll_i2c.h **** {
 798:Drivers/STM32F1xx_HAL_Driver/Inc/stm32f1xx_ll_i2c.h ****   return (uint32_t)(READ_BIT(I2Cx->CR1, I2C_CR1_SMBUS | I2C_CR1_SMBTYPE | I2C_CR1_ENARP));
 799:Drivers/STM32F1xx_HAL_Driver/Inc/stm32f1xx_ll_i2c.h **** }
 800:Drivers/STM32F1xx_HAL_Driver/Inc/stm32f1xx_ll_i2c.h **** 
 801:Drivers/STM32F1xx_HAL_Driver/Inc/stm32f1xx_ll_i2c.h **** /**
 802:Drivers/STM32F1xx_HAL_Driver/Inc/stm32f1xx_ll_i2c.h ****   * @brief  Enable SMBus alert (Host or Device mode)
 803:Drivers/STM32F1xx_HAL_Driver/Inc/stm32f1xx_ll_i2c.h ****   * @note   Macro IS_SMBUS_ALL_INSTANCE(I2Cx) can be used to check whether or not
 804:Drivers/STM32F1xx_HAL_Driver/Inc/stm32f1xx_ll_i2c.h ****   *         SMBus feature is supported by the I2Cx Instance.
 805:Drivers/STM32F1xx_HAL_Driver/Inc/stm32f1xx_ll_i2c.h ****   * @note   SMBus Device mode:
 806:Drivers/STM32F1xx_HAL_Driver/Inc/stm32f1xx_ll_i2c.h ****   *         - SMBus Alert pin is drived low and
 807:Drivers/STM32F1xx_HAL_Driver/Inc/stm32f1xx_ll_i2c.h ****   *           Alert Response Address Header acknowledge is enabled.
 808:Drivers/STM32F1xx_HAL_Driver/Inc/stm32f1xx_ll_i2c.h ****   *         SMBus Host mode:
 809:Drivers/STM32F1xx_HAL_Driver/Inc/stm32f1xx_ll_i2c.h ****   *         - SMBus Alert pin management is supported.
 810:Drivers/STM32F1xx_HAL_Driver/Inc/stm32f1xx_ll_i2c.h ****   * @rmtoll CR1          ALERT         LL_I2C_EnableSMBusAlert
 811:Drivers/STM32F1xx_HAL_Driver/Inc/stm32f1xx_ll_i2c.h ****   * @param  I2Cx I2C Instance.
 812:Drivers/STM32F1xx_HAL_Driver/Inc/stm32f1xx_ll_i2c.h ****   * @retval None
 813:Drivers/STM32F1xx_HAL_Driver/Inc/stm32f1xx_ll_i2c.h ****   */
 814:Drivers/STM32F1xx_HAL_Driver/Inc/stm32f1xx_ll_i2c.h **** __STATIC_INLINE void LL_I2C_EnableSMBusAlert(I2C_TypeDef *I2Cx)
 815:Drivers/STM32F1xx_HAL_Driver/Inc/stm32f1xx_ll_i2c.h **** {
 816:Drivers/STM32F1xx_HAL_Driver/Inc/stm32f1xx_ll_i2c.h ****   SET_BIT(I2Cx->CR1, I2C_CR1_ALERT);
 817:Drivers/STM32F1xx_HAL_Driver/Inc/stm32f1xx_ll_i2c.h **** }
 818:Drivers/STM32F1xx_HAL_Driver/Inc/stm32f1xx_ll_i2c.h **** 
 819:Drivers/STM32F1xx_HAL_Driver/Inc/stm32f1xx_ll_i2c.h **** /**
 820:Drivers/STM32F1xx_HAL_Driver/Inc/stm32f1xx_ll_i2c.h ****   * @brief  Disable SMBus alert (Host or Device mode)
 821:Drivers/STM32F1xx_HAL_Driver/Inc/stm32f1xx_ll_i2c.h ****   * @note   Macro IS_SMBUS_ALL_INSTANCE(I2Cx) can be used to check whether or not
 822:Drivers/STM32F1xx_HAL_Driver/Inc/stm32f1xx_ll_i2c.h ****   *         SMBus feature is supported by the I2Cx Instance.
 823:Drivers/STM32F1xx_HAL_Driver/Inc/stm32f1xx_ll_i2c.h ****   * @note   SMBus Device mode:
 824:Drivers/STM32F1xx_HAL_Driver/Inc/stm32f1xx_ll_i2c.h ****   *         - SMBus Alert pin is not drived (can be used as a standard GPIO) and
 825:Drivers/STM32F1xx_HAL_Driver/Inc/stm32f1xx_ll_i2c.h ****   *           Alert Response Address Header acknowledge is disabled.
 826:Drivers/STM32F1xx_HAL_Driver/Inc/stm32f1xx_ll_i2c.h ****   *         SMBus Host mode:
 827:Drivers/STM32F1xx_HAL_Driver/Inc/stm32f1xx_ll_i2c.h ****   *         - SMBus Alert pin management is not supported.
ARM GAS  /tmp/cc8gkcIc.s 			page 18


 828:Drivers/STM32F1xx_HAL_Driver/Inc/stm32f1xx_ll_i2c.h ****   * @rmtoll CR1          ALERT         LL_I2C_DisableSMBusAlert
 829:Drivers/STM32F1xx_HAL_Driver/Inc/stm32f1xx_ll_i2c.h ****   * @param  I2Cx I2C Instance.
 830:Drivers/STM32F1xx_HAL_Driver/Inc/stm32f1xx_ll_i2c.h ****   * @retval None
 831:Drivers/STM32F1xx_HAL_Driver/Inc/stm32f1xx_ll_i2c.h ****   */
 832:Drivers/STM32F1xx_HAL_Driver/Inc/stm32f1xx_ll_i2c.h **** __STATIC_INLINE void LL_I2C_DisableSMBusAlert(I2C_TypeDef *I2Cx)
 833:Drivers/STM32F1xx_HAL_Driver/Inc/stm32f1xx_ll_i2c.h **** {
 834:Drivers/STM32F1xx_HAL_Driver/Inc/stm32f1xx_ll_i2c.h ****   CLEAR_BIT(I2Cx->CR1, I2C_CR1_ALERT);
 835:Drivers/STM32F1xx_HAL_Driver/Inc/stm32f1xx_ll_i2c.h **** }
 836:Drivers/STM32F1xx_HAL_Driver/Inc/stm32f1xx_ll_i2c.h **** 
 837:Drivers/STM32F1xx_HAL_Driver/Inc/stm32f1xx_ll_i2c.h **** /**
 838:Drivers/STM32F1xx_HAL_Driver/Inc/stm32f1xx_ll_i2c.h ****   * @brief  Check if SMBus alert (Host or Device mode) is enabled or disabled.
 839:Drivers/STM32F1xx_HAL_Driver/Inc/stm32f1xx_ll_i2c.h ****   * @note   Macro IS_SMBUS_ALL_INSTANCE(I2Cx) can be used to check whether or not
 840:Drivers/STM32F1xx_HAL_Driver/Inc/stm32f1xx_ll_i2c.h ****   *         SMBus feature is supported by the I2Cx Instance.
 841:Drivers/STM32F1xx_HAL_Driver/Inc/stm32f1xx_ll_i2c.h ****   * @rmtoll CR1          ALERT         LL_I2C_IsEnabledSMBusAlert
 842:Drivers/STM32F1xx_HAL_Driver/Inc/stm32f1xx_ll_i2c.h ****   * @param  I2Cx I2C Instance.
 843:Drivers/STM32F1xx_HAL_Driver/Inc/stm32f1xx_ll_i2c.h ****   * @retval State of bit (1 or 0).
 844:Drivers/STM32F1xx_HAL_Driver/Inc/stm32f1xx_ll_i2c.h ****   */
 845:Drivers/STM32F1xx_HAL_Driver/Inc/stm32f1xx_ll_i2c.h **** __STATIC_INLINE uint32_t LL_I2C_IsEnabledSMBusAlert(I2C_TypeDef *I2Cx)
 846:Drivers/STM32F1xx_HAL_Driver/Inc/stm32f1xx_ll_i2c.h **** {
 847:Drivers/STM32F1xx_HAL_Driver/Inc/stm32f1xx_ll_i2c.h ****   return (READ_BIT(I2Cx->CR1, I2C_CR1_ALERT) == (I2C_CR1_ALERT));
 848:Drivers/STM32F1xx_HAL_Driver/Inc/stm32f1xx_ll_i2c.h **** }
 849:Drivers/STM32F1xx_HAL_Driver/Inc/stm32f1xx_ll_i2c.h **** 
 850:Drivers/STM32F1xx_HAL_Driver/Inc/stm32f1xx_ll_i2c.h **** /**
 851:Drivers/STM32F1xx_HAL_Driver/Inc/stm32f1xx_ll_i2c.h ****   * @brief  Enable SMBus Packet Error Calculation (PEC).
 852:Drivers/STM32F1xx_HAL_Driver/Inc/stm32f1xx_ll_i2c.h ****   * @note   Macro IS_SMBUS_ALL_INSTANCE(I2Cx) can be used to check whether or not
 853:Drivers/STM32F1xx_HAL_Driver/Inc/stm32f1xx_ll_i2c.h ****   *         SMBus feature is supported by the I2Cx Instance.
 854:Drivers/STM32F1xx_HAL_Driver/Inc/stm32f1xx_ll_i2c.h ****   * @rmtoll CR1          ENPEC         LL_I2C_EnableSMBusPEC
 855:Drivers/STM32F1xx_HAL_Driver/Inc/stm32f1xx_ll_i2c.h ****   * @param  I2Cx I2C Instance.
 856:Drivers/STM32F1xx_HAL_Driver/Inc/stm32f1xx_ll_i2c.h ****   * @retval None
 857:Drivers/STM32F1xx_HAL_Driver/Inc/stm32f1xx_ll_i2c.h ****   */
 858:Drivers/STM32F1xx_HAL_Driver/Inc/stm32f1xx_ll_i2c.h **** __STATIC_INLINE void LL_I2C_EnableSMBusPEC(I2C_TypeDef *I2Cx)
 859:Drivers/STM32F1xx_HAL_Driver/Inc/stm32f1xx_ll_i2c.h **** {
 860:Drivers/STM32F1xx_HAL_Driver/Inc/stm32f1xx_ll_i2c.h ****   SET_BIT(I2Cx->CR1, I2C_CR1_ENPEC);
 861:Drivers/STM32F1xx_HAL_Driver/Inc/stm32f1xx_ll_i2c.h **** }
 862:Drivers/STM32F1xx_HAL_Driver/Inc/stm32f1xx_ll_i2c.h **** 
 863:Drivers/STM32F1xx_HAL_Driver/Inc/stm32f1xx_ll_i2c.h **** /**
 864:Drivers/STM32F1xx_HAL_Driver/Inc/stm32f1xx_ll_i2c.h ****   * @brief  Disable SMBus Packet Error Calculation (PEC).
 865:Drivers/STM32F1xx_HAL_Driver/Inc/stm32f1xx_ll_i2c.h ****   * @note   Macro IS_SMBUS_ALL_INSTANCE(I2Cx) can be used to check whether or not
 866:Drivers/STM32F1xx_HAL_Driver/Inc/stm32f1xx_ll_i2c.h ****   *         SMBus feature is supported by the I2Cx Instance.
 867:Drivers/STM32F1xx_HAL_Driver/Inc/stm32f1xx_ll_i2c.h ****   * @rmtoll CR1          ENPEC         LL_I2C_DisableSMBusPEC
 868:Drivers/STM32F1xx_HAL_Driver/Inc/stm32f1xx_ll_i2c.h ****   * @param  I2Cx I2C Instance.
 869:Drivers/STM32F1xx_HAL_Driver/Inc/stm32f1xx_ll_i2c.h ****   * @retval None
 870:Drivers/STM32F1xx_HAL_Driver/Inc/stm32f1xx_ll_i2c.h ****   */
 871:Drivers/STM32F1xx_HAL_Driver/Inc/stm32f1xx_ll_i2c.h **** __STATIC_INLINE void LL_I2C_DisableSMBusPEC(I2C_TypeDef *I2Cx)
 872:Drivers/STM32F1xx_HAL_Driver/Inc/stm32f1xx_ll_i2c.h **** {
 873:Drivers/STM32F1xx_HAL_Driver/Inc/stm32f1xx_ll_i2c.h ****   CLEAR_BIT(I2Cx->CR1, I2C_CR1_ENPEC);
 874:Drivers/STM32F1xx_HAL_Driver/Inc/stm32f1xx_ll_i2c.h **** }
 875:Drivers/STM32F1xx_HAL_Driver/Inc/stm32f1xx_ll_i2c.h **** 
 876:Drivers/STM32F1xx_HAL_Driver/Inc/stm32f1xx_ll_i2c.h **** /**
 877:Drivers/STM32F1xx_HAL_Driver/Inc/stm32f1xx_ll_i2c.h ****   * @brief  Check if SMBus Packet Error Calculation (PEC) is enabled or disabled.
 878:Drivers/STM32F1xx_HAL_Driver/Inc/stm32f1xx_ll_i2c.h ****   * @note   Macro IS_SMBUS_ALL_INSTANCE(I2Cx) can be used to check whether or not
 879:Drivers/STM32F1xx_HAL_Driver/Inc/stm32f1xx_ll_i2c.h ****   *         SMBus feature is supported by the I2Cx Instance.
 880:Drivers/STM32F1xx_HAL_Driver/Inc/stm32f1xx_ll_i2c.h ****   * @rmtoll CR1          ENPEC         LL_I2C_IsEnabledSMBusPEC
 881:Drivers/STM32F1xx_HAL_Driver/Inc/stm32f1xx_ll_i2c.h ****   * @param  I2Cx I2C Instance.
 882:Drivers/STM32F1xx_HAL_Driver/Inc/stm32f1xx_ll_i2c.h ****   * @retval State of bit (1 or 0).
 883:Drivers/STM32F1xx_HAL_Driver/Inc/stm32f1xx_ll_i2c.h ****   */
 884:Drivers/STM32F1xx_HAL_Driver/Inc/stm32f1xx_ll_i2c.h **** __STATIC_INLINE uint32_t LL_I2C_IsEnabledSMBusPEC(I2C_TypeDef *I2Cx)
ARM GAS  /tmp/cc8gkcIc.s 			page 19


 885:Drivers/STM32F1xx_HAL_Driver/Inc/stm32f1xx_ll_i2c.h **** {
 886:Drivers/STM32F1xx_HAL_Driver/Inc/stm32f1xx_ll_i2c.h ****   return (READ_BIT(I2Cx->CR1, I2C_CR1_ENPEC) == (I2C_CR1_ENPEC));
 887:Drivers/STM32F1xx_HAL_Driver/Inc/stm32f1xx_ll_i2c.h **** }
 888:Drivers/STM32F1xx_HAL_Driver/Inc/stm32f1xx_ll_i2c.h **** 
 889:Drivers/STM32F1xx_HAL_Driver/Inc/stm32f1xx_ll_i2c.h **** /**
 890:Drivers/STM32F1xx_HAL_Driver/Inc/stm32f1xx_ll_i2c.h ****   * @}
 891:Drivers/STM32F1xx_HAL_Driver/Inc/stm32f1xx_ll_i2c.h ****   */
 892:Drivers/STM32F1xx_HAL_Driver/Inc/stm32f1xx_ll_i2c.h **** 
 893:Drivers/STM32F1xx_HAL_Driver/Inc/stm32f1xx_ll_i2c.h **** /** @defgroup I2C_LL_EF_IT_Management IT_Management
 894:Drivers/STM32F1xx_HAL_Driver/Inc/stm32f1xx_ll_i2c.h ****   * @{
 895:Drivers/STM32F1xx_HAL_Driver/Inc/stm32f1xx_ll_i2c.h ****   */
 896:Drivers/STM32F1xx_HAL_Driver/Inc/stm32f1xx_ll_i2c.h **** 
 897:Drivers/STM32F1xx_HAL_Driver/Inc/stm32f1xx_ll_i2c.h **** /**
 898:Drivers/STM32F1xx_HAL_Driver/Inc/stm32f1xx_ll_i2c.h ****   * @brief  Enable TXE interrupt.
 899:Drivers/STM32F1xx_HAL_Driver/Inc/stm32f1xx_ll_i2c.h ****   * @rmtoll CR2          ITEVTEN       LL_I2C_EnableIT_TX\n
 900:Drivers/STM32F1xx_HAL_Driver/Inc/stm32f1xx_ll_i2c.h ****   *         CR2          ITBUFEN       LL_I2C_EnableIT_TX
 901:Drivers/STM32F1xx_HAL_Driver/Inc/stm32f1xx_ll_i2c.h ****   * @param  I2Cx I2C Instance.
 902:Drivers/STM32F1xx_HAL_Driver/Inc/stm32f1xx_ll_i2c.h ****   * @retval None
 903:Drivers/STM32F1xx_HAL_Driver/Inc/stm32f1xx_ll_i2c.h ****   */
 904:Drivers/STM32F1xx_HAL_Driver/Inc/stm32f1xx_ll_i2c.h **** __STATIC_INLINE void LL_I2C_EnableIT_TX(I2C_TypeDef *I2Cx)
 905:Drivers/STM32F1xx_HAL_Driver/Inc/stm32f1xx_ll_i2c.h **** {
 906:Drivers/STM32F1xx_HAL_Driver/Inc/stm32f1xx_ll_i2c.h ****   SET_BIT(I2Cx->CR2, I2C_CR2_ITEVTEN | I2C_CR2_ITBUFEN);
 907:Drivers/STM32F1xx_HAL_Driver/Inc/stm32f1xx_ll_i2c.h **** }
 908:Drivers/STM32F1xx_HAL_Driver/Inc/stm32f1xx_ll_i2c.h **** 
 909:Drivers/STM32F1xx_HAL_Driver/Inc/stm32f1xx_ll_i2c.h **** /**
 910:Drivers/STM32F1xx_HAL_Driver/Inc/stm32f1xx_ll_i2c.h ****   * @brief  Disable TXE interrupt.
 911:Drivers/STM32F1xx_HAL_Driver/Inc/stm32f1xx_ll_i2c.h ****   * @rmtoll CR2          ITEVTEN       LL_I2C_DisableIT_TX\n
 912:Drivers/STM32F1xx_HAL_Driver/Inc/stm32f1xx_ll_i2c.h ****   *         CR2          ITBUFEN       LL_I2C_DisableIT_TX
 913:Drivers/STM32F1xx_HAL_Driver/Inc/stm32f1xx_ll_i2c.h ****   * @param  I2Cx I2C Instance.
 914:Drivers/STM32F1xx_HAL_Driver/Inc/stm32f1xx_ll_i2c.h ****   * @retval None
 915:Drivers/STM32F1xx_HAL_Driver/Inc/stm32f1xx_ll_i2c.h ****   */
 916:Drivers/STM32F1xx_HAL_Driver/Inc/stm32f1xx_ll_i2c.h **** __STATIC_INLINE void LL_I2C_DisableIT_TX(I2C_TypeDef *I2Cx)
 917:Drivers/STM32F1xx_HAL_Driver/Inc/stm32f1xx_ll_i2c.h **** {
 918:Drivers/STM32F1xx_HAL_Driver/Inc/stm32f1xx_ll_i2c.h ****   CLEAR_BIT(I2Cx->CR2, I2C_CR2_ITEVTEN | I2C_CR2_ITBUFEN);
 919:Drivers/STM32F1xx_HAL_Driver/Inc/stm32f1xx_ll_i2c.h **** }
 920:Drivers/STM32F1xx_HAL_Driver/Inc/stm32f1xx_ll_i2c.h **** 
 921:Drivers/STM32F1xx_HAL_Driver/Inc/stm32f1xx_ll_i2c.h **** /**
 922:Drivers/STM32F1xx_HAL_Driver/Inc/stm32f1xx_ll_i2c.h ****   * @brief  Check if the TXE Interrupt is enabled or disabled.
 923:Drivers/STM32F1xx_HAL_Driver/Inc/stm32f1xx_ll_i2c.h ****   * @rmtoll CR2          ITEVTEN       LL_I2C_IsEnabledIT_TX\n
 924:Drivers/STM32F1xx_HAL_Driver/Inc/stm32f1xx_ll_i2c.h ****   *         CR2          ITBUFEN       LL_I2C_IsEnabledIT_TX
 925:Drivers/STM32F1xx_HAL_Driver/Inc/stm32f1xx_ll_i2c.h ****   * @param  I2Cx I2C Instance.
 926:Drivers/STM32F1xx_HAL_Driver/Inc/stm32f1xx_ll_i2c.h ****   * @retval State of bit (1 or 0).
 927:Drivers/STM32F1xx_HAL_Driver/Inc/stm32f1xx_ll_i2c.h ****   */
 928:Drivers/STM32F1xx_HAL_Driver/Inc/stm32f1xx_ll_i2c.h **** __STATIC_INLINE uint32_t LL_I2C_IsEnabledIT_TX(I2C_TypeDef *I2Cx)
 929:Drivers/STM32F1xx_HAL_Driver/Inc/stm32f1xx_ll_i2c.h **** {
 930:Drivers/STM32F1xx_HAL_Driver/Inc/stm32f1xx_ll_i2c.h ****   return (READ_BIT(I2Cx->CR2, I2C_CR2_ITEVTEN | I2C_CR2_ITBUFEN) == (I2C_CR2_ITEVTEN | I2C_CR2_ITBU
 931:Drivers/STM32F1xx_HAL_Driver/Inc/stm32f1xx_ll_i2c.h **** }
 932:Drivers/STM32F1xx_HAL_Driver/Inc/stm32f1xx_ll_i2c.h **** 
 933:Drivers/STM32F1xx_HAL_Driver/Inc/stm32f1xx_ll_i2c.h **** /**
 934:Drivers/STM32F1xx_HAL_Driver/Inc/stm32f1xx_ll_i2c.h ****   * @brief  Enable RXNE interrupt.
 935:Drivers/STM32F1xx_HAL_Driver/Inc/stm32f1xx_ll_i2c.h ****   * @rmtoll CR2          ITEVTEN       LL_I2C_EnableIT_RX\n
 936:Drivers/STM32F1xx_HAL_Driver/Inc/stm32f1xx_ll_i2c.h ****   *         CR2          ITBUFEN       LL_I2C_EnableIT_RX
 937:Drivers/STM32F1xx_HAL_Driver/Inc/stm32f1xx_ll_i2c.h ****   * @param  I2Cx I2C Instance.
 938:Drivers/STM32F1xx_HAL_Driver/Inc/stm32f1xx_ll_i2c.h ****   * @retval None
 939:Drivers/STM32F1xx_HAL_Driver/Inc/stm32f1xx_ll_i2c.h ****   */
 940:Drivers/STM32F1xx_HAL_Driver/Inc/stm32f1xx_ll_i2c.h **** __STATIC_INLINE void LL_I2C_EnableIT_RX(I2C_TypeDef *I2Cx)
 941:Drivers/STM32F1xx_HAL_Driver/Inc/stm32f1xx_ll_i2c.h **** {
ARM GAS  /tmp/cc8gkcIc.s 			page 20


 942:Drivers/STM32F1xx_HAL_Driver/Inc/stm32f1xx_ll_i2c.h ****   SET_BIT(I2Cx->CR2, I2C_CR2_ITEVTEN | I2C_CR2_ITBUFEN);
 943:Drivers/STM32F1xx_HAL_Driver/Inc/stm32f1xx_ll_i2c.h **** }
 944:Drivers/STM32F1xx_HAL_Driver/Inc/stm32f1xx_ll_i2c.h **** 
 945:Drivers/STM32F1xx_HAL_Driver/Inc/stm32f1xx_ll_i2c.h **** /**
 946:Drivers/STM32F1xx_HAL_Driver/Inc/stm32f1xx_ll_i2c.h ****   * @brief  Disable RXNE interrupt.
 947:Drivers/STM32F1xx_HAL_Driver/Inc/stm32f1xx_ll_i2c.h ****   * @rmtoll CR2          ITEVTEN       LL_I2C_DisableIT_RX\n
 948:Drivers/STM32F1xx_HAL_Driver/Inc/stm32f1xx_ll_i2c.h ****   *         CR2          ITBUFEN       LL_I2C_DisableIT_RX
 949:Drivers/STM32F1xx_HAL_Driver/Inc/stm32f1xx_ll_i2c.h ****   * @param  I2Cx I2C Instance.
 950:Drivers/STM32F1xx_HAL_Driver/Inc/stm32f1xx_ll_i2c.h ****   * @retval None
 951:Drivers/STM32F1xx_HAL_Driver/Inc/stm32f1xx_ll_i2c.h ****   */
 952:Drivers/STM32F1xx_HAL_Driver/Inc/stm32f1xx_ll_i2c.h **** __STATIC_INLINE void LL_I2C_DisableIT_RX(I2C_TypeDef *I2Cx)
 953:Drivers/STM32F1xx_HAL_Driver/Inc/stm32f1xx_ll_i2c.h **** {
 954:Drivers/STM32F1xx_HAL_Driver/Inc/stm32f1xx_ll_i2c.h ****   CLEAR_BIT(I2Cx->CR2, I2C_CR2_ITEVTEN | I2C_CR2_ITBUFEN);
 955:Drivers/STM32F1xx_HAL_Driver/Inc/stm32f1xx_ll_i2c.h **** }
 956:Drivers/STM32F1xx_HAL_Driver/Inc/stm32f1xx_ll_i2c.h **** 
 957:Drivers/STM32F1xx_HAL_Driver/Inc/stm32f1xx_ll_i2c.h **** /**
 958:Drivers/STM32F1xx_HAL_Driver/Inc/stm32f1xx_ll_i2c.h ****   * @brief  Check if the RXNE Interrupt is enabled or disabled.
 959:Drivers/STM32F1xx_HAL_Driver/Inc/stm32f1xx_ll_i2c.h ****   * @rmtoll CR2          ITEVTEN       LL_I2C_IsEnabledIT_RX\n
 960:Drivers/STM32F1xx_HAL_Driver/Inc/stm32f1xx_ll_i2c.h ****   *         CR2          ITBUFEN       LL_I2C_IsEnabledIT_RX
 961:Drivers/STM32F1xx_HAL_Driver/Inc/stm32f1xx_ll_i2c.h ****   * @param  I2Cx I2C Instance.
 962:Drivers/STM32F1xx_HAL_Driver/Inc/stm32f1xx_ll_i2c.h ****   * @retval State of bit (1 or 0).
 963:Drivers/STM32F1xx_HAL_Driver/Inc/stm32f1xx_ll_i2c.h ****   */
 964:Drivers/STM32F1xx_HAL_Driver/Inc/stm32f1xx_ll_i2c.h **** __STATIC_INLINE uint32_t LL_I2C_IsEnabledIT_RX(I2C_TypeDef *I2Cx)
 965:Drivers/STM32F1xx_HAL_Driver/Inc/stm32f1xx_ll_i2c.h **** {
 966:Drivers/STM32F1xx_HAL_Driver/Inc/stm32f1xx_ll_i2c.h ****   return (READ_BIT(I2Cx->CR2, I2C_CR2_ITEVTEN | I2C_CR2_ITBUFEN) == (I2C_CR2_ITEVTEN | I2C_CR2_ITBU
 967:Drivers/STM32F1xx_HAL_Driver/Inc/stm32f1xx_ll_i2c.h **** }
 968:Drivers/STM32F1xx_HAL_Driver/Inc/stm32f1xx_ll_i2c.h **** 
 969:Drivers/STM32F1xx_HAL_Driver/Inc/stm32f1xx_ll_i2c.h **** /**
 970:Drivers/STM32F1xx_HAL_Driver/Inc/stm32f1xx_ll_i2c.h ****   * @brief  Enable Events interrupts.
 971:Drivers/STM32F1xx_HAL_Driver/Inc/stm32f1xx_ll_i2c.h ****   * @note   Any of these events will generate interrupt :
 972:Drivers/STM32F1xx_HAL_Driver/Inc/stm32f1xx_ll_i2c.h ****   *         Start Bit (SB)
 973:Drivers/STM32F1xx_HAL_Driver/Inc/stm32f1xx_ll_i2c.h ****   *         Address sent, Address matched (ADDR)
 974:Drivers/STM32F1xx_HAL_Driver/Inc/stm32f1xx_ll_i2c.h ****   *         10-bit header sent (ADD10)
 975:Drivers/STM32F1xx_HAL_Driver/Inc/stm32f1xx_ll_i2c.h ****   *         Stop detection  (STOPF)
 976:Drivers/STM32F1xx_HAL_Driver/Inc/stm32f1xx_ll_i2c.h ****   *         Byte transfer finished (BTF)
 977:Drivers/STM32F1xx_HAL_Driver/Inc/stm32f1xx_ll_i2c.h ****   *
 978:Drivers/STM32F1xx_HAL_Driver/Inc/stm32f1xx_ll_i2c.h ****   * @note   Any of these events will generate interrupt if Buffer interrupts are enabled too(using 
 979:Drivers/STM32F1xx_HAL_Driver/Inc/stm32f1xx_ll_i2c.h ****   *         Receive buffer not empty (RXNE)
 980:Drivers/STM32F1xx_HAL_Driver/Inc/stm32f1xx_ll_i2c.h ****   *         Transmit buffer empty (TXE)
 981:Drivers/STM32F1xx_HAL_Driver/Inc/stm32f1xx_ll_i2c.h ****   * @rmtoll CR2          ITEVTEN       LL_I2C_EnableIT_EVT
 982:Drivers/STM32F1xx_HAL_Driver/Inc/stm32f1xx_ll_i2c.h ****   * @param  I2Cx I2C Instance.
 983:Drivers/STM32F1xx_HAL_Driver/Inc/stm32f1xx_ll_i2c.h ****   * @retval None
 984:Drivers/STM32F1xx_HAL_Driver/Inc/stm32f1xx_ll_i2c.h ****   */
 985:Drivers/STM32F1xx_HAL_Driver/Inc/stm32f1xx_ll_i2c.h **** __STATIC_INLINE void LL_I2C_EnableIT_EVT(I2C_TypeDef *I2Cx)
 986:Drivers/STM32F1xx_HAL_Driver/Inc/stm32f1xx_ll_i2c.h **** {
 987:Drivers/STM32F1xx_HAL_Driver/Inc/stm32f1xx_ll_i2c.h ****   SET_BIT(I2Cx->CR2, I2C_CR2_ITEVTEN);
 988:Drivers/STM32F1xx_HAL_Driver/Inc/stm32f1xx_ll_i2c.h **** }
 989:Drivers/STM32F1xx_HAL_Driver/Inc/stm32f1xx_ll_i2c.h **** 
 990:Drivers/STM32F1xx_HAL_Driver/Inc/stm32f1xx_ll_i2c.h **** /**
 991:Drivers/STM32F1xx_HAL_Driver/Inc/stm32f1xx_ll_i2c.h ****   * @brief  Disable Events interrupts.
 992:Drivers/STM32F1xx_HAL_Driver/Inc/stm32f1xx_ll_i2c.h ****   * @note   Any of these events will generate interrupt :
 993:Drivers/STM32F1xx_HAL_Driver/Inc/stm32f1xx_ll_i2c.h ****   *         Start Bit (SB)
 994:Drivers/STM32F1xx_HAL_Driver/Inc/stm32f1xx_ll_i2c.h ****   *         Address sent, Address matched (ADDR)
 995:Drivers/STM32F1xx_HAL_Driver/Inc/stm32f1xx_ll_i2c.h ****   *         10-bit header sent (ADD10)
 996:Drivers/STM32F1xx_HAL_Driver/Inc/stm32f1xx_ll_i2c.h ****   *         Stop detection  (STOPF)
 997:Drivers/STM32F1xx_HAL_Driver/Inc/stm32f1xx_ll_i2c.h ****   *         Byte transfer finished (BTF)
 998:Drivers/STM32F1xx_HAL_Driver/Inc/stm32f1xx_ll_i2c.h ****   *         Receive buffer not empty (RXNE)
ARM GAS  /tmp/cc8gkcIc.s 			page 21


 999:Drivers/STM32F1xx_HAL_Driver/Inc/stm32f1xx_ll_i2c.h ****   *         Transmit buffer empty (TXE)
1000:Drivers/STM32F1xx_HAL_Driver/Inc/stm32f1xx_ll_i2c.h ****   * @rmtoll CR2          ITEVTEN       LL_I2C_DisableIT_EVT
1001:Drivers/STM32F1xx_HAL_Driver/Inc/stm32f1xx_ll_i2c.h ****   * @param  I2Cx I2C Instance.
1002:Drivers/STM32F1xx_HAL_Driver/Inc/stm32f1xx_ll_i2c.h ****   * @retval None
1003:Drivers/STM32F1xx_HAL_Driver/Inc/stm32f1xx_ll_i2c.h ****   */
1004:Drivers/STM32F1xx_HAL_Driver/Inc/stm32f1xx_ll_i2c.h **** __STATIC_INLINE void LL_I2C_DisableIT_EVT(I2C_TypeDef *I2Cx)
1005:Drivers/STM32F1xx_HAL_Driver/Inc/stm32f1xx_ll_i2c.h **** {
1006:Drivers/STM32F1xx_HAL_Driver/Inc/stm32f1xx_ll_i2c.h ****   CLEAR_BIT(I2Cx->CR2, I2C_CR2_ITEVTEN);
1007:Drivers/STM32F1xx_HAL_Driver/Inc/stm32f1xx_ll_i2c.h **** }
1008:Drivers/STM32F1xx_HAL_Driver/Inc/stm32f1xx_ll_i2c.h **** 
1009:Drivers/STM32F1xx_HAL_Driver/Inc/stm32f1xx_ll_i2c.h **** /**
1010:Drivers/STM32F1xx_HAL_Driver/Inc/stm32f1xx_ll_i2c.h ****   * @brief  Check if Events interrupts are enabled or disabled.
1011:Drivers/STM32F1xx_HAL_Driver/Inc/stm32f1xx_ll_i2c.h ****   * @rmtoll CR2          ITEVTEN       LL_I2C_IsEnabledIT_EVT
1012:Drivers/STM32F1xx_HAL_Driver/Inc/stm32f1xx_ll_i2c.h ****   * @param  I2Cx I2C Instance.
1013:Drivers/STM32F1xx_HAL_Driver/Inc/stm32f1xx_ll_i2c.h ****   * @retval State of bit (1 or 0).
1014:Drivers/STM32F1xx_HAL_Driver/Inc/stm32f1xx_ll_i2c.h ****   */
1015:Drivers/STM32F1xx_HAL_Driver/Inc/stm32f1xx_ll_i2c.h **** __STATIC_INLINE uint32_t LL_I2C_IsEnabledIT_EVT(I2C_TypeDef *I2Cx)
1016:Drivers/STM32F1xx_HAL_Driver/Inc/stm32f1xx_ll_i2c.h **** {
1017:Drivers/STM32F1xx_HAL_Driver/Inc/stm32f1xx_ll_i2c.h ****   return (READ_BIT(I2Cx->CR2, I2C_CR2_ITEVTEN) == (I2C_CR2_ITEVTEN));
1018:Drivers/STM32F1xx_HAL_Driver/Inc/stm32f1xx_ll_i2c.h **** }
1019:Drivers/STM32F1xx_HAL_Driver/Inc/stm32f1xx_ll_i2c.h **** 
1020:Drivers/STM32F1xx_HAL_Driver/Inc/stm32f1xx_ll_i2c.h **** /**
1021:Drivers/STM32F1xx_HAL_Driver/Inc/stm32f1xx_ll_i2c.h ****   * @brief  Enable Buffer interrupts.
1022:Drivers/STM32F1xx_HAL_Driver/Inc/stm32f1xx_ll_i2c.h ****   * @note   Any of these Buffer events will generate interrupt if Events interrupts are enabled too
1023:Drivers/STM32F1xx_HAL_Driver/Inc/stm32f1xx_ll_i2c.h ****   *         Receive buffer not empty (RXNE)
1024:Drivers/STM32F1xx_HAL_Driver/Inc/stm32f1xx_ll_i2c.h ****   *         Transmit buffer empty (TXE)
1025:Drivers/STM32F1xx_HAL_Driver/Inc/stm32f1xx_ll_i2c.h ****   * @rmtoll CR2          ITBUFEN       LL_I2C_EnableIT_BUF
1026:Drivers/STM32F1xx_HAL_Driver/Inc/stm32f1xx_ll_i2c.h ****   * @param  I2Cx I2C Instance.
1027:Drivers/STM32F1xx_HAL_Driver/Inc/stm32f1xx_ll_i2c.h ****   * @retval None
1028:Drivers/STM32F1xx_HAL_Driver/Inc/stm32f1xx_ll_i2c.h ****   */
1029:Drivers/STM32F1xx_HAL_Driver/Inc/stm32f1xx_ll_i2c.h **** __STATIC_INLINE void LL_I2C_EnableIT_BUF(I2C_TypeDef *I2Cx)
1030:Drivers/STM32F1xx_HAL_Driver/Inc/stm32f1xx_ll_i2c.h **** {
1031:Drivers/STM32F1xx_HAL_Driver/Inc/stm32f1xx_ll_i2c.h ****   SET_BIT(I2Cx->CR2, I2C_CR2_ITBUFEN);
1032:Drivers/STM32F1xx_HAL_Driver/Inc/stm32f1xx_ll_i2c.h **** }
1033:Drivers/STM32F1xx_HAL_Driver/Inc/stm32f1xx_ll_i2c.h **** 
1034:Drivers/STM32F1xx_HAL_Driver/Inc/stm32f1xx_ll_i2c.h **** /**
1035:Drivers/STM32F1xx_HAL_Driver/Inc/stm32f1xx_ll_i2c.h ****   * @brief  Disable Buffer interrupts.
1036:Drivers/STM32F1xx_HAL_Driver/Inc/stm32f1xx_ll_i2c.h ****   * @note   Any of these Buffer events will generate interrupt :
1037:Drivers/STM32F1xx_HAL_Driver/Inc/stm32f1xx_ll_i2c.h ****   *         Receive buffer not empty (RXNE)
1038:Drivers/STM32F1xx_HAL_Driver/Inc/stm32f1xx_ll_i2c.h ****   *         Transmit buffer empty (TXE)
1039:Drivers/STM32F1xx_HAL_Driver/Inc/stm32f1xx_ll_i2c.h ****   * @rmtoll CR2          ITBUFEN       LL_I2C_DisableIT_BUF
1040:Drivers/STM32F1xx_HAL_Driver/Inc/stm32f1xx_ll_i2c.h ****   * @param  I2Cx I2C Instance.
1041:Drivers/STM32F1xx_HAL_Driver/Inc/stm32f1xx_ll_i2c.h ****   * @retval None
1042:Drivers/STM32F1xx_HAL_Driver/Inc/stm32f1xx_ll_i2c.h ****   */
1043:Drivers/STM32F1xx_HAL_Driver/Inc/stm32f1xx_ll_i2c.h **** __STATIC_INLINE void LL_I2C_DisableIT_BUF(I2C_TypeDef *I2Cx)
1044:Drivers/STM32F1xx_HAL_Driver/Inc/stm32f1xx_ll_i2c.h **** {
1045:Drivers/STM32F1xx_HAL_Driver/Inc/stm32f1xx_ll_i2c.h ****   CLEAR_BIT(I2Cx->CR2, I2C_CR2_ITBUFEN);
1046:Drivers/STM32F1xx_HAL_Driver/Inc/stm32f1xx_ll_i2c.h **** }
1047:Drivers/STM32F1xx_HAL_Driver/Inc/stm32f1xx_ll_i2c.h **** 
1048:Drivers/STM32F1xx_HAL_Driver/Inc/stm32f1xx_ll_i2c.h **** /**
1049:Drivers/STM32F1xx_HAL_Driver/Inc/stm32f1xx_ll_i2c.h ****   * @brief  Check if Buffer interrupts are enabled or disabled.
1050:Drivers/STM32F1xx_HAL_Driver/Inc/stm32f1xx_ll_i2c.h ****   * @rmtoll CR2          ITBUFEN       LL_I2C_IsEnabledIT_BUF
1051:Drivers/STM32F1xx_HAL_Driver/Inc/stm32f1xx_ll_i2c.h ****   * @param  I2Cx I2C Instance.
1052:Drivers/STM32F1xx_HAL_Driver/Inc/stm32f1xx_ll_i2c.h ****   * @retval State of bit (1 or 0).
1053:Drivers/STM32F1xx_HAL_Driver/Inc/stm32f1xx_ll_i2c.h ****   */
1054:Drivers/STM32F1xx_HAL_Driver/Inc/stm32f1xx_ll_i2c.h **** __STATIC_INLINE uint32_t LL_I2C_IsEnabledIT_BUF(I2C_TypeDef *I2Cx)
1055:Drivers/STM32F1xx_HAL_Driver/Inc/stm32f1xx_ll_i2c.h **** {
ARM GAS  /tmp/cc8gkcIc.s 			page 22


1056:Drivers/STM32F1xx_HAL_Driver/Inc/stm32f1xx_ll_i2c.h ****   return (READ_BIT(I2Cx->CR2, I2C_CR2_ITBUFEN) == (I2C_CR2_ITBUFEN));
1057:Drivers/STM32F1xx_HAL_Driver/Inc/stm32f1xx_ll_i2c.h **** }
1058:Drivers/STM32F1xx_HAL_Driver/Inc/stm32f1xx_ll_i2c.h **** 
1059:Drivers/STM32F1xx_HAL_Driver/Inc/stm32f1xx_ll_i2c.h **** /**
1060:Drivers/STM32F1xx_HAL_Driver/Inc/stm32f1xx_ll_i2c.h ****   * @brief  Enable Error interrupts.
1061:Drivers/STM32F1xx_HAL_Driver/Inc/stm32f1xx_ll_i2c.h ****   * @note   Macro IS_SMBUS_ALL_INSTANCE(I2Cx) can be used to check whether or not
1062:Drivers/STM32F1xx_HAL_Driver/Inc/stm32f1xx_ll_i2c.h ****   *         SMBus feature is supported by the I2Cx Instance.
1063:Drivers/STM32F1xx_HAL_Driver/Inc/stm32f1xx_ll_i2c.h ****   * @note   Any of these errors will generate interrupt :
1064:Drivers/STM32F1xx_HAL_Driver/Inc/stm32f1xx_ll_i2c.h ****   *         Bus Error detection (BERR)
1065:Drivers/STM32F1xx_HAL_Driver/Inc/stm32f1xx_ll_i2c.h ****   *         Arbitration Loss (ARLO)
1066:Drivers/STM32F1xx_HAL_Driver/Inc/stm32f1xx_ll_i2c.h ****   *         Acknowledge Failure(AF)
1067:Drivers/STM32F1xx_HAL_Driver/Inc/stm32f1xx_ll_i2c.h ****   *         Overrun/Underrun (OVR)
1068:Drivers/STM32F1xx_HAL_Driver/Inc/stm32f1xx_ll_i2c.h ****   *         SMBus Timeout detection (TIMEOUT)
1069:Drivers/STM32F1xx_HAL_Driver/Inc/stm32f1xx_ll_i2c.h ****   *         SMBus PEC error detection (PECERR)
1070:Drivers/STM32F1xx_HAL_Driver/Inc/stm32f1xx_ll_i2c.h ****   *         SMBus Alert pin event detection (SMBALERT)
1071:Drivers/STM32F1xx_HAL_Driver/Inc/stm32f1xx_ll_i2c.h ****   * @rmtoll CR2          ITERREN       LL_I2C_EnableIT_ERR
1072:Drivers/STM32F1xx_HAL_Driver/Inc/stm32f1xx_ll_i2c.h ****   * @param  I2Cx I2C Instance.
1073:Drivers/STM32F1xx_HAL_Driver/Inc/stm32f1xx_ll_i2c.h ****   * @retval None
1074:Drivers/STM32F1xx_HAL_Driver/Inc/stm32f1xx_ll_i2c.h ****   */
1075:Drivers/STM32F1xx_HAL_Driver/Inc/stm32f1xx_ll_i2c.h **** __STATIC_INLINE void LL_I2C_EnableIT_ERR(I2C_TypeDef *I2Cx)
1076:Drivers/STM32F1xx_HAL_Driver/Inc/stm32f1xx_ll_i2c.h **** {
1077:Drivers/STM32F1xx_HAL_Driver/Inc/stm32f1xx_ll_i2c.h ****   SET_BIT(I2Cx->CR2, I2C_CR2_ITERREN);
1078:Drivers/STM32F1xx_HAL_Driver/Inc/stm32f1xx_ll_i2c.h **** }
1079:Drivers/STM32F1xx_HAL_Driver/Inc/stm32f1xx_ll_i2c.h **** 
1080:Drivers/STM32F1xx_HAL_Driver/Inc/stm32f1xx_ll_i2c.h **** /**
1081:Drivers/STM32F1xx_HAL_Driver/Inc/stm32f1xx_ll_i2c.h ****   * @brief  Disable Error interrupts.
1082:Drivers/STM32F1xx_HAL_Driver/Inc/stm32f1xx_ll_i2c.h ****   * @note   Macro IS_SMBUS_ALL_INSTANCE(I2Cx) can be used to check whether or not
1083:Drivers/STM32F1xx_HAL_Driver/Inc/stm32f1xx_ll_i2c.h ****   *         SMBus feature is supported by the I2Cx Instance.
1084:Drivers/STM32F1xx_HAL_Driver/Inc/stm32f1xx_ll_i2c.h ****   * @note   Any of these errors will generate interrupt :
1085:Drivers/STM32F1xx_HAL_Driver/Inc/stm32f1xx_ll_i2c.h ****   *         Bus Error detection (BERR)
1086:Drivers/STM32F1xx_HAL_Driver/Inc/stm32f1xx_ll_i2c.h ****   *         Arbitration Loss (ARLO)
1087:Drivers/STM32F1xx_HAL_Driver/Inc/stm32f1xx_ll_i2c.h ****   *         Acknowledge Failure(AF)
1088:Drivers/STM32F1xx_HAL_Driver/Inc/stm32f1xx_ll_i2c.h ****   *         Overrun/Underrun (OVR)
1089:Drivers/STM32F1xx_HAL_Driver/Inc/stm32f1xx_ll_i2c.h ****   *         SMBus Timeout detection (TIMEOUT)
1090:Drivers/STM32F1xx_HAL_Driver/Inc/stm32f1xx_ll_i2c.h ****   *         SMBus PEC error detection (PECERR)
1091:Drivers/STM32F1xx_HAL_Driver/Inc/stm32f1xx_ll_i2c.h ****   *         SMBus Alert pin event detection (SMBALERT)
1092:Drivers/STM32F1xx_HAL_Driver/Inc/stm32f1xx_ll_i2c.h ****   * @rmtoll CR2          ITERREN       LL_I2C_DisableIT_ERR
1093:Drivers/STM32F1xx_HAL_Driver/Inc/stm32f1xx_ll_i2c.h ****   * @param  I2Cx I2C Instance.
1094:Drivers/STM32F1xx_HAL_Driver/Inc/stm32f1xx_ll_i2c.h ****   * @retval None
1095:Drivers/STM32F1xx_HAL_Driver/Inc/stm32f1xx_ll_i2c.h ****   */
1096:Drivers/STM32F1xx_HAL_Driver/Inc/stm32f1xx_ll_i2c.h **** __STATIC_INLINE void LL_I2C_DisableIT_ERR(I2C_TypeDef *I2Cx)
1097:Drivers/STM32F1xx_HAL_Driver/Inc/stm32f1xx_ll_i2c.h **** {
1098:Drivers/STM32F1xx_HAL_Driver/Inc/stm32f1xx_ll_i2c.h ****   CLEAR_BIT(I2Cx->CR2, I2C_CR2_ITERREN);
1099:Drivers/STM32F1xx_HAL_Driver/Inc/stm32f1xx_ll_i2c.h **** }
1100:Drivers/STM32F1xx_HAL_Driver/Inc/stm32f1xx_ll_i2c.h **** 
1101:Drivers/STM32F1xx_HAL_Driver/Inc/stm32f1xx_ll_i2c.h **** /**
1102:Drivers/STM32F1xx_HAL_Driver/Inc/stm32f1xx_ll_i2c.h ****   * @brief  Check if Error interrupts are enabled or disabled.
1103:Drivers/STM32F1xx_HAL_Driver/Inc/stm32f1xx_ll_i2c.h ****   * @rmtoll CR2          ITERREN       LL_I2C_IsEnabledIT_ERR
1104:Drivers/STM32F1xx_HAL_Driver/Inc/stm32f1xx_ll_i2c.h ****   * @param  I2Cx I2C Instance.
1105:Drivers/STM32F1xx_HAL_Driver/Inc/stm32f1xx_ll_i2c.h ****   * @retval State of bit (1 or 0).
1106:Drivers/STM32F1xx_HAL_Driver/Inc/stm32f1xx_ll_i2c.h ****   */
1107:Drivers/STM32F1xx_HAL_Driver/Inc/stm32f1xx_ll_i2c.h **** __STATIC_INLINE uint32_t LL_I2C_IsEnabledIT_ERR(I2C_TypeDef *I2Cx)
1108:Drivers/STM32F1xx_HAL_Driver/Inc/stm32f1xx_ll_i2c.h **** {
1109:Drivers/STM32F1xx_HAL_Driver/Inc/stm32f1xx_ll_i2c.h ****   return (READ_BIT(I2Cx->CR2, I2C_CR2_ITERREN) == (I2C_CR2_ITERREN));
1110:Drivers/STM32F1xx_HAL_Driver/Inc/stm32f1xx_ll_i2c.h **** }
1111:Drivers/STM32F1xx_HAL_Driver/Inc/stm32f1xx_ll_i2c.h **** 
1112:Drivers/STM32F1xx_HAL_Driver/Inc/stm32f1xx_ll_i2c.h **** /**
ARM GAS  /tmp/cc8gkcIc.s 			page 23


1113:Drivers/STM32F1xx_HAL_Driver/Inc/stm32f1xx_ll_i2c.h ****   * @}
1114:Drivers/STM32F1xx_HAL_Driver/Inc/stm32f1xx_ll_i2c.h ****   */
1115:Drivers/STM32F1xx_HAL_Driver/Inc/stm32f1xx_ll_i2c.h **** 
1116:Drivers/STM32F1xx_HAL_Driver/Inc/stm32f1xx_ll_i2c.h **** /** @defgroup I2C_LL_EF_FLAG_management FLAG_management
1117:Drivers/STM32F1xx_HAL_Driver/Inc/stm32f1xx_ll_i2c.h ****   * @{
1118:Drivers/STM32F1xx_HAL_Driver/Inc/stm32f1xx_ll_i2c.h ****   */
1119:Drivers/STM32F1xx_HAL_Driver/Inc/stm32f1xx_ll_i2c.h **** 
1120:Drivers/STM32F1xx_HAL_Driver/Inc/stm32f1xx_ll_i2c.h **** /**
1121:Drivers/STM32F1xx_HAL_Driver/Inc/stm32f1xx_ll_i2c.h ****   * @brief  Indicate the status of Transmit data register empty flag.
1122:Drivers/STM32F1xx_HAL_Driver/Inc/stm32f1xx_ll_i2c.h ****   * @note   RESET: When next data is written in Transmit data register.
1123:Drivers/STM32F1xx_HAL_Driver/Inc/stm32f1xx_ll_i2c.h ****   *         SET: When Transmit data register is empty.
1124:Drivers/STM32F1xx_HAL_Driver/Inc/stm32f1xx_ll_i2c.h ****   * @rmtoll SR1          TXE           LL_I2C_IsActiveFlag_TXE
1125:Drivers/STM32F1xx_HAL_Driver/Inc/stm32f1xx_ll_i2c.h ****   * @param  I2Cx I2C Instance.
1126:Drivers/STM32F1xx_HAL_Driver/Inc/stm32f1xx_ll_i2c.h ****   * @retval State of bit (1 or 0).
1127:Drivers/STM32F1xx_HAL_Driver/Inc/stm32f1xx_ll_i2c.h ****   */
1128:Drivers/STM32F1xx_HAL_Driver/Inc/stm32f1xx_ll_i2c.h **** __STATIC_INLINE uint32_t LL_I2C_IsActiveFlag_TXE(I2C_TypeDef *I2Cx)
1129:Drivers/STM32F1xx_HAL_Driver/Inc/stm32f1xx_ll_i2c.h **** {
1130:Drivers/STM32F1xx_HAL_Driver/Inc/stm32f1xx_ll_i2c.h ****   return (READ_BIT(I2Cx->SR1, I2C_SR1_TXE) == (I2C_SR1_TXE));
1131:Drivers/STM32F1xx_HAL_Driver/Inc/stm32f1xx_ll_i2c.h **** }
1132:Drivers/STM32F1xx_HAL_Driver/Inc/stm32f1xx_ll_i2c.h **** 
1133:Drivers/STM32F1xx_HAL_Driver/Inc/stm32f1xx_ll_i2c.h **** /**
1134:Drivers/STM32F1xx_HAL_Driver/Inc/stm32f1xx_ll_i2c.h ****   * @brief  Indicate the status of Byte Transfer Finished flag.
1135:Drivers/STM32F1xx_HAL_Driver/Inc/stm32f1xx_ll_i2c.h ****   *         RESET: When Data byte transfer not done.
1136:Drivers/STM32F1xx_HAL_Driver/Inc/stm32f1xx_ll_i2c.h ****   *         SET: When Data byte transfer succeeded.
1137:Drivers/STM32F1xx_HAL_Driver/Inc/stm32f1xx_ll_i2c.h ****   * @rmtoll SR1          BTF           LL_I2C_IsActiveFlag_BTF
1138:Drivers/STM32F1xx_HAL_Driver/Inc/stm32f1xx_ll_i2c.h ****   * @param  I2Cx I2C Instance.
1139:Drivers/STM32F1xx_HAL_Driver/Inc/stm32f1xx_ll_i2c.h ****   * @retval State of bit (1 or 0).
1140:Drivers/STM32F1xx_HAL_Driver/Inc/stm32f1xx_ll_i2c.h ****   */
1141:Drivers/STM32F1xx_HAL_Driver/Inc/stm32f1xx_ll_i2c.h **** __STATIC_INLINE uint32_t LL_I2C_IsActiveFlag_BTF(I2C_TypeDef *I2Cx)
1142:Drivers/STM32F1xx_HAL_Driver/Inc/stm32f1xx_ll_i2c.h **** {
1143:Drivers/STM32F1xx_HAL_Driver/Inc/stm32f1xx_ll_i2c.h ****   return (READ_BIT(I2Cx->SR1, I2C_SR1_BTF) == (I2C_SR1_BTF));
1144:Drivers/STM32F1xx_HAL_Driver/Inc/stm32f1xx_ll_i2c.h **** }
1145:Drivers/STM32F1xx_HAL_Driver/Inc/stm32f1xx_ll_i2c.h **** 
1146:Drivers/STM32F1xx_HAL_Driver/Inc/stm32f1xx_ll_i2c.h **** /**
1147:Drivers/STM32F1xx_HAL_Driver/Inc/stm32f1xx_ll_i2c.h ****   * @brief  Indicate the status of Receive data register not empty flag.
1148:Drivers/STM32F1xx_HAL_Driver/Inc/stm32f1xx_ll_i2c.h ****   * @note   RESET: When Receive data register is read.
1149:Drivers/STM32F1xx_HAL_Driver/Inc/stm32f1xx_ll_i2c.h ****   *         SET: When the received data is copied in Receive data register.
1150:Drivers/STM32F1xx_HAL_Driver/Inc/stm32f1xx_ll_i2c.h ****   * @rmtoll SR1          RXNE          LL_I2C_IsActiveFlag_RXNE
1151:Drivers/STM32F1xx_HAL_Driver/Inc/stm32f1xx_ll_i2c.h ****   * @param  I2Cx I2C Instance.
1152:Drivers/STM32F1xx_HAL_Driver/Inc/stm32f1xx_ll_i2c.h ****   * @retval State of bit (1 or 0).
1153:Drivers/STM32F1xx_HAL_Driver/Inc/stm32f1xx_ll_i2c.h ****   */
1154:Drivers/STM32F1xx_HAL_Driver/Inc/stm32f1xx_ll_i2c.h **** __STATIC_INLINE uint32_t LL_I2C_IsActiveFlag_RXNE(I2C_TypeDef *I2Cx)
1155:Drivers/STM32F1xx_HAL_Driver/Inc/stm32f1xx_ll_i2c.h **** {
1156:Drivers/STM32F1xx_HAL_Driver/Inc/stm32f1xx_ll_i2c.h ****   return (READ_BIT(I2Cx->SR1, I2C_SR1_RXNE) == (I2C_SR1_RXNE));
1157:Drivers/STM32F1xx_HAL_Driver/Inc/stm32f1xx_ll_i2c.h **** }
1158:Drivers/STM32F1xx_HAL_Driver/Inc/stm32f1xx_ll_i2c.h **** 
1159:Drivers/STM32F1xx_HAL_Driver/Inc/stm32f1xx_ll_i2c.h **** /**
1160:Drivers/STM32F1xx_HAL_Driver/Inc/stm32f1xx_ll_i2c.h ****   * @brief  Indicate the status of Start Bit (master mode).
1161:Drivers/STM32F1xx_HAL_Driver/Inc/stm32f1xx_ll_i2c.h ****   * @note   RESET: When No Start condition.
1162:Drivers/STM32F1xx_HAL_Driver/Inc/stm32f1xx_ll_i2c.h ****   *         SET: When Start condition is generated.
1163:Drivers/STM32F1xx_HAL_Driver/Inc/stm32f1xx_ll_i2c.h ****   * @rmtoll SR1          SB            LL_I2C_IsActiveFlag_SB
1164:Drivers/STM32F1xx_HAL_Driver/Inc/stm32f1xx_ll_i2c.h ****   * @param  I2Cx I2C Instance.
1165:Drivers/STM32F1xx_HAL_Driver/Inc/stm32f1xx_ll_i2c.h ****   * @retval State of bit (1 or 0).
1166:Drivers/STM32F1xx_HAL_Driver/Inc/stm32f1xx_ll_i2c.h ****   */
1167:Drivers/STM32F1xx_HAL_Driver/Inc/stm32f1xx_ll_i2c.h **** __STATIC_INLINE uint32_t LL_I2C_IsActiveFlag_SB(I2C_TypeDef *I2Cx)
1168:Drivers/STM32F1xx_HAL_Driver/Inc/stm32f1xx_ll_i2c.h **** {
1169:Drivers/STM32F1xx_HAL_Driver/Inc/stm32f1xx_ll_i2c.h ****   return (READ_BIT(I2Cx->SR1, I2C_SR1_SB) == (I2C_SR1_SB));
ARM GAS  /tmp/cc8gkcIc.s 			page 24


1170:Drivers/STM32F1xx_HAL_Driver/Inc/stm32f1xx_ll_i2c.h **** }
1171:Drivers/STM32F1xx_HAL_Driver/Inc/stm32f1xx_ll_i2c.h **** 
1172:Drivers/STM32F1xx_HAL_Driver/Inc/stm32f1xx_ll_i2c.h **** /**
1173:Drivers/STM32F1xx_HAL_Driver/Inc/stm32f1xx_ll_i2c.h ****   * @brief  Indicate the status of Address sent (master mode) or Address matched flag (slave mode).
1174:Drivers/STM32F1xx_HAL_Driver/Inc/stm32f1xx_ll_i2c.h ****   * @note   RESET: Clear default value.
1175:Drivers/STM32F1xx_HAL_Driver/Inc/stm32f1xx_ll_i2c.h ****   *         SET: When the address is fully sent (master mode) or when the received slave address ma
1176:Drivers/STM32F1xx_HAL_Driver/Inc/stm32f1xx_ll_i2c.h ****   * @rmtoll SR1          ADDR          LL_I2C_IsActiveFlag_ADDR
1177:Drivers/STM32F1xx_HAL_Driver/Inc/stm32f1xx_ll_i2c.h ****   * @param  I2Cx I2C Instance.
1178:Drivers/STM32F1xx_HAL_Driver/Inc/stm32f1xx_ll_i2c.h ****   * @retval State of bit (1 or 0).
1179:Drivers/STM32F1xx_HAL_Driver/Inc/stm32f1xx_ll_i2c.h ****   */
1180:Drivers/STM32F1xx_HAL_Driver/Inc/stm32f1xx_ll_i2c.h **** __STATIC_INLINE uint32_t LL_I2C_IsActiveFlag_ADDR(I2C_TypeDef *I2Cx)
1181:Drivers/STM32F1xx_HAL_Driver/Inc/stm32f1xx_ll_i2c.h **** {
1182:Drivers/STM32F1xx_HAL_Driver/Inc/stm32f1xx_ll_i2c.h ****   return (READ_BIT(I2Cx->SR1, I2C_SR1_ADDR) == (I2C_SR1_ADDR));
1183:Drivers/STM32F1xx_HAL_Driver/Inc/stm32f1xx_ll_i2c.h **** }
1184:Drivers/STM32F1xx_HAL_Driver/Inc/stm32f1xx_ll_i2c.h **** 
1185:Drivers/STM32F1xx_HAL_Driver/Inc/stm32f1xx_ll_i2c.h **** /**
1186:Drivers/STM32F1xx_HAL_Driver/Inc/stm32f1xx_ll_i2c.h ****   * @brief  Indicate the status of 10-bit header sent (master mode).
1187:Drivers/STM32F1xx_HAL_Driver/Inc/stm32f1xx_ll_i2c.h ****   * @note   RESET: When no ADD10 event occurred.
1188:Drivers/STM32F1xx_HAL_Driver/Inc/stm32f1xx_ll_i2c.h ****   *         SET: When the master has sent the first address byte (header).
1189:Drivers/STM32F1xx_HAL_Driver/Inc/stm32f1xx_ll_i2c.h ****   * @rmtoll SR1          ADD10         LL_I2C_IsActiveFlag_ADD10
1190:Drivers/STM32F1xx_HAL_Driver/Inc/stm32f1xx_ll_i2c.h ****   * @param  I2Cx I2C Instance.
1191:Drivers/STM32F1xx_HAL_Driver/Inc/stm32f1xx_ll_i2c.h ****   * @retval State of bit (1 or 0).
1192:Drivers/STM32F1xx_HAL_Driver/Inc/stm32f1xx_ll_i2c.h ****   */
1193:Drivers/STM32F1xx_HAL_Driver/Inc/stm32f1xx_ll_i2c.h **** __STATIC_INLINE uint32_t LL_I2C_IsActiveFlag_ADD10(I2C_TypeDef *I2Cx)
1194:Drivers/STM32F1xx_HAL_Driver/Inc/stm32f1xx_ll_i2c.h **** {
1195:Drivers/STM32F1xx_HAL_Driver/Inc/stm32f1xx_ll_i2c.h ****   return (READ_BIT(I2Cx->SR1, I2C_SR1_ADD10) == (I2C_SR1_ADD10));
1196:Drivers/STM32F1xx_HAL_Driver/Inc/stm32f1xx_ll_i2c.h **** }
1197:Drivers/STM32F1xx_HAL_Driver/Inc/stm32f1xx_ll_i2c.h **** 
1198:Drivers/STM32F1xx_HAL_Driver/Inc/stm32f1xx_ll_i2c.h **** /**
1199:Drivers/STM32F1xx_HAL_Driver/Inc/stm32f1xx_ll_i2c.h ****   * @brief  Indicate the status of Acknowledge failure flag.
1200:Drivers/STM32F1xx_HAL_Driver/Inc/stm32f1xx_ll_i2c.h ****   * @note   RESET: No acknowledge failure.
1201:Drivers/STM32F1xx_HAL_Driver/Inc/stm32f1xx_ll_i2c.h ****   *         SET: When an acknowledge failure is received after a byte transmission.
1202:Drivers/STM32F1xx_HAL_Driver/Inc/stm32f1xx_ll_i2c.h ****   * @rmtoll SR1          AF            LL_I2C_IsActiveFlag_AF
1203:Drivers/STM32F1xx_HAL_Driver/Inc/stm32f1xx_ll_i2c.h ****   * @param  I2Cx I2C Instance.
1204:Drivers/STM32F1xx_HAL_Driver/Inc/stm32f1xx_ll_i2c.h ****   * @retval State of bit (1 or 0).
1205:Drivers/STM32F1xx_HAL_Driver/Inc/stm32f1xx_ll_i2c.h ****   */
1206:Drivers/STM32F1xx_HAL_Driver/Inc/stm32f1xx_ll_i2c.h **** __STATIC_INLINE uint32_t LL_I2C_IsActiveFlag_AF(I2C_TypeDef *I2Cx)
1207:Drivers/STM32F1xx_HAL_Driver/Inc/stm32f1xx_ll_i2c.h **** {
1208:Drivers/STM32F1xx_HAL_Driver/Inc/stm32f1xx_ll_i2c.h ****   return (READ_BIT(I2Cx->SR1, I2C_SR1_AF) == (I2C_SR1_AF));
1209:Drivers/STM32F1xx_HAL_Driver/Inc/stm32f1xx_ll_i2c.h **** }
1210:Drivers/STM32F1xx_HAL_Driver/Inc/stm32f1xx_ll_i2c.h **** 
1211:Drivers/STM32F1xx_HAL_Driver/Inc/stm32f1xx_ll_i2c.h **** /**
1212:Drivers/STM32F1xx_HAL_Driver/Inc/stm32f1xx_ll_i2c.h ****   * @brief  Indicate the status of Stop detection flag (slave mode).
1213:Drivers/STM32F1xx_HAL_Driver/Inc/stm32f1xx_ll_i2c.h ****   * @note   RESET: Clear default value.
1214:Drivers/STM32F1xx_HAL_Driver/Inc/stm32f1xx_ll_i2c.h ****   *         SET: When a Stop condition is detected.
1215:Drivers/STM32F1xx_HAL_Driver/Inc/stm32f1xx_ll_i2c.h ****   * @rmtoll SR1          STOPF         LL_I2C_IsActiveFlag_STOP
1216:Drivers/STM32F1xx_HAL_Driver/Inc/stm32f1xx_ll_i2c.h ****   * @param  I2Cx I2C Instance.
1217:Drivers/STM32F1xx_HAL_Driver/Inc/stm32f1xx_ll_i2c.h ****   * @retval State of bit (1 or 0).
1218:Drivers/STM32F1xx_HAL_Driver/Inc/stm32f1xx_ll_i2c.h ****   */
1219:Drivers/STM32F1xx_HAL_Driver/Inc/stm32f1xx_ll_i2c.h **** __STATIC_INLINE uint32_t LL_I2C_IsActiveFlag_STOP(I2C_TypeDef *I2Cx)
1220:Drivers/STM32F1xx_HAL_Driver/Inc/stm32f1xx_ll_i2c.h **** {
1221:Drivers/STM32F1xx_HAL_Driver/Inc/stm32f1xx_ll_i2c.h ****   return (READ_BIT(I2Cx->SR1, I2C_SR1_STOPF) == (I2C_SR1_STOPF));
1222:Drivers/STM32F1xx_HAL_Driver/Inc/stm32f1xx_ll_i2c.h **** }
1223:Drivers/STM32F1xx_HAL_Driver/Inc/stm32f1xx_ll_i2c.h **** 
1224:Drivers/STM32F1xx_HAL_Driver/Inc/stm32f1xx_ll_i2c.h **** /**
1225:Drivers/STM32F1xx_HAL_Driver/Inc/stm32f1xx_ll_i2c.h ****   * @brief  Indicate the status of Bus error flag.
1226:Drivers/STM32F1xx_HAL_Driver/Inc/stm32f1xx_ll_i2c.h ****   * @note   RESET: Clear default value.
ARM GAS  /tmp/cc8gkcIc.s 			page 25


1227:Drivers/STM32F1xx_HAL_Driver/Inc/stm32f1xx_ll_i2c.h ****   *         SET: When a misplaced Start or Stop condition is detected.
1228:Drivers/STM32F1xx_HAL_Driver/Inc/stm32f1xx_ll_i2c.h ****   * @rmtoll SR1          BERR          LL_I2C_IsActiveFlag_BERR
1229:Drivers/STM32F1xx_HAL_Driver/Inc/stm32f1xx_ll_i2c.h ****   * @param  I2Cx I2C Instance.
1230:Drivers/STM32F1xx_HAL_Driver/Inc/stm32f1xx_ll_i2c.h ****   * @retval State of bit (1 or 0).
1231:Drivers/STM32F1xx_HAL_Driver/Inc/stm32f1xx_ll_i2c.h ****   */
1232:Drivers/STM32F1xx_HAL_Driver/Inc/stm32f1xx_ll_i2c.h **** __STATIC_INLINE uint32_t LL_I2C_IsActiveFlag_BERR(I2C_TypeDef *I2Cx)
1233:Drivers/STM32F1xx_HAL_Driver/Inc/stm32f1xx_ll_i2c.h **** {
1234:Drivers/STM32F1xx_HAL_Driver/Inc/stm32f1xx_ll_i2c.h ****   return (READ_BIT(I2Cx->SR1, I2C_SR1_BERR) == (I2C_SR1_BERR));
1235:Drivers/STM32F1xx_HAL_Driver/Inc/stm32f1xx_ll_i2c.h **** }
1236:Drivers/STM32F1xx_HAL_Driver/Inc/stm32f1xx_ll_i2c.h **** 
1237:Drivers/STM32F1xx_HAL_Driver/Inc/stm32f1xx_ll_i2c.h **** /**
1238:Drivers/STM32F1xx_HAL_Driver/Inc/stm32f1xx_ll_i2c.h ****   * @brief  Indicate the status of Arbitration lost flag.
1239:Drivers/STM32F1xx_HAL_Driver/Inc/stm32f1xx_ll_i2c.h ****   * @note   RESET: Clear default value.
1240:Drivers/STM32F1xx_HAL_Driver/Inc/stm32f1xx_ll_i2c.h ****   *         SET: When arbitration lost.
1241:Drivers/STM32F1xx_HAL_Driver/Inc/stm32f1xx_ll_i2c.h ****   * @rmtoll SR1          ARLO          LL_I2C_IsActiveFlag_ARLO
1242:Drivers/STM32F1xx_HAL_Driver/Inc/stm32f1xx_ll_i2c.h ****   * @param  I2Cx I2C Instance.
1243:Drivers/STM32F1xx_HAL_Driver/Inc/stm32f1xx_ll_i2c.h ****   * @retval State of bit (1 or 0).
1244:Drivers/STM32F1xx_HAL_Driver/Inc/stm32f1xx_ll_i2c.h ****   */
1245:Drivers/STM32F1xx_HAL_Driver/Inc/stm32f1xx_ll_i2c.h **** __STATIC_INLINE uint32_t LL_I2C_IsActiveFlag_ARLO(I2C_TypeDef *I2Cx)
1246:Drivers/STM32F1xx_HAL_Driver/Inc/stm32f1xx_ll_i2c.h **** {
1247:Drivers/STM32F1xx_HAL_Driver/Inc/stm32f1xx_ll_i2c.h ****   return (READ_BIT(I2Cx->SR1, I2C_SR1_ARLO) == (I2C_SR1_ARLO));
1248:Drivers/STM32F1xx_HAL_Driver/Inc/stm32f1xx_ll_i2c.h **** }
1249:Drivers/STM32F1xx_HAL_Driver/Inc/stm32f1xx_ll_i2c.h **** 
1250:Drivers/STM32F1xx_HAL_Driver/Inc/stm32f1xx_ll_i2c.h **** /**
1251:Drivers/STM32F1xx_HAL_Driver/Inc/stm32f1xx_ll_i2c.h ****   * @brief  Indicate the status of Overrun/Underrun flag.
1252:Drivers/STM32F1xx_HAL_Driver/Inc/stm32f1xx_ll_i2c.h ****   * @note   RESET: Clear default value.
1253:Drivers/STM32F1xx_HAL_Driver/Inc/stm32f1xx_ll_i2c.h ****   *         SET: When an overrun/underrun error occurs (Clock Stretching Disabled).
1254:Drivers/STM32F1xx_HAL_Driver/Inc/stm32f1xx_ll_i2c.h ****   * @rmtoll SR1          OVR           LL_I2C_IsActiveFlag_OVR
1255:Drivers/STM32F1xx_HAL_Driver/Inc/stm32f1xx_ll_i2c.h ****   * @param  I2Cx I2C Instance.
1256:Drivers/STM32F1xx_HAL_Driver/Inc/stm32f1xx_ll_i2c.h ****   * @retval State of bit (1 or 0).
1257:Drivers/STM32F1xx_HAL_Driver/Inc/stm32f1xx_ll_i2c.h ****   */
1258:Drivers/STM32F1xx_HAL_Driver/Inc/stm32f1xx_ll_i2c.h **** __STATIC_INLINE uint32_t LL_I2C_IsActiveFlag_OVR(I2C_TypeDef *I2Cx)
1259:Drivers/STM32F1xx_HAL_Driver/Inc/stm32f1xx_ll_i2c.h **** {
1260:Drivers/STM32F1xx_HAL_Driver/Inc/stm32f1xx_ll_i2c.h ****   return (READ_BIT(I2Cx->SR1, I2C_SR1_OVR) == (I2C_SR1_OVR));
1261:Drivers/STM32F1xx_HAL_Driver/Inc/stm32f1xx_ll_i2c.h **** }
1262:Drivers/STM32F1xx_HAL_Driver/Inc/stm32f1xx_ll_i2c.h **** 
1263:Drivers/STM32F1xx_HAL_Driver/Inc/stm32f1xx_ll_i2c.h **** /**
1264:Drivers/STM32F1xx_HAL_Driver/Inc/stm32f1xx_ll_i2c.h ****   * @brief  Indicate the status of SMBus PEC error flag in reception.
1265:Drivers/STM32F1xx_HAL_Driver/Inc/stm32f1xx_ll_i2c.h ****   * @note   Macro IS_SMBUS_ALL_INSTANCE(I2Cx) can be used to check whether or not
1266:Drivers/STM32F1xx_HAL_Driver/Inc/stm32f1xx_ll_i2c.h ****   *         SMBus feature is supported by the I2Cx Instance.
1267:Drivers/STM32F1xx_HAL_Driver/Inc/stm32f1xx_ll_i2c.h ****   * @rmtoll SR1          PECERR        LL_I2C_IsActiveSMBusFlag_PECERR
1268:Drivers/STM32F1xx_HAL_Driver/Inc/stm32f1xx_ll_i2c.h ****   * @param  I2Cx I2C Instance.
1269:Drivers/STM32F1xx_HAL_Driver/Inc/stm32f1xx_ll_i2c.h ****   * @retval State of bit (1 or 0).
1270:Drivers/STM32F1xx_HAL_Driver/Inc/stm32f1xx_ll_i2c.h ****   */
1271:Drivers/STM32F1xx_HAL_Driver/Inc/stm32f1xx_ll_i2c.h **** __STATIC_INLINE uint32_t LL_I2C_IsActiveSMBusFlag_PECERR(I2C_TypeDef *I2Cx)
1272:Drivers/STM32F1xx_HAL_Driver/Inc/stm32f1xx_ll_i2c.h **** {
1273:Drivers/STM32F1xx_HAL_Driver/Inc/stm32f1xx_ll_i2c.h ****   return (READ_BIT(I2Cx->SR1, I2C_SR1_PECERR) == (I2C_SR1_PECERR));
1274:Drivers/STM32F1xx_HAL_Driver/Inc/stm32f1xx_ll_i2c.h **** }
1275:Drivers/STM32F1xx_HAL_Driver/Inc/stm32f1xx_ll_i2c.h **** 
1276:Drivers/STM32F1xx_HAL_Driver/Inc/stm32f1xx_ll_i2c.h **** /**
1277:Drivers/STM32F1xx_HAL_Driver/Inc/stm32f1xx_ll_i2c.h ****   * @brief  Indicate the status of SMBus Timeout detection flag.
1278:Drivers/STM32F1xx_HAL_Driver/Inc/stm32f1xx_ll_i2c.h ****   * @note   Macro IS_SMBUS_ALL_INSTANCE(I2Cx) can be used to check whether or not
1279:Drivers/STM32F1xx_HAL_Driver/Inc/stm32f1xx_ll_i2c.h ****   *         SMBus feature is supported by the I2Cx Instance.
1280:Drivers/STM32F1xx_HAL_Driver/Inc/stm32f1xx_ll_i2c.h ****   * @rmtoll SR1          TIMEOUT       LL_I2C_IsActiveSMBusFlag_TIMEOUT
1281:Drivers/STM32F1xx_HAL_Driver/Inc/stm32f1xx_ll_i2c.h ****   * @param  I2Cx I2C Instance.
1282:Drivers/STM32F1xx_HAL_Driver/Inc/stm32f1xx_ll_i2c.h ****   * @retval State of bit (1 or 0).
1283:Drivers/STM32F1xx_HAL_Driver/Inc/stm32f1xx_ll_i2c.h ****   */
ARM GAS  /tmp/cc8gkcIc.s 			page 26


1284:Drivers/STM32F1xx_HAL_Driver/Inc/stm32f1xx_ll_i2c.h **** __STATIC_INLINE uint32_t LL_I2C_IsActiveSMBusFlag_TIMEOUT(I2C_TypeDef *I2Cx)
1285:Drivers/STM32F1xx_HAL_Driver/Inc/stm32f1xx_ll_i2c.h **** {
1286:Drivers/STM32F1xx_HAL_Driver/Inc/stm32f1xx_ll_i2c.h ****   return (READ_BIT(I2Cx->SR1, I2C_SR1_TIMEOUT) == (I2C_SR1_TIMEOUT));
1287:Drivers/STM32F1xx_HAL_Driver/Inc/stm32f1xx_ll_i2c.h **** }
1288:Drivers/STM32F1xx_HAL_Driver/Inc/stm32f1xx_ll_i2c.h **** 
1289:Drivers/STM32F1xx_HAL_Driver/Inc/stm32f1xx_ll_i2c.h **** /**
1290:Drivers/STM32F1xx_HAL_Driver/Inc/stm32f1xx_ll_i2c.h ****   * @brief  Indicate the status of SMBus alert flag.
1291:Drivers/STM32F1xx_HAL_Driver/Inc/stm32f1xx_ll_i2c.h ****   * @note   Macro IS_SMBUS_ALL_INSTANCE(I2Cx) can be used to check whether or not
1292:Drivers/STM32F1xx_HAL_Driver/Inc/stm32f1xx_ll_i2c.h ****   *         SMBus feature is supported by the I2Cx Instance.
1293:Drivers/STM32F1xx_HAL_Driver/Inc/stm32f1xx_ll_i2c.h ****   * @rmtoll SR1          SMBALERT      LL_I2C_IsActiveSMBusFlag_ALERT
1294:Drivers/STM32F1xx_HAL_Driver/Inc/stm32f1xx_ll_i2c.h ****   * @param  I2Cx I2C Instance.
1295:Drivers/STM32F1xx_HAL_Driver/Inc/stm32f1xx_ll_i2c.h ****   * @retval State of bit (1 or 0).
1296:Drivers/STM32F1xx_HAL_Driver/Inc/stm32f1xx_ll_i2c.h ****   */
1297:Drivers/STM32F1xx_HAL_Driver/Inc/stm32f1xx_ll_i2c.h **** __STATIC_INLINE uint32_t LL_I2C_IsActiveSMBusFlag_ALERT(I2C_TypeDef *I2Cx)
1298:Drivers/STM32F1xx_HAL_Driver/Inc/stm32f1xx_ll_i2c.h **** {
1299:Drivers/STM32F1xx_HAL_Driver/Inc/stm32f1xx_ll_i2c.h ****   return (READ_BIT(I2Cx->SR1, I2C_SR1_SMBALERT) == (I2C_SR1_SMBALERT));
1300:Drivers/STM32F1xx_HAL_Driver/Inc/stm32f1xx_ll_i2c.h **** }
1301:Drivers/STM32F1xx_HAL_Driver/Inc/stm32f1xx_ll_i2c.h **** 
1302:Drivers/STM32F1xx_HAL_Driver/Inc/stm32f1xx_ll_i2c.h **** /**
1303:Drivers/STM32F1xx_HAL_Driver/Inc/stm32f1xx_ll_i2c.h ****   * @brief  Indicate the status of Bus Busy flag.
1304:Drivers/STM32F1xx_HAL_Driver/Inc/stm32f1xx_ll_i2c.h ****   * @note   RESET: Clear default value.
1305:Drivers/STM32F1xx_HAL_Driver/Inc/stm32f1xx_ll_i2c.h ****   *         SET: When a Start condition is detected.
1306:Drivers/STM32F1xx_HAL_Driver/Inc/stm32f1xx_ll_i2c.h ****   * @rmtoll SR2          BUSY          LL_I2C_IsActiveFlag_BUSY
1307:Drivers/STM32F1xx_HAL_Driver/Inc/stm32f1xx_ll_i2c.h ****   * @param  I2Cx I2C Instance.
1308:Drivers/STM32F1xx_HAL_Driver/Inc/stm32f1xx_ll_i2c.h ****   * @retval State of bit (1 or 0).
1309:Drivers/STM32F1xx_HAL_Driver/Inc/stm32f1xx_ll_i2c.h ****   */
1310:Drivers/STM32F1xx_HAL_Driver/Inc/stm32f1xx_ll_i2c.h **** __STATIC_INLINE uint32_t LL_I2C_IsActiveFlag_BUSY(I2C_TypeDef *I2Cx)
1311:Drivers/STM32F1xx_HAL_Driver/Inc/stm32f1xx_ll_i2c.h **** {
1312:Drivers/STM32F1xx_HAL_Driver/Inc/stm32f1xx_ll_i2c.h ****   return (READ_BIT(I2Cx->SR2, I2C_SR2_BUSY) == (I2C_SR2_BUSY));
1313:Drivers/STM32F1xx_HAL_Driver/Inc/stm32f1xx_ll_i2c.h **** }
1314:Drivers/STM32F1xx_HAL_Driver/Inc/stm32f1xx_ll_i2c.h **** 
1315:Drivers/STM32F1xx_HAL_Driver/Inc/stm32f1xx_ll_i2c.h **** /**
1316:Drivers/STM32F1xx_HAL_Driver/Inc/stm32f1xx_ll_i2c.h ****   * @brief  Indicate the status of Dual flag.
1317:Drivers/STM32F1xx_HAL_Driver/Inc/stm32f1xx_ll_i2c.h ****   * @note   RESET: Received address matched with OAR1.
1318:Drivers/STM32F1xx_HAL_Driver/Inc/stm32f1xx_ll_i2c.h ****   *         SET: Received address matched with OAR2.
1319:Drivers/STM32F1xx_HAL_Driver/Inc/stm32f1xx_ll_i2c.h ****   * @rmtoll SR2          DUALF         LL_I2C_IsActiveFlag_DUAL
1320:Drivers/STM32F1xx_HAL_Driver/Inc/stm32f1xx_ll_i2c.h ****   * @param  I2Cx I2C Instance.
1321:Drivers/STM32F1xx_HAL_Driver/Inc/stm32f1xx_ll_i2c.h ****   * @retval State of bit (1 or 0).
1322:Drivers/STM32F1xx_HAL_Driver/Inc/stm32f1xx_ll_i2c.h ****   */
1323:Drivers/STM32F1xx_HAL_Driver/Inc/stm32f1xx_ll_i2c.h **** __STATIC_INLINE uint32_t LL_I2C_IsActiveFlag_DUAL(I2C_TypeDef *I2Cx)
1324:Drivers/STM32F1xx_HAL_Driver/Inc/stm32f1xx_ll_i2c.h **** {
1325:Drivers/STM32F1xx_HAL_Driver/Inc/stm32f1xx_ll_i2c.h ****   return (READ_BIT(I2Cx->SR2, I2C_SR2_DUALF) == (I2C_SR2_DUALF));
1326:Drivers/STM32F1xx_HAL_Driver/Inc/stm32f1xx_ll_i2c.h **** }
1327:Drivers/STM32F1xx_HAL_Driver/Inc/stm32f1xx_ll_i2c.h **** 
1328:Drivers/STM32F1xx_HAL_Driver/Inc/stm32f1xx_ll_i2c.h **** /**
1329:Drivers/STM32F1xx_HAL_Driver/Inc/stm32f1xx_ll_i2c.h ****   * @brief  Indicate the status of SMBus Host address reception (Slave mode).
1330:Drivers/STM32F1xx_HAL_Driver/Inc/stm32f1xx_ll_i2c.h ****   * @note   Macro IS_SMBUS_ALL_INSTANCE(I2Cx) can be used to check whether or not
1331:Drivers/STM32F1xx_HAL_Driver/Inc/stm32f1xx_ll_i2c.h ****   *         SMBus feature is supported by the I2Cx Instance.
1332:Drivers/STM32F1xx_HAL_Driver/Inc/stm32f1xx_ll_i2c.h ****   * @note   RESET: No SMBus Host address
1333:Drivers/STM32F1xx_HAL_Driver/Inc/stm32f1xx_ll_i2c.h ****   *         SET: SMBus Host address received.
1334:Drivers/STM32F1xx_HAL_Driver/Inc/stm32f1xx_ll_i2c.h ****   * @note   This status is cleared by hardware after a STOP condition or repeated START condition.
1335:Drivers/STM32F1xx_HAL_Driver/Inc/stm32f1xx_ll_i2c.h ****   * @rmtoll SR2          SMBHOST       LL_I2C_IsActiveSMBusFlag_SMBHOST
1336:Drivers/STM32F1xx_HAL_Driver/Inc/stm32f1xx_ll_i2c.h ****   * @param  I2Cx I2C Instance.
1337:Drivers/STM32F1xx_HAL_Driver/Inc/stm32f1xx_ll_i2c.h ****   * @retval State of bit (1 or 0).
1338:Drivers/STM32F1xx_HAL_Driver/Inc/stm32f1xx_ll_i2c.h ****   */
1339:Drivers/STM32F1xx_HAL_Driver/Inc/stm32f1xx_ll_i2c.h **** __STATIC_INLINE uint32_t LL_I2C_IsActiveSMBusFlag_SMBHOST(I2C_TypeDef *I2Cx)
1340:Drivers/STM32F1xx_HAL_Driver/Inc/stm32f1xx_ll_i2c.h **** {
ARM GAS  /tmp/cc8gkcIc.s 			page 27


1341:Drivers/STM32F1xx_HAL_Driver/Inc/stm32f1xx_ll_i2c.h ****   return (READ_BIT(I2Cx->SR2, I2C_SR2_SMBHOST) == (I2C_SR2_SMBHOST));
1342:Drivers/STM32F1xx_HAL_Driver/Inc/stm32f1xx_ll_i2c.h **** }
1343:Drivers/STM32F1xx_HAL_Driver/Inc/stm32f1xx_ll_i2c.h **** 
1344:Drivers/STM32F1xx_HAL_Driver/Inc/stm32f1xx_ll_i2c.h **** /**
1345:Drivers/STM32F1xx_HAL_Driver/Inc/stm32f1xx_ll_i2c.h ****   * @brief  Indicate the status of SMBus Device default address reception (Slave mode).
1346:Drivers/STM32F1xx_HAL_Driver/Inc/stm32f1xx_ll_i2c.h ****   * @note   Macro IS_SMBUS_ALL_INSTANCE(I2Cx) can be used to check whether or not
1347:Drivers/STM32F1xx_HAL_Driver/Inc/stm32f1xx_ll_i2c.h ****   *         SMBus feature is supported by the I2Cx Instance.
1348:Drivers/STM32F1xx_HAL_Driver/Inc/stm32f1xx_ll_i2c.h ****   * @note   RESET: No SMBus Device default address
1349:Drivers/STM32F1xx_HAL_Driver/Inc/stm32f1xx_ll_i2c.h ****   *         SET: SMBus Device default address received.
1350:Drivers/STM32F1xx_HAL_Driver/Inc/stm32f1xx_ll_i2c.h ****   * @note   This status is cleared by hardware after a STOP condition or repeated START condition.
1351:Drivers/STM32F1xx_HAL_Driver/Inc/stm32f1xx_ll_i2c.h ****   * @rmtoll SR2          SMBDEFAULT    LL_I2C_IsActiveSMBusFlag_SMBDEFAULT
1352:Drivers/STM32F1xx_HAL_Driver/Inc/stm32f1xx_ll_i2c.h ****   * @param  I2Cx I2C Instance.
1353:Drivers/STM32F1xx_HAL_Driver/Inc/stm32f1xx_ll_i2c.h ****   * @retval State of bit (1 or 0).
1354:Drivers/STM32F1xx_HAL_Driver/Inc/stm32f1xx_ll_i2c.h ****   */
1355:Drivers/STM32F1xx_HAL_Driver/Inc/stm32f1xx_ll_i2c.h **** __STATIC_INLINE uint32_t LL_I2C_IsActiveSMBusFlag_SMBDEFAULT(I2C_TypeDef *I2Cx)
1356:Drivers/STM32F1xx_HAL_Driver/Inc/stm32f1xx_ll_i2c.h **** {
1357:Drivers/STM32F1xx_HAL_Driver/Inc/stm32f1xx_ll_i2c.h ****   return (READ_BIT(I2Cx->SR2, I2C_SR2_SMBDEFAULT) == (I2C_SR2_SMBDEFAULT));
1358:Drivers/STM32F1xx_HAL_Driver/Inc/stm32f1xx_ll_i2c.h **** }
1359:Drivers/STM32F1xx_HAL_Driver/Inc/stm32f1xx_ll_i2c.h **** 
1360:Drivers/STM32F1xx_HAL_Driver/Inc/stm32f1xx_ll_i2c.h **** /**
1361:Drivers/STM32F1xx_HAL_Driver/Inc/stm32f1xx_ll_i2c.h ****   * @brief  Indicate the status of General call address reception (Slave mode).
1362:Drivers/STM32F1xx_HAL_Driver/Inc/stm32f1xx_ll_i2c.h ****   * @note   RESET: No General call address
1363:Drivers/STM32F1xx_HAL_Driver/Inc/stm32f1xx_ll_i2c.h ****   *         SET: General call address received.
1364:Drivers/STM32F1xx_HAL_Driver/Inc/stm32f1xx_ll_i2c.h ****   * @note   This status is cleared by hardware after a STOP condition or repeated START condition.
1365:Drivers/STM32F1xx_HAL_Driver/Inc/stm32f1xx_ll_i2c.h ****   * @rmtoll SR2          GENCALL       LL_I2C_IsActiveFlag_GENCALL
1366:Drivers/STM32F1xx_HAL_Driver/Inc/stm32f1xx_ll_i2c.h ****   * @param  I2Cx I2C Instance.
1367:Drivers/STM32F1xx_HAL_Driver/Inc/stm32f1xx_ll_i2c.h ****   * @retval State of bit (1 or 0).
1368:Drivers/STM32F1xx_HAL_Driver/Inc/stm32f1xx_ll_i2c.h ****   */
1369:Drivers/STM32F1xx_HAL_Driver/Inc/stm32f1xx_ll_i2c.h **** __STATIC_INLINE uint32_t LL_I2C_IsActiveFlag_GENCALL(I2C_TypeDef *I2Cx)
1370:Drivers/STM32F1xx_HAL_Driver/Inc/stm32f1xx_ll_i2c.h **** {
1371:Drivers/STM32F1xx_HAL_Driver/Inc/stm32f1xx_ll_i2c.h ****   return (READ_BIT(I2Cx->SR2, I2C_SR2_GENCALL) == (I2C_SR2_GENCALL));
1372:Drivers/STM32F1xx_HAL_Driver/Inc/stm32f1xx_ll_i2c.h **** }
1373:Drivers/STM32F1xx_HAL_Driver/Inc/stm32f1xx_ll_i2c.h **** 
1374:Drivers/STM32F1xx_HAL_Driver/Inc/stm32f1xx_ll_i2c.h **** /**
1375:Drivers/STM32F1xx_HAL_Driver/Inc/stm32f1xx_ll_i2c.h ****   * @brief  Indicate the status of Master/Slave flag.
1376:Drivers/STM32F1xx_HAL_Driver/Inc/stm32f1xx_ll_i2c.h ****   * @note   RESET: Slave Mode.
1377:Drivers/STM32F1xx_HAL_Driver/Inc/stm32f1xx_ll_i2c.h ****   *         SET: Master Mode.
1378:Drivers/STM32F1xx_HAL_Driver/Inc/stm32f1xx_ll_i2c.h ****   * @rmtoll SR2          MSL           LL_I2C_IsActiveFlag_MSL
1379:Drivers/STM32F1xx_HAL_Driver/Inc/stm32f1xx_ll_i2c.h ****   * @param  I2Cx I2C Instance.
1380:Drivers/STM32F1xx_HAL_Driver/Inc/stm32f1xx_ll_i2c.h ****   * @retval State of bit (1 or 0).
1381:Drivers/STM32F1xx_HAL_Driver/Inc/stm32f1xx_ll_i2c.h ****   */
1382:Drivers/STM32F1xx_HAL_Driver/Inc/stm32f1xx_ll_i2c.h **** __STATIC_INLINE uint32_t LL_I2C_IsActiveFlag_MSL(I2C_TypeDef *I2Cx)
1383:Drivers/STM32F1xx_HAL_Driver/Inc/stm32f1xx_ll_i2c.h **** {
1384:Drivers/STM32F1xx_HAL_Driver/Inc/stm32f1xx_ll_i2c.h ****   return (READ_BIT(I2Cx->SR2, I2C_SR2_MSL) == (I2C_SR2_MSL));
1385:Drivers/STM32F1xx_HAL_Driver/Inc/stm32f1xx_ll_i2c.h **** }
1386:Drivers/STM32F1xx_HAL_Driver/Inc/stm32f1xx_ll_i2c.h **** 
1387:Drivers/STM32F1xx_HAL_Driver/Inc/stm32f1xx_ll_i2c.h **** /**
1388:Drivers/STM32F1xx_HAL_Driver/Inc/stm32f1xx_ll_i2c.h ****   * @brief  Clear Address Matched flag.
1389:Drivers/STM32F1xx_HAL_Driver/Inc/stm32f1xx_ll_i2c.h ****   * @note   Clearing this flag is done by a read access to the I2Cx_SR1
1390:Drivers/STM32F1xx_HAL_Driver/Inc/stm32f1xx_ll_i2c.h ****   *         register followed by a read access to the I2Cx_SR2 register.
1391:Drivers/STM32F1xx_HAL_Driver/Inc/stm32f1xx_ll_i2c.h ****   * @rmtoll SR1          ADDR          LL_I2C_ClearFlag_ADDR
1392:Drivers/STM32F1xx_HAL_Driver/Inc/stm32f1xx_ll_i2c.h ****   * @param  I2Cx I2C Instance.
1393:Drivers/STM32F1xx_HAL_Driver/Inc/stm32f1xx_ll_i2c.h ****   * @retval None
1394:Drivers/STM32F1xx_HAL_Driver/Inc/stm32f1xx_ll_i2c.h ****   */
1395:Drivers/STM32F1xx_HAL_Driver/Inc/stm32f1xx_ll_i2c.h **** __STATIC_INLINE void LL_I2C_ClearFlag_ADDR(I2C_TypeDef *I2Cx)
1396:Drivers/STM32F1xx_HAL_Driver/Inc/stm32f1xx_ll_i2c.h **** {
1397:Drivers/STM32F1xx_HAL_Driver/Inc/stm32f1xx_ll_i2c.h ****   __IO uint32_t tmpreg;
ARM GAS  /tmp/cc8gkcIc.s 			page 28


1398:Drivers/STM32F1xx_HAL_Driver/Inc/stm32f1xx_ll_i2c.h ****   tmpreg = I2Cx->SR1;
1399:Drivers/STM32F1xx_HAL_Driver/Inc/stm32f1xx_ll_i2c.h ****   (void) tmpreg;
1400:Drivers/STM32F1xx_HAL_Driver/Inc/stm32f1xx_ll_i2c.h ****   tmpreg = I2Cx->SR2;
1401:Drivers/STM32F1xx_HAL_Driver/Inc/stm32f1xx_ll_i2c.h ****   (void) tmpreg;
1402:Drivers/STM32F1xx_HAL_Driver/Inc/stm32f1xx_ll_i2c.h **** }
1403:Drivers/STM32F1xx_HAL_Driver/Inc/stm32f1xx_ll_i2c.h **** 
1404:Drivers/STM32F1xx_HAL_Driver/Inc/stm32f1xx_ll_i2c.h **** /**
1405:Drivers/STM32F1xx_HAL_Driver/Inc/stm32f1xx_ll_i2c.h ****   * @brief  Clear Acknowledge failure flag.
1406:Drivers/STM32F1xx_HAL_Driver/Inc/stm32f1xx_ll_i2c.h ****   * @rmtoll SR1          AF            LL_I2C_ClearFlag_AF
1407:Drivers/STM32F1xx_HAL_Driver/Inc/stm32f1xx_ll_i2c.h ****   * @param  I2Cx I2C Instance.
1408:Drivers/STM32F1xx_HAL_Driver/Inc/stm32f1xx_ll_i2c.h ****   * @retval None
1409:Drivers/STM32F1xx_HAL_Driver/Inc/stm32f1xx_ll_i2c.h ****   */
1410:Drivers/STM32F1xx_HAL_Driver/Inc/stm32f1xx_ll_i2c.h **** __STATIC_INLINE void LL_I2C_ClearFlag_AF(I2C_TypeDef *I2Cx)
1411:Drivers/STM32F1xx_HAL_Driver/Inc/stm32f1xx_ll_i2c.h **** {
1412:Drivers/STM32F1xx_HAL_Driver/Inc/stm32f1xx_ll_i2c.h ****   CLEAR_BIT(I2Cx->SR1, I2C_SR1_AF);
1413:Drivers/STM32F1xx_HAL_Driver/Inc/stm32f1xx_ll_i2c.h **** }
1414:Drivers/STM32F1xx_HAL_Driver/Inc/stm32f1xx_ll_i2c.h **** 
1415:Drivers/STM32F1xx_HAL_Driver/Inc/stm32f1xx_ll_i2c.h **** /**
1416:Drivers/STM32F1xx_HAL_Driver/Inc/stm32f1xx_ll_i2c.h ****   * @brief  Clear Stop detection flag.
1417:Drivers/STM32F1xx_HAL_Driver/Inc/stm32f1xx_ll_i2c.h ****   * @note   Clearing this flag is done by a read access to the I2Cx_SR1
1418:Drivers/STM32F1xx_HAL_Driver/Inc/stm32f1xx_ll_i2c.h ****   *         register followed by a write access to I2Cx_CR1 register.
1419:Drivers/STM32F1xx_HAL_Driver/Inc/stm32f1xx_ll_i2c.h ****   * @rmtoll SR1          STOPF         LL_I2C_ClearFlag_STOP\n
1420:Drivers/STM32F1xx_HAL_Driver/Inc/stm32f1xx_ll_i2c.h ****   *         CR1          PE            LL_I2C_ClearFlag_STOP
1421:Drivers/STM32F1xx_HAL_Driver/Inc/stm32f1xx_ll_i2c.h ****   * @param  I2Cx I2C Instance.
1422:Drivers/STM32F1xx_HAL_Driver/Inc/stm32f1xx_ll_i2c.h ****   * @retval None
1423:Drivers/STM32F1xx_HAL_Driver/Inc/stm32f1xx_ll_i2c.h ****   */
1424:Drivers/STM32F1xx_HAL_Driver/Inc/stm32f1xx_ll_i2c.h **** __STATIC_INLINE void LL_I2C_ClearFlag_STOP(I2C_TypeDef *I2Cx)
1425:Drivers/STM32F1xx_HAL_Driver/Inc/stm32f1xx_ll_i2c.h **** {
1426:Drivers/STM32F1xx_HAL_Driver/Inc/stm32f1xx_ll_i2c.h ****   __IO uint32_t tmpreg;
1427:Drivers/STM32F1xx_HAL_Driver/Inc/stm32f1xx_ll_i2c.h ****   tmpreg = I2Cx->SR1;
1428:Drivers/STM32F1xx_HAL_Driver/Inc/stm32f1xx_ll_i2c.h ****   (void) tmpreg;
1429:Drivers/STM32F1xx_HAL_Driver/Inc/stm32f1xx_ll_i2c.h ****   SET_BIT(I2Cx->CR1, I2C_CR1_PE);
1430:Drivers/STM32F1xx_HAL_Driver/Inc/stm32f1xx_ll_i2c.h **** }
1431:Drivers/STM32F1xx_HAL_Driver/Inc/stm32f1xx_ll_i2c.h **** 
1432:Drivers/STM32F1xx_HAL_Driver/Inc/stm32f1xx_ll_i2c.h **** /**
1433:Drivers/STM32F1xx_HAL_Driver/Inc/stm32f1xx_ll_i2c.h ****   * @brief  Clear Bus error flag.
1434:Drivers/STM32F1xx_HAL_Driver/Inc/stm32f1xx_ll_i2c.h ****   * @rmtoll SR1          BERR          LL_I2C_ClearFlag_BERR
1435:Drivers/STM32F1xx_HAL_Driver/Inc/stm32f1xx_ll_i2c.h ****   * @param  I2Cx I2C Instance.
1436:Drivers/STM32F1xx_HAL_Driver/Inc/stm32f1xx_ll_i2c.h ****   * @retval None
1437:Drivers/STM32F1xx_HAL_Driver/Inc/stm32f1xx_ll_i2c.h ****   */
1438:Drivers/STM32F1xx_HAL_Driver/Inc/stm32f1xx_ll_i2c.h **** __STATIC_INLINE void LL_I2C_ClearFlag_BERR(I2C_TypeDef *I2Cx)
1439:Drivers/STM32F1xx_HAL_Driver/Inc/stm32f1xx_ll_i2c.h **** {
1440:Drivers/STM32F1xx_HAL_Driver/Inc/stm32f1xx_ll_i2c.h ****   CLEAR_BIT(I2Cx->SR1, I2C_SR1_BERR);
1441:Drivers/STM32F1xx_HAL_Driver/Inc/stm32f1xx_ll_i2c.h **** }
1442:Drivers/STM32F1xx_HAL_Driver/Inc/stm32f1xx_ll_i2c.h **** 
1443:Drivers/STM32F1xx_HAL_Driver/Inc/stm32f1xx_ll_i2c.h **** /**
1444:Drivers/STM32F1xx_HAL_Driver/Inc/stm32f1xx_ll_i2c.h ****   * @brief  Clear Arbitration lost flag.
1445:Drivers/STM32F1xx_HAL_Driver/Inc/stm32f1xx_ll_i2c.h ****   * @rmtoll SR1          ARLO          LL_I2C_ClearFlag_ARLO
1446:Drivers/STM32F1xx_HAL_Driver/Inc/stm32f1xx_ll_i2c.h ****   * @param  I2Cx I2C Instance.
1447:Drivers/STM32F1xx_HAL_Driver/Inc/stm32f1xx_ll_i2c.h ****   * @retval None
1448:Drivers/STM32F1xx_HAL_Driver/Inc/stm32f1xx_ll_i2c.h ****   */
1449:Drivers/STM32F1xx_HAL_Driver/Inc/stm32f1xx_ll_i2c.h **** __STATIC_INLINE void LL_I2C_ClearFlag_ARLO(I2C_TypeDef *I2Cx)
1450:Drivers/STM32F1xx_HAL_Driver/Inc/stm32f1xx_ll_i2c.h **** {
1451:Drivers/STM32F1xx_HAL_Driver/Inc/stm32f1xx_ll_i2c.h ****   CLEAR_BIT(I2Cx->SR1, I2C_SR1_ARLO);
1452:Drivers/STM32F1xx_HAL_Driver/Inc/stm32f1xx_ll_i2c.h **** }
1453:Drivers/STM32F1xx_HAL_Driver/Inc/stm32f1xx_ll_i2c.h **** 
1454:Drivers/STM32F1xx_HAL_Driver/Inc/stm32f1xx_ll_i2c.h **** /**
ARM GAS  /tmp/cc8gkcIc.s 			page 29


1455:Drivers/STM32F1xx_HAL_Driver/Inc/stm32f1xx_ll_i2c.h ****   * @brief  Clear Overrun/Underrun flag.
1456:Drivers/STM32F1xx_HAL_Driver/Inc/stm32f1xx_ll_i2c.h ****   * @rmtoll SR1          OVR           LL_I2C_ClearFlag_OVR
1457:Drivers/STM32F1xx_HAL_Driver/Inc/stm32f1xx_ll_i2c.h ****   * @param  I2Cx I2C Instance.
1458:Drivers/STM32F1xx_HAL_Driver/Inc/stm32f1xx_ll_i2c.h ****   * @retval None
1459:Drivers/STM32F1xx_HAL_Driver/Inc/stm32f1xx_ll_i2c.h ****   */
1460:Drivers/STM32F1xx_HAL_Driver/Inc/stm32f1xx_ll_i2c.h **** __STATIC_INLINE void LL_I2C_ClearFlag_OVR(I2C_TypeDef *I2Cx)
1461:Drivers/STM32F1xx_HAL_Driver/Inc/stm32f1xx_ll_i2c.h **** {
1462:Drivers/STM32F1xx_HAL_Driver/Inc/stm32f1xx_ll_i2c.h ****   CLEAR_BIT(I2Cx->SR1, I2C_SR1_OVR);
1463:Drivers/STM32F1xx_HAL_Driver/Inc/stm32f1xx_ll_i2c.h **** }
1464:Drivers/STM32F1xx_HAL_Driver/Inc/stm32f1xx_ll_i2c.h **** 
1465:Drivers/STM32F1xx_HAL_Driver/Inc/stm32f1xx_ll_i2c.h **** /**
1466:Drivers/STM32F1xx_HAL_Driver/Inc/stm32f1xx_ll_i2c.h ****   * @brief  Clear SMBus PEC error flag.
1467:Drivers/STM32F1xx_HAL_Driver/Inc/stm32f1xx_ll_i2c.h ****   * @rmtoll SR1          PECERR        LL_I2C_ClearSMBusFlag_PECERR
1468:Drivers/STM32F1xx_HAL_Driver/Inc/stm32f1xx_ll_i2c.h ****   * @param  I2Cx I2C Instance.
1469:Drivers/STM32F1xx_HAL_Driver/Inc/stm32f1xx_ll_i2c.h ****   * @retval None
1470:Drivers/STM32F1xx_HAL_Driver/Inc/stm32f1xx_ll_i2c.h ****   */
1471:Drivers/STM32F1xx_HAL_Driver/Inc/stm32f1xx_ll_i2c.h **** __STATIC_INLINE void LL_I2C_ClearSMBusFlag_PECERR(I2C_TypeDef *I2Cx)
1472:Drivers/STM32F1xx_HAL_Driver/Inc/stm32f1xx_ll_i2c.h **** {
1473:Drivers/STM32F1xx_HAL_Driver/Inc/stm32f1xx_ll_i2c.h ****   CLEAR_BIT(I2Cx->SR1, I2C_SR1_PECERR);
1474:Drivers/STM32F1xx_HAL_Driver/Inc/stm32f1xx_ll_i2c.h **** }
1475:Drivers/STM32F1xx_HAL_Driver/Inc/stm32f1xx_ll_i2c.h **** 
1476:Drivers/STM32F1xx_HAL_Driver/Inc/stm32f1xx_ll_i2c.h **** /**
1477:Drivers/STM32F1xx_HAL_Driver/Inc/stm32f1xx_ll_i2c.h ****   * @brief  Clear SMBus Timeout detection flag.
1478:Drivers/STM32F1xx_HAL_Driver/Inc/stm32f1xx_ll_i2c.h ****   * @note   Macro IS_SMBUS_ALL_INSTANCE(I2Cx) can be used to check whether or not
1479:Drivers/STM32F1xx_HAL_Driver/Inc/stm32f1xx_ll_i2c.h ****   *         SMBus feature is supported by the I2Cx Instance.
1480:Drivers/STM32F1xx_HAL_Driver/Inc/stm32f1xx_ll_i2c.h ****   * @rmtoll SR1          TIMEOUT       LL_I2C_ClearSMBusFlag_TIMEOUT
1481:Drivers/STM32F1xx_HAL_Driver/Inc/stm32f1xx_ll_i2c.h ****   * @param  I2Cx I2C Instance.
1482:Drivers/STM32F1xx_HAL_Driver/Inc/stm32f1xx_ll_i2c.h ****   * @retval None
1483:Drivers/STM32F1xx_HAL_Driver/Inc/stm32f1xx_ll_i2c.h ****   */
1484:Drivers/STM32F1xx_HAL_Driver/Inc/stm32f1xx_ll_i2c.h **** __STATIC_INLINE void LL_I2C_ClearSMBusFlag_TIMEOUT(I2C_TypeDef *I2Cx)
1485:Drivers/STM32F1xx_HAL_Driver/Inc/stm32f1xx_ll_i2c.h **** {
1486:Drivers/STM32F1xx_HAL_Driver/Inc/stm32f1xx_ll_i2c.h ****   CLEAR_BIT(I2Cx->SR1, I2C_SR1_TIMEOUT);
1487:Drivers/STM32F1xx_HAL_Driver/Inc/stm32f1xx_ll_i2c.h **** }
1488:Drivers/STM32F1xx_HAL_Driver/Inc/stm32f1xx_ll_i2c.h **** 
1489:Drivers/STM32F1xx_HAL_Driver/Inc/stm32f1xx_ll_i2c.h **** /**
1490:Drivers/STM32F1xx_HAL_Driver/Inc/stm32f1xx_ll_i2c.h ****   * @brief  Clear SMBus Alert flag.
1491:Drivers/STM32F1xx_HAL_Driver/Inc/stm32f1xx_ll_i2c.h ****   * @note   Macro IS_SMBUS_ALL_INSTANCE(I2Cx) can be used to check whether or not
1492:Drivers/STM32F1xx_HAL_Driver/Inc/stm32f1xx_ll_i2c.h ****   *         SMBus feature is supported by the I2Cx Instance.
1493:Drivers/STM32F1xx_HAL_Driver/Inc/stm32f1xx_ll_i2c.h ****   * @rmtoll SR1          SMBALERT      LL_I2C_ClearSMBusFlag_ALERT
1494:Drivers/STM32F1xx_HAL_Driver/Inc/stm32f1xx_ll_i2c.h ****   * @param  I2Cx I2C Instance.
1495:Drivers/STM32F1xx_HAL_Driver/Inc/stm32f1xx_ll_i2c.h ****   * @retval None
1496:Drivers/STM32F1xx_HAL_Driver/Inc/stm32f1xx_ll_i2c.h ****   */
1497:Drivers/STM32F1xx_HAL_Driver/Inc/stm32f1xx_ll_i2c.h **** __STATIC_INLINE void LL_I2C_ClearSMBusFlag_ALERT(I2C_TypeDef *I2Cx)
1498:Drivers/STM32F1xx_HAL_Driver/Inc/stm32f1xx_ll_i2c.h **** {
1499:Drivers/STM32F1xx_HAL_Driver/Inc/stm32f1xx_ll_i2c.h ****   CLEAR_BIT(I2Cx->SR1, I2C_SR1_SMBALERT);
1500:Drivers/STM32F1xx_HAL_Driver/Inc/stm32f1xx_ll_i2c.h **** }
1501:Drivers/STM32F1xx_HAL_Driver/Inc/stm32f1xx_ll_i2c.h **** 
1502:Drivers/STM32F1xx_HAL_Driver/Inc/stm32f1xx_ll_i2c.h **** /**
1503:Drivers/STM32F1xx_HAL_Driver/Inc/stm32f1xx_ll_i2c.h ****   * @}
1504:Drivers/STM32F1xx_HAL_Driver/Inc/stm32f1xx_ll_i2c.h ****   */
1505:Drivers/STM32F1xx_HAL_Driver/Inc/stm32f1xx_ll_i2c.h **** 
1506:Drivers/STM32F1xx_HAL_Driver/Inc/stm32f1xx_ll_i2c.h **** /** @defgroup I2C_LL_EF_Data_Management Data_Management
1507:Drivers/STM32F1xx_HAL_Driver/Inc/stm32f1xx_ll_i2c.h ****   * @{
1508:Drivers/STM32F1xx_HAL_Driver/Inc/stm32f1xx_ll_i2c.h ****   */
1509:Drivers/STM32F1xx_HAL_Driver/Inc/stm32f1xx_ll_i2c.h **** 
1510:Drivers/STM32F1xx_HAL_Driver/Inc/stm32f1xx_ll_i2c.h **** /**
1511:Drivers/STM32F1xx_HAL_Driver/Inc/stm32f1xx_ll_i2c.h ****   * @brief  Enable Reset of I2C peripheral.
ARM GAS  /tmp/cc8gkcIc.s 			page 30


1512:Drivers/STM32F1xx_HAL_Driver/Inc/stm32f1xx_ll_i2c.h ****   * @rmtoll CR1          SWRST         LL_I2C_EnableReset
1513:Drivers/STM32F1xx_HAL_Driver/Inc/stm32f1xx_ll_i2c.h ****   * @param  I2Cx I2C Instance.
1514:Drivers/STM32F1xx_HAL_Driver/Inc/stm32f1xx_ll_i2c.h ****   * @retval None
1515:Drivers/STM32F1xx_HAL_Driver/Inc/stm32f1xx_ll_i2c.h ****   */
1516:Drivers/STM32F1xx_HAL_Driver/Inc/stm32f1xx_ll_i2c.h **** __STATIC_INLINE void LL_I2C_EnableReset(I2C_TypeDef *I2Cx)
1517:Drivers/STM32F1xx_HAL_Driver/Inc/stm32f1xx_ll_i2c.h **** {
1518:Drivers/STM32F1xx_HAL_Driver/Inc/stm32f1xx_ll_i2c.h ****   SET_BIT(I2Cx->CR1, I2C_CR1_SWRST);
1519:Drivers/STM32F1xx_HAL_Driver/Inc/stm32f1xx_ll_i2c.h **** }
1520:Drivers/STM32F1xx_HAL_Driver/Inc/stm32f1xx_ll_i2c.h **** 
1521:Drivers/STM32F1xx_HAL_Driver/Inc/stm32f1xx_ll_i2c.h **** /**
1522:Drivers/STM32F1xx_HAL_Driver/Inc/stm32f1xx_ll_i2c.h ****   * @brief  Disable Reset of I2C peripheral.
1523:Drivers/STM32F1xx_HAL_Driver/Inc/stm32f1xx_ll_i2c.h ****   * @rmtoll CR1          SWRST         LL_I2C_DisableReset
1524:Drivers/STM32F1xx_HAL_Driver/Inc/stm32f1xx_ll_i2c.h ****   * @param  I2Cx I2C Instance.
1525:Drivers/STM32F1xx_HAL_Driver/Inc/stm32f1xx_ll_i2c.h ****   * @retval None
1526:Drivers/STM32F1xx_HAL_Driver/Inc/stm32f1xx_ll_i2c.h ****   */
1527:Drivers/STM32F1xx_HAL_Driver/Inc/stm32f1xx_ll_i2c.h **** __STATIC_INLINE void LL_I2C_DisableReset(I2C_TypeDef *I2Cx)
1528:Drivers/STM32F1xx_HAL_Driver/Inc/stm32f1xx_ll_i2c.h **** {
1529:Drivers/STM32F1xx_HAL_Driver/Inc/stm32f1xx_ll_i2c.h ****   CLEAR_BIT(I2Cx->CR1, I2C_CR1_SWRST);
1530:Drivers/STM32F1xx_HAL_Driver/Inc/stm32f1xx_ll_i2c.h **** }
1531:Drivers/STM32F1xx_HAL_Driver/Inc/stm32f1xx_ll_i2c.h **** 
1532:Drivers/STM32F1xx_HAL_Driver/Inc/stm32f1xx_ll_i2c.h **** /**
1533:Drivers/STM32F1xx_HAL_Driver/Inc/stm32f1xx_ll_i2c.h ****   * @brief  Check if the I2C peripheral is under reset state or not.
1534:Drivers/STM32F1xx_HAL_Driver/Inc/stm32f1xx_ll_i2c.h ****   * @rmtoll CR1          SWRST         LL_I2C_IsResetEnabled
1535:Drivers/STM32F1xx_HAL_Driver/Inc/stm32f1xx_ll_i2c.h ****   * @param  I2Cx I2C Instance.
1536:Drivers/STM32F1xx_HAL_Driver/Inc/stm32f1xx_ll_i2c.h ****   * @retval State of bit (1 or 0).
1537:Drivers/STM32F1xx_HAL_Driver/Inc/stm32f1xx_ll_i2c.h ****   */
1538:Drivers/STM32F1xx_HAL_Driver/Inc/stm32f1xx_ll_i2c.h **** __STATIC_INLINE uint32_t LL_I2C_IsResetEnabled(I2C_TypeDef *I2Cx)
1539:Drivers/STM32F1xx_HAL_Driver/Inc/stm32f1xx_ll_i2c.h **** {
1540:Drivers/STM32F1xx_HAL_Driver/Inc/stm32f1xx_ll_i2c.h ****   return (READ_BIT(I2Cx->CR1, I2C_CR1_SWRST) == (I2C_CR1_SWRST));
1541:Drivers/STM32F1xx_HAL_Driver/Inc/stm32f1xx_ll_i2c.h **** }
1542:Drivers/STM32F1xx_HAL_Driver/Inc/stm32f1xx_ll_i2c.h **** 
1543:Drivers/STM32F1xx_HAL_Driver/Inc/stm32f1xx_ll_i2c.h **** /**
1544:Drivers/STM32F1xx_HAL_Driver/Inc/stm32f1xx_ll_i2c.h ****   * @brief  Prepare the generation of a ACKnowledge or Non ACKnowledge condition after the address 
1545:Drivers/STM32F1xx_HAL_Driver/Inc/stm32f1xx_ll_i2c.h ****   * @note   Usage in Slave or Master mode.
1546:Drivers/STM32F1xx_HAL_Driver/Inc/stm32f1xx_ll_i2c.h ****   * @rmtoll CR1          ACK           LL_I2C_AcknowledgeNextData
1547:Drivers/STM32F1xx_HAL_Driver/Inc/stm32f1xx_ll_i2c.h ****   * @param  I2Cx I2C Instance.
1548:Drivers/STM32F1xx_HAL_Driver/Inc/stm32f1xx_ll_i2c.h ****   * @param  TypeAcknowledge This parameter can be one of the following values:
1549:Drivers/STM32F1xx_HAL_Driver/Inc/stm32f1xx_ll_i2c.h ****   *         @arg @ref LL_I2C_ACK
1550:Drivers/STM32F1xx_HAL_Driver/Inc/stm32f1xx_ll_i2c.h ****   *         @arg @ref LL_I2C_NACK
1551:Drivers/STM32F1xx_HAL_Driver/Inc/stm32f1xx_ll_i2c.h ****   * @retval None
1552:Drivers/STM32F1xx_HAL_Driver/Inc/stm32f1xx_ll_i2c.h ****   */
1553:Drivers/STM32F1xx_HAL_Driver/Inc/stm32f1xx_ll_i2c.h **** __STATIC_INLINE void LL_I2C_AcknowledgeNextData(I2C_TypeDef *I2Cx, uint32_t TypeAcknowledge)
1554:Drivers/STM32F1xx_HAL_Driver/Inc/stm32f1xx_ll_i2c.h **** {
1555:Drivers/STM32F1xx_HAL_Driver/Inc/stm32f1xx_ll_i2c.h ****   MODIFY_REG(I2Cx->CR1, I2C_CR1_ACK, TypeAcknowledge);
1556:Drivers/STM32F1xx_HAL_Driver/Inc/stm32f1xx_ll_i2c.h **** }
1557:Drivers/STM32F1xx_HAL_Driver/Inc/stm32f1xx_ll_i2c.h **** 
1558:Drivers/STM32F1xx_HAL_Driver/Inc/stm32f1xx_ll_i2c.h **** /**
1559:Drivers/STM32F1xx_HAL_Driver/Inc/stm32f1xx_ll_i2c.h ****   * @brief  Generate a START or RESTART condition
1560:Drivers/STM32F1xx_HAL_Driver/Inc/stm32f1xx_ll_i2c.h ****   * @note   The START bit can be set even if bus is BUSY or I2C is in slave mode.
1561:Drivers/STM32F1xx_HAL_Driver/Inc/stm32f1xx_ll_i2c.h ****   *         This action has no effect when RELOAD is set.
1562:Drivers/STM32F1xx_HAL_Driver/Inc/stm32f1xx_ll_i2c.h ****   * @rmtoll CR1          START         LL_I2C_GenerateStartCondition
1563:Drivers/STM32F1xx_HAL_Driver/Inc/stm32f1xx_ll_i2c.h ****   * @param  I2Cx I2C Instance.
1564:Drivers/STM32F1xx_HAL_Driver/Inc/stm32f1xx_ll_i2c.h ****   * @retval None
1565:Drivers/STM32F1xx_HAL_Driver/Inc/stm32f1xx_ll_i2c.h ****   */
1566:Drivers/STM32F1xx_HAL_Driver/Inc/stm32f1xx_ll_i2c.h **** __STATIC_INLINE void LL_I2C_GenerateStartCondition(I2C_TypeDef *I2Cx)
1567:Drivers/STM32F1xx_HAL_Driver/Inc/stm32f1xx_ll_i2c.h **** {
1568:Drivers/STM32F1xx_HAL_Driver/Inc/stm32f1xx_ll_i2c.h ****   SET_BIT(I2Cx->CR1, I2C_CR1_START);
ARM GAS  /tmp/cc8gkcIc.s 			page 31


1569:Drivers/STM32F1xx_HAL_Driver/Inc/stm32f1xx_ll_i2c.h **** }
1570:Drivers/STM32F1xx_HAL_Driver/Inc/stm32f1xx_ll_i2c.h **** 
1571:Drivers/STM32F1xx_HAL_Driver/Inc/stm32f1xx_ll_i2c.h **** /**
1572:Drivers/STM32F1xx_HAL_Driver/Inc/stm32f1xx_ll_i2c.h ****   * @brief  Generate a STOP condition after the current byte transfer (master mode).
1573:Drivers/STM32F1xx_HAL_Driver/Inc/stm32f1xx_ll_i2c.h ****   * @rmtoll CR1          STOP          LL_I2C_GenerateStopCondition
1574:Drivers/STM32F1xx_HAL_Driver/Inc/stm32f1xx_ll_i2c.h ****   * @param  I2Cx I2C Instance.
1575:Drivers/STM32F1xx_HAL_Driver/Inc/stm32f1xx_ll_i2c.h ****   * @retval None
1576:Drivers/STM32F1xx_HAL_Driver/Inc/stm32f1xx_ll_i2c.h ****   */
1577:Drivers/STM32F1xx_HAL_Driver/Inc/stm32f1xx_ll_i2c.h **** __STATIC_INLINE void LL_I2C_GenerateStopCondition(I2C_TypeDef *I2Cx)
1578:Drivers/STM32F1xx_HAL_Driver/Inc/stm32f1xx_ll_i2c.h **** {
1579:Drivers/STM32F1xx_HAL_Driver/Inc/stm32f1xx_ll_i2c.h ****   SET_BIT(I2Cx->CR1, I2C_CR1_STOP);
1580:Drivers/STM32F1xx_HAL_Driver/Inc/stm32f1xx_ll_i2c.h **** }
1581:Drivers/STM32F1xx_HAL_Driver/Inc/stm32f1xx_ll_i2c.h **** 
1582:Drivers/STM32F1xx_HAL_Driver/Inc/stm32f1xx_ll_i2c.h **** /**
1583:Drivers/STM32F1xx_HAL_Driver/Inc/stm32f1xx_ll_i2c.h ****   * @brief  Enable bit POS (master/host mode).
1584:Drivers/STM32F1xx_HAL_Driver/Inc/stm32f1xx_ll_i2c.h ****   * @note   In that case, the ACK bit controls the (N)ACK of the next byte received or the PEC bit 
1585:Drivers/STM32F1xx_HAL_Driver/Inc/stm32f1xx_ll_i2c.h ****   * @rmtoll CR1          POS           LL_I2C_EnableBitPOS
1586:Drivers/STM32F1xx_HAL_Driver/Inc/stm32f1xx_ll_i2c.h ****   * @param  I2Cx I2C Instance.
1587:Drivers/STM32F1xx_HAL_Driver/Inc/stm32f1xx_ll_i2c.h ****   * @retval None
1588:Drivers/STM32F1xx_HAL_Driver/Inc/stm32f1xx_ll_i2c.h ****   */
1589:Drivers/STM32F1xx_HAL_Driver/Inc/stm32f1xx_ll_i2c.h **** __STATIC_INLINE void LL_I2C_EnableBitPOS(I2C_TypeDef *I2Cx)
1590:Drivers/STM32F1xx_HAL_Driver/Inc/stm32f1xx_ll_i2c.h **** {
1591:Drivers/STM32F1xx_HAL_Driver/Inc/stm32f1xx_ll_i2c.h ****   SET_BIT(I2Cx->CR1, I2C_CR1_POS);
1592:Drivers/STM32F1xx_HAL_Driver/Inc/stm32f1xx_ll_i2c.h **** }
1593:Drivers/STM32F1xx_HAL_Driver/Inc/stm32f1xx_ll_i2c.h **** 
1594:Drivers/STM32F1xx_HAL_Driver/Inc/stm32f1xx_ll_i2c.h **** /**
1595:Drivers/STM32F1xx_HAL_Driver/Inc/stm32f1xx_ll_i2c.h ****   * @brief  Disable bit POS (master/host mode).
1596:Drivers/STM32F1xx_HAL_Driver/Inc/stm32f1xx_ll_i2c.h ****   * @note   In that case, the ACK bit controls the (N)ACK of the current byte received or the PEC b
1597:Drivers/STM32F1xx_HAL_Driver/Inc/stm32f1xx_ll_i2c.h ****   * @rmtoll CR1          POS           LL_I2C_DisableBitPOS
1598:Drivers/STM32F1xx_HAL_Driver/Inc/stm32f1xx_ll_i2c.h ****   * @param  I2Cx I2C Instance.
1599:Drivers/STM32F1xx_HAL_Driver/Inc/stm32f1xx_ll_i2c.h ****   * @retval None
1600:Drivers/STM32F1xx_HAL_Driver/Inc/stm32f1xx_ll_i2c.h ****   */
1601:Drivers/STM32F1xx_HAL_Driver/Inc/stm32f1xx_ll_i2c.h **** __STATIC_INLINE void LL_I2C_DisableBitPOS(I2C_TypeDef *I2Cx)
  49              		.loc 2 1601 22 view .LVU3
  50              	.LBB97:
1602:Drivers/STM32F1xx_HAL_Driver/Inc/stm32f1xx_ll_i2c.h **** {
1603:Drivers/STM32F1xx_HAL_Driver/Inc/stm32f1xx_ll_i2c.h ****   CLEAR_BIT(I2Cx->CR1, I2C_CR1_POS);
  51              		.loc 2 1603 3 view .LVU4
  52 0008 354A     		ldr	r2, .L18
  53 000a 1368     		ldr	r3, [r2]
  54 000c 23F40063 		bic	r3, r3, #2048
  55 0010 1360     		str	r3, [r2]
  56              	.LVL2:
  57              		.loc 2 1603 3 is_stmt 0 view .LVU5
  58              	.LBE97:
  59              	.LBE96:
  96:Core/Src/i2c.c **** 
  97:Core/Src/i2c.c ****   xTimerI2CTimeout_Reload (I2C_TIMEOUT_TIME);
  60              		.loc 1 97 3 is_stmt 1 view .LVU6
  61 0012 6420     		movs	r0, #100
  62              	.LVL3:
  63              		.loc 1 97 3 is_stmt 0 view .LVU7
  64 0014 FFF7FEFF 		bl	xTimerI2CTimeout_Reload
  65              	.LVL4:
  98:Core/Src/i2c.c ****   i2c_end_timeout = 0;
  66              		.loc 1 98 3 is_stmt 1 view .LVU8
  67              		.loc 1 98 19 is_stmt 0 view .LVU9
ARM GAS  /tmp/cc8gkcIc.s 			page 32


  68 0018 324B     		ldr	r3, .L18+4
  69 001a 0022     		movs	r2, #0
  70 001c 1A70     		strb	r2, [r3]
  99:Core/Src/i2c.c **** 	while (LL_I2C_IsActiveFlag_BUSY(EEPROM_I2C) == SET) 
  71              		.loc 1 99 2 is_stmt 1 view .LVU10
  72              	.L2:
  73              		.loc 1 99 8 view .LVU11
  74              	.LVL5:
  75              	.LBB98:
  76              	.LBI98:
1310:Drivers/STM32F1xx_HAL_Driver/Inc/stm32f1xx_ll_i2c.h **** {
  77              		.loc 2 1310 26 view .LVU12
  78              	.LBB99:
1312:Drivers/STM32F1xx_HAL_Driver/Inc/stm32f1xx_ll_i2c.h **** }
  79              		.loc 2 1312 3 view .LVU13
1312:Drivers/STM32F1xx_HAL_Driver/Inc/stm32f1xx_ll_i2c.h **** }
  80              		.loc 2 1312 11 is_stmt 0 view .LVU14
  81 001e 304B     		ldr	r3, .L18
  82 0020 9B69     		ldr	r3, [r3, #24]
  83              	.LVL6:
1312:Drivers/STM32F1xx_HAL_Driver/Inc/stm32f1xx_ll_i2c.h **** }
  84              		.loc 2 1312 11 view .LVU15
  85              	.LBE99:
  86              	.LBE98:
  87              		.loc 1 99 8 view .LVU16
  88 0022 13F0020F 		tst	r3, #2
  89 0026 07D0     		beq	.L15
 100:Core/Src/i2c.c ****   { 
 101:Core/Src/i2c.c ****     if (i2c_end_timeout == 1)
  90              		.loc 1 101 5 is_stmt 1 view .LVU17
  91              		.loc 1 101 25 is_stmt 0 view .LVU18
  92 0028 2E4B     		ldr	r3, .L18+4
  93 002a 1B78     		ldrb	r3, [r3]	@ zero_extendqisi2
  94 002c DBB2     		uxtb	r3, r3
  95              		.loc 1 101 8 view .LVU19
  96 002e 012B     		cmp	r3, #1
  97 0030 F5D1     		bne	.L2
 102:Core/Src/i2c.c ****     {  return 0;  }
  98              		.loc 1 102 15 view .LVU20
  99 0032 0020     		movs	r0, #0
 100              	.L3:
 103:Core/Src/i2c.c ****   }
 104:Core/Src/i2c.c ****   LL_I2C_AcknowledgeNextData(EEPROM_I2C, LL_I2C_ACK); //Prepare the generation of a ACKnowledge con
 105:Core/Src/i2c.c **** 	
 106:Core/Src/i2c.c ****   xTimerI2CTimeout_Reload (I2C_TIMEOUT_TIME);
 107:Core/Src/i2c.c ****   i2c_end_timeout = 0;
 108:Core/Src/i2c.c ****   LL_I2C_GenerateStartCondition(EEPROM_I2C); //Generate a START condition
 109:Core/Src/i2c.c **** 	while(!LL_I2C_IsActiveFlag_SB(EEPROM_I2C)) //Indicate the status of Start Bit (master mode)
 110:Core/Src/i2c.c ****   {
 111:Core/Src/i2c.c ****     if (i2c_end_timeout == 1)
 112:Core/Src/i2c.c ****      {  return 0;  }
 113:Core/Src/i2c.c ****   } 
 114:Core/Src/i2c.c ****   (void) EEPROM_I2C->SR1;   //read state
 115:Core/Src/i2c.c **** 
 116:Core/Src/i2c.c ****   xTimerI2CTimeout_Reload (I2C_TIMEOUT_TIME);
 117:Core/Src/i2c.c ****   i2c_end_timeout = 0;	
 118:Core/Src/i2c.c ****   LL_I2C_TransmitData8(EEPROM_I2C, slave_addr); //  
ARM GAS  /tmp/cc8gkcIc.s 			page 33


 119:Core/Src/i2c.c ****   while(!LL_I2C_IsActiveFlag_ADDR(EEPROM_I2C))
 120:Core/Src/i2c.c ****   {
 121:Core/Src/i2c.c ****     if (i2c_end_timeout == 1)
 122:Core/Src/i2c.c ****     {  return 0;  }
 123:Core/Src/i2c.c ****   }
 124:Core/Src/i2c.c ****   LL_I2C_ClearFlag_ADDR(EEPROM_I2C);
 125:Core/Src/i2c.c **** 		
 126:Core/Src/i2c.c ****   LL_I2C_TransmitData8(EEPROM_I2C, (uint8_t) (reg_addr>>8)); //  
 127:Core/Src/i2c.c ****   while(!LL_I2C_IsActiveFlag_TXE(EEPROM_I2C)){};
 128:Core/Src/i2c.c ****   LL_I2C_TransmitData8(EEPROM_I2C, (uint8_t) reg_addr); //  
 129:Core/Src/i2c.c **** 	while(!LL_I2C_IsActiveFlag_TXE(EEPROM_I2C)){};
 130:Core/Src/i2c.c **** 	return 1;
 131:Core/Src/i2c.c **** }
 101              		.loc 1 131 1 view .LVU21
 102 0034 02B0     		add	sp, sp, #8
 103              	.LCFI2:
 104              		.cfi_remember_state
 105              		.cfi_def_cfa_offset 16
 106              		@ sp needed
 107 0036 70BD     		pop	{r4, r5, r6, pc}
 108              	.L15:
 109              	.LCFI3:
 110              		.cfi_restore_state
 104:Core/Src/i2c.c **** 	
 111              		.loc 1 104 3 is_stmt 1 view .LVU22
 112              	.LVL7:
 113              	.LBB100:
 114              	.LBI100:
1553:Drivers/STM32F1xx_HAL_Driver/Inc/stm32f1xx_ll_i2c.h **** {
 115              		.loc 2 1553 22 view .LVU23
 116              	.LBB101:
1555:Drivers/STM32F1xx_HAL_Driver/Inc/stm32f1xx_ll_i2c.h **** }
 117              		.loc 2 1555 3 view .LVU24
 118 0038 294E     		ldr	r6, .L18
 119 003a 3368     		ldr	r3, [r6]
 120 003c 43F48063 		orr	r3, r3, #1024
 121 0040 3360     		str	r3, [r6]
 122              	.LVL8:
1555:Drivers/STM32F1xx_HAL_Driver/Inc/stm32f1xx_ll_i2c.h **** }
 123              		.loc 2 1555 3 is_stmt 0 view .LVU25
 124              	.LBE101:
 125              	.LBE100:
 106:Core/Src/i2c.c ****   i2c_end_timeout = 0;
 126              		.loc 1 106 3 is_stmt 1 view .LVU26
 127 0042 6420     		movs	r0, #100
 128 0044 FFF7FEFF 		bl	xTimerI2CTimeout_Reload
 129              	.LVL9:
 107:Core/Src/i2c.c ****   LL_I2C_GenerateStartCondition(EEPROM_I2C); //Generate a START condition
 130              		.loc 1 107 3 view .LVU27
 107:Core/Src/i2c.c ****   LL_I2C_GenerateStartCondition(EEPROM_I2C); //Generate a START condition
 131              		.loc 1 107 19 is_stmt 0 view .LVU28
 132 0048 264B     		ldr	r3, .L18+4
 133 004a 0022     		movs	r2, #0
 134 004c 1A70     		strb	r2, [r3]
 108:Core/Src/i2c.c **** 	while(!LL_I2C_IsActiveFlag_SB(EEPROM_I2C)) //Indicate the status of Start Bit (master mode)
 135              		.loc 1 108 3 is_stmt 1 view .LVU29
 136              	.LVL10:
ARM GAS  /tmp/cc8gkcIc.s 			page 34


 137              	.LBB102:
 138              	.LBI102:
1566:Drivers/STM32F1xx_HAL_Driver/Inc/stm32f1xx_ll_i2c.h **** {
 139              		.loc 2 1566 22 view .LVU30
 140              	.LBB103:
1568:Drivers/STM32F1xx_HAL_Driver/Inc/stm32f1xx_ll_i2c.h **** }
 141              		.loc 2 1568 3 view .LVU31
 142 004e 3368     		ldr	r3, [r6]
 143 0050 43F48073 		orr	r3, r3, #256
 144 0054 3360     		str	r3, [r6]
 145              	.LVL11:
 146              	.L5:
1568:Drivers/STM32F1xx_HAL_Driver/Inc/stm32f1xx_ll_i2c.h **** }
 147              		.loc 2 1568 3 is_stmt 0 view .LVU32
 148              	.LBE103:
 149              	.LBE102:
 109:Core/Src/i2c.c ****   {
 150              		.loc 1 109 7 is_stmt 1 view .LVU33
 151              	.LBB104:
 152              	.LBI104:
1167:Drivers/STM32F1xx_HAL_Driver/Inc/stm32f1xx_ll_i2c.h **** {
 153              		.loc 2 1167 26 view .LVU34
 154              	.LBB105:
1169:Drivers/STM32F1xx_HAL_Driver/Inc/stm32f1xx_ll_i2c.h **** }
 155              		.loc 2 1169 3 view .LVU35
1169:Drivers/STM32F1xx_HAL_Driver/Inc/stm32f1xx_ll_i2c.h **** }
 156              		.loc 2 1169 11 is_stmt 0 view .LVU36
 157 0056 224B     		ldr	r3, .L18
 158 0058 5B69     		ldr	r3, [r3, #20]
 159              	.LVL12:
1169:Drivers/STM32F1xx_HAL_Driver/Inc/stm32f1xx_ll_i2c.h **** }
 160              		.loc 2 1169 11 view .LVU37
 161              	.LBE105:
 162              	.LBE104:
 109:Core/Src/i2c.c ****   {
 163              		.loc 1 109 7 view .LVU38
 164 005a 13F0010F 		tst	r3, #1
 165 005e 06D1     		bne	.L16
 111:Core/Src/i2c.c ****      {  return 0;  }
 166              		.loc 1 111 5 is_stmt 1 view .LVU39
 111:Core/Src/i2c.c ****      {  return 0;  }
 167              		.loc 1 111 25 is_stmt 0 view .LVU40
 168 0060 204B     		ldr	r3, .L18+4
 169 0062 1B78     		ldrb	r3, [r3]	@ zero_extendqisi2
 170 0064 DBB2     		uxtb	r3, r3
 111:Core/Src/i2c.c ****      {  return 0;  }
 171              		.loc 1 111 8 view .LVU41
 172 0066 012B     		cmp	r3, #1
 173 0068 F5D1     		bne	.L5
 112:Core/Src/i2c.c ****   } 
 174              		.loc 1 112 16 view .LVU42
 175 006a 0020     		movs	r0, #0
 176 006c E2E7     		b	.L3
 177              	.L16:
 114:Core/Src/i2c.c **** 
 178              		.loc 1 114 3 is_stmt 1 view .LVU43
 179 006e 1C4E     		ldr	r6, .L18
ARM GAS  /tmp/cc8gkcIc.s 			page 35


 180 0070 7369     		ldr	r3, [r6, #20]
 116:Core/Src/i2c.c ****   i2c_end_timeout = 0;	
 181              		.loc 1 116 3 view .LVU44
 182 0072 6420     		movs	r0, #100
 183 0074 FFF7FEFF 		bl	xTimerI2CTimeout_Reload
 184              	.LVL13:
 117:Core/Src/i2c.c ****   LL_I2C_TransmitData8(EEPROM_I2C, slave_addr); //  
 185              		.loc 1 117 3 view .LVU45
 117:Core/Src/i2c.c ****   LL_I2C_TransmitData8(EEPROM_I2C, slave_addr); //  
 186              		.loc 1 117 19 is_stmt 0 view .LVU46
 187 0078 1A4B     		ldr	r3, .L18+4
 188 007a 0022     		movs	r2, #0
 189 007c 1A70     		strb	r2, [r3]
 118:Core/Src/i2c.c ****   while(!LL_I2C_IsActiveFlag_ADDR(EEPROM_I2C))
 190              		.loc 1 118 3 is_stmt 1 view .LVU47
 191              	.LVL14:
 192              	.LBB106:
 193              	.LBI106:
1604:Drivers/STM32F1xx_HAL_Driver/Inc/stm32f1xx_ll_i2c.h **** }
1605:Drivers/STM32F1xx_HAL_Driver/Inc/stm32f1xx_ll_i2c.h **** 
1606:Drivers/STM32F1xx_HAL_Driver/Inc/stm32f1xx_ll_i2c.h **** /**
1607:Drivers/STM32F1xx_HAL_Driver/Inc/stm32f1xx_ll_i2c.h ****   * @brief  Check if bit POS  is enabled or disabled.
1608:Drivers/STM32F1xx_HAL_Driver/Inc/stm32f1xx_ll_i2c.h ****   * @rmtoll CR1          POS           LL_I2C_IsEnabledBitPOS
1609:Drivers/STM32F1xx_HAL_Driver/Inc/stm32f1xx_ll_i2c.h ****   * @param  I2Cx I2C Instance.
1610:Drivers/STM32F1xx_HAL_Driver/Inc/stm32f1xx_ll_i2c.h ****   * @retval State of bit (1 or 0).
1611:Drivers/STM32F1xx_HAL_Driver/Inc/stm32f1xx_ll_i2c.h ****   */
1612:Drivers/STM32F1xx_HAL_Driver/Inc/stm32f1xx_ll_i2c.h **** __STATIC_INLINE uint32_t LL_I2C_IsEnabledBitPOS(I2C_TypeDef *I2Cx)
1613:Drivers/STM32F1xx_HAL_Driver/Inc/stm32f1xx_ll_i2c.h **** {
1614:Drivers/STM32F1xx_HAL_Driver/Inc/stm32f1xx_ll_i2c.h ****   return (READ_BIT(I2Cx->CR1, I2C_CR1_POS) == (I2C_CR1_POS));
1615:Drivers/STM32F1xx_HAL_Driver/Inc/stm32f1xx_ll_i2c.h **** }
1616:Drivers/STM32F1xx_HAL_Driver/Inc/stm32f1xx_ll_i2c.h **** 
1617:Drivers/STM32F1xx_HAL_Driver/Inc/stm32f1xx_ll_i2c.h **** /**
1618:Drivers/STM32F1xx_HAL_Driver/Inc/stm32f1xx_ll_i2c.h ****   * @brief  Indicate the value of transfer direction.
1619:Drivers/STM32F1xx_HAL_Driver/Inc/stm32f1xx_ll_i2c.h ****   * @note   RESET: Bus is in read transfer (peripheral point of view).
1620:Drivers/STM32F1xx_HAL_Driver/Inc/stm32f1xx_ll_i2c.h ****   *         SET: Bus is in write transfer (peripheral point of view).
1621:Drivers/STM32F1xx_HAL_Driver/Inc/stm32f1xx_ll_i2c.h ****   * @rmtoll SR2          TRA           LL_I2C_GetTransferDirection
1622:Drivers/STM32F1xx_HAL_Driver/Inc/stm32f1xx_ll_i2c.h ****   * @param  I2Cx I2C Instance.
1623:Drivers/STM32F1xx_HAL_Driver/Inc/stm32f1xx_ll_i2c.h ****   * @retval Returned value can be one of the following values:
1624:Drivers/STM32F1xx_HAL_Driver/Inc/stm32f1xx_ll_i2c.h ****   *         @arg @ref LL_I2C_DIRECTION_WRITE
1625:Drivers/STM32F1xx_HAL_Driver/Inc/stm32f1xx_ll_i2c.h ****   *         @arg @ref LL_I2C_DIRECTION_READ
1626:Drivers/STM32F1xx_HAL_Driver/Inc/stm32f1xx_ll_i2c.h ****   */
1627:Drivers/STM32F1xx_HAL_Driver/Inc/stm32f1xx_ll_i2c.h **** __STATIC_INLINE uint32_t LL_I2C_GetTransferDirection(I2C_TypeDef *I2Cx)
1628:Drivers/STM32F1xx_HAL_Driver/Inc/stm32f1xx_ll_i2c.h **** {
1629:Drivers/STM32F1xx_HAL_Driver/Inc/stm32f1xx_ll_i2c.h ****   return (uint32_t)(READ_BIT(I2Cx->SR2, I2C_SR2_TRA));
1630:Drivers/STM32F1xx_HAL_Driver/Inc/stm32f1xx_ll_i2c.h **** }
1631:Drivers/STM32F1xx_HAL_Driver/Inc/stm32f1xx_ll_i2c.h **** 
1632:Drivers/STM32F1xx_HAL_Driver/Inc/stm32f1xx_ll_i2c.h **** /**
1633:Drivers/STM32F1xx_HAL_Driver/Inc/stm32f1xx_ll_i2c.h ****   * @brief  Enable DMA last transfer.
1634:Drivers/STM32F1xx_HAL_Driver/Inc/stm32f1xx_ll_i2c.h ****   * @note   This action mean that next DMA EOT is the last transfer.
1635:Drivers/STM32F1xx_HAL_Driver/Inc/stm32f1xx_ll_i2c.h ****   * @rmtoll CR2          LAST          LL_I2C_EnableLastDMA
1636:Drivers/STM32F1xx_HAL_Driver/Inc/stm32f1xx_ll_i2c.h ****   * @param  I2Cx I2C Instance.
1637:Drivers/STM32F1xx_HAL_Driver/Inc/stm32f1xx_ll_i2c.h ****   * @retval None
1638:Drivers/STM32F1xx_HAL_Driver/Inc/stm32f1xx_ll_i2c.h ****   */
1639:Drivers/STM32F1xx_HAL_Driver/Inc/stm32f1xx_ll_i2c.h **** __STATIC_INLINE void LL_I2C_EnableLastDMA(I2C_TypeDef *I2Cx)
1640:Drivers/STM32F1xx_HAL_Driver/Inc/stm32f1xx_ll_i2c.h **** {
1641:Drivers/STM32F1xx_HAL_Driver/Inc/stm32f1xx_ll_i2c.h ****   SET_BIT(I2Cx->CR2, I2C_CR2_LAST);
1642:Drivers/STM32F1xx_HAL_Driver/Inc/stm32f1xx_ll_i2c.h **** }
ARM GAS  /tmp/cc8gkcIc.s 			page 36


1643:Drivers/STM32F1xx_HAL_Driver/Inc/stm32f1xx_ll_i2c.h **** 
1644:Drivers/STM32F1xx_HAL_Driver/Inc/stm32f1xx_ll_i2c.h **** /**
1645:Drivers/STM32F1xx_HAL_Driver/Inc/stm32f1xx_ll_i2c.h ****   * @brief  Disable DMA last transfer.
1646:Drivers/STM32F1xx_HAL_Driver/Inc/stm32f1xx_ll_i2c.h ****   * @note   This action mean that next DMA EOT is not the last transfer.
1647:Drivers/STM32F1xx_HAL_Driver/Inc/stm32f1xx_ll_i2c.h ****   * @rmtoll CR2          LAST          LL_I2C_DisableLastDMA
1648:Drivers/STM32F1xx_HAL_Driver/Inc/stm32f1xx_ll_i2c.h ****   * @param  I2Cx I2C Instance.
1649:Drivers/STM32F1xx_HAL_Driver/Inc/stm32f1xx_ll_i2c.h ****   * @retval None
1650:Drivers/STM32F1xx_HAL_Driver/Inc/stm32f1xx_ll_i2c.h ****   */
1651:Drivers/STM32F1xx_HAL_Driver/Inc/stm32f1xx_ll_i2c.h **** __STATIC_INLINE void LL_I2C_DisableLastDMA(I2C_TypeDef *I2Cx)
1652:Drivers/STM32F1xx_HAL_Driver/Inc/stm32f1xx_ll_i2c.h **** {
1653:Drivers/STM32F1xx_HAL_Driver/Inc/stm32f1xx_ll_i2c.h ****   CLEAR_BIT(I2Cx->CR2, I2C_CR2_LAST);
1654:Drivers/STM32F1xx_HAL_Driver/Inc/stm32f1xx_ll_i2c.h **** }
1655:Drivers/STM32F1xx_HAL_Driver/Inc/stm32f1xx_ll_i2c.h **** 
1656:Drivers/STM32F1xx_HAL_Driver/Inc/stm32f1xx_ll_i2c.h **** /**
1657:Drivers/STM32F1xx_HAL_Driver/Inc/stm32f1xx_ll_i2c.h ****   * @brief  Check if DMA last transfer is enabled or disabled.
1658:Drivers/STM32F1xx_HAL_Driver/Inc/stm32f1xx_ll_i2c.h ****   * @rmtoll CR2          LAST          LL_I2C_IsEnabledLastDMA
1659:Drivers/STM32F1xx_HAL_Driver/Inc/stm32f1xx_ll_i2c.h ****   * @param  I2Cx I2C Instance.
1660:Drivers/STM32F1xx_HAL_Driver/Inc/stm32f1xx_ll_i2c.h ****   * @retval State of bit (1 or 0).
1661:Drivers/STM32F1xx_HAL_Driver/Inc/stm32f1xx_ll_i2c.h ****   */
1662:Drivers/STM32F1xx_HAL_Driver/Inc/stm32f1xx_ll_i2c.h **** __STATIC_INLINE uint32_t LL_I2C_IsEnabledLastDMA(I2C_TypeDef *I2Cx)
1663:Drivers/STM32F1xx_HAL_Driver/Inc/stm32f1xx_ll_i2c.h **** {
1664:Drivers/STM32F1xx_HAL_Driver/Inc/stm32f1xx_ll_i2c.h ****   return (READ_BIT(I2Cx->CR2, I2C_CR2_LAST) == (I2C_CR2_LAST));
1665:Drivers/STM32F1xx_HAL_Driver/Inc/stm32f1xx_ll_i2c.h **** }
1666:Drivers/STM32F1xx_HAL_Driver/Inc/stm32f1xx_ll_i2c.h **** 
1667:Drivers/STM32F1xx_HAL_Driver/Inc/stm32f1xx_ll_i2c.h **** /**
1668:Drivers/STM32F1xx_HAL_Driver/Inc/stm32f1xx_ll_i2c.h ****   * @brief  Enable transfer or internal comparison of the SMBus Packet Error byte (transmission or 
1669:Drivers/STM32F1xx_HAL_Driver/Inc/stm32f1xx_ll_i2c.h ****   * @note   Macro IS_SMBUS_ALL_INSTANCE(I2Cx) can be used to check whether or not
1670:Drivers/STM32F1xx_HAL_Driver/Inc/stm32f1xx_ll_i2c.h ****   *         SMBus feature is supported by the I2Cx Instance.
1671:Drivers/STM32F1xx_HAL_Driver/Inc/stm32f1xx_ll_i2c.h ****   * @note   This feature is cleared by hardware when the PEC byte is transferred or compared,
1672:Drivers/STM32F1xx_HAL_Driver/Inc/stm32f1xx_ll_i2c.h ****   *         or by a START or STOP condition, it is also cleared by software.
1673:Drivers/STM32F1xx_HAL_Driver/Inc/stm32f1xx_ll_i2c.h ****   * @rmtoll CR1          PEC           LL_I2C_EnableSMBusPECCompare
1674:Drivers/STM32F1xx_HAL_Driver/Inc/stm32f1xx_ll_i2c.h ****   * @param  I2Cx I2C Instance.
1675:Drivers/STM32F1xx_HAL_Driver/Inc/stm32f1xx_ll_i2c.h ****   * @retval None
1676:Drivers/STM32F1xx_HAL_Driver/Inc/stm32f1xx_ll_i2c.h ****   */
1677:Drivers/STM32F1xx_HAL_Driver/Inc/stm32f1xx_ll_i2c.h **** __STATIC_INLINE void LL_I2C_EnableSMBusPECCompare(I2C_TypeDef *I2Cx)
1678:Drivers/STM32F1xx_HAL_Driver/Inc/stm32f1xx_ll_i2c.h **** {
1679:Drivers/STM32F1xx_HAL_Driver/Inc/stm32f1xx_ll_i2c.h ****   SET_BIT(I2Cx->CR1, I2C_CR1_PEC);
1680:Drivers/STM32F1xx_HAL_Driver/Inc/stm32f1xx_ll_i2c.h **** }
1681:Drivers/STM32F1xx_HAL_Driver/Inc/stm32f1xx_ll_i2c.h **** 
1682:Drivers/STM32F1xx_HAL_Driver/Inc/stm32f1xx_ll_i2c.h **** /**
1683:Drivers/STM32F1xx_HAL_Driver/Inc/stm32f1xx_ll_i2c.h ****   * @brief  Disable transfer or internal comparison of the SMBus Packet Error byte (transmission or
1684:Drivers/STM32F1xx_HAL_Driver/Inc/stm32f1xx_ll_i2c.h ****   * @note   Macro IS_SMBUS_ALL_INSTANCE(I2Cx) can be used to check whether or not
1685:Drivers/STM32F1xx_HAL_Driver/Inc/stm32f1xx_ll_i2c.h ****   *         SMBus feature is supported by the I2Cx Instance.
1686:Drivers/STM32F1xx_HAL_Driver/Inc/stm32f1xx_ll_i2c.h ****   * @rmtoll CR1          PEC           LL_I2C_DisableSMBusPECCompare
1687:Drivers/STM32F1xx_HAL_Driver/Inc/stm32f1xx_ll_i2c.h ****   * @param  I2Cx I2C Instance.
1688:Drivers/STM32F1xx_HAL_Driver/Inc/stm32f1xx_ll_i2c.h ****   * @retval None
1689:Drivers/STM32F1xx_HAL_Driver/Inc/stm32f1xx_ll_i2c.h ****   */
1690:Drivers/STM32F1xx_HAL_Driver/Inc/stm32f1xx_ll_i2c.h **** __STATIC_INLINE void LL_I2C_DisableSMBusPECCompare(I2C_TypeDef *I2Cx)
1691:Drivers/STM32F1xx_HAL_Driver/Inc/stm32f1xx_ll_i2c.h **** {
1692:Drivers/STM32F1xx_HAL_Driver/Inc/stm32f1xx_ll_i2c.h ****   CLEAR_BIT(I2Cx->CR1, I2C_CR1_PEC);
1693:Drivers/STM32F1xx_HAL_Driver/Inc/stm32f1xx_ll_i2c.h **** }
1694:Drivers/STM32F1xx_HAL_Driver/Inc/stm32f1xx_ll_i2c.h **** 
1695:Drivers/STM32F1xx_HAL_Driver/Inc/stm32f1xx_ll_i2c.h **** /**
1696:Drivers/STM32F1xx_HAL_Driver/Inc/stm32f1xx_ll_i2c.h ****   * @brief  Check if the SMBus Packet Error byte transfer or internal comparison is requested or no
1697:Drivers/STM32F1xx_HAL_Driver/Inc/stm32f1xx_ll_i2c.h ****   * @note   Macro IS_SMBUS_ALL_INSTANCE(I2Cx) can be used to check whether or not
1698:Drivers/STM32F1xx_HAL_Driver/Inc/stm32f1xx_ll_i2c.h ****   *         SMBus feature is supported by the I2Cx Instance.
1699:Drivers/STM32F1xx_HAL_Driver/Inc/stm32f1xx_ll_i2c.h ****   * @rmtoll CR1          PEC           LL_I2C_IsEnabledSMBusPECCompare
ARM GAS  /tmp/cc8gkcIc.s 			page 37


1700:Drivers/STM32F1xx_HAL_Driver/Inc/stm32f1xx_ll_i2c.h ****   * @param  I2Cx I2C Instance.
1701:Drivers/STM32F1xx_HAL_Driver/Inc/stm32f1xx_ll_i2c.h ****   * @retval State of bit (1 or 0).
1702:Drivers/STM32F1xx_HAL_Driver/Inc/stm32f1xx_ll_i2c.h ****   */
1703:Drivers/STM32F1xx_HAL_Driver/Inc/stm32f1xx_ll_i2c.h **** __STATIC_INLINE uint32_t LL_I2C_IsEnabledSMBusPECCompare(I2C_TypeDef *I2Cx)
1704:Drivers/STM32F1xx_HAL_Driver/Inc/stm32f1xx_ll_i2c.h **** {
1705:Drivers/STM32F1xx_HAL_Driver/Inc/stm32f1xx_ll_i2c.h ****   return (READ_BIT(I2Cx->CR1, I2C_CR1_PEC) == (I2C_CR1_PEC));
1706:Drivers/STM32F1xx_HAL_Driver/Inc/stm32f1xx_ll_i2c.h **** }
1707:Drivers/STM32F1xx_HAL_Driver/Inc/stm32f1xx_ll_i2c.h **** 
1708:Drivers/STM32F1xx_HAL_Driver/Inc/stm32f1xx_ll_i2c.h **** /**
1709:Drivers/STM32F1xx_HAL_Driver/Inc/stm32f1xx_ll_i2c.h ****   * @brief  Get the SMBus Packet Error byte calculated.
1710:Drivers/STM32F1xx_HAL_Driver/Inc/stm32f1xx_ll_i2c.h ****   * @note   Macro IS_SMBUS_ALL_INSTANCE(I2Cx) can be used to check whether or not
1711:Drivers/STM32F1xx_HAL_Driver/Inc/stm32f1xx_ll_i2c.h ****   *         SMBus feature is supported by the I2Cx Instance.
1712:Drivers/STM32F1xx_HAL_Driver/Inc/stm32f1xx_ll_i2c.h ****   * @rmtoll SR2          PEC           LL_I2C_GetSMBusPEC
1713:Drivers/STM32F1xx_HAL_Driver/Inc/stm32f1xx_ll_i2c.h ****   * @param  I2Cx I2C Instance.
1714:Drivers/STM32F1xx_HAL_Driver/Inc/stm32f1xx_ll_i2c.h ****   * @retval Value between Min_Data=0x00 and Max_Data=0xFF
1715:Drivers/STM32F1xx_HAL_Driver/Inc/stm32f1xx_ll_i2c.h ****   */
1716:Drivers/STM32F1xx_HAL_Driver/Inc/stm32f1xx_ll_i2c.h **** __STATIC_INLINE uint32_t LL_I2C_GetSMBusPEC(I2C_TypeDef *I2Cx)
1717:Drivers/STM32F1xx_HAL_Driver/Inc/stm32f1xx_ll_i2c.h **** {
1718:Drivers/STM32F1xx_HAL_Driver/Inc/stm32f1xx_ll_i2c.h ****   return (uint32_t)(READ_BIT(I2Cx->SR2, I2C_SR2_PEC) >> I2C_SR2_PEC_Pos);
1719:Drivers/STM32F1xx_HAL_Driver/Inc/stm32f1xx_ll_i2c.h **** }
1720:Drivers/STM32F1xx_HAL_Driver/Inc/stm32f1xx_ll_i2c.h **** 
1721:Drivers/STM32F1xx_HAL_Driver/Inc/stm32f1xx_ll_i2c.h **** /**
1722:Drivers/STM32F1xx_HAL_Driver/Inc/stm32f1xx_ll_i2c.h ****   * @brief  Read Receive Data register.
1723:Drivers/STM32F1xx_HAL_Driver/Inc/stm32f1xx_ll_i2c.h ****   * @rmtoll DR           DR            LL_I2C_ReceiveData8
1724:Drivers/STM32F1xx_HAL_Driver/Inc/stm32f1xx_ll_i2c.h ****   * @param  I2Cx I2C Instance.
1725:Drivers/STM32F1xx_HAL_Driver/Inc/stm32f1xx_ll_i2c.h ****   * @retval Value between Min_Data=0x0 and Max_Data=0xFF
1726:Drivers/STM32F1xx_HAL_Driver/Inc/stm32f1xx_ll_i2c.h ****   */
1727:Drivers/STM32F1xx_HAL_Driver/Inc/stm32f1xx_ll_i2c.h **** __STATIC_INLINE uint8_t LL_I2C_ReceiveData8(I2C_TypeDef *I2Cx)
1728:Drivers/STM32F1xx_HAL_Driver/Inc/stm32f1xx_ll_i2c.h **** {
1729:Drivers/STM32F1xx_HAL_Driver/Inc/stm32f1xx_ll_i2c.h ****   return (uint8_t)(READ_BIT(I2Cx->DR, I2C_DR_DR));
1730:Drivers/STM32F1xx_HAL_Driver/Inc/stm32f1xx_ll_i2c.h **** }
1731:Drivers/STM32F1xx_HAL_Driver/Inc/stm32f1xx_ll_i2c.h **** 
1732:Drivers/STM32F1xx_HAL_Driver/Inc/stm32f1xx_ll_i2c.h **** /**
1733:Drivers/STM32F1xx_HAL_Driver/Inc/stm32f1xx_ll_i2c.h ****   * @brief  Write in Transmit Data Register .
1734:Drivers/STM32F1xx_HAL_Driver/Inc/stm32f1xx_ll_i2c.h ****   * @rmtoll DR           DR            LL_I2C_TransmitData8
1735:Drivers/STM32F1xx_HAL_Driver/Inc/stm32f1xx_ll_i2c.h ****   * @param  I2Cx I2C Instance.
1736:Drivers/STM32F1xx_HAL_Driver/Inc/stm32f1xx_ll_i2c.h ****   * @param  Data Value between Min_Data=0x0 and Max_Data=0xFF
1737:Drivers/STM32F1xx_HAL_Driver/Inc/stm32f1xx_ll_i2c.h ****   * @retval None
1738:Drivers/STM32F1xx_HAL_Driver/Inc/stm32f1xx_ll_i2c.h ****   */
1739:Drivers/STM32F1xx_HAL_Driver/Inc/stm32f1xx_ll_i2c.h **** __STATIC_INLINE void LL_I2C_TransmitData8(I2C_TypeDef *I2Cx, uint8_t Data)
 194              		.loc 2 1739 22 view .LVU48
 195              	.LBB107:
1740:Drivers/STM32F1xx_HAL_Driver/Inc/stm32f1xx_ll_i2c.h **** {
1741:Drivers/STM32F1xx_HAL_Driver/Inc/stm32f1xx_ll_i2c.h ****   MODIFY_REG(I2Cx->DR, I2C_DR_DR, Data);
 196              		.loc 2 1741 3 view .LVU49
 197 007e 3369     		ldr	r3, [r6, #16]
 198 0080 23F0FF03 		bic	r3, r3, #255
 199 0084 1D43     		orrs	r5, r5, r3
 200              	.LVL15:
 201              		.loc 2 1741 3 is_stmt 0 view .LVU50
 202 0086 3561     		str	r5, [r6, #16]
 203              	.LVL16:
 204              	.L7:
 205              		.loc 2 1741 3 view .LVU51
 206              	.LBE107:
 207              	.LBE106:
 119:Core/Src/i2c.c ****   {
ARM GAS  /tmp/cc8gkcIc.s 			page 38


 208              		.loc 1 119 8 is_stmt 1 view .LVU52
 209              	.LBB108:
 210              	.LBI108:
1180:Drivers/STM32F1xx_HAL_Driver/Inc/stm32f1xx_ll_i2c.h **** {
 211              		.loc 2 1180 26 view .LVU53
 212              	.LBB109:
1182:Drivers/STM32F1xx_HAL_Driver/Inc/stm32f1xx_ll_i2c.h **** }
 213              		.loc 2 1182 3 view .LVU54
1182:Drivers/STM32F1xx_HAL_Driver/Inc/stm32f1xx_ll_i2c.h **** }
 214              		.loc 2 1182 11 is_stmt 0 view .LVU55
 215 0088 154B     		ldr	r3, .L18
 216 008a 5B69     		ldr	r3, [r3, #20]
 217              	.LVL17:
1182:Drivers/STM32F1xx_HAL_Driver/Inc/stm32f1xx_ll_i2c.h **** }
 218              		.loc 2 1182 11 view .LVU56
 219              	.LBE109:
 220              	.LBE108:
 119:Core/Src/i2c.c ****   {
 221              		.loc 1 119 8 view .LVU57
 222 008c 13F0020F 		tst	r3, #2
 223 0090 06D1     		bne	.L17
 121:Core/Src/i2c.c ****     {  return 0;  }
 224              		.loc 1 121 5 is_stmt 1 view .LVU58
 121:Core/Src/i2c.c ****     {  return 0;  }
 225              		.loc 1 121 25 is_stmt 0 view .LVU59
 226 0092 144B     		ldr	r3, .L18+4
 227 0094 1B78     		ldrb	r3, [r3]	@ zero_extendqisi2
 228 0096 DBB2     		uxtb	r3, r3
 121:Core/Src/i2c.c ****     {  return 0;  }
 229              		.loc 1 121 8 view .LVU60
 230 0098 012B     		cmp	r3, #1
 231 009a F5D1     		bne	.L7
 122:Core/Src/i2c.c ****   }
 232              		.loc 1 122 15 view .LVU61
 233 009c 0020     		movs	r0, #0
 234 009e C9E7     		b	.L3
 235              	.L17:
 124:Core/Src/i2c.c **** 		
 236              		.loc 1 124 3 is_stmt 1 view .LVU62
 237              	.LVL18:
 238              	.LBB110:
 239              	.LBI110:
1395:Drivers/STM32F1xx_HAL_Driver/Inc/stm32f1xx_ll_i2c.h **** {
 240              		.loc 2 1395 22 view .LVU63
 241              	.LBB111:
1397:Drivers/STM32F1xx_HAL_Driver/Inc/stm32f1xx_ll_i2c.h ****   tmpreg = I2Cx->SR1;
 242              		.loc 2 1397 3 view .LVU64
1398:Drivers/STM32F1xx_HAL_Driver/Inc/stm32f1xx_ll_i2c.h ****   (void) tmpreg;
 243              		.loc 2 1398 3 view .LVU65
1398:Drivers/STM32F1xx_HAL_Driver/Inc/stm32f1xx_ll_i2c.h ****   (void) tmpreg;
 244              		.loc 2 1398 16 is_stmt 0 view .LVU66
 245 00a0 0F4A     		ldr	r2, .L18
 246 00a2 5369     		ldr	r3, [r2, #20]
1398:Drivers/STM32F1xx_HAL_Driver/Inc/stm32f1xx_ll_i2c.h ****   (void) tmpreg;
 247              		.loc 2 1398 10 view .LVU67
 248 00a4 0193     		str	r3, [sp, #4]
1399:Drivers/STM32F1xx_HAL_Driver/Inc/stm32f1xx_ll_i2c.h ****   tmpreg = I2Cx->SR2;
ARM GAS  /tmp/cc8gkcIc.s 			page 39


 249              		.loc 2 1399 3 is_stmt 1 view .LVU68
 250 00a6 019B     		ldr	r3, [sp, #4]
1400:Drivers/STM32F1xx_HAL_Driver/Inc/stm32f1xx_ll_i2c.h ****   (void) tmpreg;
 251              		.loc 2 1400 3 view .LVU69
1400:Drivers/STM32F1xx_HAL_Driver/Inc/stm32f1xx_ll_i2c.h ****   (void) tmpreg;
 252              		.loc 2 1400 16 is_stmt 0 view .LVU70
 253 00a8 9369     		ldr	r3, [r2, #24]
1400:Drivers/STM32F1xx_HAL_Driver/Inc/stm32f1xx_ll_i2c.h ****   (void) tmpreg;
 254              		.loc 2 1400 10 view .LVU71
 255 00aa 0193     		str	r3, [sp, #4]
1401:Drivers/STM32F1xx_HAL_Driver/Inc/stm32f1xx_ll_i2c.h **** }
 256              		.loc 2 1401 3 is_stmt 1 view .LVU72
 257 00ac 019B     		ldr	r3, [sp, #4]
 258              	.LVL19:
1401:Drivers/STM32F1xx_HAL_Driver/Inc/stm32f1xx_ll_i2c.h **** }
 259              		.loc 2 1401 3 is_stmt 0 view .LVU73
 260              	.LBE111:
 261              	.LBE110:
 126:Core/Src/i2c.c ****   while(!LL_I2C_IsActiveFlag_TXE(EEPROM_I2C)){};
 262              		.loc 1 126 3 is_stmt 1 view .LVU74
 263              	.LBB112:
 264              	.LBI112:
1739:Drivers/STM32F1xx_HAL_Driver/Inc/stm32f1xx_ll_i2c.h **** {
 265              		.loc 2 1739 22 view .LVU75
 266              	.LBB113:
 267              		.loc 2 1741 3 view .LVU76
 268 00ae 1369     		ldr	r3, [r2, #16]
 269 00b0 23F0FF03 		bic	r3, r3, #255
 270 00b4 43EA1423 		orr	r3, r3, r4, lsr #8
 271 00b8 1361     		str	r3, [r2, #16]
 272              	.LVL20:
 273              	.L9:
 274              		.loc 2 1741 3 is_stmt 0 view .LVU77
 275              	.LBE113:
 276              	.LBE112:
 127:Core/Src/i2c.c ****   LL_I2C_TransmitData8(EEPROM_I2C, (uint8_t) reg_addr); //  
 277              		.loc 1 127 47 is_stmt 1 discriminator 1 view .LVU78
 127:Core/Src/i2c.c ****   LL_I2C_TransmitData8(EEPROM_I2C, (uint8_t) reg_addr); //  
 278              		.loc 1 127 8 discriminator 1 view .LVU79
 279              	.LBB114:
 280              	.LBI114:
1128:Drivers/STM32F1xx_HAL_Driver/Inc/stm32f1xx_ll_i2c.h **** {
 281              		.loc 2 1128 26 discriminator 1 view .LVU80
 282              	.LBB115:
1130:Drivers/STM32F1xx_HAL_Driver/Inc/stm32f1xx_ll_i2c.h **** }
 283              		.loc 2 1130 3 discriminator 1 view .LVU81
1130:Drivers/STM32F1xx_HAL_Driver/Inc/stm32f1xx_ll_i2c.h **** }
 284              		.loc 2 1130 11 is_stmt 0 discriminator 1 view .LVU82
 285 00ba 094B     		ldr	r3, .L18
 286 00bc 5B69     		ldr	r3, [r3, #20]
 287              	.LVL21:
1130:Drivers/STM32F1xx_HAL_Driver/Inc/stm32f1xx_ll_i2c.h **** }
 288              		.loc 2 1130 11 discriminator 1 view .LVU83
 289              	.LBE115:
 290              	.LBE114:
 127:Core/Src/i2c.c ****   LL_I2C_TransmitData8(EEPROM_I2C, (uint8_t) reg_addr); //  
 291              		.loc 1 127 8 discriminator 1 view .LVU84
ARM GAS  /tmp/cc8gkcIc.s 			page 40


 292 00be 13F0800F 		tst	r3, #128
 293 00c2 FAD0     		beq	.L9
 127:Core/Src/i2c.c ****   LL_I2C_TransmitData8(EEPROM_I2C, (uint8_t) reg_addr); //  
 294              		.loc 1 127 48 is_stmt 1 discriminator 2 view .LVU85
 128:Core/Src/i2c.c **** 	while(!LL_I2C_IsActiveFlag_TXE(EEPROM_I2C)){};
 295              		.loc 1 128 3 discriminator 2 view .LVU86
 296 00c4 E3B2     		uxtb	r3, r4
 297              	.LVL22:
 298              	.LBB116:
 299              	.LBI116:
1739:Drivers/STM32F1xx_HAL_Driver/Inc/stm32f1xx_ll_i2c.h **** {
 300              		.loc 2 1739 22 discriminator 2 view .LVU87
 301              	.LBB117:
 302              		.loc 2 1741 3 discriminator 2 view .LVU88
 303 00c6 0649     		ldr	r1, .L18
 304 00c8 0A69     		ldr	r2, [r1, #16]
 305 00ca 22F0FF02 		bic	r2, r2, #255
 306 00ce 1343     		orrs	r3, r3, r2
 307              	.LVL23:
 308              		.loc 2 1741 3 is_stmt 0 discriminator 2 view .LVU89
 309 00d0 0B61     		str	r3, [r1, #16]
 310              	.LVL24:
 311              	.L10:
 312              		.loc 2 1741 3 discriminator 2 view .LVU90
 313              	.LBE117:
 314              	.LBE116:
 129:Core/Src/i2c.c **** 	return 1;
 315              		.loc 1 129 46 is_stmt 1 discriminator 1 view .LVU91
 129:Core/Src/i2c.c **** 	return 1;
 316              		.loc 1 129 7 discriminator 1 view .LVU92
 317              	.LBB118:
 318              	.LBI118:
1128:Drivers/STM32F1xx_HAL_Driver/Inc/stm32f1xx_ll_i2c.h **** {
 319              		.loc 2 1128 26 discriminator 1 view .LVU93
 320              	.LBB119:
1130:Drivers/STM32F1xx_HAL_Driver/Inc/stm32f1xx_ll_i2c.h **** }
 321              		.loc 2 1130 3 discriminator 1 view .LVU94
1130:Drivers/STM32F1xx_HAL_Driver/Inc/stm32f1xx_ll_i2c.h **** }
 322              		.loc 2 1130 11 is_stmt 0 discriminator 1 view .LVU95
 323 00d2 034B     		ldr	r3, .L18
 324 00d4 5B69     		ldr	r3, [r3, #20]
 325              	.LVL25:
1130:Drivers/STM32F1xx_HAL_Driver/Inc/stm32f1xx_ll_i2c.h **** }
 326              		.loc 2 1130 11 discriminator 1 view .LVU96
 327              	.LBE119:
 328              	.LBE118:
 129:Core/Src/i2c.c **** 	return 1;
 329              		.loc 1 129 7 discriminator 1 view .LVU97
 330 00d6 13F0800F 		tst	r3, #128
 331 00da FAD0     		beq	.L10
 130:Core/Src/i2c.c **** }
 332              		.loc 1 130 9 view .LVU98
 333 00dc 0120     		movs	r0, #1
 334 00de A9E7     		b	.L3
 335              	.L19:
 336              		.align	2
 337              	.L18:
ARM GAS  /tmp/cc8gkcIc.s 			page 41


 338 00e0 00540040 		.word	1073763328
 339 00e4 00000000 		.word	.LANCHOR0
 340              		.cfi_endproc
 341              	.LFE951:
 343              		.section	.text.MX_I2C1_Init,"ax",%progbits
 344              		.align	1
 345              		.global	MX_I2C1_Init
 346              		.syntax unified
 347              		.thumb
 348              		.thumb_func
 350              	MX_I2C1_Init:
 351              	.LFB950:
  42:Core/Src/i2c.c **** 
 352              		.loc 1 42 1 is_stmt 1 view -0
 353              		.cfi_startproc
 354              		@ args = 0, pretend = 0, frame = 56
 355              		@ frame_needed = 0, uses_anonymous_args = 0
 356 0000 30B5     		push	{r4, r5, lr}
 357              	.LCFI4:
 358              		.cfi_def_cfa_offset 12
 359              		.cfi_offset 4, -12
 360              		.cfi_offset 5, -8
 361              		.cfi_offset 14, -4
 362 0002 8FB0     		sub	sp, sp, #60
 363              	.LCFI5:
 364              		.cfi_def_cfa_offset 72
  48:Core/Src/i2c.c **** 
 365              		.loc 1 48 3 view .LVU100
  48:Core/Src/i2c.c **** 
 366              		.loc 1 48 22 is_stmt 0 view .LVU101
 367 0004 0024     		movs	r4, #0
 368 0006 0894     		str	r4, [sp, #32]
 369 0008 0994     		str	r4, [sp, #36]
 370 000a 0A94     		str	r4, [sp, #40]
 371 000c 0B94     		str	r4, [sp, #44]
 372 000e 0C94     		str	r4, [sp, #48]
 373 0010 0D94     		str	r4, [sp, #52]
  50:Core/Src/i2c.c **** 
 374              		.loc 1 50 3 is_stmt 1 view .LVU102
  50:Core/Src/i2c.c **** 
 375              		.loc 1 50 23 is_stmt 0 view .LVU103
 376 0012 0394     		str	r4, [sp, #12]
 377 0014 0494     		str	r4, [sp, #16]
 378 0016 0594     		str	r4, [sp, #20]
 379 0018 0694     		str	r4, [sp, #24]
 380 001a 0794     		str	r4, [sp, #28]
  52:Core/Src/i2c.c ****   /**I2C1 GPIO Configuration
 381              		.loc 1 52 3 is_stmt 1 view .LVU104
 382              	.LVL26:
 383              	.LBB120:
 384              	.LBI120:
 385              		.file 3 "Drivers/STM32F1xx_HAL_Driver/Inc/stm32f1xx_ll_bus.h"
   1:Drivers/STM32F1xx_HAL_Driver/Inc/stm32f1xx_ll_bus.h **** /**
   2:Drivers/STM32F1xx_HAL_Driver/Inc/stm32f1xx_ll_bus.h ****   ******************************************************************************
   3:Drivers/STM32F1xx_HAL_Driver/Inc/stm32f1xx_ll_bus.h ****   * @file    stm32f1xx_ll_bus.h
   4:Drivers/STM32F1xx_HAL_Driver/Inc/stm32f1xx_ll_bus.h ****   * @author  MCD Application Team
   5:Drivers/STM32F1xx_HAL_Driver/Inc/stm32f1xx_ll_bus.h ****   * @brief   Header file of BUS LL module.
ARM GAS  /tmp/cc8gkcIc.s 			page 42


   6:Drivers/STM32F1xx_HAL_Driver/Inc/stm32f1xx_ll_bus.h **** 
   7:Drivers/STM32F1xx_HAL_Driver/Inc/stm32f1xx_ll_bus.h ****   @verbatim
   8:Drivers/STM32F1xx_HAL_Driver/Inc/stm32f1xx_ll_bus.h ****                       ##### RCC Limitations #####
   9:Drivers/STM32F1xx_HAL_Driver/Inc/stm32f1xx_ll_bus.h ****   ==============================================================================
  10:Drivers/STM32F1xx_HAL_Driver/Inc/stm32f1xx_ll_bus.h ****     [..]
  11:Drivers/STM32F1xx_HAL_Driver/Inc/stm32f1xx_ll_bus.h ****       A delay between an RCC peripheral clock enable and the effective peripheral
  12:Drivers/STM32F1xx_HAL_Driver/Inc/stm32f1xx_ll_bus.h ****       enabling should be taken into account in order to manage the peripheral read/write
  13:Drivers/STM32F1xx_HAL_Driver/Inc/stm32f1xx_ll_bus.h ****       from/to registers.
  14:Drivers/STM32F1xx_HAL_Driver/Inc/stm32f1xx_ll_bus.h ****       (+) This delay depends on the peripheral mapping.
  15:Drivers/STM32F1xx_HAL_Driver/Inc/stm32f1xx_ll_bus.h ****         (++) AHB & APB peripherals, 1 dummy read is necessary
  16:Drivers/STM32F1xx_HAL_Driver/Inc/stm32f1xx_ll_bus.h **** 
  17:Drivers/STM32F1xx_HAL_Driver/Inc/stm32f1xx_ll_bus.h ****     [..]
  18:Drivers/STM32F1xx_HAL_Driver/Inc/stm32f1xx_ll_bus.h ****       Workarounds:
  19:Drivers/STM32F1xx_HAL_Driver/Inc/stm32f1xx_ll_bus.h ****       (#) For AHB & APB peripherals, a dummy read to the peripheral register has been
  20:Drivers/STM32F1xx_HAL_Driver/Inc/stm32f1xx_ll_bus.h ****           inserted in each LL_{BUS}_GRP{x}_EnableClock() function.
  21:Drivers/STM32F1xx_HAL_Driver/Inc/stm32f1xx_ll_bus.h **** 
  22:Drivers/STM32F1xx_HAL_Driver/Inc/stm32f1xx_ll_bus.h ****   @endverbatim
  23:Drivers/STM32F1xx_HAL_Driver/Inc/stm32f1xx_ll_bus.h ****   ******************************************************************************
  24:Drivers/STM32F1xx_HAL_Driver/Inc/stm32f1xx_ll_bus.h ****   * @attention
  25:Drivers/STM32F1xx_HAL_Driver/Inc/stm32f1xx_ll_bus.h ****   *
  26:Drivers/STM32F1xx_HAL_Driver/Inc/stm32f1xx_ll_bus.h ****   * Copyright (c) 2016 STMicroelectronics.
  27:Drivers/STM32F1xx_HAL_Driver/Inc/stm32f1xx_ll_bus.h ****   * All rights reserved.
  28:Drivers/STM32F1xx_HAL_Driver/Inc/stm32f1xx_ll_bus.h ****   *
  29:Drivers/STM32F1xx_HAL_Driver/Inc/stm32f1xx_ll_bus.h ****   * This software is licensed under terms that can be found in the LICENSE file in
  30:Drivers/STM32F1xx_HAL_Driver/Inc/stm32f1xx_ll_bus.h ****   * the root directory of this software component.
  31:Drivers/STM32F1xx_HAL_Driver/Inc/stm32f1xx_ll_bus.h ****   * If no LICENSE file comes with this software, it is provided AS-IS.
  32:Drivers/STM32F1xx_HAL_Driver/Inc/stm32f1xx_ll_bus.h ****   ******************************************************************************
  33:Drivers/STM32F1xx_HAL_Driver/Inc/stm32f1xx_ll_bus.h ****   */
  34:Drivers/STM32F1xx_HAL_Driver/Inc/stm32f1xx_ll_bus.h **** 
  35:Drivers/STM32F1xx_HAL_Driver/Inc/stm32f1xx_ll_bus.h **** /* Define to prevent recursive inclusion -------------------------------------*/
  36:Drivers/STM32F1xx_HAL_Driver/Inc/stm32f1xx_ll_bus.h **** #ifndef __STM32F1xx_LL_BUS_H
  37:Drivers/STM32F1xx_HAL_Driver/Inc/stm32f1xx_ll_bus.h **** #define __STM32F1xx_LL_BUS_H
  38:Drivers/STM32F1xx_HAL_Driver/Inc/stm32f1xx_ll_bus.h **** 
  39:Drivers/STM32F1xx_HAL_Driver/Inc/stm32f1xx_ll_bus.h **** #ifdef __cplusplus
  40:Drivers/STM32F1xx_HAL_Driver/Inc/stm32f1xx_ll_bus.h **** extern "C" {
  41:Drivers/STM32F1xx_HAL_Driver/Inc/stm32f1xx_ll_bus.h **** #endif
  42:Drivers/STM32F1xx_HAL_Driver/Inc/stm32f1xx_ll_bus.h **** 
  43:Drivers/STM32F1xx_HAL_Driver/Inc/stm32f1xx_ll_bus.h **** /* Includes ------------------------------------------------------------------*/
  44:Drivers/STM32F1xx_HAL_Driver/Inc/stm32f1xx_ll_bus.h **** #include "stm32f1xx.h"
  45:Drivers/STM32F1xx_HAL_Driver/Inc/stm32f1xx_ll_bus.h **** 
  46:Drivers/STM32F1xx_HAL_Driver/Inc/stm32f1xx_ll_bus.h **** /** @addtogroup STM32F1xx_LL_Driver
  47:Drivers/STM32F1xx_HAL_Driver/Inc/stm32f1xx_ll_bus.h ****   * @{
  48:Drivers/STM32F1xx_HAL_Driver/Inc/stm32f1xx_ll_bus.h ****   */
  49:Drivers/STM32F1xx_HAL_Driver/Inc/stm32f1xx_ll_bus.h **** 
  50:Drivers/STM32F1xx_HAL_Driver/Inc/stm32f1xx_ll_bus.h **** #if defined(RCC)
  51:Drivers/STM32F1xx_HAL_Driver/Inc/stm32f1xx_ll_bus.h **** 
  52:Drivers/STM32F1xx_HAL_Driver/Inc/stm32f1xx_ll_bus.h **** /** @defgroup BUS_LL BUS
  53:Drivers/STM32F1xx_HAL_Driver/Inc/stm32f1xx_ll_bus.h ****   * @{
  54:Drivers/STM32F1xx_HAL_Driver/Inc/stm32f1xx_ll_bus.h ****   */
  55:Drivers/STM32F1xx_HAL_Driver/Inc/stm32f1xx_ll_bus.h **** 
  56:Drivers/STM32F1xx_HAL_Driver/Inc/stm32f1xx_ll_bus.h **** /* Private types -------------------------------------------------------------*/
  57:Drivers/STM32F1xx_HAL_Driver/Inc/stm32f1xx_ll_bus.h **** /* Private variables ---------------------------------------------------------*/
  58:Drivers/STM32F1xx_HAL_Driver/Inc/stm32f1xx_ll_bus.h **** 
  59:Drivers/STM32F1xx_HAL_Driver/Inc/stm32f1xx_ll_bus.h **** /* Private constants ---------------------------------------------------------*/
  60:Drivers/STM32F1xx_HAL_Driver/Inc/stm32f1xx_ll_bus.h **** #if defined(RCC_AHBRSTR_OTGFSRST) || defined(RCC_AHBRSTR_ETHMACRST)
  61:Drivers/STM32F1xx_HAL_Driver/Inc/stm32f1xx_ll_bus.h **** #define RCC_AHBRSTR_SUPPORT
  62:Drivers/STM32F1xx_HAL_Driver/Inc/stm32f1xx_ll_bus.h **** #endif /* RCC_AHBRSTR_OTGFSRST || RCC_AHBRSTR_ETHMACRST */
ARM GAS  /tmp/cc8gkcIc.s 			page 43


  63:Drivers/STM32F1xx_HAL_Driver/Inc/stm32f1xx_ll_bus.h **** 
  64:Drivers/STM32F1xx_HAL_Driver/Inc/stm32f1xx_ll_bus.h **** /* Private macros ------------------------------------------------------------*/
  65:Drivers/STM32F1xx_HAL_Driver/Inc/stm32f1xx_ll_bus.h **** 
  66:Drivers/STM32F1xx_HAL_Driver/Inc/stm32f1xx_ll_bus.h **** /* Exported types ------------------------------------------------------------*/
  67:Drivers/STM32F1xx_HAL_Driver/Inc/stm32f1xx_ll_bus.h **** /* Exported constants --------------------------------------------------------*/
  68:Drivers/STM32F1xx_HAL_Driver/Inc/stm32f1xx_ll_bus.h **** /** @defgroup BUS_LL_Exported_Constants BUS Exported Constants
  69:Drivers/STM32F1xx_HAL_Driver/Inc/stm32f1xx_ll_bus.h ****   * @{
  70:Drivers/STM32F1xx_HAL_Driver/Inc/stm32f1xx_ll_bus.h ****   */
  71:Drivers/STM32F1xx_HAL_Driver/Inc/stm32f1xx_ll_bus.h **** 
  72:Drivers/STM32F1xx_HAL_Driver/Inc/stm32f1xx_ll_bus.h **** /** @defgroup BUS_LL_EC_AHB1_GRP1_PERIPH  AHB1 GRP1 PERIPH
  73:Drivers/STM32F1xx_HAL_Driver/Inc/stm32f1xx_ll_bus.h ****   * @{
  74:Drivers/STM32F1xx_HAL_Driver/Inc/stm32f1xx_ll_bus.h ****   */
  75:Drivers/STM32F1xx_HAL_Driver/Inc/stm32f1xx_ll_bus.h **** #define LL_AHB1_GRP1_PERIPH_ALL            (uint32_t)0xFFFFFFFFU
  76:Drivers/STM32F1xx_HAL_Driver/Inc/stm32f1xx_ll_bus.h **** #define LL_AHB1_GRP1_PERIPH_CRC            RCC_AHBENR_CRCEN
  77:Drivers/STM32F1xx_HAL_Driver/Inc/stm32f1xx_ll_bus.h **** #define LL_AHB1_GRP1_PERIPH_DMA1           RCC_AHBENR_DMA1EN
  78:Drivers/STM32F1xx_HAL_Driver/Inc/stm32f1xx_ll_bus.h **** #if defined(DMA2)
  79:Drivers/STM32F1xx_HAL_Driver/Inc/stm32f1xx_ll_bus.h **** #define LL_AHB1_GRP1_PERIPH_DMA2           RCC_AHBENR_DMA2EN
  80:Drivers/STM32F1xx_HAL_Driver/Inc/stm32f1xx_ll_bus.h **** #endif /*DMA2*/
  81:Drivers/STM32F1xx_HAL_Driver/Inc/stm32f1xx_ll_bus.h **** #if defined(ETH)
  82:Drivers/STM32F1xx_HAL_Driver/Inc/stm32f1xx_ll_bus.h **** #define LL_AHB1_GRP1_PERIPH_ETHMAC         RCC_AHBENR_ETHMACEN
  83:Drivers/STM32F1xx_HAL_Driver/Inc/stm32f1xx_ll_bus.h **** #define LL_AHB1_GRP1_PERIPH_ETHMACRX       RCC_AHBENR_ETHMACRXEN
  84:Drivers/STM32F1xx_HAL_Driver/Inc/stm32f1xx_ll_bus.h **** #define LL_AHB1_GRP1_PERIPH_ETHMACTX       RCC_AHBENR_ETHMACTXEN
  85:Drivers/STM32F1xx_HAL_Driver/Inc/stm32f1xx_ll_bus.h **** #endif /*ETH*/
  86:Drivers/STM32F1xx_HAL_Driver/Inc/stm32f1xx_ll_bus.h **** #define LL_AHB1_GRP1_PERIPH_FLASH          RCC_AHBENR_FLITFEN
  87:Drivers/STM32F1xx_HAL_Driver/Inc/stm32f1xx_ll_bus.h **** #if defined(FSMC_Bank1)
  88:Drivers/STM32F1xx_HAL_Driver/Inc/stm32f1xx_ll_bus.h **** #define LL_AHB1_GRP1_PERIPH_FSMC           RCC_AHBENR_FSMCEN
  89:Drivers/STM32F1xx_HAL_Driver/Inc/stm32f1xx_ll_bus.h **** #endif /*FSMC_Bank1*/
  90:Drivers/STM32F1xx_HAL_Driver/Inc/stm32f1xx_ll_bus.h **** #if defined(USB_OTG_FS)
  91:Drivers/STM32F1xx_HAL_Driver/Inc/stm32f1xx_ll_bus.h **** #define LL_AHB1_GRP1_PERIPH_OTGFS          RCC_AHBENR_OTGFSEN
  92:Drivers/STM32F1xx_HAL_Driver/Inc/stm32f1xx_ll_bus.h **** #endif /*USB_OTG_FS*/
  93:Drivers/STM32F1xx_HAL_Driver/Inc/stm32f1xx_ll_bus.h **** #if defined(SDIO)
  94:Drivers/STM32F1xx_HAL_Driver/Inc/stm32f1xx_ll_bus.h **** #define LL_AHB1_GRP1_PERIPH_SDIO           RCC_AHBENR_SDIOEN
  95:Drivers/STM32F1xx_HAL_Driver/Inc/stm32f1xx_ll_bus.h **** #endif /*SDIO*/
  96:Drivers/STM32F1xx_HAL_Driver/Inc/stm32f1xx_ll_bus.h **** #define LL_AHB1_GRP1_PERIPH_SRAM           RCC_AHBENR_SRAMEN
  97:Drivers/STM32F1xx_HAL_Driver/Inc/stm32f1xx_ll_bus.h **** /**
  98:Drivers/STM32F1xx_HAL_Driver/Inc/stm32f1xx_ll_bus.h ****   * @}
  99:Drivers/STM32F1xx_HAL_Driver/Inc/stm32f1xx_ll_bus.h ****   */
 100:Drivers/STM32F1xx_HAL_Driver/Inc/stm32f1xx_ll_bus.h **** 
 101:Drivers/STM32F1xx_HAL_Driver/Inc/stm32f1xx_ll_bus.h **** /** @defgroup BUS_LL_EC_APB1_GRP1_PERIPH  APB1 GRP1 PERIPH
 102:Drivers/STM32F1xx_HAL_Driver/Inc/stm32f1xx_ll_bus.h ****   * @{
 103:Drivers/STM32F1xx_HAL_Driver/Inc/stm32f1xx_ll_bus.h ****   */
 104:Drivers/STM32F1xx_HAL_Driver/Inc/stm32f1xx_ll_bus.h **** #define LL_APB1_GRP1_PERIPH_ALL            (uint32_t)0xFFFFFFFFU
 105:Drivers/STM32F1xx_HAL_Driver/Inc/stm32f1xx_ll_bus.h **** #define LL_APB1_GRP1_PERIPH_BKP            RCC_APB1ENR_BKPEN
 106:Drivers/STM32F1xx_HAL_Driver/Inc/stm32f1xx_ll_bus.h **** #if defined(CAN1)
 107:Drivers/STM32F1xx_HAL_Driver/Inc/stm32f1xx_ll_bus.h **** #define LL_APB1_GRP1_PERIPH_CAN1           RCC_APB1ENR_CAN1EN
 108:Drivers/STM32F1xx_HAL_Driver/Inc/stm32f1xx_ll_bus.h **** #endif /*CAN1*/
 109:Drivers/STM32F1xx_HAL_Driver/Inc/stm32f1xx_ll_bus.h **** #if defined(CAN2)
 110:Drivers/STM32F1xx_HAL_Driver/Inc/stm32f1xx_ll_bus.h **** #define LL_APB1_GRP1_PERIPH_CAN2           RCC_APB1ENR_CAN2EN
 111:Drivers/STM32F1xx_HAL_Driver/Inc/stm32f1xx_ll_bus.h **** #endif /*CAN2*/
 112:Drivers/STM32F1xx_HAL_Driver/Inc/stm32f1xx_ll_bus.h **** #if defined(CEC)
 113:Drivers/STM32F1xx_HAL_Driver/Inc/stm32f1xx_ll_bus.h **** #define LL_APB1_GRP1_PERIPH_CEC            RCC_APB1ENR_CECEN
 114:Drivers/STM32F1xx_HAL_Driver/Inc/stm32f1xx_ll_bus.h **** #endif /*CEC*/
 115:Drivers/STM32F1xx_HAL_Driver/Inc/stm32f1xx_ll_bus.h **** #if defined(DAC)
 116:Drivers/STM32F1xx_HAL_Driver/Inc/stm32f1xx_ll_bus.h **** #define LL_APB1_GRP1_PERIPH_DAC1           RCC_APB1ENR_DACEN
 117:Drivers/STM32F1xx_HAL_Driver/Inc/stm32f1xx_ll_bus.h **** #endif /*DAC*/
 118:Drivers/STM32F1xx_HAL_Driver/Inc/stm32f1xx_ll_bus.h **** #define LL_APB1_GRP1_PERIPH_I2C1           RCC_APB1ENR_I2C1EN
 119:Drivers/STM32F1xx_HAL_Driver/Inc/stm32f1xx_ll_bus.h **** #if defined(I2C2)
ARM GAS  /tmp/cc8gkcIc.s 			page 44


 120:Drivers/STM32F1xx_HAL_Driver/Inc/stm32f1xx_ll_bus.h **** #define LL_APB1_GRP1_PERIPH_I2C2           RCC_APB1ENR_I2C2EN
 121:Drivers/STM32F1xx_HAL_Driver/Inc/stm32f1xx_ll_bus.h **** #endif /*I2C2*/
 122:Drivers/STM32F1xx_HAL_Driver/Inc/stm32f1xx_ll_bus.h **** #define LL_APB1_GRP1_PERIPH_PWR            RCC_APB1ENR_PWREN
 123:Drivers/STM32F1xx_HAL_Driver/Inc/stm32f1xx_ll_bus.h **** #if defined(SPI2)
 124:Drivers/STM32F1xx_HAL_Driver/Inc/stm32f1xx_ll_bus.h **** #define LL_APB1_GRP1_PERIPH_SPI2           RCC_APB1ENR_SPI2EN
 125:Drivers/STM32F1xx_HAL_Driver/Inc/stm32f1xx_ll_bus.h **** #endif /*SPI2*/
 126:Drivers/STM32F1xx_HAL_Driver/Inc/stm32f1xx_ll_bus.h **** #if defined(SPI3)
 127:Drivers/STM32F1xx_HAL_Driver/Inc/stm32f1xx_ll_bus.h **** #define LL_APB1_GRP1_PERIPH_SPI3           RCC_APB1ENR_SPI3EN
 128:Drivers/STM32F1xx_HAL_Driver/Inc/stm32f1xx_ll_bus.h **** #endif /*SPI3*/
 129:Drivers/STM32F1xx_HAL_Driver/Inc/stm32f1xx_ll_bus.h **** #if defined(TIM12)
 130:Drivers/STM32F1xx_HAL_Driver/Inc/stm32f1xx_ll_bus.h **** #define LL_APB1_GRP1_PERIPH_TIM12          RCC_APB1ENR_TIM12EN
 131:Drivers/STM32F1xx_HAL_Driver/Inc/stm32f1xx_ll_bus.h **** #endif /*TIM12*/
 132:Drivers/STM32F1xx_HAL_Driver/Inc/stm32f1xx_ll_bus.h **** #if defined(TIM13)
 133:Drivers/STM32F1xx_HAL_Driver/Inc/stm32f1xx_ll_bus.h **** #define LL_APB1_GRP1_PERIPH_TIM13          RCC_APB1ENR_TIM13EN
 134:Drivers/STM32F1xx_HAL_Driver/Inc/stm32f1xx_ll_bus.h **** #endif /*TIM13*/
 135:Drivers/STM32F1xx_HAL_Driver/Inc/stm32f1xx_ll_bus.h **** #if defined(TIM14)
 136:Drivers/STM32F1xx_HAL_Driver/Inc/stm32f1xx_ll_bus.h **** #define LL_APB1_GRP1_PERIPH_TIM14          RCC_APB1ENR_TIM14EN
 137:Drivers/STM32F1xx_HAL_Driver/Inc/stm32f1xx_ll_bus.h **** #endif /*TIM14*/
 138:Drivers/STM32F1xx_HAL_Driver/Inc/stm32f1xx_ll_bus.h **** #define LL_APB1_GRP1_PERIPH_TIM2           RCC_APB1ENR_TIM2EN
 139:Drivers/STM32F1xx_HAL_Driver/Inc/stm32f1xx_ll_bus.h **** #define LL_APB1_GRP1_PERIPH_TIM3           RCC_APB1ENR_TIM3EN
 140:Drivers/STM32F1xx_HAL_Driver/Inc/stm32f1xx_ll_bus.h **** #if defined(TIM4)
 141:Drivers/STM32F1xx_HAL_Driver/Inc/stm32f1xx_ll_bus.h **** #define LL_APB1_GRP1_PERIPH_TIM4           RCC_APB1ENR_TIM4EN
 142:Drivers/STM32F1xx_HAL_Driver/Inc/stm32f1xx_ll_bus.h **** #endif /*TIM4*/
 143:Drivers/STM32F1xx_HAL_Driver/Inc/stm32f1xx_ll_bus.h **** #if defined(TIM5)
 144:Drivers/STM32F1xx_HAL_Driver/Inc/stm32f1xx_ll_bus.h **** #define LL_APB1_GRP1_PERIPH_TIM5           RCC_APB1ENR_TIM5EN
 145:Drivers/STM32F1xx_HAL_Driver/Inc/stm32f1xx_ll_bus.h **** #endif /*TIM5*/
 146:Drivers/STM32F1xx_HAL_Driver/Inc/stm32f1xx_ll_bus.h **** #if defined(TIM6)
 147:Drivers/STM32F1xx_HAL_Driver/Inc/stm32f1xx_ll_bus.h **** #define LL_APB1_GRP1_PERIPH_TIM6           RCC_APB1ENR_TIM6EN
 148:Drivers/STM32F1xx_HAL_Driver/Inc/stm32f1xx_ll_bus.h **** #endif /*TIM6*/
 149:Drivers/STM32F1xx_HAL_Driver/Inc/stm32f1xx_ll_bus.h **** #if defined(TIM7)
 150:Drivers/STM32F1xx_HAL_Driver/Inc/stm32f1xx_ll_bus.h **** #define LL_APB1_GRP1_PERIPH_TIM7           RCC_APB1ENR_TIM7EN
 151:Drivers/STM32F1xx_HAL_Driver/Inc/stm32f1xx_ll_bus.h **** #endif /*TIM7*/
 152:Drivers/STM32F1xx_HAL_Driver/Inc/stm32f1xx_ll_bus.h **** #if defined(UART4)
 153:Drivers/STM32F1xx_HAL_Driver/Inc/stm32f1xx_ll_bus.h **** #define LL_APB1_GRP1_PERIPH_UART4          RCC_APB1ENR_UART4EN
 154:Drivers/STM32F1xx_HAL_Driver/Inc/stm32f1xx_ll_bus.h **** #endif /*UART4*/
 155:Drivers/STM32F1xx_HAL_Driver/Inc/stm32f1xx_ll_bus.h **** #if defined(UART5)
 156:Drivers/STM32F1xx_HAL_Driver/Inc/stm32f1xx_ll_bus.h **** #define LL_APB1_GRP1_PERIPH_UART5          RCC_APB1ENR_UART5EN
 157:Drivers/STM32F1xx_HAL_Driver/Inc/stm32f1xx_ll_bus.h **** #endif /*UART5*/
 158:Drivers/STM32F1xx_HAL_Driver/Inc/stm32f1xx_ll_bus.h **** #define LL_APB1_GRP1_PERIPH_USART2         RCC_APB1ENR_USART2EN
 159:Drivers/STM32F1xx_HAL_Driver/Inc/stm32f1xx_ll_bus.h **** #if defined(USART3)
 160:Drivers/STM32F1xx_HAL_Driver/Inc/stm32f1xx_ll_bus.h **** #define LL_APB1_GRP1_PERIPH_USART3         RCC_APB1ENR_USART3EN
 161:Drivers/STM32F1xx_HAL_Driver/Inc/stm32f1xx_ll_bus.h **** #endif /*USART3*/
 162:Drivers/STM32F1xx_HAL_Driver/Inc/stm32f1xx_ll_bus.h **** #if defined(USB)
 163:Drivers/STM32F1xx_HAL_Driver/Inc/stm32f1xx_ll_bus.h **** #define LL_APB1_GRP1_PERIPH_USB            RCC_APB1ENR_USBEN
 164:Drivers/STM32F1xx_HAL_Driver/Inc/stm32f1xx_ll_bus.h **** #endif /*USB*/
 165:Drivers/STM32F1xx_HAL_Driver/Inc/stm32f1xx_ll_bus.h **** #define LL_APB1_GRP1_PERIPH_WWDG           RCC_APB1ENR_WWDGEN
 166:Drivers/STM32F1xx_HAL_Driver/Inc/stm32f1xx_ll_bus.h **** /**
 167:Drivers/STM32F1xx_HAL_Driver/Inc/stm32f1xx_ll_bus.h ****   * @}
 168:Drivers/STM32F1xx_HAL_Driver/Inc/stm32f1xx_ll_bus.h ****   */
 169:Drivers/STM32F1xx_HAL_Driver/Inc/stm32f1xx_ll_bus.h **** 
 170:Drivers/STM32F1xx_HAL_Driver/Inc/stm32f1xx_ll_bus.h **** /** @defgroup BUS_LL_EC_APB2_GRP1_PERIPH  APB2 GRP1 PERIPH
 171:Drivers/STM32F1xx_HAL_Driver/Inc/stm32f1xx_ll_bus.h ****   * @{
 172:Drivers/STM32F1xx_HAL_Driver/Inc/stm32f1xx_ll_bus.h ****   */
 173:Drivers/STM32F1xx_HAL_Driver/Inc/stm32f1xx_ll_bus.h **** #define LL_APB2_GRP1_PERIPH_ALL            (uint32_t)0xFFFFFFFFU
 174:Drivers/STM32F1xx_HAL_Driver/Inc/stm32f1xx_ll_bus.h **** #define LL_APB2_GRP1_PERIPH_ADC1           RCC_APB2ENR_ADC1EN
 175:Drivers/STM32F1xx_HAL_Driver/Inc/stm32f1xx_ll_bus.h **** #if defined(ADC2)
 176:Drivers/STM32F1xx_HAL_Driver/Inc/stm32f1xx_ll_bus.h **** #define LL_APB2_GRP1_PERIPH_ADC2           RCC_APB2ENR_ADC2EN
ARM GAS  /tmp/cc8gkcIc.s 			page 45


 177:Drivers/STM32F1xx_HAL_Driver/Inc/stm32f1xx_ll_bus.h **** #endif /*ADC2*/
 178:Drivers/STM32F1xx_HAL_Driver/Inc/stm32f1xx_ll_bus.h **** #if defined(ADC3)
 179:Drivers/STM32F1xx_HAL_Driver/Inc/stm32f1xx_ll_bus.h **** #define LL_APB2_GRP1_PERIPH_ADC3           RCC_APB2ENR_ADC3EN
 180:Drivers/STM32F1xx_HAL_Driver/Inc/stm32f1xx_ll_bus.h **** #endif /*ADC3*/
 181:Drivers/STM32F1xx_HAL_Driver/Inc/stm32f1xx_ll_bus.h **** #define LL_APB2_GRP1_PERIPH_AFIO           RCC_APB2ENR_AFIOEN
 182:Drivers/STM32F1xx_HAL_Driver/Inc/stm32f1xx_ll_bus.h **** #define LL_APB2_GRP1_PERIPH_GPIOA          RCC_APB2ENR_IOPAEN
 183:Drivers/STM32F1xx_HAL_Driver/Inc/stm32f1xx_ll_bus.h **** #define LL_APB2_GRP1_PERIPH_GPIOB          RCC_APB2ENR_IOPBEN
 184:Drivers/STM32F1xx_HAL_Driver/Inc/stm32f1xx_ll_bus.h **** #define LL_APB2_GRP1_PERIPH_GPIOC          RCC_APB2ENR_IOPCEN
 185:Drivers/STM32F1xx_HAL_Driver/Inc/stm32f1xx_ll_bus.h **** #define LL_APB2_GRP1_PERIPH_GPIOD          RCC_APB2ENR_IOPDEN
 186:Drivers/STM32F1xx_HAL_Driver/Inc/stm32f1xx_ll_bus.h **** #if defined(GPIOE)
 187:Drivers/STM32F1xx_HAL_Driver/Inc/stm32f1xx_ll_bus.h **** #define LL_APB2_GRP1_PERIPH_GPIOE          RCC_APB2ENR_IOPEEN
 188:Drivers/STM32F1xx_HAL_Driver/Inc/stm32f1xx_ll_bus.h **** #endif /*GPIOE*/
 189:Drivers/STM32F1xx_HAL_Driver/Inc/stm32f1xx_ll_bus.h **** #if defined(GPIOF)
 190:Drivers/STM32F1xx_HAL_Driver/Inc/stm32f1xx_ll_bus.h **** #define LL_APB2_GRP1_PERIPH_GPIOF          RCC_APB2ENR_IOPFEN
 191:Drivers/STM32F1xx_HAL_Driver/Inc/stm32f1xx_ll_bus.h **** #endif /*GPIOF*/
 192:Drivers/STM32F1xx_HAL_Driver/Inc/stm32f1xx_ll_bus.h **** #if defined(GPIOG)
 193:Drivers/STM32F1xx_HAL_Driver/Inc/stm32f1xx_ll_bus.h **** #define LL_APB2_GRP1_PERIPH_GPIOG          RCC_APB2ENR_IOPGEN
 194:Drivers/STM32F1xx_HAL_Driver/Inc/stm32f1xx_ll_bus.h **** #endif /*GPIOG*/
 195:Drivers/STM32F1xx_HAL_Driver/Inc/stm32f1xx_ll_bus.h **** #define LL_APB2_GRP1_PERIPH_SPI1           RCC_APB2ENR_SPI1EN
 196:Drivers/STM32F1xx_HAL_Driver/Inc/stm32f1xx_ll_bus.h **** #if defined(TIM10)
 197:Drivers/STM32F1xx_HAL_Driver/Inc/stm32f1xx_ll_bus.h **** #define LL_APB2_GRP1_PERIPH_TIM10          RCC_APB2ENR_TIM10EN
 198:Drivers/STM32F1xx_HAL_Driver/Inc/stm32f1xx_ll_bus.h **** #endif /*TIM10*/
 199:Drivers/STM32F1xx_HAL_Driver/Inc/stm32f1xx_ll_bus.h **** #if defined(TIM11)
 200:Drivers/STM32F1xx_HAL_Driver/Inc/stm32f1xx_ll_bus.h **** #define LL_APB2_GRP1_PERIPH_TIM11          RCC_APB2ENR_TIM11EN
 201:Drivers/STM32F1xx_HAL_Driver/Inc/stm32f1xx_ll_bus.h **** #endif /*TIM11*/
 202:Drivers/STM32F1xx_HAL_Driver/Inc/stm32f1xx_ll_bus.h **** #if defined(TIM15)
 203:Drivers/STM32F1xx_HAL_Driver/Inc/stm32f1xx_ll_bus.h **** #define LL_APB2_GRP1_PERIPH_TIM15          RCC_APB2ENR_TIM15EN
 204:Drivers/STM32F1xx_HAL_Driver/Inc/stm32f1xx_ll_bus.h **** #endif /*TIM15*/
 205:Drivers/STM32F1xx_HAL_Driver/Inc/stm32f1xx_ll_bus.h **** #if defined(TIM16)
 206:Drivers/STM32F1xx_HAL_Driver/Inc/stm32f1xx_ll_bus.h **** #define LL_APB2_GRP1_PERIPH_TIM16          RCC_APB2ENR_TIM16EN
 207:Drivers/STM32F1xx_HAL_Driver/Inc/stm32f1xx_ll_bus.h **** #endif /*TIM16*/
 208:Drivers/STM32F1xx_HAL_Driver/Inc/stm32f1xx_ll_bus.h **** #if defined(TIM17)
 209:Drivers/STM32F1xx_HAL_Driver/Inc/stm32f1xx_ll_bus.h **** #define LL_APB2_GRP1_PERIPH_TIM17          RCC_APB2ENR_TIM17EN
 210:Drivers/STM32F1xx_HAL_Driver/Inc/stm32f1xx_ll_bus.h **** #endif /*TIM17*/
 211:Drivers/STM32F1xx_HAL_Driver/Inc/stm32f1xx_ll_bus.h **** #define LL_APB2_GRP1_PERIPH_TIM1           RCC_APB2ENR_TIM1EN
 212:Drivers/STM32F1xx_HAL_Driver/Inc/stm32f1xx_ll_bus.h **** #if defined(TIM8)
 213:Drivers/STM32F1xx_HAL_Driver/Inc/stm32f1xx_ll_bus.h **** #define LL_APB2_GRP1_PERIPH_TIM8           RCC_APB2ENR_TIM8EN
 214:Drivers/STM32F1xx_HAL_Driver/Inc/stm32f1xx_ll_bus.h **** #endif /*TIM8*/
 215:Drivers/STM32F1xx_HAL_Driver/Inc/stm32f1xx_ll_bus.h **** #if defined(TIM9)
 216:Drivers/STM32F1xx_HAL_Driver/Inc/stm32f1xx_ll_bus.h **** #define LL_APB2_GRP1_PERIPH_TIM9           RCC_APB2ENR_TIM9EN
 217:Drivers/STM32F1xx_HAL_Driver/Inc/stm32f1xx_ll_bus.h **** #endif /*TIM9*/
 218:Drivers/STM32F1xx_HAL_Driver/Inc/stm32f1xx_ll_bus.h **** #define LL_APB2_GRP1_PERIPH_USART1         RCC_APB2ENR_USART1EN
 219:Drivers/STM32F1xx_HAL_Driver/Inc/stm32f1xx_ll_bus.h **** /**
 220:Drivers/STM32F1xx_HAL_Driver/Inc/stm32f1xx_ll_bus.h ****   * @}
 221:Drivers/STM32F1xx_HAL_Driver/Inc/stm32f1xx_ll_bus.h ****   */
 222:Drivers/STM32F1xx_HAL_Driver/Inc/stm32f1xx_ll_bus.h **** 
 223:Drivers/STM32F1xx_HAL_Driver/Inc/stm32f1xx_ll_bus.h **** /**
 224:Drivers/STM32F1xx_HAL_Driver/Inc/stm32f1xx_ll_bus.h ****   * @}
 225:Drivers/STM32F1xx_HAL_Driver/Inc/stm32f1xx_ll_bus.h ****   */
 226:Drivers/STM32F1xx_HAL_Driver/Inc/stm32f1xx_ll_bus.h **** 
 227:Drivers/STM32F1xx_HAL_Driver/Inc/stm32f1xx_ll_bus.h **** /* Exported macro ------------------------------------------------------------*/
 228:Drivers/STM32F1xx_HAL_Driver/Inc/stm32f1xx_ll_bus.h **** 
 229:Drivers/STM32F1xx_HAL_Driver/Inc/stm32f1xx_ll_bus.h **** /* Exported functions --------------------------------------------------------*/
 230:Drivers/STM32F1xx_HAL_Driver/Inc/stm32f1xx_ll_bus.h **** /** @defgroup BUS_LL_Exported_Functions BUS Exported Functions
 231:Drivers/STM32F1xx_HAL_Driver/Inc/stm32f1xx_ll_bus.h ****   * @{
 232:Drivers/STM32F1xx_HAL_Driver/Inc/stm32f1xx_ll_bus.h ****   */
 233:Drivers/STM32F1xx_HAL_Driver/Inc/stm32f1xx_ll_bus.h **** 
ARM GAS  /tmp/cc8gkcIc.s 			page 46


 234:Drivers/STM32F1xx_HAL_Driver/Inc/stm32f1xx_ll_bus.h **** /** @defgroup BUS_LL_EF_AHB1 AHB1
 235:Drivers/STM32F1xx_HAL_Driver/Inc/stm32f1xx_ll_bus.h ****   * @{
 236:Drivers/STM32F1xx_HAL_Driver/Inc/stm32f1xx_ll_bus.h ****   */
 237:Drivers/STM32F1xx_HAL_Driver/Inc/stm32f1xx_ll_bus.h **** 
 238:Drivers/STM32F1xx_HAL_Driver/Inc/stm32f1xx_ll_bus.h **** /**
 239:Drivers/STM32F1xx_HAL_Driver/Inc/stm32f1xx_ll_bus.h ****   * @brief  Enable AHB1 peripherals clock.
 240:Drivers/STM32F1xx_HAL_Driver/Inc/stm32f1xx_ll_bus.h ****   * @rmtoll AHBENR       CRCEN         LL_AHB1_GRP1_EnableClock\n
 241:Drivers/STM32F1xx_HAL_Driver/Inc/stm32f1xx_ll_bus.h ****   *         AHBENR       DMA1EN        LL_AHB1_GRP1_EnableClock\n
 242:Drivers/STM32F1xx_HAL_Driver/Inc/stm32f1xx_ll_bus.h ****   *         AHBENR       DMA2EN        LL_AHB1_GRP1_EnableClock\n
 243:Drivers/STM32F1xx_HAL_Driver/Inc/stm32f1xx_ll_bus.h ****   *         AHBENR       ETHMACEN      LL_AHB1_GRP1_EnableClock\n
 244:Drivers/STM32F1xx_HAL_Driver/Inc/stm32f1xx_ll_bus.h ****   *         AHBENR       ETHMACRXEN    LL_AHB1_GRP1_EnableClock\n
 245:Drivers/STM32F1xx_HAL_Driver/Inc/stm32f1xx_ll_bus.h ****   *         AHBENR       ETHMACTXEN    LL_AHB1_GRP1_EnableClock\n
 246:Drivers/STM32F1xx_HAL_Driver/Inc/stm32f1xx_ll_bus.h ****   *         AHBENR       FLITFEN       LL_AHB1_GRP1_EnableClock\n
 247:Drivers/STM32F1xx_HAL_Driver/Inc/stm32f1xx_ll_bus.h ****   *         AHBENR       FSMCEN        LL_AHB1_GRP1_EnableClock\n
 248:Drivers/STM32F1xx_HAL_Driver/Inc/stm32f1xx_ll_bus.h ****   *         AHBENR       OTGFSEN       LL_AHB1_GRP1_EnableClock\n
 249:Drivers/STM32F1xx_HAL_Driver/Inc/stm32f1xx_ll_bus.h ****   *         AHBENR       SDIOEN        LL_AHB1_GRP1_EnableClock\n
 250:Drivers/STM32F1xx_HAL_Driver/Inc/stm32f1xx_ll_bus.h ****   *         AHBENR       SRAMEN        LL_AHB1_GRP1_EnableClock
 251:Drivers/STM32F1xx_HAL_Driver/Inc/stm32f1xx_ll_bus.h ****   * @param  Periphs This parameter can be a combination of the following values:
 252:Drivers/STM32F1xx_HAL_Driver/Inc/stm32f1xx_ll_bus.h ****   *         @arg @ref LL_AHB1_GRP1_PERIPH_CRC
 253:Drivers/STM32F1xx_HAL_Driver/Inc/stm32f1xx_ll_bus.h ****   *         @arg @ref LL_AHB1_GRP1_PERIPH_DMA1
 254:Drivers/STM32F1xx_HAL_Driver/Inc/stm32f1xx_ll_bus.h ****   *         @arg @ref LL_AHB1_GRP1_PERIPH_DMA2 (*)
 255:Drivers/STM32F1xx_HAL_Driver/Inc/stm32f1xx_ll_bus.h ****   *         @arg @ref LL_AHB1_GRP1_PERIPH_ETHMAC (*)
 256:Drivers/STM32F1xx_HAL_Driver/Inc/stm32f1xx_ll_bus.h ****   *         @arg @ref LL_AHB1_GRP1_PERIPH_ETHMACRX (*)
 257:Drivers/STM32F1xx_HAL_Driver/Inc/stm32f1xx_ll_bus.h ****   *         @arg @ref LL_AHB1_GRP1_PERIPH_ETHMACTX (*)
 258:Drivers/STM32F1xx_HAL_Driver/Inc/stm32f1xx_ll_bus.h ****   *         @arg @ref LL_AHB1_GRP1_PERIPH_FLASH
 259:Drivers/STM32F1xx_HAL_Driver/Inc/stm32f1xx_ll_bus.h ****   *         @arg @ref LL_AHB1_GRP1_PERIPH_FSMC (*)
 260:Drivers/STM32F1xx_HAL_Driver/Inc/stm32f1xx_ll_bus.h ****   *         @arg @ref LL_AHB1_GRP1_PERIPH_OTGFS (*)
 261:Drivers/STM32F1xx_HAL_Driver/Inc/stm32f1xx_ll_bus.h ****   *         @arg @ref LL_AHB1_GRP1_PERIPH_SDIO (*)
 262:Drivers/STM32F1xx_HAL_Driver/Inc/stm32f1xx_ll_bus.h ****   *         @arg @ref LL_AHB1_GRP1_PERIPH_SRAM
 263:Drivers/STM32F1xx_HAL_Driver/Inc/stm32f1xx_ll_bus.h ****   *
 264:Drivers/STM32F1xx_HAL_Driver/Inc/stm32f1xx_ll_bus.h ****   *         (*) value not defined in all devices.
 265:Drivers/STM32F1xx_HAL_Driver/Inc/stm32f1xx_ll_bus.h ****   * @retval None
 266:Drivers/STM32F1xx_HAL_Driver/Inc/stm32f1xx_ll_bus.h **** */
 267:Drivers/STM32F1xx_HAL_Driver/Inc/stm32f1xx_ll_bus.h **** __STATIC_INLINE void LL_AHB1_GRP1_EnableClock(uint32_t Periphs)
 268:Drivers/STM32F1xx_HAL_Driver/Inc/stm32f1xx_ll_bus.h **** {
 269:Drivers/STM32F1xx_HAL_Driver/Inc/stm32f1xx_ll_bus.h ****   __IO uint32_t tmpreg;
 270:Drivers/STM32F1xx_HAL_Driver/Inc/stm32f1xx_ll_bus.h ****   SET_BIT(RCC->AHBENR, Periphs);
 271:Drivers/STM32F1xx_HAL_Driver/Inc/stm32f1xx_ll_bus.h ****   /* Delay after an RCC peripheral clock enabling */
 272:Drivers/STM32F1xx_HAL_Driver/Inc/stm32f1xx_ll_bus.h ****   tmpreg = READ_BIT(RCC->AHBENR, Periphs);
 273:Drivers/STM32F1xx_HAL_Driver/Inc/stm32f1xx_ll_bus.h ****   (void)tmpreg;
 274:Drivers/STM32F1xx_HAL_Driver/Inc/stm32f1xx_ll_bus.h **** }
 275:Drivers/STM32F1xx_HAL_Driver/Inc/stm32f1xx_ll_bus.h **** 
 276:Drivers/STM32F1xx_HAL_Driver/Inc/stm32f1xx_ll_bus.h **** /**
 277:Drivers/STM32F1xx_HAL_Driver/Inc/stm32f1xx_ll_bus.h ****   * @brief  Check if AHB1 peripheral clock is enabled or not
 278:Drivers/STM32F1xx_HAL_Driver/Inc/stm32f1xx_ll_bus.h ****   * @rmtoll AHBENR       CRCEN         LL_AHB1_GRP1_IsEnabledClock\n
 279:Drivers/STM32F1xx_HAL_Driver/Inc/stm32f1xx_ll_bus.h ****   *         AHBENR       DMA1EN        LL_AHB1_GRP1_IsEnabledClock\n
 280:Drivers/STM32F1xx_HAL_Driver/Inc/stm32f1xx_ll_bus.h ****   *         AHBENR       DMA2EN        LL_AHB1_GRP1_IsEnabledClock\n
 281:Drivers/STM32F1xx_HAL_Driver/Inc/stm32f1xx_ll_bus.h ****   *         AHBENR       ETHMACEN      LL_AHB1_GRP1_IsEnabledClock\n
 282:Drivers/STM32F1xx_HAL_Driver/Inc/stm32f1xx_ll_bus.h ****   *         AHBENR       ETHMACRXEN    LL_AHB1_GRP1_IsEnabledClock\n
 283:Drivers/STM32F1xx_HAL_Driver/Inc/stm32f1xx_ll_bus.h ****   *         AHBENR       ETHMACTXEN    LL_AHB1_GRP1_IsEnabledClock\n
 284:Drivers/STM32F1xx_HAL_Driver/Inc/stm32f1xx_ll_bus.h ****   *         AHBENR       FLITFEN       LL_AHB1_GRP1_IsEnabledClock\n
 285:Drivers/STM32F1xx_HAL_Driver/Inc/stm32f1xx_ll_bus.h ****   *         AHBENR       FSMCEN        LL_AHB1_GRP1_IsEnabledClock\n
 286:Drivers/STM32F1xx_HAL_Driver/Inc/stm32f1xx_ll_bus.h ****   *         AHBENR       OTGFSEN       LL_AHB1_GRP1_IsEnabledClock\n
 287:Drivers/STM32F1xx_HAL_Driver/Inc/stm32f1xx_ll_bus.h ****   *         AHBENR       SDIOEN        LL_AHB1_GRP1_IsEnabledClock\n
 288:Drivers/STM32F1xx_HAL_Driver/Inc/stm32f1xx_ll_bus.h ****   *         AHBENR       SRAMEN        LL_AHB1_GRP1_IsEnabledClock
 289:Drivers/STM32F1xx_HAL_Driver/Inc/stm32f1xx_ll_bus.h ****   * @param  Periphs This parameter can be a combination of the following values:
 290:Drivers/STM32F1xx_HAL_Driver/Inc/stm32f1xx_ll_bus.h ****   *         @arg @ref LL_AHB1_GRP1_PERIPH_CRC
ARM GAS  /tmp/cc8gkcIc.s 			page 47


 291:Drivers/STM32F1xx_HAL_Driver/Inc/stm32f1xx_ll_bus.h ****   *         @arg @ref LL_AHB1_GRP1_PERIPH_DMA1
 292:Drivers/STM32F1xx_HAL_Driver/Inc/stm32f1xx_ll_bus.h ****   *         @arg @ref LL_AHB1_GRP1_PERIPH_DMA2 (*)
 293:Drivers/STM32F1xx_HAL_Driver/Inc/stm32f1xx_ll_bus.h ****   *         @arg @ref LL_AHB1_GRP1_PERIPH_ETHMAC (*)
 294:Drivers/STM32F1xx_HAL_Driver/Inc/stm32f1xx_ll_bus.h ****   *         @arg @ref LL_AHB1_GRP1_PERIPH_ETHMACRX (*)
 295:Drivers/STM32F1xx_HAL_Driver/Inc/stm32f1xx_ll_bus.h ****   *         @arg @ref LL_AHB1_GRP1_PERIPH_ETHMACTX (*)
 296:Drivers/STM32F1xx_HAL_Driver/Inc/stm32f1xx_ll_bus.h ****   *         @arg @ref LL_AHB1_GRP1_PERIPH_FLASH
 297:Drivers/STM32F1xx_HAL_Driver/Inc/stm32f1xx_ll_bus.h ****   *         @arg @ref LL_AHB1_GRP1_PERIPH_FSMC (*)
 298:Drivers/STM32F1xx_HAL_Driver/Inc/stm32f1xx_ll_bus.h ****   *         @arg @ref LL_AHB1_GRP1_PERIPH_OTGFS (*)
 299:Drivers/STM32F1xx_HAL_Driver/Inc/stm32f1xx_ll_bus.h ****   *         @arg @ref LL_AHB1_GRP1_PERIPH_SDIO (*)
 300:Drivers/STM32F1xx_HAL_Driver/Inc/stm32f1xx_ll_bus.h ****   *         @arg @ref LL_AHB1_GRP1_PERIPH_SRAM
 301:Drivers/STM32F1xx_HAL_Driver/Inc/stm32f1xx_ll_bus.h ****   *
 302:Drivers/STM32F1xx_HAL_Driver/Inc/stm32f1xx_ll_bus.h ****   *         (*) value not defined in all devices.
 303:Drivers/STM32F1xx_HAL_Driver/Inc/stm32f1xx_ll_bus.h ****   * @retval State of Periphs (1 or 0).
 304:Drivers/STM32F1xx_HAL_Driver/Inc/stm32f1xx_ll_bus.h **** */
 305:Drivers/STM32F1xx_HAL_Driver/Inc/stm32f1xx_ll_bus.h **** __STATIC_INLINE uint32_t LL_AHB1_GRP1_IsEnabledClock(uint32_t Periphs)
 306:Drivers/STM32F1xx_HAL_Driver/Inc/stm32f1xx_ll_bus.h **** {
 307:Drivers/STM32F1xx_HAL_Driver/Inc/stm32f1xx_ll_bus.h ****   return (READ_BIT(RCC->AHBENR, Periphs) == Periphs);
 308:Drivers/STM32F1xx_HAL_Driver/Inc/stm32f1xx_ll_bus.h **** }
 309:Drivers/STM32F1xx_HAL_Driver/Inc/stm32f1xx_ll_bus.h **** 
 310:Drivers/STM32F1xx_HAL_Driver/Inc/stm32f1xx_ll_bus.h **** /**
 311:Drivers/STM32F1xx_HAL_Driver/Inc/stm32f1xx_ll_bus.h ****   * @brief  Disable AHB1 peripherals clock.
 312:Drivers/STM32F1xx_HAL_Driver/Inc/stm32f1xx_ll_bus.h ****   * @rmtoll AHBENR       CRCEN         LL_AHB1_GRP1_DisableClock\n
 313:Drivers/STM32F1xx_HAL_Driver/Inc/stm32f1xx_ll_bus.h ****   *         AHBENR       DMA1EN        LL_AHB1_GRP1_DisableClock\n
 314:Drivers/STM32F1xx_HAL_Driver/Inc/stm32f1xx_ll_bus.h ****   *         AHBENR       DMA2EN        LL_AHB1_GRP1_DisableClock\n
 315:Drivers/STM32F1xx_HAL_Driver/Inc/stm32f1xx_ll_bus.h ****   *         AHBENR       ETHMACEN      LL_AHB1_GRP1_DisableClock\n
 316:Drivers/STM32F1xx_HAL_Driver/Inc/stm32f1xx_ll_bus.h ****   *         AHBENR       ETHMACRXEN    LL_AHB1_GRP1_DisableClock\n
 317:Drivers/STM32F1xx_HAL_Driver/Inc/stm32f1xx_ll_bus.h ****   *         AHBENR       ETHMACTXEN    LL_AHB1_GRP1_DisableClock\n
 318:Drivers/STM32F1xx_HAL_Driver/Inc/stm32f1xx_ll_bus.h ****   *         AHBENR       FLITFEN       LL_AHB1_GRP1_DisableClock\n
 319:Drivers/STM32F1xx_HAL_Driver/Inc/stm32f1xx_ll_bus.h ****   *         AHBENR       FSMCEN        LL_AHB1_GRP1_DisableClock\n
 320:Drivers/STM32F1xx_HAL_Driver/Inc/stm32f1xx_ll_bus.h ****   *         AHBENR       OTGFSEN       LL_AHB1_GRP1_DisableClock\n
 321:Drivers/STM32F1xx_HAL_Driver/Inc/stm32f1xx_ll_bus.h ****   *         AHBENR       SDIOEN        LL_AHB1_GRP1_DisableClock\n
 322:Drivers/STM32F1xx_HAL_Driver/Inc/stm32f1xx_ll_bus.h ****   *         AHBENR       SRAMEN        LL_AHB1_GRP1_DisableClock
 323:Drivers/STM32F1xx_HAL_Driver/Inc/stm32f1xx_ll_bus.h ****   * @param  Periphs This parameter can be a combination of the following values:
 324:Drivers/STM32F1xx_HAL_Driver/Inc/stm32f1xx_ll_bus.h ****   *         @arg @ref LL_AHB1_GRP1_PERIPH_CRC
 325:Drivers/STM32F1xx_HAL_Driver/Inc/stm32f1xx_ll_bus.h ****   *         @arg @ref LL_AHB1_GRP1_PERIPH_DMA1
 326:Drivers/STM32F1xx_HAL_Driver/Inc/stm32f1xx_ll_bus.h ****   *         @arg @ref LL_AHB1_GRP1_PERIPH_DMA2 (*)
 327:Drivers/STM32F1xx_HAL_Driver/Inc/stm32f1xx_ll_bus.h ****   *         @arg @ref LL_AHB1_GRP1_PERIPH_ETHMAC (*)
 328:Drivers/STM32F1xx_HAL_Driver/Inc/stm32f1xx_ll_bus.h ****   *         @arg @ref LL_AHB1_GRP1_PERIPH_ETHMACRX (*)
 329:Drivers/STM32F1xx_HAL_Driver/Inc/stm32f1xx_ll_bus.h ****   *         @arg @ref LL_AHB1_GRP1_PERIPH_ETHMACTX (*)
 330:Drivers/STM32F1xx_HAL_Driver/Inc/stm32f1xx_ll_bus.h ****   *         @arg @ref LL_AHB1_GRP1_PERIPH_FLASH
 331:Drivers/STM32F1xx_HAL_Driver/Inc/stm32f1xx_ll_bus.h ****   *         @arg @ref LL_AHB1_GRP1_PERIPH_FSMC (*)
 332:Drivers/STM32F1xx_HAL_Driver/Inc/stm32f1xx_ll_bus.h ****   *         @arg @ref LL_AHB1_GRP1_PERIPH_OTGFS (*)
 333:Drivers/STM32F1xx_HAL_Driver/Inc/stm32f1xx_ll_bus.h ****   *         @arg @ref LL_AHB1_GRP1_PERIPH_SDIO (*)
 334:Drivers/STM32F1xx_HAL_Driver/Inc/stm32f1xx_ll_bus.h ****   *         @arg @ref LL_AHB1_GRP1_PERIPH_SRAM
 335:Drivers/STM32F1xx_HAL_Driver/Inc/stm32f1xx_ll_bus.h ****   *
 336:Drivers/STM32F1xx_HAL_Driver/Inc/stm32f1xx_ll_bus.h ****   *         (*) value not defined in all devices.
 337:Drivers/STM32F1xx_HAL_Driver/Inc/stm32f1xx_ll_bus.h ****   * @retval None
 338:Drivers/STM32F1xx_HAL_Driver/Inc/stm32f1xx_ll_bus.h **** */
 339:Drivers/STM32F1xx_HAL_Driver/Inc/stm32f1xx_ll_bus.h **** __STATIC_INLINE void LL_AHB1_GRP1_DisableClock(uint32_t Periphs)
 340:Drivers/STM32F1xx_HAL_Driver/Inc/stm32f1xx_ll_bus.h **** {
 341:Drivers/STM32F1xx_HAL_Driver/Inc/stm32f1xx_ll_bus.h ****   CLEAR_BIT(RCC->AHBENR, Periphs);
 342:Drivers/STM32F1xx_HAL_Driver/Inc/stm32f1xx_ll_bus.h **** }
 343:Drivers/STM32F1xx_HAL_Driver/Inc/stm32f1xx_ll_bus.h **** 
 344:Drivers/STM32F1xx_HAL_Driver/Inc/stm32f1xx_ll_bus.h **** #if defined(RCC_AHBRSTR_SUPPORT)
 345:Drivers/STM32F1xx_HAL_Driver/Inc/stm32f1xx_ll_bus.h **** /**
 346:Drivers/STM32F1xx_HAL_Driver/Inc/stm32f1xx_ll_bus.h ****   * @brief  Force AHB1 peripherals reset.
 347:Drivers/STM32F1xx_HAL_Driver/Inc/stm32f1xx_ll_bus.h ****   * @rmtoll AHBRSTR      ETHMACRST     LL_AHB1_GRP1_ForceReset\n
ARM GAS  /tmp/cc8gkcIc.s 			page 48


 348:Drivers/STM32F1xx_HAL_Driver/Inc/stm32f1xx_ll_bus.h ****   *         AHBRSTR      OTGFSRST      LL_AHB1_GRP1_ForceReset
 349:Drivers/STM32F1xx_HAL_Driver/Inc/stm32f1xx_ll_bus.h ****   * @param  Periphs This parameter can be a combination of the following values:
 350:Drivers/STM32F1xx_HAL_Driver/Inc/stm32f1xx_ll_bus.h ****   *         @arg @ref LL_AHB1_GRP1_PERIPH_ALL
 351:Drivers/STM32F1xx_HAL_Driver/Inc/stm32f1xx_ll_bus.h ****   *         @arg @ref LL_AHB1_GRP1_PERIPH_ETHMAC (*)
 352:Drivers/STM32F1xx_HAL_Driver/Inc/stm32f1xx_ll_bus.h ****   *         @arg @ref LL_AHB1_GRP1_PERIPH_OTGFS (*)
 353:Drivers/STM32F1xx_HAL_Driver/Inc/stm32f1xx_ll_bus.h ****   *
 354:Drivers/STM32F1xx_HAL_Driver/Inc/stm32f1xx_ll_bus.h ****   *         (*) value not defined in all devices.
 355:Drivers/STM32F1xx_HAL_Driver/Inc/stm32f1xx_ll_bus.h ****   * @retval None
 356:Drivers/STM32F1xx_HAL_Driver/Inc/stm32f1xx_ll_bus.h **** */
 357:Drivers/STM32F1xx_HAL_Driver/Inc/stm32f1xx_ll_bus.h **** __STATIC_INLINE void LL_AHB1_GRP1_ForceReset(uint32_t Periphs)
 358:Drivers/STM32F1xx_HAL_Driver/Inc/stm32f1xx_ll_bus.h **** {
 359:Drivers/STM32F1xx_HAL_Driver/Inc/stm32f1xx_ll_bus.h ****   SET_BIT(RCC->AHBRSTR, Periphs);
 360:Drivers/STM32F1xx_HAL_Driver/Inc/stm32f1xx_ll_bus.h **** }
 361:Drivers/STM32F1xx_HAL_Driver/Inc/stm32f1xx_ll_bus.h **** 
 362:Drivers/STM32F1xx_HAL_Driver/Inc/stm32f1xx_ll_bus.h **** /**
 363:Drivers/STM32F1xx_HAL_Driver/Inc/stm32f1xx_ll_bus.h ****   * @brief  Release AHB1 peripherals reset.
 364:Drivers/STM32F1xx_HAL_Driver/Inc/stm32f1xx_ll_bus.h ****   * @rmtoll AHBRSTR      ETHMACRST     LL_AHB1_GRP1_ReleaseReset\n
 365:Drivers/STM32F1xx_HAL_Driver/Inc/stm32f1xx_ll_bus.h ****   *         AHBRSTR      OTGFSRST      LL_AHB1_GRP1_ReleaseReset
 366:Drivers/STM32F1xx_HAL_Driver/Inc/stm32f1xx_ll_bus.h ****   * @param  Periphs This parameter can be a combination of the following values:
 367:Drivers/STM32F1xx_HAL_Driver/Inc/stm32f1xx_ll_bus.h ****   *         @arg @ref LL_AHB1_GRP1_PERIPH_ALL
 368:Drivers/STM32F1xx_HAL_Driver/Inc/stm32f1xx_ll_bus.h ****   *         @arg @ref LL_AHB1_GRP1_PERIPH_ETHMAC (*)
 369:Drivers/STM32F1xx_HAL_Driver/Inc/stm32f1xx_ll_bus.h ****   *         @arg @ref LL_AHB1_GRP1_PERIPH_OTGFS (*)
 370:Drivers/STM32F1xx_HAL_Driver/Inc/stm32f1xx_ll_bus.h ****   *
 371:Drivers/STM32F1xx_HAL_Driver/Inc/stm32f1xx_ll_bus.h ****   *         (*) value not defined in all devices.
 372:Drivers/STM32F1xx_HAL_Driver/Inc/stm32f1xx_ll_bus.h ****   * @retval None
 373:Drivers/STM32F1xx_HAL_Driver/Inc/stm32f1xx_ll_bus.h **** */
 374:Drivers/STM32F1xx_HAL_Driver/Inc/stm32f1xx_ll_bus.h **** __STATIC_INLINE void LL_AHB1_GRP1_ReleaseReset(uint32_t Periphs)
 375:Drivers/STM32F1xx_HAL_Driver/Inc/stm32f1xx_ll_bus.h **** {
 376:Drivers/STM32F1xx_HAL_Driver/Inc/stm32f1xx_ll_bus.h ****   CLEAR_BIT(RCC->AHBRSTR, Periphs);
 377:Drivers/STM32F1xx_HAL_Driver/Inc/stm32f1xx_ll_bus.h **** }
 378:Drivers/STM32F1xx_HAL_Driver/Inc/stm32f1xx_ll_bus.h **** #endif /* RCC_AHBRSTR_SUPPORT */
 379:Drivers/STM32F1xx_HAL_Driver/Inc/stm32f1xx_ll_bus.h **** 
 380:Drivers/STM32F1xx_HAL_Driver/Inc/stm32f1xx_ll_bus.h **** /**
 381:Drivers/STM32F1xx_HAL_Driver/Inc/stm32f1xx_ll_bus.h ****   * @}
 382:Drivers/STM32F1xx_HAL_Driver/Inc/stm32f1xx_ll_bus.h ****   */
 383:Drivers/STM32F1xx_HAL_Driver/Inc/stm32f1xx_ll_bus.h **** 
 384:Drivers/STM32F1xx_HAL_Driver/Inc/stm32f1xx_ll_bus.h **** /** @defgroup BUS_LL_EF_APB1 APB1
 385:Drivers/STM32F1xx_HAL_Driver/Inc/stm32f1xx_ll_bus.h ****   * @{
 386:Drivers/STM32F1xx_HAL_Driver/Inc/stm32f1xx_ll_bus.h ****   */
 387:Drivers/STM32F1xx_HAL_Driver/Inc/stm32f1xx_ll_bus.h **** 
 388:Drivers/STM32F1xx_HAL_Driver/Inc/stm32f1xx_ll_bus.h **** /**
 389:Drivers/STM32F1xx_HAL_Driver/Inc/stm32f1xx_ll_bus.h ****   * @brief  Enable APB1 peripherals clock.
 390:Drivers/STM32F1xx_HAL_Driver/Inc/stm32f1xx_ll_bus.h ****   * @rmtoll APB1ENR      BKPEN         LL_APB1_GRP1_EnableClock\n
 391:Drivers/STM32F1xx_HAL_Driver/Inc/stm32f1xx_ll_bus.h ****   *         APB1ENR      CAN1EN        LL_APB1_GRP1_EnableClock\n
 392:Drivers/STM32F1xx_HAL_Driver/Inc/stm32f1xx_ll_bus.h ****   *         APB1ENR      CAN2EN        LL_APB1_GRP1_EnableClock\n
 393:Drivers/STM32F1xx_HAL_Driver/Inc/stm32f1xx_ll_bus.h ****   *         APB1ENR      CECEN         LL_APB1_GRP1_EnableClock\n
 394:Drivers/STM32F1xx_HAL_Driver/Inc/stm32f1xx_ll_bus.h ****   *         APB1ENR      DACEN         LL_APB1_GRP1_EnableClock\n
 395:Drivers/STM32F1xx_HAL_Driver/Inc/stm32f1xx_ll_bus.h ****   *         APB1ENR      I2C1EN        LL_APB1_GRP1_EnableClock\n
 396:Drivers/STM32F1xx_HAL_Driver/Inc/stm32f1xx_ll_bus.h ****   *         APB1ENR      I2C2EN        LL_APB1_GRP1_EnableClock\n
 397:Drivers/STM32F1xx_HAL_Driver/Inc/stm32f1xx_ll_bus.h ****   *         APB1ENR      PWREN         LL_APB1_GRP1_EnableClock\n
 398:Drivers/STM32F1xx_HAL_Driver/Inc/stm32f1xx_ll_bus.h ****   *         APB1ENR      SPI2EN        LL_APB1_GRP1_EnableClock\n
 399:Drivers/STM32F1xx_HAL_Driver/Inc/stm32f1xx_ll_bus.h ****   *         APB1ENR      SPI3EN        LL_APB1_GRP1_EnableClock\n
 400:Drivers/STM32F1xx_HAL_Driver/Inc/stm32f1xx_ll_bus.h ****   *         APB1ENR      TIM12EN       LL_APB1_GRP1_EnableClock\n
 401:Drivers/STM32F1xx_HAL_Driver/Inc/stm32f1xx_ll_bus.h ****   *         APB1ENR      TIM13EN       LL_APB1_GRP1_EnableClock\n
 402:Drivers/STM32F1xx_HAL_Driver/Inc/stm32f1xx_ll_bus.h ****   *         APB1ENR      TIM14EN       LL_APB1_GRP1_EnableClock\n
 403:Drivers/STM32F1xx_HAL_Driver/Inc/stm32f1xx_ll_bus.h ****   *         APB1ENR      TIM2EN        LL_APB1_GRP1_EnableClock\n
 404:Drivers/STM32F1xx_HAL_Driver/Inc/stm32f1xx_ll_bus.h ****   *         APB1ENR      TIM3EN        LL_APB1_GRP1_EnableClock\n
ARM GAS  /tmp/cc8gkcIc.s 			page 49


 405:Drivers/STM32F1xx_HAL_Driver/Inc/stm32f1xx_ll_bus.h ****   *         APB1ENR      TIM4EN        LL_APB1_GRP1_EnableClock\n
 406:Drivers/STM32F1xx_HAL_Driver/Inc/stm32f1xx_ll_bus.h ****   *         APB1ENR      TIM5EN        LL_APB1_GRP1_EnableClock\n
 407:Drivers/STM32F1xx_HAL_Driver/Inc/stm32f1xx_ll_bus.h ****   *         APB1ENR      TIM6EN        LL_APB1_GRP1_EnableClock\n
 408:Drivers/STM32F1xx_HAL_Driver/Inc/stm32f1xx_ll_bus.h ****   *         APB1ENR      TIM7EN        LL_APB1_GRP1_EnableClock\n
 409:Drivers/STM32F1xx_HAL_Driver/Inc/stm32f1xx_ll_bus.h ****   *         APB1ENR      UART4EN       LL_APB1_GRP1_EnableClock\n
 410:Drivers/STM32F1xx_HAL_Driver/Inc/stm32f1xx_ll_bus.h ****   *         APB1ENR      UART5EN       LL_APB1_GRP1_EnableClock\n
 411:Drivers/STM32F1xx_HAL_Driver/Inc/stm32f1xx_ll_bus.h ****   *         APB1ENR      USART2EN      LL_APB1_GRP1_EnableClock\n
 412:Drivers/STM32F1xx_HAL_Driver/Inc/stm32f1xx_ll_bus.h ****   *         APB1ENR      USART3EN      LL_APB1_GRP1_EnableClock\n
 413:Drivers/STM32F1xx_HAL_Driver/Inc/stm32f1xx_ll_bus.h ****   *         APB1ENR      USBEN         LL_APB1_GRP1_EnableClock\n
 414:Drivers/STM32F1xx_HAL_Driver/Inc/stm32f1xx_ll_bus.h ****   *         APB1ENR      WWDGEN        LL_APB1_GRP1_EnableClock
 415:Drivers/STM32F1xx_HAL_Driver/Inc/stm32f1xx_ll_bus.h ****   * @param  Periphs This parameter can be a combination of the following values:
 416:Drivers/STM32F1xx_HAL_Driver/Inc/stm32f1xx_ll_bus.h ****   *         @arg @ref LL_APB1_GRP1_PERIPH_BKP
 417:Drivers/STM32F1xx_HAL_Driver/Inc/stm32f1xx_ll_bus.h ****   *         @arg @ref LL_APB1_GRP1_PERIPH_CAN1 (*)
 418:Drivers/STM32F1xx_HAL_Driver/Inc/stm32f1xx_ll_bus.h ****   *         @arg @ref LL_APB1_GRP1_PERIPH_CAN2 (*)
 419:Drivers/STM32F1xx_HAL_Driver/Inc/stm32f1xx_ll_bus.h ****   *         @arg @ref LL_APB1_GRP1_PERIPH_CEC (*)
 420:Drivers/STM32F1xx_HAL_Driver/Inc/stm32f1xx_ll_bus.h ****   *         @arg @ref LL_APB1_GRP1_PERIPH_DAC1 (*)
 421:Drivers/STM32F1xx_HAL_Driver/Inc/stm32f1xx_ll_bus.h ****   *         @arg @ref LL_APB1_GRP1_PERIPH_I2C1
 422:Drivers/STM32F1xx_HAL_Driver/Inc/stm32f1xx_ll_bus.h ****   *         @arg @ref LL_APB1_GRP1_PERIPH_I2C2 (*)
 423:Drivers/STM32F1xx_HAL_Driver/Inc/stm32f1xx_ll_bus.h ****   *         @arg @ref LL_APB1_GRP1_PERIPH_PWR
 424:Drivers/STM32F1xx_HAL_Driver/Inc/stm32f1xx_ll_bus.h ****   *         @arg @ref LL_APB1_GRP1_PERIPH_SPI2 (*)
 425:Drivers/STM32F1xx_HAL_Driver/Inc/stm32f1xx_ll_bus.h ****   *         @arg @ref LL_APB1_GRP1_PERIPH_SPI3 (*)
 426:Drivers/STM32F1xx_HAL_Driver/Inc/stm32f1xx_ll_bus.h ****   *         @arg @ref LL_APB1_GRP1_PERIPH_TIM12 (*)
 427:Drivers/STM32F1xx_HAL_Driver/Inc/stm32f1xx_ll_bus.h ****   *         @arg @ref LL_APB1_GRP1_PERIPH_TIM13 (*)
 428:Drivers/STM32F1xx_HAL_Driver/Inc/stm32f1xx_ll_bus.h ****   *         @arg @ref LL_APB1_GRP1_PERIPH_TIM14 (*)
 429:Drivers/STM32F1xx_HAL_Driver/Inc/stm32f1xx_ll_bus.h ****   *         @arg @ref LL_APB1_GRP1_PERIPH_TIM2
 430:Drivers/STM32F1xx_HAL_Driver/Inc/stm32f1xx_ll_bus.h ****   *         @arg @ref LL_APB1_GRP1_PERIPH_TIM3
 431:Drivers/STM32F1xx_HAL_Driver/Inc/stm32f1xx_ll_bus.h ****   *         @arg @ref LL_APB1_GRP1_PERIPH_TIM4 (*)
 432:Drivers/STM32F1xx_HAL_Driver/Inc/stm32f1xx_ll_bus.h ****   *         @arg @ref LL_APB1_GRP1_PERIPH_TIM5 (*)
 433:Drivers/STM32F1xx_HAL_Driver/Inc/stm32f1xx_ll_bus.h ****   *         @arg @ref LL_APB1_GRP1_PERIPH_TIM6 (*)
 434:Drivers/STM32F1xx_HAL_Driver/Inc/stm32f1xx_ll_bus.h ****   *         @arg @ref LL_APB1_GRP1_PERIPH_TIM7 (*)
 435:Drivers/STM32F1xx_HAL_Driver/Inc/stm32f1xx_ll_bus.h ****   *         @arg @ref LL_APB1_GRP1_PERIPH_UART4 (*)
 436:Drivers/STM32F1xx_HAL_Driver/Inc/stm32f1xx_ll_bus.h ****   *         @arg @ref LL_APB1_GRP1_PERIPH_UART5 (*)
 437:Drivers/STM32F1xx_HAL_Driver/Inc/stm32f1xx_ll_bus.h ****   *         @arg @ref LL_APB1_GRP1_PERIPH_USART2
 438:Drivers/STM32F1xx_HAL_Driver/Inc/stm32f1xx_ll_bus.h ****   *         @arg @ref LL_APB1_GRP1_PERIPH_USART3 (*)
 439:Drivers/STM32F1xx_HAL_Driver/Inc/stm32f1xx_ll_bus.h ****   *         @arg @ref LL_APB1_GRP1_PERIPH_USB (*)
 440:Drivers/STM32F1xx_HAL_Driver/Inc/stm32f1xx_ll_bus.h ****   *         @arg @ref LL_APB1_GRP1_PERIPH_WWDG
 441:Drivers/STM32F1xx_HAL_Driver/Inc/stm32f1xx_ll_bus.h ****   *
 442:Drivers/STM32F1xx_HAL_Driver/Inc/stm32f1xx_ll_bus.h ****   *         (*) value not defined in all devices.
 443:Drivers/STM32F1xx_HAL_Driver/Inc/stm32f1xx_ll_bus.h ****   * @retval None
 444:Drivers/STM32F1xx_HAL_Driver/Inc/stm32f1xx_ll_bus.h **** */
 445:Drivers/STM32F1xx_HAL_Driver/Inc/stm32f1xx_ll_bus.h **** __STATIC_INLINE void LL_APB1_GRP1_EnableClock(uint32_t Periphs)
 446:Drivers/STM32F1xx_HAL_Driver/Inc/stm32f1xx_ll_bus.h **** {
 447:Drivers/STM32F1xx_HAL_Driver/Inc/stm32f1xx_ll_bus.h ****   __IO uint32_t tmpreg;
 448:Drivers/STM32F1xx_HAL_Driver/Inc/stm32f1xx_ll_bus.h ****   SET_BIT(RCC->APB1ENR, Periphs);
 449:Drivers/STM32F1xx_HAL_Driver/Inc/stm32f1xx_ll_bus.h ****   /* Delay after an RCC peripheral clock enabling */
 450:Drivers/STM32F1xx_HAL_Driver/Inc/stm32f1xx_ll_bus.h ****   tmpreg = READ_BIT(RCC->APB1ENR, Periphs);
 451:Drivers/STM32F1xx_HAL_Driver/Inc/stm32f1xx_ll_bus.h ****   (void)tmpreg;
 452:Drivers/STM32F1xx_HAL_Driver/Inc/stm32f1xx_ll_bus.h **** }
 453:Drivers/STM32F1xx_HAL_Driver/Inc/stm32f1xx_ll_bus.h **** 
 454:Drivers/STM32F1xx_HAL_Driver/Inc/stm32f1xx_ll_bus.h **** /**
 455:Drivers/STM32F1xx_HAL_Driver/Inc/stm32f1xx_ll_bus.h ****   * @brief  Check if APB1 peripheral clock is enabled or not
 456:Drivers/STM32F1xx_HAL_Driver/Inc/stm32f1xx_ll_bus.h ****   * @rmtoll APB1ENR      BKPEN         LL_APB1_GRP1_IsEnabledClock\n
 457:Drivers/STM32F1xx_HAL_Driver/Inc/stm32f1xx_ll_bus.h ****   *         APB1ENR      CAN1EN        LL_APB1_GRP1_IsEnabledClock\n
 458:Drivers/STM32F1xx_HAL_Driver/Inc/stm32f1xx_ll_bus.h ****   *         APB1ENR      CAN2EN        LL_APB1_GRP1_IsEnabledClock\n
 459:Drivers/STM32F1xx_HAL_Driver/Inc/stm32f1xx_ll_bus.h ****   *         APB1ENR      CECEN         LL_APB1_GRP1_IsEnabledClock\n
 460:Drivers/STM32F1xx_HAL_Driver/Inc/stm32f1xx_ll_bus.h ****   *         APB1ENR      DACEN         LL_APB1_GRP1_IsEnabledClock\n
 461:Drivers/STM32F1xx_HAL_Driver/Inc/stm32f1xx_ll_bus.h ****   *         APB1ENR      I2C1EN        LL_APB1_GRP1_IsEnabledClock\n
ARM GAS  /tmp/cc8gkcIc.s 			page 50


 462:Drivers/STM32F1xx_HAL_Driver/Inc/stm32f1xx_ll_bus.h ****   *         APB1ENR      I2C2EN        LL_APB1_GRP1_IsEnabledClock\n
 463:Drivers/STM32F1xx_HAL_Driver/Inc/stm32f1xx_ll_bus.h ****   *         APB1ENR      PWREN         LL_APB1_GRP1_IsEnabledClock\n
 464:Drivers/STM32F1xx_HAL_Driver/Inc/stm32f1xx_ll_bus.h ****   *         APB1ENR      SPI2EN        LL_APB1_GRP1_IsEnabledClock\n
 465:Drivers/STM32F1xx_HAL_Driver/Inc/stm32f1xx_ll_bus.h ****   *         APB1ENR      SPI3EN        LL_APB1_GRP1_IsEnabledClock\n
 466:Drivers/STM32F1xx_HAL_Driver/Inc/stm32f1xx_ll_bus.h ****   *         APB1ENR      TIM12EN       LL_APB1_GRP1_IsEnabledClock\n
 467:Drivers/STM32F1xx_HAL_Driver/Inc/stm32f1xx_ll_bus.h ****   *         APB1ENR      TIM13EN       LL_APB1_GRP1_IsEnabledClock\n
 468:Drivers/STM32F1xx_HAL_Driver/Inc/stm32f1xx_ll_bus.h ****   *         APB1ENR      TIM14EN       LL_APB1_GRP1_IsEnabledClock\n
 469:Drivers/STM32F1xx_HAL_Driver/Inc/stm32f1xx_ll_bus.h ****   *         APB1ENR      TIM2EN        LL_APB1_GRP1_IsEnabledClock\n
 470:Drivers/STM32F1xx_HAL_Driver/Inc/stm32f1xx_ll_bus.h ****   *         APB1ENR      TIM3EN        LL_APB1_GRP1_IsEnabledClock\n
 471:Drivers/STM32F1xx_HAL_Driver/Inc/stm32f1xx_ll_bus.h ****   *         APB1ENR      TIM4EN        LL_APB1_GRP1_IsEnabledClock\n
 472:Drivers/STM32F1xx_HAL_Driver/Inc/stm32f1xx_ll_bus.h ****   *         APB1ENR      TIM5EN        LL_APB1_GRP1_IsEnabledClock\n
 473:Drivers/STM32F1xx_HAL_Driver/Inc/stm32f1xx_ll_bus.h ****   *         APB1ENR      TIM6EN        LL_APB1_GRP1_IsEnabledClock\n
 474:Drivers/STM32F1xx_HAL_Driver/Inc/stm32f1xx_ll_bus.h ****   *         APB1ENR      TIM7EN        LL_APB1_GRP1_IsEnabledClock\n
 475:Drivers/STM32F1xx_HAL_Driver/Inc/stm32f1xx_ll_bus.h ****   *         APB1ENR      UART4EN       LL_APB1_GRP1_IsEnabledClock\n
 476:Drivers/STM32F1xx_HAL_Driver/Inc/stm32f1xx_ll_bus.h ****   *         APB1ENR      UART5EN       LL_APB1_GRP1_IsEnabledClock\n
 477:Drivers/STM32F1xx_HAL_Driver/Inc/stm32f1xx_ll_bus.h ****   *         APB1ENR      USART2EN      LL_APB1_GRP1_IsEnabledClock\n
 478:Drivers/STM32F1xx_HAL_Driver/Inc/stm32f1xx_ll_bus.h ****   *         APB1ENR      USART3EN      LL_APB1_GRP1_IsEnabledClock\n
 479:Drivers/STM32F1xx_HAL_Driver/Inc/stm32f1xx_ll_bus.h ****   *         APB1ENR      USBEN         LL_APB1_GRP1_IsEnabledClock\n
 480:Drivers/STM32F1xx_HAL_Driver/Inc/stm32f1xx_ll_bus.h ****   *         APB1ENR      WWDGEN        LL_APB1_GRP1_IsEnabledClock
 481:Drivers/STM32F1xx_HAL_Driver/Inc/stm32f1xx_ll_bus.h ****   * @param  Periphs This parameter can be a combination of the following values:
 482:Drivers/STM32F1xx_HAL_Driver/Inc/stm32f1xx_ll_bus.h ****   *         @arg @ref LL_APB1_GRP1_PERIPH_BKP
 483:Drivers/STM32F1xx_HAL_Driver/Inc/stm32f1xx_ll_bus.h ****   *         @arg @ref LL_APB1_GRP1_PERIPH_CAN1 (*)
 484:Drivers/STM32F1xx_HAL_Driver/Inc/stm32f1xx_ll_bus.h ****   *         @arg @ref LL_APB1_GRP1_PERIPH_CAN2 (*)
 485:Drivers/STM32F1xx_HAL_Driver/Inc/stm32f1xx_ll_bus.h ****   *         @arg @ref LL_APB1_GRP1_PERIPH_CEC (*)
 486:Drivers/STM32F1xx_HAL_Driver/Inc/stm32f1xx_ll_bus.h ****   *         @arg @ref LL_APB1_GRP1_PERIPH_DAC1 (*)
 487:Drivers/STM32F1xx_HAL_Driver/Inc/stm32f1xx_ll_bus.h ****   *         @arg @ref LL_APB1_GRP1_PERIPH_I2C1
 488:Drivers/STM32F1xx_HAL_Driver/Inc/stm32f1xx_ll_bus.h ****   *         @arg @ref LL_APB1_GRP1_PERIPH_I2C2 (*)
 489:Drivers/STM32F1xx_HAL_Driver/Inc/stm32f1xx_ll_bus.h ****   *         @arg @ref LL_APB1_GRP1_PERIPH_PWR
 490:Drivers/STM32F1xx_HAL_Driver/Inc/stm32f1xx_ll_bus.h ****   *         @arg @ref LL_APB1_GRP1_PERIPH_SPI2 (*)
 491:Drivers/STM32F1xx_HAL_Driver/Inc/stm32f1xx_ll_bus.h ****   *         @arg @ref LL_APB1_GRP1_PERIPH_SPI3 (*)
 492:Drivers/STM32F1xx_HAL_Driver/Inc/stm32f1xx_ll_bus.h ****   *         @arg @ref LL_APB1_GRP1_PERIPH_TIM12 (*)
 493:Drivers/STM32F1xx_HAL_Driver/Inc/stm32f1xx_ll_bus.h ****   *         @arg @ref LL_APB1_GRP1_PERIPH_TIM13 (*)
 494:Drivers/STM32F1xx_HAL_Driver/Inc/stm32f1xx_ll_bus.h ****   *         @arg @ref LL_APB1_GRP1_PERIPH_TIM14 (*)
 495:Drivers/STM32F1xx_HAL_Driver/Inc/stm32f1xx_ll_bus.h ****   *         @arg @ref LL_APB1_GRP1_PERIPH_TIM2
 496:Drivers/STM32F1xx_HAL_Driver/Inc/stm32f1xx_ll_bus.h ****   *         @arg @ref LL_APB1_GRP1_PERIPH_TIM3
 497:Drivers/STM32F1xx_HAL_Driver/Inc/stm32f1xx_ll_bus.h ****   *         @arg @ref LL_APB1_GRP1_PERIPH_TIM4 (*)
 498:Drivers/STM32F1xx_HAL_Driver/Inc/stm32f1xx_ll_bus.h ****   *         @arg @ref LL_APB1_GRP1_PERIPH_TIM5 (*)
 499:Drivers/STM32F1xx_HAL_Driver/Inc/stm32f1xx_ll_bus.h ****   *         @arg @ref LL_APB1_GRP1_PERIPH_TIM6 (*)
 500:Drivers/STM32F1xx_HAL_Driver/Inc/stm32f1xx_ll_bus.h ****   *         @arg @ref LL_APB1_GRP1_PERIPH_TIM7 (*)
 501:Drivers/STM32F1xx_HAL_Driver/Inc/stm32f1xx_ll_bus.h ****   *         @arg @ref LL_APB1_GRP1_PERIPH_UART4 (*)
 502:Drivers/STM32F1xx_HAL_Driver/Inc/stm32f1xx_ll_bus.h ****   *         @arg @ref LL_APB1_GRP1_PERIPH_UART5 (*)
 503:Drivers/STM32F1xx_HAL_Driver/Inc/stm32f1xx_ll_bus.h ****   *         @arg @ref LL_APB1_GRP1_PERIPH_USART2
 504:Drivers/STM32F1xx_HAL_Driver/Inc/stm32f1xx_ll_bus.h ****   *         @arg @ref LL_APB1_GRP1_PERIPH_USART3 (*)
 505:Drivers/STM32F1xx_HAL_Driver/Inc/stm32f1xx_ll_bus.h ****   *         @arg @ref LL_APB1_GRP1_PERIPH_USB (*)
 506:Drivers/STM32F1xx_HAL_Driver/Inc/stm32f1xx_ll_bus.h ****   *         @arg @ref LL_APB1_GRP1_PERIPH_WWDG
 507:Drivers/STM32F1xx_HAL_Driver/Inc/stm32f1xx_ll_bus.h ****   *
 508:Drivers/STM32F1xx_HAL_Driver/Inc/stm32f1xx_ll_bus.h ****   *         (*) value not defined in all devices.
 509:Drivers/STM32F1xx_HAL_Driver/Inc/stm32f1xx_ll_bus.h ****   * @retval State of Periphs (1 or 0).
 510:Drivers/STM32F1xx_HAL_Driver/Inc/stm32f1xx_ll_bus.h **** */
 511:Drivers/STM32F1xx_HAL_Driver/Inc/stm32f1xx_ll_bus.h **** __STATIC_INLINE uint32_t LL_APB1_GRP1_IsEnabledClock(uint32_t Periphs)
 512:Drivers/STM32F1xx_HAL_Driver/Inc/stm32f1xx_ll_bus.h **** {
 513:Drivers/STM32F1xx_HAL_Driver/Inc/stm32f1xx_ll_bus.h ****   return (READ_BIT(RCC->APB1ENR, Periphs) == Periphs);
 514:Drivers/STM32F1xx_HAL_Driver/Inc/stm32f1xx_ll_bus.h **** }
 515:Drivers/STM32F1xx_HAL_Driver/Inc/stm32f1xx_ll_bus.h **** 
 516:Drivers/STM32F1xx_HAL_Driver/Inc/stm32f1xx_ll_bus.h **** /**
 517:Drivers/STM32F1xx_HAL_Driver/Inc/stm32f1xx_ll_bus.h ****   * @brief  Disable APB1 peripherals clock.
 518:Drivers/STM32F1xx_HAL_Driver/Inc/stm32f1xx_ll_bus.h ****   * @rmtoll APB1ENR      BKPEN         LL_APB1_GRP1_DisableClock\n
ARM GAS  /tmp/cc8gkcIc.s 			page 51


