ARM GAS  /tmp/ccO145yx.s 			page 1


   1              		.cpu cortex-m3
   2              		.arch armv7-m
   3              		.fpu softvfp
   4              		.eabi_attribute 20, 1
   5              		.eabi_attribute 21, 1
   6              		.eabi_attribute 23, 3
   7              		.eabi_attribute 24, 1
   8              		.eabi_attribute 25, 1
   9              		.eabi_attribute 26, 1
  10              		.eabi_attribute 30, 1
  11              		.eabi_attribute 34, 1
  12              		.eabi_attribute 18, 4
  13              		.file	"spi.c"
  14              		.text
  15              	.Ltext0:
  16              		.cfi_sections	.debug_frame
  17              		.section	.text.MX_SPI2_Init,"ax",%progbits
  18              		.align	1
  19              		.global	MX_SPI2_Init
  20              		.syntax unified
  21              		.thumb
  22              		.thumb_func
  24              	MX_SPI2_Init:
  25              	.LFB950:
  26              		.file 1 "Core/Src/spi.c"
   1:Core/Src/spi.c **** /* USER CODE BEGIN Header */
   2:Core/Src/spi.c **** /**
   3:Core/Src/spi.c ****   ******************************************************************************
   4:Core/Src/spi.c ****   * @file    spi.c
   5:Core/Src/spi.c ****   * @brief   This file provides code for the configuration
   6:Core/Src/spi.c ****   *          of the SPI instances.
   7:Core/Src/spi.c ****   ******************************************************************************
   8:Core/Src/spi.c ****   * @attention
   9:Core/Src/spi.c ****   *
  10:Core/Src/spi.c ****   * Copyright (c) 2025 STMicroelectronics.
  11:Core/Src/spi.c ****   * All rights reserved.
  12:Core/Src/spi.c ****   *
  13:Core/Src/spi.c ****   * This software is licensed under terms that can be found in the LICENSE file
  14:Core/Src/spi.c ****   * in the root directory of this software component.
  15:Core/Src/spi.c ****   * If no LICENSE file comes with this software, it is provided AS-IS.
  16:Core/Src/spi.c ****   *
  17:Core/Src/spi.c ****   ******************************************************************************
  18:Core/Src/spi.c ****   */
  19:Core/Src/spi.c **** /* USER CODE END Header */
  20:Core/Src/spi.c **** /* Includes ------------------------------------------------------------------*/
  21:Core/Src/spi.c **** #include "spi.h"
  22:Core/Src/spi.c **** 
  23:Core/Src/spi.c **** /* USER CODE BEGIN 0 */
  24:Core/Src/spi.c **** #include "gpio.h"
  25:Core/Src/spi.c **** #include "ssd1306.h"
  26:Core/Src/spi.c **** #include "typedef.h"
  27:Core/Src/spi.c **** 
  28:Core/Src/spi.c **** uint8_t count = 0;
  29:Core/Src/spi.c **** /* USER CODE END 0 */
  30:Core/Src/spi.c **** 
  31:Core/Src/spi.c **** /* SPI2 init function */
  32:Core/Src/spi.c **** void MX_SPI2_Init(void)
ARM GAS  /tmp/ccO145yx.s 			page 2


  33:Core/Src/spi.c **** {
  27              		.loc 1 33 1 view -0
  28              		.cfi_startproc
  29              		@ args = 0, pretend = 0, frame = 72
  30              		@ frame_needed = 0, uses_anonymous_args = 0
  31 0000 30B5     		push	{r4, r5, lr}
  32              	.LCFI0:
  33              		.cfi_def_cfa_offset 12
  34              		.cfi_offset 4, -12
  35              		.cfi_offset 5, -8
  36              		.cfi_offset 14, -4
  37 0002 93B0     		sub	sp, sp, #76
  38              	.LCFI1:
  39              		.cfi_def_cfa_offset 88
  34:Core/Src/spi.c **** 
  35:Core/Src/spi.c ****   /* USER CODE BEGIN SPI2_Init 0 */
  36:Core/Src/spi.c **** 
  37:Core/Src/spi.c ****   /* USER CODE END SPI2_Init 0 */
  38:Core/Src/spi.c **** 
  39:Core/Src/spi.c ****   LL_SPI_InitTypeDef SPI_InitStruct = {0};
  40              		.loc 1 39 3 view .LVU1
  41              		.loc 1 39 22 is_stmt 0 view .LVU2
  42 0004 2822     		movs	r2, #40
  43 0006 0021     		movs	r1, #0
  44 0008 08A8     		add	r0, sp, #32
  45 000a FFF7FEFF 		bl	memset
  46              	.LVL0:
  40:Core/Src/spi.c **** 
  41:Core/Src/spi.c ****   LL_GPIO_InitTypeDef GPIO_InitStruct = {0};
  47              		.loc 1 41 3 is_stmt 1 view .LVU3
  48              		.loc 1 41 23 is_stmt 0 view .LVU4
  49 000e 0025     		movs	r5, #0
  50 0010 0395     		str	r5, [sp, #12]
  51 0012 0495     		str	r5, [sp, #16]
  52 0014 0595     		str	r5, [sp, #20]
  53 0016 0695     		str	r5, [sp, #24]
  54 0018 0795     		str	r5, [sp, #28]
  42:Core/Src/spi.c **** 
  43:Core/Src/spi.c ****   /* Peripheral clock enable */
  44:Core/Src/spi.c ****   LL_APB1_GRP1_EnableClock(LL_APB1_GRP1_PERIPH_SPI2);
  55              		.loc 1 44 3 is_stmt 1 view .LVU5
  56              	.LVL1:
  57              	.LBB63:
  58              	.LBI63:
  59              		.file 2 "Drivers/STM32F1xx_HAL_Driver/Inc/stm32f1xx_ll_bus.h"
   1:Drivers/STM32F1xx_HAL_Driver/Inc/stm32f1xx_ll_bus.h **** /**
   2:Drivers/STM32F1xx_HAL_Driver/Inc/stm32f1xx_ll_bus.h ****   ******************************************************************************
   3:Drivers/STM32F1xx_HAL_Driver/Inc/stm32f1xx_ll_bus.h ****   * @file    stm32f1xx_ll_bus.h
   4:Drivers/STM32F1xx_HAL_Driver/Inc/stm32f1xx_ll_bus.h ****   * @author  MCD Application Team
   5:Drivers/STM32F1xx_HAL_Driver/Inc/stm32f1xx_ll_bus.h ****   * @brief   Header file of BUS LL module.
   6:Drivers/STM32F1xx_HAL_Driver/Inc/stm32f1xx_ll_bus.h **** 
   7:Drivers/STM32F1xx_HAL_Driver/Inc/stm32f1xx_ll_bus.h ****   @verbatim
   8:Drivers/STM32F1xx_HAL_Driver/Inc/stm32f1xx_ll_bus.h ****                       ##### RCC Limitations #####
   9:Drivers/STM32F1xx_HAL_Driver/Inc/stm32f1xx_ll_bus.h ****   ==============================================================================
  10:Drivers/STM32F1xx_HAL_Driver/Inc/stm32f1xx_ll_bus.h ****     [..]
  11:Drivers/STM32F1xx_HAL_Driver/Inc/stm32f1xx_ll_bus.h ****       A delay between an RCC peripheral clock enable and the effective peripheral
  12:Drivers/STM32F1xx_HAL_Driver/Inc/stm32f1xx_ll_bus.h ****       enabling should be taken into account in order to manage the peripheral read/write
ARM GAS  /tmp/ccO145yx.s 			page 3


  13:Drivers/STM32F1xx_HAL_Driver/Inc/stm32f1xx_ll_bus.h ****       from/to registers.
  14:Drivers/STM32F1xx_HAL_Driver/Inc/stm32f1xx_ll_bus.h ****       (+) This delay depends on the peripheral mapping.
  15:Drivers/STM32F1xx_HAL_Driver/Inc/stm32f1xx_ll_bus.h ****         (++) AHB & APB peripherals, 1 dummy read is necessary
  16:Drivers/STM32F1xx_HAL_Driver/Inc/stm32f1xx_ll_bus.h **** 
  17:Drivers/STM32F1xx_HAL_Driver/Inc/stm32f1xx_ll_bus.h ****     [..]
  18:Drivers/STM32F1xx_HAL_Driver/Inc/stm32f1xx_ll_bus.h ****       Workarounds:
  19:Drivers/STM32F1xx_HAL_Driver/Inc/stm32f1xx_ll_bus.h ****       (#) For AHB & APB peripherals, a dummy read to the peripheral register has been
  20:Drivers/STM32F1xx_HAL_Driver/Inc/stm32f1xx_ll_bus.h ****           inserted in each LL_{BUS}_GRP{x}_EnableClock() function.
  21:Drivers/STM32F1xx_HAL_Driver/Inc/stm32f1xx_ll_bus.h **** 
  22:Drivers/STM32F1xx_HAL_Driver/Inc/stm32f1xx_ll_bus.h ****   @endverbatim
  23:Drivers/STM32F1xx_HAL_Driver/Inc/stm32f1xx_ll_bus.h ****   ******************************************************************************
  24:Drivers/STM32F1xx_HAL_Driver/Inc/stm32f1xx_ll_bus.h ****   * @attention
  25:Drivers/STM32F1xx_HAL_Driver/Inc/stm32f1xx_ll_bus.h ****   *
  26:Drivers/STM32F1xx_HAL_Driver/Inc/stm32f1xx_ll_bus.h ****   * Copyright (c) 2016 STMicroelectronics.
  27:Drivers/STM32F1xx_HAL_Driver/Inc/stm32f1xx_ll_bus.h ****   * All rights reserved.
  28:Drivers/STM32F1xx_HAL_Driver/Inc/stm32f1xx_ll_bus.h ****   *
  29:Drivers/STM32F1xx_HAL_Driver/Inc/stm32f1xx_ll_bus.h ****   * This software is licensed under terms that can be found in the LICENSE file in
  30:Drivers/STM32F1xx_HAL_Driver/Inc/stm32f1xx_ll_bus.h ****   * the root directory of this software component.
  31:Drivers/STM32F1xx_HAL_Driver/Inc/stm32f1xx_ll_bus.h ****   * If no LICENSE file comes with this software, it is provided AS-IS.
  32:Drivers/STM32F1xx_HAL_Driver/Inc/stm32f1xx_ll_bus.h ****   ******************************************************************************
  33:Drivers/STM32F1xx_HAL_Driver/Inc/stm32f1xx_ll_bus.h ****   */
  34:Drivers/STM32F1xx_HAL_Driver/Inc/stm32f1xx_ll_bus.h **** 
  35:Drivers/STM32F1xx_HAL_Driver/Inc/stm32f1xx_ll_bus.h **** /* Define to prevent recursive inclusion -------------------------------------*/
  36:Drivers/STM32F1xx_HAL_Driver/Inc/stm32f1xx_ll_bus.h **** #ifndef __STM32F1xx_LL_BUS_H
  37:Drivers/STM32F1xx_HAL_Driver/Inc/stm32f1xx_ll_bus.h **** #define __STM32F1xx_LL_BUS_H
  38:Drivers/STM32F1xx_HAL_Driver/Inc/stm32f1xx_ll_bus.h **** 
  39:Drivers/STM32F1xx_HAL_Driver/Inc/stm32f1xx_ll_bus.h **** #ifdef __cplusplus
  40:Drivers/STM32F1xx_HAL_Driver/Inc/stm32f1xx_ll_bus.h **** extern "C" {
  41:Drivers/STM32F1xx_HAL_Driver/Inc/stm32f1xx_ll_bus.h **** #endif
  42:Drivers/STM32F1xx_HAL_Driver/Inc/stm32f1xx_ll_bus.h **** 
  43:Drivers/STM32F1xx_HAL_Driver/Inc/stm32f1xx_ll_bus.h **** /* Includes ------------------------------------------------------------------*/
  44:Drivers/STM32F1xx_HAL_Driver/Inc/stm32f1xx_ll_bus.h **** #include "stm32f1xx.h"
  45:Drivers/STM32F1xx_HAL_Driver/Inc/stm32f1xx_ll_bus.h **** 
  46:Drivers/STM32F1xx_HAL_Driver/Inc/stm32f1xx_ll_bus.h **** /** @addtogroup STM32F1xx_LL_Driver
  47:Drivers/STM32F1xx_HAL_Driver/Inc/stm32f1xx_ll_bus.h ****   * @{
  48:Drivers/STM32F1xx_HAL_Driver/Inc/stm32f1xx_ll_bus.h ****   */
  49:Drivers/STM32F1xx_HAL_Driver/Inc/stm32f1xx_ll_bus.h **** 
  50:Drivers/STM32F1xx_HAL_Driver/Inc/stm32f1xx_ll_bus.h **** #if defined(RCC)
  51:Drivers/STM32F1xx_HAL_Driver/Inc/stm32f1xx_ll_bus.h **** 
  52:Drivers/STM32F1xx_HAL_Driver/Inc/stm32f1xx_ll_bus.h **** /** @defgroup BUS_LL BUS
  53:Drivers/STM32F1xx_HAL_Driver/Inc/stm32f1xx_ll_bus.h ****   * @{
  54:Drivers/STM32F1xx_HAL_Driver/Inc/stm32f1xx_ll_bus.h ****   */
  55:Drivers/STM32F1xx_HAL_Driver/Inc/stm32f1xx_ll_bus.h **** 
  56:Drivers/STM32F1xx_HAL_Driver/Inc/stm32f1xx_ll_bus.h **** /* Private types -------------------------------------------------------------*/
  57:Drivers/STM32F1xx_HAL_Driver/Inc/stm32f1xx_ll_bus.h **** /* Private variables ---------------------------------------------------------*/
  58:Drivers/STM32F1xx_HAL_Driver/Inc/stm32f1xx_ll_bus.h **** 
  59:Drivers/STM32F1xx_HAL_Driver/Inc/stm32f1xx_ll_bus.h **** /* Private constants ---------------------------------------------------------*/
  60:Drivers/STM32F1xx_HAL_Driver/Inc/stm32f1xx_ll_bus.h **** #if defined(RCC_AHBRSTR_OTGFSRST) || defined(RCC_AHBRSTR_ETHMACRST)
  61:Drivers/STM32F1xx_HAL_Driver/Inc/stm32f1xx_ll_bus.h **** #define RCC_AHBRSTR_SUPPORT
  62:Drivers/STM32F1xx_HAL_Driver/Inc/stm32f1xx_ll_bus.h **** #endif /* RCC_AHBRSTR_OTGFSRST || RCC_AHBRSTR_ETHMACRST */
  63:Drivers/STM32F1xx_HAL_Driver/Inc/stm32f1xx_ll_bus.h **** 
  64:Drivers/STM32F1xx_HAL_Driver/Inc/stm32f1xx_ll_bus.h **** /* Private macros ------------------------------------------------------------*/
  65:Drivers/STM32F1xx_HAL_Driver/Inc/stm32f1xx_ll_bus.h **** 
  66:Drivers/STM32F1xx_HAL_Driver/Inc/stm32f1xx_ll_bus.h **** /* Exported types ------------------------------------------------------------*/
  67:Drivers/STM32F1xx_HAL_Driver/Inc/stm32f1xx_ll_bus.h **** /* Exported constants --------------------------------------------------------*/
  68:Drivers/STM32F1xx_HAL_Driver/Inc/stm32f1xx_ll_bus.h **** /** @defgroup BUS_LL_Exported_Constants BUS Exported Constants
  69:Drivers/STM32F1xx_HAL_Driver/Inc/stm32f1xx_ll_bus.h ****   * @{
ARM GAS  /tmp/ccO145yx.s 			page 4


  70:Drivers/STM32F1xx_HAL_Driver/Inc/stm32f1xx_ll_bus.h ****   */
  71:Drivers/STM32F1xx_HAL_Driver/Inc/stm32f1xx_ll_bus.h **** 
  72:Drivers/STM32F1xx_HAL_Driver/Inc/stm32f1xx_ll_bus.h **** /** @defgroup BUS_LL_EC_AHB1_GRP1_PERIPH  AHB1 GRP1 PERIPH
  73:Drivers/STM32F1xx_HAL_Driver/Inc/stm32f1xx_ll_bus.h ****   * @{
  74:Drivers/STM32F1xx_HAL_Driver/Inc/stm32f1xx_ll_bus.h ****   */
  75:Drivers/STM32F1xx_HAL_Driver/Inc/stm32f1xx_ll_bus.h **** #define LL_AHB1_GRP1_PERIPH_ALL            (uint32_t)0xFFFFFFFFU
  76:Drivers/STM32F1xx_HAL_Driver/Inc/stm32f1xx_ll_bus.h **** #define LL_AHB1_GRP1_PERIPH_CRC            RCC_AHBENR_CRCEN
  77:Drivers/STM32F1xx_HAL_Driver/Inc/stm32f1xx_ll_bus.h **** #define LL_AHB1_GRP1_PERIPH_DMA1           RCC_AHBENR_DMA1EN
  78:Drivers/STM32F1xx_HAL_Driver/Inc/stm32f1xx_ll_bus.h **** #if defined(DMA2)
  79:Drivers/STM32F1xx_HAL_Driver/Inc/stm32f1xx_ll_bus.h **** #define LL_AHB1_GRP1_PERIPH_DMA2           RCC_AHBENR_DMA2EN
  80:Drivers/STM32F1xx_HAL_Driver/Inc/stm32f1xx_ll_bus.h **** #endif /*DMA2*/
  81:Drivers/STM32F1xx_HAL_Driver/Inc/stm32f1xx_ll_bus.h **** #if defined(ETH)
  82:Drivers/STM32F1xx_HAL_Driver/Inc/stm32f1xx_ll_bus.h **** #define LL_AHB1_GRP1_PERIPH_ETHMAC         RCC_AHBENR_ETHMACEN
  83:Drivers/STM32F1xx_HAL_Driver/Inc/stm32f1xx_ll_bus.h **** #define LL_AHB1_GRP1_PERIPH_ETHMACRX       RCC_AHBENR_ETHMACRXEN
  84:Drivers/STM32F1xx_HAL_Driver/Inc/stm32f1xx_ll_bus.h **** #define LL_AHB1_GRP1_PERIPH_ETHMACTX       RCC_AHBENR_ETHMACTXEN
  85:Drivers/STM32F1xx_HAL_Driver/Inc/stm32f1xx_ll_bus.h **** #endif /*ETH*/
  86:Drivers/STM32F1xx_HAL_Driver/Inc/stm32f1xx_ll_bus.h **** #define LL_AHB1_GRP1_PERIPH_FLASH          RCC_AHBENR_FLITFEN
  87:Drivers/STM32F1xx_HAL_Driver/Inc/stm32f1xx_ll_bus.h **** #if defined(FSMC_Bank1)
  88:Drivers/STM32F1xx_HAL_Driver/Inc/stm32f1xx_ll_bus.h **** #define LL_AHB1_GRP1_PERIPH_FSMC           RCC_AHBENR_FSMCEN
  89:Drivers/STM32F1xx_HAL_Driver/Inc/stm32f1xx_ll_bus.h **** #endif /*FSMC_Bank1*/
  90:Drivers/STM32F1xx_HAL_Driver/Inc/stm32f1xx_ll_bus.h **** #if defined(USB_OTG_FS)
  91:Drivers/STM32F1xx_HAL_Driver/Inc/stm32f1xx_ll_bus.h **** #define LL_AHB1_GRP1_PERIPH_OTGFS          RCC_AHBENR_OTGFSEN
  92:Drivers/STM32F1xx_HAL_Driver/Inc/stm32f1xx_ll_bus.h **** #endif /*USB_OTG_FS*/
  93:Drivers/STM32F1xx_HAL_Driver/Inc/stm32f1xx_ll_bus.h **** #if defined(SDIO)
  94:Drivers/STM32F1xx_HAL_Driver/Inc/stm32f1xx_ll_bus.h **** #define LL_AHB1_GRP1_PERIPH_SDIO           RCC_AHBENR_SDIOEN
  95:Drivers/STM32F1xx_HAL_Driver/Inc/stm32f1xx_ll_bus.h **** #endif /*SDIO*/
  96:Drivers/STM32F1xx_HAL_Driver/Inc/stm32f1xx_ll_bus.h **** #define LL_AHB1_GRP1_PERIPH_SRAM           RCC_AHBENR_SRAMEN
  97:Drivers/STM32F1xx_HAL_Driver/Inc/stm32f1xx_ll_bus.h **** /**
  98:Drivers/STM32F1xx_HAL_Driver/Inc/stm32f1xx_ll_bus.h ****   * @}
  99:Drivers/STM32F1xx_HAL_Driver/Inc/stm32f1xx_ll_bus.h ****   */
 100:Drivers/STM32F1xx_HAL_Driver/Inc/stm32f1xx_ll_bus.h **** 
 101:Drivers/STM32F1xx_HAL_Driver/Inc/stm32f1xx_ll_bus.h **** /** @defgroup BUS_LL_EC_APB1_GRP1_PERIPH  APB1 GRP1 PERIPH
 102:Drivers/STM32F1xx_HAL_Driver/Inc/stm32f1xx_ll_bus.h ****   * @{
 103:Drivers/STM32F1xx_HAL_Driver/Inc/stm32f1xx_ll_bus.h ****   */
 104:Drivers/STM32F1xx_HAL_Driver/Inc/stm32f1xx_ll_bus.h **** #define LL_APB1_GRP1_PERIPH_ALL            (uint32_t)0xFFFFFFFFU
 105:Drivers/STM32F1xx_HAL_Driver/Inc/stm32f1xx_ll_bus.h **** #define LL_APB1_GRP1_PERIPH_BKP            RCC_APB1ENR_BKPEN
 106:Drivers/STM32F1xx_HAL_Driver/Inc/stm32f1xx_ll_bus.h **** #if defined(CAN1)
 107:Drivers/STM32F1xx_HAL_Driver/Inc/stm32f1xx_ll_bus.h **** #define LL_APB1_GRP1_PERIPH_CAN1           RCC_APB1ENR_CAN1EN
 108:Drivers/STM32F1xx_HAL_Driver/Inc/stm32f1xx_ll_bus.h **** #endif /*CAN1*/
 109:Drivers/STM32F1xx_HAL_Driver/Inc/stm32f1xx_ll_bus.h **** #if defined(CAN2)
 110:Drivers/STM32F1xx_HAL_Driver/Inc/stm32f1xx_ll_bus.h **** #define LL_APB1_GRP1_PERIPH_CAN2           RCC_APB1ENR_CAN2EN
 111:Drivers/STM32F1xx_HAL_Driver/Inc/stm32f1xx_ll_bus.h **** #endif /*CAN2*/
 112:Drivers/STM32F1xx_HAL_Driver/Inc/stm32f1xx_ll_bus.h **** #if defined(CEC)
 113:Drivers/STM32F1xx_HAL_Driver/Inc/stm32f1xx_ll_bus.h **** #define LL_APB1_GRP1_PERIPH_CEC            RCC_APB1ENR_CECEN
 114:Drivers/STM32F1xx_HAL_Driver/Inc/stm32f1xx_ll_bus.h **** #endif /*CEC*/
 115:Drivers/STM32F1xx_HAL_Driver/Inc/stm32f1xx_ll_bus.h **** #if defined(DAC)
 116:Drivers/STM32F1xx_HAL_Driver/Inc/stm32f1xx_ll_bus.h **** #define LL_APB1_GRP1_PERIPH_DAC1           RCC_APB1ENR_DACEN
 117:Drivers/STM32F1xx_HAL_Driver/Inc/stm32f1xx_ll_bus.h **** #endif /*DAC*/
 118:Drivers/STM32F1xx_HAL_Driver/Inc/stm32f1xx_ll_bus.h **** #define LL_APB1_GRP1_PERIPH_I2C1           RCC_APB1ENR_I2C1EN
 119:Drivers/STM32F1xx_HAL_Driver/Inc/stm32f1xx_ll_bus.h **** #if defined(I2C2)
 120:Drivers/STM32F1xx_HAL_Driver/Inc/stm32f1xx_ll_bus.h **** #define LL_APB1_GRP1_PERIPH_I2C2           RCC_APB1ENR_I2C2EN
 121:Drivers/STM32F1xx_HAL_Driver/Inc/stm32f1xx_ll_bus.h **** #endif /*I2C2*/
 122:Drivers/STM32F1xx_HAL_Driver/Inc/stm32f1xx_ll_bus.h **** #define LL_APB1_GRP1_PERIPH_PWR            RCC_APB1ENR_PWREN
 123:Drivers/STM32F1xx_HAL_Driver/Inc/stm32f1xx_ll_bus.h **** #if defined(SPI2)
 124:Drivers/STM32F1xx_HAL_Driver/Inc/stm32f1xx_ll_bus.h **** #define LL_APB1_GRP1_PERIPH_SPI2           RCC_APB1ENR_SPI2EN
 125:Drivers/STM32F1xx_HAL_Driver/Inc/stm32f1xx_ll_bus.h **** #endif /*SPI2*/
 126:Drivers/STM32F1xx_HAL_Driver/Inc/stm32f1xx_ll_bus.h **** #if defined(SPI3)
ARM GAS  /tmp/ccO145yx.s 			page 5


 127:Drivers/STM32F1xx_HAL_Driver/Inc/stm32f1xx_ll_bus.h **** #define LL_APB1_GRP1_PERIPH_SPI3           RCC_APB1ENR_SPI3EN
 128:Drivers/STM32F1xx_HAL_Driver/Inc/stm32f1xx_ll_bus.h **** #endif /*SPI3*/
 129:Drivers/STM32F1xx_HAL_Driver/Inc/stm32f1xx_ll_bus.h **** #if defined(TIM12)
 130:Drivers/STM32F1xx_HAL_Driver/Inc/stm32f1xx_ll_bus.h **** #define LL_APB1_GRP1_PERIPH_TIM12          RCC_APB1ENR_TIM12EN
 131:Drivers/STM32F1xx_HAL_Driver/Inc/stm32f1xx_ll_bus.h **** #endif /*TIM12*/
 132:Drivers/STM32F1xx_HAL_Driver/Inc/stm32f1xx_ll_bus.h **** #if defined(TIM13)
 133:Drivers/STM32F1xx_HAL_Driver/Inc/stm32f1xx_ll_bus.h **** #define LL_APB1_GRP1_PERIPH_TIM13          RCC_APB1ENR_TIM13EN
 134:Drivers/STM32F1xx_HAL_Driver/Inc/stm32f1xx_ll_bus.h **** #endif /*TIM13*/
 135:Drivers/STM32F1xx_HAL_Driver/Inc/stm32f1xx_ll_bus.h **** #if defined(TIM14)
 136:Drivers/STM32F1xx_HAL_Driver/Inc/stm32f1xx_ll_bus.h **** #define LL_APB1_GRP1_PERIPH_TIM14          RCC_APB1ENR_TIM14EN
 137:Drivers/STM32F1xx_HAL_Driver/Inc/stm32f1xx_ll_bus.h **** #endif /*TIM14*/
 138:Drivers/STM32F1xx_HAL_Driver/Inc/stm32f1xx_ll_bus.h **** #define LL_APB1_GRP1_PERIPH_TIM2           RCC_APB1ENR_TIM2EN
 139:Drivers/STM32F1xx_HAL_Driver/Inc/stm32f1xx_ll_bus.h **** #define LL_APB1_GRP1_PERIPH_TIM3           RCC_APB1ENR_TIM3EN
 140:Drivers/STM32F1xx_HAL_Driver/Inc/stm32f1xx_ll_bus.h **** #if defined(TIM4)
 141:Drivers/STM32F1xx_HAL_Driver/Inc/stm32f1xx_ll_bus.h **** #define LL_APB1_GRP1_PERIPH_TIM4           RCC_APB1ENR_TIM4EN
 142:Drivers/STM32F1xx_HAL_Driver/Inc/stm32f1xx_ll_bus.h **** #endif /*TIM4*/
 143:Drivers/STM32F1xx_HAL_Driver/Inc/stm32f1xx_ll_bus.h **** #if defined(TIM5)
 144:Drivers/STM32F1xx_HAL_Driver/Inc/stm32f1xx_ll_bus.h **** #define LL_APB1_GRP1_PERIPH_TIM5           RCC_APB1ENR_TIM5EN
 145:Drivers/STM32F1xx_HAL_Driver/Inc/stm32f1xx_ll_bus.h **** #endif /*TIM5*/
 146:Drivers/STM32F1xx_HAL_Driver/Inc/stm32f1xx_ll_bus.h **** #if defined(TIM6)
 147:Drivers/STM32F1xx_HAL_Driver/Inc/stm32f1xx_ll_bus.h **** #define LL_APB1_GRP1_PERIPH_TIM6           RCC_APB1ENR_TIM6EN
 148:Drivers/STM32F1xx_HAL_Driver/Inc/stm32f1xx_ll_bus.h **** #endif /*TIM6*/
 149:Drivers/STM32F1xx_HAL_Driver/Inc/stm32f1xx_ll_bus.h **** #if defined(TIM7)
 150:Drivers/STM32F1xx_HAL_Driver/Inc/stm32f1xx_ll_bus.h **** #define LL_APB1_GRP1_PERIPH_TIM7           RCC_APB1ENR_TIM7EN
 151:Drivers/STM32F1xx_HAL_Driver/Inc/stm32f1xx_ll_bus.h **** #endif /*TIM7*/
 152:Drivers/STM32F1xx_HAL_Driver/Inc/stm32f1xx_ll_bus.h **** #if defined(UART4)
 153:Drivers/STM32F1xx_HAL_Driver/Inc/stm32f1xx_ll_bus.h **** #define LL_APB1_GRP1_PERIPH_UART4          RCC_APB1ENR_UART4EN
 154:Drivers/STM32F1xx_HAL_Driver/Inc/stm32f1xx_ll_bus.h **** #endif /*UART4*/
 155:Drivers/STM32F1xx_HAL_Driver/Inc/stm32f1xx_ll_bus.h **** #if defined(UART5)
 156:Drivers/STM32F1xx_HAL_Driver/Inc/stm32f1xx_ll_bus.h **** #define LL_APB1_GRP1_PERIPH_UART5          RCC_APB1ENR_UART5EN
 157:Drivers/STM32F1xx_HAL_Driver/Inc/stm32f1xx_ll_bus.h **** #endif /*UART5*/
 158:Drivers/STM32F1xx_HAL_Driver/Inc/stm32f1xx_ll_bus.h **** #define LL_APB1_GRP1_PERIPH_USART2         RCC_APB1ENR_USART2EN
 159:Drivers/STM32F1xx_HAL_Driver/Inc/stm32f1xx_ll_bus.h **** #if defined(USART3)
 160:Drivers/STM32F1xx_HAL_Driver/Inc/stm32f1xx_ll_bus.h **** #define LL_APB1_GRP1_PERIPH_USART3         RCC_APB1ENR_USART3EN
 161:Drivers/STM32F1xx_HAL_Driver/Inc/stm32f1xx_ll_bus.h **** #endif /*USART3*/
 162:Drivers/STM32F1xx_HAL_Driver/Inc/stm32f1xx_ll_bus.h **** #if defined(USB)
 163:Drivers/STM32F1xx_HAL_Driver/Inc/stm32f1xx_ll_bus.h **** #define LL_APB1_GRP1_PERIPH_USB            RCC_APB1ENR_USBEN
 164:Drivers/STM32F1xx_HAL_Driver/Inc/stm32f1xx_ll_bus.h **** #endif /*USB*/
 165:Drivers/STM32F1xx_HAL_Driver/Inc/stm32f1xx_ll_bus.h **** #define LL_APB1_GRP1_PERIPH_WWDG           RCC_APB1ENR_WWDGEN
 166:Drivers/STM32F1xx_HAL_Driver/Inc/stm32f1xx_ll_bus.h **** /**
 167:Drivers/STM32F1xx_HAL_Driver/Inc/stm32f1xx_ll_bus.h ****   * @}
 168:Drivers/STM32F1xx_HAL_Driver/Inc/stm32f1xx_ll_bus.h ****   */
 169:Drivers/STM32F1xx_HAL_Driver/Inc/stm32f1xx_ll_bus.h **** 
 170:Drivers/STM32F1xx_HAL_Driver/Inc/stm32f1xx_ll_bus.h **** /** @defgroup BUS_LL_EC_APB2_GRP1_PERIPH  APB2 GRP1 PERIPH
 171:Drivers/STM32F1xx_HAL_Driver/Inc/stm32f1xx_ll_bus.h ****   * @{
 172:Drivers/STM32F1xx_HAL_Driver/Inc/stm32f1xx_ll_bus.h ****   */
 173:Drivers/STM32F1xx_HAL_Driver/Inc/stm32f1xx_ll_bus.h **** #define LL_APB2_GRP1_PERIPH_ALL            (uint32_t)0xFFFFFFFFU
 174:Drivers/STM32F1xx_HAL_Driver/Inc/stm32f1xx_ll_bus.h **** #define LL_APB2_GRP1_PERIPH_ADC1           RCC_APB2ENR_ADC1EN
 175:Drivers/STM32F1xx_HAL_Driver/Inc/stm32f1xx_ll_bus.h **** #if defined(ADC2)
 176:Drivers/STM32F1xx_HAL_Driver/Inc/stm32f1xx_ll_bus.h **** #define LL_APB2_GRP1_PERIPH_ADC2           RCC_APB2ENR_ADC2EN
 177:Drivers/STM32F1xx_HAL_Driver/Inc/stm32f1xx_ll_bus.h **** #endif /*ADC2*/
 178:Drivers/STM32F1xx_HAL_Driver/Inc/stm32f1xx_ll_bus.h **** #if defined(ADC3)
 179:Drivers/STM32F1xx_HAL_Driver/Inc/stm32f1xx_ll_bus.h **** #define LL_APB2_GRP1_PERIPH_ADC3           RCC_APB2ENR_ADC3EN
 180:Drivers/STM32F1xx_HAL_Driver/Inc/stm32f1xx_ll_bus.h **** #endif /*ADC3*/
 181:Drivers/STM32F1xx_HAL_Driver/Inc/stm32f1xx_ll_bus.h **** #define LL_APB2_GRP1_PERIPH_AFIO           RCC_APB2ENR_AFIOEN
 182:Drivers/STM32F1xx_HAL_Driver/Inc/stm32f1xx_ll_bus.h **** #define LL_APB2_GRP1_PERIPH_GPIOA          RCC_APB2ENR_IOPAEN
 183:Drivers/STM32F1xx_HAL_Driver/Inc/stm32f1xx_ll_bus.h **** #define LL_APB2_GRP1_PERIPH_GPIOB          RCC_APB2ENR_IOPBEN
ARM GAS  /tmp/ccO145yx.s 			page 6


 184:Drivers/STM32F1xx_HAL_Driver/Inc/stm32f1xx_ll_bus.h **** #define LL_APB2_GRP1_PERIPH_GPIOC          RCC_APB2ENR_IOPCEN
 185:Drivers/STM32F1xx_HAL_Driver/Inc/stm32f1xx_ll_bus.h **** #define LL_APB2_GRP1_PERIPH_GPIOD          RCC_APB2ENR_IOPDEN
 186:Drivers/STM32F1xx_HAL_Driver/Inc/stm32f1xx_ll_bus.h **** #if defined(GPIOE)
 187:Drivers/STM32F1xx_HAL_Driver/Inc/stm32f1xx_ll_bus.h **** #define LL_APB2_GRP1_PERIPH_GPIOE          RCC_APB2ENR_IOPEEN
 188:Drivers/STM32F1xx_HAL_Driver/Inc/stm32f1xx_ll_bus.h **** #endif /*GPIOE*/
 189:Drivers/STM32F1xx_HAL_Driver/Inc/stm32f1xx_ll_bus.h **** #if defined(GPIOF)
 190:Drivers/STM32F1xx_HAL_Driver/Inc/stm32f1xx_ll_bus.h **** #define LL_APB2_GRP1_PERIPH_GPIOF          RCC_APB2ENR_IOPFEN
 191:Drivers/STM32F1xx_HAL_Driver/Inc/stm32f1xx_ll_bus.h **** #endif /*GPIOF*/
 192:Drivers/STM32F1xx_HAL_Driver/Inc/stm32f1xx_ll_bus.h **** #if defined(GPIOG)
 193:Drivers/STM32F1xx_HAL_Driver/Inc/stm32f1xx_ll_bus.h **** #define LL_APB2_GRP1_PERIPH_GPIOG          RCC_APB2ENR_IOPGEN
 194:Drivers/STM32F1xx_HAL_Driver/Inc/stm32f1xx_ll_bus.h **** #endif /*GPIOG*/
 195:Drivers/STM32F1xx_HAL_Driver/Inc/stm32f1xx_ll_bus.h **** #define LL_APB2_GRP1_PERIPH_SPI1           RCC_APB2ENR_SPI1EN
 196:Drivers/STM32F1xx_HAL_Driver/Inc/stm32f1xx_ll_bus.h **** #if defined(TIM10)
 197:Drivers/STM32F1xx_HAL_Driver/Inc/stm32f1xx_ll_bus.h **** #define LL_APB2_GRP1_PERIPH_TIM10          RCC_APB2ENR_TIM10EN
 198:Drivers/STM32F1xx_HAL_Driver/Inc/stm32f1xx_ll_bus.h **** #endif /*TIM10*/
 199:Drivers/STM32F1xx_HAL_Driver/Inc/stm32f1xx_ll_bus.h **** #if defined(TIM11)
 200:Drivers/STM32F1xx_HAL_Driver/Inc/stm32f1xx_ll_bus.h **** #define LL_APB2_GRP1_PERIPH_TIM11          RCC_APB2ENR_TIM11EN
 201:Drivers/STM32F1xx_HAL_Driver/Inc/stm32f1xx_ll_bus.h **** #endif /*TIM11*/
 202:Drivers/STM32F1xx_HAL_Driver/Inc/stm32f1xx_ll_bus.h **** #if defined(TIM15)
 203:Drivers/STM32F1xx_HAL_Driver/Inc/stm32f1xx_ll_bus.h **** #define LL_APB2_GRP1_PERIPH_TIM15          RCC_APB2ENR_TIM15EN
 204:Drivers/STM32F1xx_HAL_Driver/Inc/stm32f1xx_ll_bus.h **** #endif /*TIM15*/
 205:Drivers/STM32F1xx_HAL_Driver/Inc/stm32f1xx_ll_bus.h **** #if defined(TIM16)
 206:Drivers/STM32F1xx_HAL_Driver/Inc/stm32f1xx_ll_bus.h **** #define LL_APB2_GRP1_PERIPH_TIM16          RCC_APB2ENR_TIM16EN
 207:Drivers/STM32F1xx_HAL_Driver/Inc/stm32f1xx_ll_bus.h **** #endif /*TIM16*/
 208:Drivers/STM32F1xx_HAL_Driver/Inc/stm32f1xx_ll_bus.h **** #if defined(TIM17)
 209:Drivers/STM32F1xx_HAL_Driver/Inc/stm32f1xx_ll_bus.h **** #define LL_APB2_GRP1_PERIPH_TIM17          RCC_APB2ENR_TIM17EN
 210:Drivers/STM32F1xx_HAL_Driver/Inc/stm32f1xx_ll_bus.h **** #endif /*TIM17*/
 211:Drivers/STM32F1xx_HAL_Driver/Inc/stm32f1xx_ll_bus.h **** #define LL_APB2_GRP1_PERIPH_TIM1           RCC_APB2ENR_TIM1EN
 212:Drivers/STM32F1xx_HAL_Driver/Inc/stm32f1xx_ll_bus.h **** #if defined(TIM8)
 213:Drivers/STM32F1xx_HAL_Driver/Inc/stm32f1xx_ll_bus.h **** #define LL_APB2_GRP1_PERIPH_TIM8           RCC_APB2ENR_TIM8EN
 214:Drivers/STM32F1xx_HAL_Driver/Inc/stm32f1xx_ll_bus.h **** #endif /*TIM8*/
 215:Drivers/STM32F1xx_HAL_Driver/Inc/stm32f1xx_ll_bus.h **** #if defined(TIM9)
 216:Drivers/STM32F1xx_HAL_Driver/Inc/stm32f1xx_ll_bus.h **** #define LL_APB2_GRP1_PERIPH_TIM9           RCC_APB2ENR_TIM9EN
 217:Drivers/STM32F1xx_HAL_Driver/Inc/stm32f1xx_ll_bus.h **** #endif /*TIM9*/
 218:Drivers/STM32F1xx_HAL_Driver/Inc/stm32f1xx_ll_bus.h **** #define LL_APB2_GRP1_PERIPH_USART1         RCC_APB2ENR_USART1EN
 219:Drivers/STM32F1xx_HAL_Driver/Inc/stm32f1xx_ll_bus.h **** /**
 220:Drivers/STM32F1xx_HAL_Driver/Inc/stm32f1xx_ll_bus.h ****   * @}
 221:Drivers/STM32F1xx_HAL_Driver/Inc/stm32f1xx_ll_bus.h ****   */
 222:Drivers/STM32F1xx_HAL_Driver/Inc/stm32f1xx_ll_bus.h **** 
 223:Drivers/STM32F1xx_HAL_Driver/Inc/stm32f1xx_ll_bus.h **** /**
 224:Drivers/STM32F1xx_HAL_Driver/Inc/stm32f1xx_ll_bus.h ****   * @}
 225:Drivers/STM32F1xx_HAL_Driver/Inc/stm32f1xx_ll_bus.h ****   */
 226:Drivers/STM32F1xx_HAL_Driver/Inc/stm32f1xx_ll_bus.h **** 
 227:Drivers/STM32F1xx_HAL_Driver/Inc/stm32f1xx_ll_bus.h **** /* Exported macro ------------------------------------------------------------*/
 228:Drivers/STM32F1xx_HAL_Driver/Inc/stm32f1xx_ll_bus.h **** 
 229:Drivers/STM32F1xx_HAL_Driver/Inc/stm32f1xx_ll_bus.h **** /* Exported functions --------------------------------------------------------*/
 230:Drivers/STM32F1xx_HAL_Driver/Inc/stm32f1xx_ll_bus.h **** /** @defgroup BUS_LL_Exported_Functions BUS Exported Functions
 231:Drivers/STM32F1xx_HAL_Driver/Inc/stm32f1xx_ll_bus.h ****   * @{
 232:Drivers/STM32F1xx_HAL_Driver/Inc/stm32f1xx_ll_bus.h ****   */
 233:Drivers/STM32F1xx_HAL_Driver/Inc/stm32f1xx_ll_bus.h **** 
 234:Drivers/STM32F1xx_HAL_Driver/Inc/stm32f1xx_ll_bus.h **** /** @defgroup BUS_LL_EF_AHB1 AHB1
 235:Drivers/STM32F1xx_HAL_Driver/Inc/stm32f1xx_ll_bus.h ****   * @{
 236:Drivers/STM32F1xx_HAL_Driver/Inc/stm32f1xx_ll_bus.h ****   */
 237:Drivers/STM32F1xx_HAL_Driver/Inc/stm32f1xx_ll_bus.h **** 
 238:Drivers/STM32F1xx_HAL_Driver/Inc/stm32f1xx_ll_bus.h **** /**
 239:Drivers/STM32F1xx_HAL_Driver/Inc/stm32f1xx_ll_bus.h ****   * @brief  Enable AHB1 peripherals clock.
 240:Drivers/STM32F1xx_HAL_Driver/Inc/stm32f1xx_ll_bus.h ****   * @rmtoll AHBENR       CRCEN         LL_AHB1_GRP1_EnableClock\n
ARM GAS  /tmp/ccO145yx.s 			page 7


 241:Drivers/STM32F1xx_HAL_Driver/Inc/stm32f1xx_ll_bus.h ****   *         AHBENR       DMA1EN        LL_AHB1_GRP1_EnableClock\n
 242:Drivers/STM32F1xx_HAL_Driver/Inc/stm32f1xx_ll_bus.h ****   *         AHBENR       DMA2EN        LL_AHB1_GRP1_EnableClock\n
 243:Drivers/STM32F1xx_HAL_Driver/Inc/stm32f1xx_ll_bus.h ****   *         AHBENR       ETHMACEN      LL_AHB1_GRP1_EnableClock\n
 244:Drivers/STM32F1xx_HAL_Driver/Inc/stm32f1xx_ll_bus.h ****   *         AHBENR       ETHMACRXEN    LL_AHB1_GRP1_EnableClock\n
 245:Drivers/STM32F1xx_HAL_Driver/Inc/stm32f1xx_ll_bus.h ****   *         AHBENR       ETHMACTXEN    LL_AHB1_GRP1_EnableClock\n
 246:Drivers/STM32F1xx_HAL_Driver/Inc/stm32f1xx_ll_bus.h ****   *         AHBENR       FLITFEN       LL_AHB1_GRP1_EnableClock\n
 247:Drivers/STM32F1xx_HAL_Driver/Inc/stm32f1xx_ll_bus.h ****   *         AHBENR       FSMCEN        LL_AHB1_GRP1_EnableClock\n
 248:Drivers/STM32F1xx_HAL_Driver/Inc/stm32f1xx_ll_bus.h ****   *         AHBENR       OTGFSEN       LL_AHB1_GRP1_EnableClock\n
 249:Drivers/STM32F1xx_HAL_Driver/Inc/stm32f1xx_ll_bus.h ****   *         AHBENR       SDIOEN        LL_AHB1_GRP1_EnableClock\n
 250:Drivers/STM32F1xx_HAL_Driver/Inc/stm32f1xx_ll_bus.h ****   *         AHBENR       SRAMEN        LL_AHB1_GRP1_EnableClock
 251:Drivers/STM32F1xx_HAL_Driver/Inc/stm32f1xx_ll_bus.h ****   * @param  Periphs This parameter can be a combination of the following values:
 252:Drivers/STM32F1xx_HAL_Driver/Inc/stm32f1xx_ll_bus.h ****   *         @arg @ref LL_AHB1_GRP1_PERIPH_CRC
 253:Drivers/STM32F1xx_HAL_Driver/Inc/stm32f1xx_ll_bus.h ****   *         @arg @ref LL_AHB1_GRP1_PERIPH_DMA1
 254:Drivers/STM32F1xx_HAL_Driver/Inc/stm32f1xx_ll_bus.h ****   *         @arg @ref LL_AHB1_GRP1_PERIPH_DMA2 (*)
 255:Drivers/STM32F1xx_HAL_Driver/Inc/stm32f1xx_ll_bus.h ****   *         @arg @ref LL_AHB1_GRP1_PERIPH_ETHMAC (*)
 256:Drivers/STM32F1xx_HAL_Driver/Inc/stm32f1xx_ll_bus.h ****   *         @arg @ref LL_AHB1_GRP1_PERIPH_ETHMACRX (*)
 257:Drivers/STM32F1xx_HAL_Driver/Inc/stm32f1xx_ll_bus.h ****   *         @arg @ref LL_AHB1_GRP1_PERIPH_ETHMACTX (*)
 258:Drivers/STM32F1xx_HAL_Driver/Inc/stm32f1xx_ll_bus.h ****   *         @arg @ref LL_AHB1_GRP1_PERIPH_FLASH
 259:Drivers/STM32F1xx_HAL_Driver/Inc/stm32f1xx_ll_bus.h ****   *         @arg @ref LL_AHB1_GRP1_PERIPH_FSMC (*)
 260:Drivers/STM32F1xx_HAL_Driver/Inc/stm32f1xx_ll_bus.h ****   *         @arg @ref LL_AHB1_GRP1_PERIPH_OTGFS (*)
 261:Drivers/STM32F1xx_HAL_Driver/Inc/stm32f1xx_ll_bus.h ****   *         @arg @ref LL_AHB1_GRP1_PERIPH_SDIO (*)
 262:Drivers/STM32F1xx_HAL_Driver/Inc/stm32f1xx_ll_bus.h ****   *         @arg @ref LL_AHB1_GRP1_PERIPH_SRAM
 263:Drivers/STM32F1xx_HAL_Driver/Inc/stm32f1xx_ll_bus.h ****   *
 264:Drivers/STM32F1xx_HAL_Driver/Inc/stm32f1xx_ll_bus.h ****   *         (*) value not defined in all devices.
 265:Drivers/STM32F1xx_HAL_Driver/Inc/stm32f1xx_ll_bus.h ****   * @retval None
 266:Drivers/STM32F1xx_HAL_Driver/Inc/stm32f1xx_ll_bus.h **** */
 267:Drivers/STM32F1xx_HAL_Driver/Inc/stm32f1xx_ll_bus.h **** __STATIC_INLINE void LL_AHB1_GRP1_EnableClock(uint32_t Periphs)
 268:Drivers/STM32F1xx_HAL_Driver/Inc/stm32f1xx_ll_bus.h **** {
 269:Drivers/STM32F1xx_HAL_Driver/Inc/stm32f1xx_ll_bus.h ****   __IO uint32_t tmpreg;
 270:Drivers/STM32F1xx_HAL_Driver/Inc/stm32f1xx_ll_bus.h ****   SET_BIT(RCC->AHBENR, Periphs);
 271:Drivers/STM32F1xx_HAL_Driver/Inc/stm32f1xx_ll_bus.h ****   /* Delay after an RCC peripheral clock enabling */
 272:Drivers/STM32F1xx_HAL_Driver/Inc/stm32f1xx_ll_bus.h ****   tmpreg = READ_BIT(RCC->AHBENR, Periphs);
 273:Drivers/STM32F1xx_HAL_Driver/Inc/stm32f1xx_ll_bus.h ****   (void)tmpreg;
 274:Drivers/STM32F1xx_HAL_Driver/Inc/stm32f1xx_ll_bus.h **** }
 275:Drivers/STM32F1xx_HAL_Driver/Inc/stm32f1xx_ll_bus.h **** 
 276:Drivers/STM32F1xx_HAL_Driver/Inc/stm32f1xx_ll_bus.h **** /**
 277:Drivers/STM32F1xx_HAL_Driver/Inc/stm32f1xx_ll_bus.h ****   * @brief  Check if AHB1 peripheral clock is enabled or not
 278:Drivers/STM32F1xx_HAL_Driver/Inc/stm32f1xx_ll_bus.h ****   * @rmtoll AHBENR       CRCEN         LL_AHB1_GRP1_IsEnabledClock\n
 279:Drivers/STM32F1xx_HAL_Driver/Inc/stm32f1xx_ll_bus.h ****   *         AHBENR       DMA1EN        LL_AHB1_GRP1_IsEnabledClock\n
 280:Drivers/STM32F1xx_HAL_Driver/Inc/stm32f1xx_ll_bus.h ****   *         AHBENR       DMA2EN        LL_AHB1_GRP1_IsEnabledClock\n
 281:Drivers/STM32F1xx_HAL_Driver/Inc/stm32f1xx_ll_bus.h ****   *         AHBENR       ETHMACEN      LL_AHB1_GRP1_IsEnabledClock\n
 282:Drivers/STM32F1xx_HAL_Driver/Inc/stm32f1xx_ll_bus.h ****   *         AHBENR       ETHMACRXEN    LL_AHB1_GRP1_IsEnabledClock\n
 283:Drivers/STM32F1xx_HAL_Driver/Inc/stm32f1xx_ll_bus.h ****   *         AHBENR       ETHMACTXEN    LL_AHB1_GRP1_IsEnabledClock\n
 284:Drivers/STM32F1xx_HAL_Driver/Inc/stm32f1xx_ll_bus.h ****   *         AHBENR       FLITFEN       LL_AHB1_GRP1_IsEnabledClock\n
 285:Drivers/STM32F1xx_HAL_Driver/Inc/stm32f1xx_ll_bus.h ****   *         AHBENR       FSMCEN        LL_AHB1_GRP1_IsEnabledClock\n
 286:Drivers/STM32F1xx_HAL_Driver/Inc/stm32f1xx_ll_bus.h ****   *         AHBENR       OTGFSEN       LL_AHB1_GRP1_IsEnabledClock\n
 287:Drivers/STM32F1xx_HAL_Driver/Inc/stm32f1xx_ll_bus.h ****   *         AHBENR       SDIOEN        LL_AHB1_GRP1_IsEnabledClock\n
 288:Drivers/STM32F1xx_HAL_Driver/Inc/stm32f1xx_ll_bus.h ****   *         AHBENR       SRAMEN        LL_AHB1_GRP1_IsEnabledClock
 289:Drivers/STM32F1xx_HAL_Driver/Inc/stm32f1xx_ll_bus.h ****   * @param  Periphs This parameter can be a combination of the following values:
 290:Drivers/STM32F1xx_HAL_Driver/Inc/stm32f1xx_ll_bus.h ****   *         @arg @ref LL_AHB1_GRP1_PERIPH_CRC
 291:Drivers/STM32F1xx_HAL_Driver/Inc/stm32f1xx_ll_bus.h ****   *         @arg @ref LL_AHB1_GRP1_PERIPH_DMA1
 292:Drivers/STM32F1xx_HAL_Driver/Inc/stm32f1xx_ll_bus.h ****   *         @arg @ref LL_AHB1_GRP1_PERIPH_DMA2 (*)
 293:Drivers/STM32F1xx_HAL_Driver/Inc/stm32f1xx_ll_bus.h ****   *         @arg @ref LL_AHB1_GRP1_PERIPH_ETHMAC (*)
 294:Drivers/STM32F1xx_HAL_Driver/Inc/stm32f1xx_ll_bus.h ****   *         @arg @ref LL_AHB1_GRP1_PERIPH_ETHMACRX (*)
 295:Drivers/STM32F1xx_HAL_Driver/Inc/stm32f1xx_ll_bus.h ****   *         @arg @ref LL_AHB1_GRP1_PERIPH_ETHMACTX (*)
 296:Drivers/STM32F1xx_HAL_Driver/Inc/stm32f1xx_ll_bus.h ****   *         @arg @ref LL_AHB1_GRP1_PERIPH_FLASH
 297:Drivers/STM32F1xx_HAL_Driver/Inc/stm32f1xx_ll_bus.h ****   *         @arg @ref LL_AHB1_GRP1_PERIPH_FSMC (*)
ARM GAS  /tmp/ccO145yx.s 			page 8


 298:Drivers/STM32F1xx_HAL_Driver/Inc/stm32f1xx_ll_bus.h ****   *         @arg @ref LL_AHB1_GRP1_PERIPH_OTGFS (*)
 299:Drivers/STM32F1xx_HAL_Driver/Inc/stm32f1xx_ll_bus.h ****   *         @arg @ref LL_AHB1_GRP1_PERIPH_SDIO (*)
 300:Drivers/STM32F1xx_HAL_Driver/Inc/stm32f1xx_ll_bus.h ****   *         @arg @ref LL_AHB1_GRP1_PERIPH_SRAM
 301:Drivers/STM32F1xx_HAL_Driver/Inc/stm32f1xx_ll_bus.h ****   *
 302:Drivers/STM32F1xx_HAL_Driver/Inc/stm32f1xx_ll_bus.h ****   *         (*) value not defined in all devices.
 303:Drivers/STM32F1xx_HAL_Driver/Inc/stm32f1xx_ll_bus.h ****   * @retval State of Periphs (1 or 0).
 304:Drivers/STM32F1xx_HAL_Driver/Inc/stm32f1xx_ll_bus.h **** */
 305:Drivers/STM32F1xx_HAL_Driver/Inc/stm32f1xx_ll_bus.h **** __STATIC_INLINE uint32_t LL_AHB1_GRP1_IsEnabledClock(uint32_t Periphs)
 306:Drivers/STM32F1xx_HAL_Driver/Inc/stm32f1xx_ll_bus.h **** {
 307:Drivers/STM32F1xx_HAL_Driver/Inc/stm32f1xx_ll_bus.h ****   return (READ_BIT(RCC->AHBENR, Periphs) == Periphs);
 308:Drivers/STM32F1xx_HAL_Driver/Inc/stm32f1xx_ll_bus.h **** }
 309:Drivers/STM32F1xx_HAL_Driver/Inc/stm32f1xx_ll_bus.h **** 
 310:Drivers/STM32F1xx_HAL_Driver/Inc/stm32f1xx_ll_bus.h **** /**
 311:Drivers/STM32F1xx_HAL_Driver/Inc/stm32f1xx_ll_bus.h ****   * @brief  Disable AHB1 peripherals clock.
 312:Drivers/STM32F1xx_HAL_Driver/Inc/stm32f1xx_ll_bus.h ****   * @rmtoll AHBENR       CRCEN         LL_AHB1_GRP1_DisableClock\n
 313:Drivers/STM32F1xx_HAL_Driver/Inc/stm32f1xx_ll_bus.h ****   *         AHBENR       DMA1EN        LL_AHB1_GRP1_DisableClock\n
 314:Drivers/STM32F1xx_HAL_Driver/Inc/stm32f1xx_ll_bus.h ****   *         AHBENR       DMA2EN        LL_AHB1_GRP1_DisableClock\n
 315:Drivers/STM32F1xx_HAL_Driver/Inc/stm32f1xx_ll_bus.h ****   *         AHBENR       ETHMACEN      LL_AHB1_GRP1_DisableClock\n
 316:Drivers/STM32F1xx_HAL_Driver/Inc/stm32f1xx_ll_bus.h ****   *         AHBENR       ETHMACRXEN    LL_AHB1_GRP1_DisableClock\n
 317:Drivers/STM32F1xx_HAL_Driver/Inc/stm32f1xx_ll_bus.h ****   *         AHBENR       ETHMACTXEN    LL_AHB1_GRP1_DisableClock\n
 318:Drivers/STM32F1xx_HAL_Driver/Inc/stm32f1xx_ll_bus.h ****   *         AHBENR       FLITFEN       LL_AHB1_GRP1_DisableClock\n
 319:Drivers/STM32F1xx_HAL_Driver/Inc/stm32f1xx_ll_bus.h ****   *         AHBENR       FSMCEN        LL_AHB1_GRP1_DisableClock\n
 320:Drivers/STM32F1xx_HAL_Driver/Inc/stm32f1xx_ll_bus.h ****   *         AHBENR       OTGFSEN       LL_AHB1_GRP1_DisableClock\n
 321:Drivers/STM32F1xx_HAL_Driver/Inc/stm32f1xx_ll_bus.h ****   *         AHBENR       SDIOEN        LL_AHB1_GRP1_DisableClock\n
 322:Drivers/STM32F1xx_HAL_Driver/Inc/stm32f1xx_ll_bus.h ****   *         AHBENR       SRAMEN        LL_AHB1_GRP1_DisableClock
 323:Drivers/STM32F1xx_HAL_Driver/Inc/stm32f1xx_ll_bus.h ****   * @param  Periphs This parameter can be a combination of the following values:
 324:Drivers/STM32F1xx_HAL_Driver/Inc/stm32f1xx_ll_bus.h ****   *         @arg @ref LL_AHB1_GRP1_PERIPH_CRC
 325:Drivers/STM32F1xx_HAL_Driver/Inc/stm32f1xx_ll_bus.h ****   *         @arg @ref LL_AHB1_GRP1_PERIPH_DMA1
 326:Drivers/STM32F1xx_HAL_Driver/Inc/stm32f1xx_ll_bus.h ****   *         @arg @ref LL_AHB1_GRP1_PERIPH_DMA2 (*)
 327:Drivers/STM32F1xx_HAL_Driver/Inc/stm32f1xx_ll_bus.h ****   *         @arg @ref LL_AHB1_GRP1_PERIPH_ETHMAC (*)
 328:Drivers/STM32F1xx_HAL_Driver/Inc/stm32f1xx_ll_bus.h ****   *         @arg @ref LL_AHB1_GRP1_PERIPH_ETHMACRX (*)
 329:Drivers/STM32F1xx_HAL_Driver/Inc/stm32f1xx_ll_bus.h ****   *         @arg @ref LL_AHB1_GRP1_PERIPH_ETHMACTX (*)
 330:Drivers/STM32F1xx_HAL_Driver/Inc/stm32f1xx_ll_bus.h ****   *         @arg @ref LL_AHB1_GRP1_PERIPH_FLASH
 331:Drivers/STM32F1xx_HAL_Driver/Inc/stm32f1xx_ll_bus.h ****   *         @arg @ref LL_AHB1_GRP1_PERIPH_FSMC (*)
 332:Drivers/STM32F1xx_HAL_Driver/Inc/stm32f1xx_ll_bus.h ****   *         @arg @ref LL_AHB1_GRP1_PERIPH_OTGFS (*)
 333:Drivers/STM32F1xx_HAL_Driver/Inc/stm32f1xx_ll_bus.h ****   *         @arg @ref LL_AHB1_GRP1_PERIPH_SDIO (*)
 334:Drivers/STM32F1xx_HAL_Driver/Inc/stm32f1xx_ll_bus.h ****   *         @arg @ref LL_AHB1_GRP1_PERIPH_SRAM
 335:Drivers/STM32F1xx_HAL_Driver/Inc/stm32f1xx_ll_bus.h ****   *
 336:Drivers/STM32F1xx_HAL_Driver/Inc/stm32f1xx_ll_bus.h ****   *         (*) value not defined in all devices.
 337:Drivers/STM32F1xx_HAL_Driver/Inc/stm32f1xx_ll_bus.h ****   * @retval None
 338:Drivers/STM32F1xx_HAL_Driver/Inc/stm32f1xx_ll_bus.h **** */
 339:Drivers/STM32F1xx_HAL_Driver/Inc/stm32f1xx_ll_bus.h **** __STATIC_INLINE void LL_AHB1_GRP1_DisableClock(uint32_t Periphs)
 340:Drivers/STM32F1xx_HAL_Driver/Inc/stm32f1xx_ll_bus.h **** {
 341:Drivers/STM32F1xx_HAL_Driver/Inc/stm32f1xx_ll_bus.h ****   CLEAR_BIT(RCC->AHBENR, Periphs);
 342:Drivers/STM32F1xx_HAL_Driver/Inc/stm32f1xx_ll_bus.h **** }
 343:Drivers/STM32F1xx_HAL_Driver/Inc/stm32f1xx_ll_bus.h **** 
 344:Drivers/STM32F1xx_HAL_Driver/Inc/stm32f1xx_ll_bus.h **** #if defined(RCC_AHBRSTR_SUPPORT)
 345:Drivers/STM32F1xx_HAL_Driver/Inc/stm32f1xx_ll_bus.h **** /**
 346:Drivers/STM32F1xx_HAL_Driver/Inc/stm32f1xx_ll_bus.h ****   * @brief  Force AHB1 peripherals reset.
 347:Drivers/STM32F1xx_HAL_Driver/Inc/stm32f1xx_ll_bus.h ****   * @rmtoll AHBRSTR      ETHMACRST     LL_AHB1_GRP1_ForceReset\n
 348:Drivers/STM32F1xx_HAL_Driver/Inc/stm32f1xx_ll_bus.h ****   *         AHBRSTR      OTGFSRST      LL_AHB1_GRP1_ForceReset
 349:Drivers/STM32F1xx_HAL_Driver/Inc/stm32f1xx_ll_bus.h ****   * @param  Periphs This parameter can be a combination of the following values:
 350:Drivers/STM32F1xx_HAL_Driver/Inc/stm32f1xx_ll_bus.h ****   *         @arg @ref LL_AHB1_GRP1_PERIPH_ALL
 351:Drivers/STM32F1xx_HAL_Driver/Inc/stm32f1xx_ll_bus.h ****   *         @arg @ref LL_AHB1_GRP1_PERIPH_ETHMAC (*)
 352:Drivers/STM32F1xx_HAL_Driver/Inc/stm32f1xx_ll_bus.h ****   *         @arg @ref LL_AHB1_GRP1_PERIPH_OTGFS (*)
 353:Drivers/STM32F1xx_HAL_Driver/Inc/stm32f1xx_ll_bus.h ****   *
 354:Drivers/STM32F1xx_HAL_Driver/Inc/stm32f1xx_ll_bus.h ****   *         (*) value not defined in all devices.
ARM GAS  /tmp/ccO145yx.s 			page 9


 355:Drivers/STM32F1xx_HAL_Driver/Inc/stm32f1xx_ll_bus.h ****   * @retval None
 356:Drivers/STM32F1xx_HAL_Driver/Inc/stm32f1xx_ll_bus.h **** */
 357:Drivers/STM32F1xx_HAL_Driver/Inc/stm32f1xx_ll_bus.h **** __STATIC_INLINE void LL_AHB1_GRP1_ForceReset(uint32_t Periphs)
 358:Drivers/STM32F1xx_HAL_Driver/Inc/stm32f1xx_ll_bus.h **** {
 359:Drivers/STM32F1xx_HAL_Driver/Inc/stm32f1xx_ll_bus.h ****   SET_BIT(RCC->AHBRSTR, Periphs);
 360:Drivers/STM32F1xx_HAL_Driver/Inc/stm32f1xx_ll_bus.h **** }
 361:Drivers/STM32F1xx_HAL_Driver/Inc/stm32f1xx_ll_bus.h **** 
 362:Drivers/STM32F1xx_HAL_Driver/Inc/stm32f1xx_ll_bus.h **** /**
 363:Drivers/STM32F1xx_HAL_Driver/Inc/stm32f1xx_ll_bus.h ****   * @brief  Release AHB1 peripherals reset.
 364:Drivers/STM32F1xx_HAL_Driver/Inc/stm32f1xx_ll_bus.h ****   * @rmtoll AHBRSTR      ETHMACRST     LL_AHB1_GRP1_ReleaseReset\n
 365:Drivers/STM32F1xx_HAL_Driver/Inc/stm32f1xx_ll_bus.h ****   *         AHBRSTR      OTGFSRST      LL_AHB1_GRP1_ReleaseReset
 366:Drivers/STM32F1xx_HAL_Driver/Inc/stm32f1xx_ll_bus.h ****   * @param  Periphs This parameter can be a combination of the following values:
 367:Drivers/STM32F1xx_HAL_Driver/Inc/stm32f1xx_ll_bus.h ****   *         @arg @ref LL_AHB1_GRP1_PERIPH_ALL
 368:Drivers/STM32F1xx_HAL_Driver/Inc/stm32f1xx_ll_bus.h ****   *         @arg @ref LL_AHB1_GRP1_PERIPH_ETHMAC (*)
 369:Drivers/STM32F1xx_HAL_Driver/Inc/stm32f1xx_ll_bus.h ****   *         @arg @ref LL_AHB1_GRP1_PERIPH_OTGFS (*)
 370:Drivers/STM32F1xx_HAL_Driver/Inc/stm32f1xx_ll_bus.h ****   *
 371:Drivers/STM32F1xx_HAL_Driver/Inc/stm32f1xx_ll_bus.h ****   *         (*) value not defined in all devices.
 372:Drivers/STM32F1xx_HAL_Driver/Inc/stm32f1xx_ll_bus.h ****   * @retval None
 373:Drivers/STM32F1xx_HAL_Driver/Inc/stm32f1xx_ll_bus.h **** */
 374:Drivers/STM32F1xx_HAL_Driver/Inc/stm32f1xx_ll_bus.h **** __STATIC_INLINE void LL_AHB1_GRP1_ReleaseReset(uint32_t Periphs)
 375:Drivers/STM32F1xx_HAL_Driver/Inc/stm32f1xx_ll_bus.h **** {
 376:Drivers/STM32F1xx_HAL_Driver/Inc/stm32f1xx_ll_bus.h ****   CLEAR_BIT(RCC->AHBRSTR, Periphs);
 377:Drivers/STM32F1xx_HAL_Driver/Inc/stm32f1xx_ll_bus.h **** }
 378:Drivers/STM32F1xx_HAL_Driver/Inc/stm32f1xx_ll_bus.h **** #endif /* RCC_AHBRSTR_SUPPORT */
 379:Drivers/STM32F1xx_HAL_Driver/Inc/stm32f1xx_ll_bus.h **** 
 380:Drivers/STM32F1xx_HAL_Driver/Inc/stm32f1xx_ll_bus.h **** /**
 381:Drivers/STM32F1xx_HAL_Driver/Inc/stm32f1xx_ll_bus.h ****   * @}
 382:Drivers/STM32F1xx_HAL_Driver/Inc/stm32f1xx_ll_bus.h ****   */
 383:Drivers/STM32F1xx_HAL_Driver/Inc/stm32f1xx_ll_bus.h **** 
 384:Drivers/STM32F1xx_HAL_Driver/Inc/stm32f1xx_ll_bus.h **** /** @defgroup BUS_LL_EF_APB1 APB1
 385:Drivers/STM32F1xx_HAL_Driver/Inc/stm32f1xx_ll_bus.h ****   * @{
 386:Drivers/STM32F1xx_HAL_Driver/Inc/stm32f1xx_ll_bus.h ****   */
 387:Drivers/STM32F1xx_HAL_Driver/Inc/stm32f1xx_ll_bus.h **** 
 388:Drivers/STM32F1xx_HAL_Driver/Inc/stm32f1xx_ll_bus.h **** /**
 389:Drivers/STM32F1xx_HAL_Driver/Inc/stm32f1xx_ll_bus.h ****   * @brief  Enable APB1 peripherals clock.
 390:Drivers/STM32F1xx_HAL_Driver/Inc/stm32f1xx_ll_bus.h ****   * @rmtoll APB1ENR      BKPEN         LL_APB1_GRP1_EnableClock\n
 391:Drivers/STM32F1xx_HAL_Driver/Inc/stm32f1xx_ll_bus.h ****   *         APB1ENR      CAN1EN        LL_APB1_GRP1_EnableClock\n
 392:Drivers/STM32F1xx_HAL_Driver/Inc/stm32f1xx_ll_bus.h ****   *         APB1ENR      CAN2EN        LL_APB1_GRP1_EnableClock\n
 393:Drivers/STM32F1xx_HAL_Driver/Inc/stm32f1xx_ll_bus.h ****   *         APB1ENR      CECEN         LL_APB1_GRP1_EnableClock\n
 394:Drivers/STM32F1xx_HAL_Driver/Inc/stm32f1xx_ll_bus.h ****   *         APB1ENR      DACEN         LL_APB1_GRP1_EnableClock\n
 395:Drivers/STM32F1xx_HAL_Driver/Inc/stm32f1xx_ll_bus.h ****   *         APB1ENR      I2C1EN        LL_APB1_GRP1_EnableClock\n
 396:Drivers/STM32F1xx_HAL_Driver/Inc/stm32f1xx_ll_bus.h ****   *         APB1ENR      I2C2EN        LL_APB1_GRP1_EnableClock\n
 397:Drivers/STM32F1xx_HAL_Driver/Inc/stm32f1xx_ll_bus.h ****   *         APB1ENR      PWREN         LL_APB1_GRP1_EnableClock\n
 398:Drivers/STM32F1xx_HAL_Driver/Inc/stm32f1xx_ll_bus.h ****   *         APB1ENR      SPI2EN        LL_APB1_GRP1_EnableClock\n
 399:Drivers/STM32F1xx_HAL_Driver/Inc/stm32f1xx_ll_bus.h ****   *         APB1ENR      SPI3EN        LL_APB1_GRP1_EnableClock\n
 400:Drivers/STM32F1xx_HAL_Driver/Inc/stm32f1xx_ll_bus.h ****   *         APB1ENR      TIM12EN       LL_APB1_GRP1_EnableClock\n
 401:Drivers/STM32F1xx_HAL_Driver/Inc/stm32f1xx_ll_bus.h ****   *         APB1ENR      TIM13EN       LL_APB1_GRP1_EnableClock\n
 402:Drivers/STM32F1xx_HAL_Driver/Inc/stm32f1xx_ll_bus.h ****   *         APB1ENR      TIM14EN       LL_APB1_GRP1_EnableClock\n
 403:Drivers/STM32F1xx_HAL_Driver/Inc/stm32f1xx_ll_bus.h ****   *         APB1ENR      TIM2EN        LL_APB1_GRP1_EnableClock\n
 404:Drivers/STM32F1xx_HAL_Driver/Inc/stm32f1xx_ll_bus.h ****   *         APB1ENR      TIM3EN        LL_APB1_GRP1_EnableClock\n
 405:Drivers/STM32F1xx_HAL_Driver/Inc/stm32f1xx_ll_bus.h ****   *         APB1ENR      TIM4EN        LL_APB1_GRP1_EnableClock\n
 406:Drivers/STM32F1xx_HAL_Driver/Inc/stm32f1xx_ll_bus.h ****   *         APB1ENR      TIM5EN        LL_APB1_GRP1_EnableClock\n
 407:Drivers/STM32F1xx_HAL_Driver/Inc/stm32f1xx_ll_bus.h ****   *         APB1ENR      TIM6EN        LL_APB1_GRP1_EnableClock\n
 408:Drivers/STM32F1xx_HAL_Driver/Inc/stm32f1xx_ll_bus.h ****   *         APB1ENR      TIM7EN        LL_APB1_GRP1_EnableClock\n
 409:Drivers/STM32F1xx_HAL_Driver/Inc/stm32f1xx_ll_bus.h ****   *         APB1ENR      UART4EN       LL_APB1_GRP1_EnableClock\n
 410:Drivers/STM32F1xx_HAL_Driver/Inc/stm32f1xx_ll_bus.h ****   *         APB1ENR      UART5EN       LL_APB1_GRP1_EnableClock\n
 411:Drivers/STM32F1xx_HAL_Driver/Inc/stm32f1xx_ll_bus.h ****   *         APB1ENR      USART2EN      LL_APB1_GRP1_EnableClock\n
ARM GAS  /tmp/ccO145yx.s 			page 10


 412:Drivers/STM32F1xx_HAL_Driver/Inc/stm32f1xx_ll_bus.h ****   *         APB1ENR      USART3EN      LL_APB1_GRP1_EnableClock\n
 413:Drivers/STM32F1xx_HAL_Driver/Inc/stm32f1xx_ll_bus.h ****   *         APB1ENR      USBEN         LL_APB1_GRP1_EnableClock\n
 414:Drivers/STM32F1xx_HAL_Driver/Inc/stm32f1xx_ll_bus.h ****   *         APB1ENR      WWDGEN        LL_APB1_GRP1_EnableClock
 415:Drivers/STM32F1xx_HAL_Driver/Inc/stm32f1xx_ll_bus.h ****   * @param  Periphs This parameter can be a combination of the following values:
 416:Drivers/STM32F1xx_HAL_Driver/Inc/stm32f1xx_ll_bus.h ****   *         @arg @ref LL_APB1_GRP1_PERIPH_BKP
 417:Drivers/STM32F1xx_HAL_Driver/Inc/stm32f1xx_ll_bus.h ****   *         @arg @ref LL_APB1_GRP1_PERIPH_CAN1 (*)
 418:Drivers/STM32F1xx_HAL_Driver/Inc/stm32f1xx_ll_bus.h ****   *         @arg @ref LL_APB1_GRP1_PERIPH_CAN2 (*)
 419:Drivers/STM32F1xx_HAL_Driver/Inc/stm32f1xx_ll_bus.h ****   *         @arg @ref LL_APB1_GRP1_PERIPH_CEC (*)
 420:Drivers/STM32F1xx_HAL_Driver/Inc/stm32f1xx_ll_bus.h ****   *         @arg @ref LL_APB1_GRP1_PERIPH_DAC1 (*)
 421:Drivers/STM32F1xx_HAL_Driver/Inc/stm32f1xx_ll_bus.h ****   *         @arg @ref LL_APB1_GRP1_PERIPH_I2C1
 422:Drivers/STM32F1xx_HAL_Driver/Inc/stm32f1xx_ll_bus.h ****   *         @arg @ref LL_APB1_GRP1_PERIPH_I2C2 (*)
 423:Drivers/STM32F1xx_HAL_Driver/Inc/stm32f1xx_ll_bus.h ****   *         @arg @ref LL_APB1_GRP1_PERIPH_PWR
 424:Drivers/STM32F1xx_HAL_Driver/Inc/stm32f1xx_ll_bus.h ****   *         @arg @ref LL_APB1_GRP1_PERIPH_SPI2 (*)
 425:Drivers/STM32F1xx_HAL_Driver/Inc/stm32f1xx_ll_bus.h ****   *         @arg @ref LL_APB1_GRP1_PERIPH_SPI3 (*)
 426:Drivers/STM32F1xx_HAL_Driver/Inc/stm32f1xx_ll_bus.h ****   *         @arg @ref LL_APB1_GRP1_PERIPH_TIM12 (*)
 427:Drivers/STM32F1xx_HAL_Driver/Inc/stm32f1xx_ll_bus.h ****   *         @arg @ref LL_APB1_GRP1_PERIPH_TIM13 (*)
 428:Drivers/STM32F1xx_HAL_Driver/Inc/stm32f1xx_ll_bus.h ****   *         @arg @ref LL_APB1_GRP1_PERIPH_TIM14 (*)
 429:Drivers/STM32F1xx_HAL_Driver/Inc/stm32f1xx_ll_bus.h ****   *         @arg @ref LL_APB1_GRP1_PERIPH_TIM2
 430:Drivers/STM32F1xx_HAL_Driver/Inc/stm32f1xx_ll_bus.h ****   *         @arg @ref LL_APB1_GRP1_PERIPH_TIM3
 431:Drivers/STM32F1xx_HAL_Driver/Inc/stm32f1xx_ll_bus.h ****   *         @arg @ref LL_APB1_GRP1_PERIPH_TIM4 (*)
 432:Drivers/STM32F1xx_HAL_Driver/Inc/stm32f1xx_ll_bus.h ****   *         @arg @ref LL_APB1_GRP1_PERIPH_TIM5 (*)
 433:Drivers/STM32F1xx_HAL_Driver/Inc/stm32f1xx_ll_bus.h ****   *         @arg @ref LL_APB1_GRP1_PERIPH_TIM6 (*)
 434:Drivers/STM32F1xx_HAL_Driver/Inc/stm32f1xx_ll_bus.h ****   *         @arg @ref LL_APB1_GRP1_PERIPH_TIM7 (*)
 435:Drivers/STM32F1xx_HAL_Driver/Inc/stm32f1xx_ll_bus.h ****   *         @arg @ref LL_APB1_GRP1_PERIPH_UART4 (*)
 436:Drivers/STM32F1xx_HAL_Driver/Inc/stm32f1xx_ll_bus.h ****   *         @arg @ref LL_APB1_GRP1_PERIPH_UART5 (*)
 437:Drivers/STM32F1xx_HAL_Driver/Inc/stm32f1xx_ll_bus.h ****   *         @arg @ref LL_APB1_GRP1_PERIPH_USART2
 438:Drivers/STM32F1xx_HAL_Driver/Inc/stm32f1xx_ll_bus.h ****   *         @arg @ref LL_APB1_GRP1_PERIPH_USART3 (*)
 439:Drivers/STM32F1xx_HAL_Driver/Inc/stm32f1xx_ll_bus.h ****   *         @arg @ref LL_APB1_GRP1_PERIPH_USB (*)
 440:Drivers/STM32F1xx_HAL_Driver/Inc/stm32f1xx_ll_bus.h ****   *         @arg @ref LL_APB1_GRP1_PERIPH_WWDG
 441:Drivers/STM32F1xx_HAL_Driver/Inc/stm32f1xx_ll_bus.h ****   *
 442:Drivers/STM32F1xx_HAL_Driver/Inc/stm32f1xx_ll_bus.h ****   *         (*) value not defined in all devices.
 443:Drivers/STM32F1xx_HAL_Driver/Inc/stm32f1xx_ll_bus.h ****   * @retval None
 444:Drivers/STM32F1xx_HAL_Driver/Inc/stm32f1xx_ll_bus.h **** */
 445:Drivers/STM32F1xx_HAL_Driver/Inc/stm32f1xx_ll_bus.h **** __STATIC_INLINE void LL_APB1_GRP1_EnableClock(uint32_t Periphs)
  60              		.loc 2 445 22 view .LVU6
  61              	.LBB64:
 446:Drivers/STM32F1xx_HAL_Driver/Inc/stm32f1xx_ll_bus.h **** {
 447:Drivers/STM32F1xx_HAL_Driver/Inc/stm32f1xx_ll_bus.h ****   __IO uint32_t tmpreg;
  62              		.loc 2 447 3 view .LVU7
 448:Drivers/STM32F1xx_HAL_Driver/Inc/stm32f1xx_ll_bus.h ****   SET_BIT(RCC->APB1ENR, Periphs);
  63              		.loc 2 448 3 view .LVU8
  64 001a 374B     		ldr	r3, .L3
  65 001c DA69     		ldr	r2, [r3, #28]
  66 001e 42F48042 		orr	r2, r2, #16384
  67 0022 DA61     		str	r2, [r3, #28]
 449:Drivers/STM32F1xx_HAL_Driver/Inc/stm32f1xx_ll_bus.h ****   /* Delay after an RCC peripheral clock enabling */
 450:Drivers/STM32F1xx_HAL_Driver/Inc/stm32f1xx_ll_bus.h ****   tmpreg = READ_BIT(RCC->APB1ENR, Periphs);
  68              		.loc 2 450 3 view .LVU9
  69              		.loc 2 450 12 is_stmt 0 view .LVU10
  70 0024 DA69     		ldr	r2, [r3, #28]
  71 0026 02F48042 		and	r2, r2, #16384
  72              		.loc 2 450 10 view .LVU11
  73 002a 0292     		str	r2, [sp, #8]
 451:Drivers/STM32F1xx_HAL_Driver/Inc/stm32f1xx_ll_bus.h ****   (void)tmpreg;
  74              		.loc 2 451 3 is_stmt 1 view .LVU12
  75 002c 029A     		ldr	r2, [sp, #8]
  76              	.LVL2:
ARM GAS  /tmp/ccO145yx.s 			page 11


  77              		.loc 2 451 3 is_stmt 0 view .LVU13
  78              	.LBE64:
  79              	.LBE63:
  45:Core/Src/spi.c **** 
  46:Core/Src/spi.c ****   LL_APB2_GRP1_EnableClock(LL_APB2_GRP1_PERIPH_GPIOB);
  80              		.loc 1 46 3 is_stmt 1 view .LVU14
  81              	.LBB65:
  82              	.LBI65:
 452:Drivers/STM32F1xx_HAL_Driver/Inc/stm32f1xx_ll_bus.h **** }
 453:Drivers/STM32F1xx_HAL_Driver/Inc/stm32f1xx_ll_bus.h **** 
 454:Drivers/STM32F1xx_HAL_Driver/Inc/stm32f1xx_ll_bus.h **** /**
 455:Drivers/STM32F1xx_HAL_Driver/Inc/stm32f1xx_ll_bus.h ****   * @brief  Check if APB1 peripheral clock is enabled or not
 456:Drivers/STM32F1xx_HAL_Driver/Inc/stm32f1xx_ll_bus.h ****   * @rmtoll APB1ENR      BKPEN         LL_APB1_GRP1_IsEnabledClock\n
 457:Drivers/STM32F1xx_HAL_Driver/Inc/stm32f1xx_ll_bus.h ****   *         APB1ENR      CAN1EN        LL_APB1_GRP1_IsEnabledClock\n
 458:Drivers/STM32F1xx_HAL_Driver/Inc/stm32f1xx_ll_bus.h ****   *         APB1ENR      CAN2EN        LL_APB1_GRP1_IsEnabledClock\n
 459:Drivers/STM32F1xx_HAL_Driver/Inc/stm32f1xx_ll_bus.h ****   *         APB1ENR      CECEN         LL_APB1_GRP1_IsEnabledClock\n
 460:Drivers/STM32F1xx_HAL_Driver/Inc/stm32f1xx_ll_bus.h ****   *         APB1ENR      DACEN         LL_APB1_GRP1_IsEnabledClock\n
 461:Drivers/STM32F1xx_HAL_Driver/Inc/stm32f1xx_ll_bus.h ****   *         APB1ENR      I2C1EN        LL_APB1_GRP1_IsEnabledClock\n
 462:Drivers/STM32F1xx_HAL_Driver/Inc/stm32f1xx_ll_bus.h ****   *         APB1ENR      I2C2EN        LL_APB1_GRP1_IsEnabledClock\n
 463:Drivers/STM32F1xx_HAL_Driver/Inc/stm32f1xx_ll_bus.h ****   *         APB1ENR      PWREN         LL_APB1_GRP1_IsEnabledClock\n
 464:Drivers/STM32F1xx_HAL_Driver/Inc/stm32f1xx_ll_bus.h ****   *         APB1ENR      SPI2EN        LL_APB1_GRP1_IsEnabledClock\n
 465:Drivers/STM32F1xx_HAL_Driver/Inc/stm32f1xx_ll_bus.h ****   *         APB1ENR      SPI3EN        LL_APB1_GRP1_IsEnabledClock\n
 466:Drivers/STM32F1xx_HAL_Driver/Inc/stm32f1xx_ll_bus.h ****   *         APB1ENR      TIM12EN       LL_APB1_GRP1_IsEnabledClock\n
 467:Drivers/STM32F1xx_HAL_Driver/Inc/stm32f1xx_ll_bus.h ****   *         APB1ENR      TIM13EN       LL_APB1_GRP1_IsEnabledClock\n
 468:Drivers/STM32F1xx_HAL_Driver/Inc/stm32f1xx_ll_bus.h ****   *         APB1ENR      TIM14EN       LL_APB1_GRP1_IsEnabledClock\n
 469:Drivers/STM32F1xx_HAL_Driver/Inc/stm32f1xx_ll_bus.h ****   *         APB1ENR      TIM2EN        LL_APB1_GRP1_IsEnabledClock\n
 470:Drivers/STM32F1xx_HAL_Driver/Inc/stm32f1xx_ll_bus.h ****   *         APB1ENR      TIM3EN        LL_APB1_GRP1_IsEnabledClock\n
 471:Drivers/STM32F1xx_HAL_Driver/Inc/stm32f1xx_ll_bus.h ****   *         APB1ENR      TIM4EN        LL_APB1_GRP1_IsEnabledClock\n
 472:Drivers/STM32F1xx_HAL_Driver/Inc/stm32f1xx_ll_bus.h ****   *         APB1ENR      TIM5EN        LL_APB1_GRP1_IsEnabledClock\n
 473:Drivers/STM32F1xx_HAL_Driver/Inc/stm32f1xx_ll_bus.h ****   *         APB1ENR      TIM6EN        LL_APB1_GRP1_IsEnabledClock\n
 474:Drivers/STM32F1xx_HAL_Driver/Inc/stm32f1xx_ll_bus.h ****   *         APB1ENR      TIM7EN        LL_APB1_GRP1_IsEnabledClock\n
 475:Drivers/STM32F1xx_HAL_Driver/Inc/stm32f1xx_ll_bus.h ****   *         APB1ENR      UART4EN       LL_APB1_GRP1_IsEnabledClock\n
 476:Drivers/STM32F1xx_HAL_Driver/Inc/stm32f1xx_ll_bus.h ****   *         APB1ENR      UART5EN       LL_APB1_GRP1_IsEnabledClock\n
 477:Drivers/STM32F1xx_HAL_Driver/Inc/stm32f1xx_ll_bus.h ****   *         APB1ENR      USART2EN      LL_APB1_GRP1_IsEnabledClock\n
 478:Drivers/STM32F1xx_HAL_Driver/Inc/stm32f1xx_ll_bus.h ****   *         APB1ENR      USART3EN      LL_APB1_GRP1_IsEnabledClock\n
 479:Drivers/STM32F1xx_HAL_Driver/Inc/stm32f1xx_ll_bus.h ****   *         APB1ENR      USBEN         LL_APB1_GRP1_IsEnabledClock\n
 480:Drivers/STM32F1xx_HAL_Driver/Inc/stm32f1xx_ll_bus.h ****   *         APB1ENR      WWDGEN        LL_APB1_GRP1_IsEnabledClock
 481:Drivers/STM32F1xx_HAL_Driver/Inc/stm32f1xx_ll_bus.h ****   * @param  Periphs This parameter can be a combination of the following values:
 482:Drivers/STM32F1xx_HAL_Driver/Inc/stm32f1xx_ll_bus.h ****   *         @arg @ref LL_APB1_GRP1_PERIPH_BKP
 483:Drivers/STM32F1xx_HAL_Driver/Inc/stm32f1xx_ll_bus.h ****   *         @arg @ref LL_APB1_GRP1_PERIPH_CAN1 (*)
 484:Drivers/STM32F1xx_HAL_Driver/Inc/stm32f1xx_ll_bus.h ****   *         @arg @ref LL_APB1_GRP1_PERIPH_CAN2 (*)
 485:Drivers/STM32F1xx_HAL_Driver/Inc/stm32f1xx_ll_bus.h ****   *         @arg @ref LL_APB1_GRP1_PERIPH_CEC (*)
 486:Drivers/STM32F1xx_HAL_Driver/Inc/stm32f1xx_ll_bus.h ****   *         @arg @ref LL_APB1_GRP1_PERIPH_DAC1 (*)
 487:Drivers/STM32F1xx_HAL_Driver/Inc/stm32f1xx_ll_bus.h ****   *         @arg @ref LL_APB1_GRP1_PERIPH_I2C1
 488:Drivers/STM32F1xx_HAL_Driver/Inc/stm32f1xx_ll_bus.h ****   *         @arg @ref LL_APB1_GRP1_PERIPH_I2C2 (*)
 489:Drivers/STM32F1xx_HAL_Driver/Inc/stm32f1xx_ll_bus.h ****   *         @arg @ref LL_APB1_GRP1_PERIPH_PWR
 490:Drivers/STM32F1xx_HAL_Driver/Inc/stm32f1xx_ll_bus.h ****   *         @arg @ref LL_APB1_GRP1_PERIPH_SPI2 (*)
 491:Drivers/STM32F1xx_HAL_Driver/Inc/stm32f1xx_ll_bus.h ****   *         @arg @ref LL_APB1_GRP1_PERIPH_SPI3 (*)
 492:Drivers/STM32F1xx_HAL_Driver/Inc/stm32f1xx_ll_bus.h ****   *         @arg @ref LL_APB1_GRP1_PERIPH_TIM12 (*)
 493:Drivers/STM32F1xx_HAL_Driver/Inc/stm32f1xx_ll_bus.h ****   *         @arg @ref LL_APB1_GRP1_PERIPH_TIM13 (*)
 494:Drivers/STM32F1xx_HAL_Driver/Inc/stm32f1xx_ll_bus.h ****   *         @arg @ref LL_APB1_GRP1_PERIPH_TIM14 (*)
 495:Drivers/STM32F1xx_HAL_Driver/Inc/stm32f1xx_ll_bus.h ****   *         @arg @ref LL_APB1_GRP1_PERIPH_TIM2
 496:Drivers/STM32F1xx_HAL_Driver/Inc/stm32f1xx_ll_bus.h ****   *         @arg @ref LL_APB1_GRP1_PERIPH_TIM3
 497:Drivers/STM32F1xx_HAL_Driver/Inc/stm32f1xx_ll_bus.h ****   *         @arg @ref LL_APB1_GRP1_PERIPH_TIM4 (*)
 498:Drivers/STM32F1xx_HAL_Driver/Inc/stm32f1xx_ll_bus.h ****   *         @arg @ref LL_APB1_GRP1_PERIPH_TIM5 (*)
 499:Drivers/STM32F1xx_HAL_Driver/Inc/stm32f1xx_ll_bus.h ****   *         @arg @ref LL_APB1_GRP1_PERIPH_TIM6 (*)
 500:Drivers/STM32F1xx_HAL_Driver/Inc/stm32f1xx_ll_bus.h ****   *         @arg @ref LL_APB1_GRP1_PERIPH_TIM7 (*)
ARM GAS  /tmp/ccO145yx.s 			page 12


 501:Drivers/STM32F1xx_HAL_Driver/Inc/stm32f1xx_ll_bus.h ****   *         @arg @ref LL_APB1_GRP1_PERIPH_UART4 (*)
 502:Drivers/STM32F1xx_HAL_Driver/Inc/stm32f1xx_ll_bus.h ****   *         @arg @ref LL_APB1_GRP1_PERIPH_UART5 (*)
 503:Drivers/STM32F1xx_HAL_Driver/Inc/stm32f1xx_ll_bus.h ****   *         @arg @ref LL_APB1_GRP1_PERIPH_USART2
 504:Drivers/STM32F1xx_HAL_Driver/Inc/stm32f1xx_ll_bus.h ****   *         @arg @ref LL_APB1_GRP1_PERIPH_USART3 (*)
 505:Drivers/STM32F1xx_HAL_Driver/Inc/stm32f1xx_ll_bus.h ****   *         @arg @ref LL_APB1_GRP1_PERIPH_USB (*)
 506:Drivers/STM32F1xx_HAL_Driver/Inc/stm32f1xx_ll_bus.h ****   *         @arg @ref LL_APB1_GRP1_PERIPH_WWDG
 507:Drivers/STM32F1xx_HAL_Driver/Inc/stm32f1xx_ll_bus.h ****   *
 508:Drivers/STM32F1xx_HAL_Driver/Inc/stm32f1xx_ll_bus.h ****   *         (*) value not defined in all devices.
 509:Drivers/STM32F1xx_HAL_Driver/Inc/stm32f1xx_ll_bus.h ****   * @retval State of Periphs (1 or 0).
 510:Drivers/STM32F1xx_HAL_Driver/Inc/stm32f1xx_ll_bus.h **** */
 511:Drivers/STM32F1xx_HAL_Driver/Inc/stm32f1xx_ll_bus.h **** __STATIC_INLINE uint32_t LL_APB1_GRP1_IsEnabledClock(uint32_t Periphs)
 512:Drivers/STM32F1xx_HAL_Driver/Inc/stm32f1xx_ll_bus.h **** {
 513:Drivers/STM32F1xx_HAL_Driver/Inc/stm32f1xx_ll_bus.h ****   return (READ_BIT(RCC->APB1ENR, Periphs) == Periphs);
 514:Drivers/STM32F1xx_HAL_Driver/Inc/stm32f1xx_ll_bus.h **** }
 515:Drivers/STM32F1xx_HAL_Driver/Inc/stm32f1xx_ll_bus.h **** 
 516:Drivers/STM32F1xx_HAL_Driver/Inc/stm32f1xx_ll_bus.h **** /**
 517:Drivers/STM32F1xx_HAL_Driver/Inc/stm32f1xx_ll_bus.h ****   * @brief  Disable APB1 peripherals clock.
 518:Drivers/STM32F1xx_HAL_Driver/Inc/stm32f1xx_ll_bus.h ****   * @rmtoll APB1ENR      BKPEN         LL_APB1_GRP1_DisableClock\n
 519:Drivers/STM32F1xx_HAL_Driver/Inc/stm32f1xx_ll_bus.h ****   *         APB1ENR      CAN1EN        LL_APB1_GRP1_DisableClock\n
 520:Drivers/STM32F1xx_HAL_Driver/Inc/stm32f1xx_ll_bus.h ****   *         APB1ENR      CAN2EN        LL_APB1_GRP1_DisableClock\n
 521:Drivers/STM32F1xx_HAL_Driver/Inc/stm32f1xx_ll_bus.h ****   *         APB1ENR      CECEN         LL_APB1_GRP1_DisableClock\n
 522:Drivers/STM32F1xx_HAL_Driver/Inc/stm32f1xx_ll_bus.h ****   *         APB1ENR      DACEN         LL_APB1_GRP1_DisableClock\n
 523:Drivers/STM32F1xx_HAL_Driver/Inc/stm32f1xx_ll_bus.h ****   *         APB1ENR      I2C1EN        LL_APB1_GRP1_DisableClock\n
 524:Drivers/STM32F1xx_HAL_Driver/Inc/stm32f1xx_ll_bus.h ****   *         APB1ENR      I2C2EN        LL_APB1_GRP1_DisableClock\n
 525:Drivers/STM32F1xx_HAL_Driver/Inc/stm32f1xx_ll_bus.h ****   *         APB1ENR      PWREN         LL_APB1_GRP1_DisableClock\n
 526:Drivers/STM32F1xx_HAL_Driver/Inc/stm32f1xx_ll_bus.h ****   *         APB1ENR      SPI2EN        LL_APB1_GRP1_DisableClock\n
 527:Drivers/STM32F1xx_HAL_Driver/Inc/stm32f1xx_ll_bus.h ****   *         APB1ENR      SPI3EN        LL_APB1_GRP1_DisableClock\n
 528:Drivers/STM32F1xx_HAL_Driver/Inc/stm32f1xx_ll_bus.h ****   *         APB1ENR      TIM12EN       LL_APB1_GRP1_DisableClock\n
 529:Drivers/STM32F1xx_HAL_Driver/Inc/stm32f1xx_ll_bus.h ****   *         APB1ENR      TIM13EN       LL_APB1_GRP1_DisableClock\n
 530:Drivers/STM32F1xx_HAL_Driver/Inc/stm32f1xx_ll_bus.h ****   *         APB1ENR      TIM14EN       LL_APB1_GRP1_DisableClock\n
 531:Drivers/STM32F1xx_HAL_Driver/Inc/stm32f1xx_ll_bus.h ****   *         APB1ENR      TIM2EN        LL_APB1_GRP1_DisableClock\n
 532:Drivers/STM32F1xx_HAL_Driver/Inc/stm32f1xx_ll_bus.h ****   *         APB1ENR      TIM3EN        LL_APB1_GRP1_DisableClock\n
 533:Drivers/STM32F1xx_HAL_Driver/Inc/stm32f1xx_ll_bus.h ****   *         APB1ENR      TIM4EN        LL_APB1_GRP1_DisableClock\n
 534:Drivers/STM32F1xx_HAL_Driver/Inc/stm32f1xx_ll_bus.h ****   *         APB1ENR      TIM5EN        LL_APB1_GRP1_DisableClock\n
 535:Drivers/STM32F1xx_HAL_Driver/Inc/stm32f1xx_ll_bus.h ****   *         APB1ENR      TIM6EN        LL_APB1_GRP1_DisableClock\n
 536:Drivers/STM32F1xx_HAL_Driver/Inc/stm32f1xx_ll_bus.h ****   *         APB1ENR      TIM7EN        LL_APB1_GRP1_DisableClock\n
 537:Drivers/STM32F1xx_HAL_Driver/Inc/stm32f1xx_ll_bus.h ****   *         APB1ENR      UART4EN       LL_APB1_GRP1_DisableClock\n
 538:Drivers/STM32F1xx_HAL_Driver/Inc/stm32f1xx_ll_bus.h ****   *         APB1ENR      UART5EN       LL_APB1_GRP1_DisableClock\n
 539:Drivers/STM32F1xx_HAL_Driver/Inc/stm32f1xx_ll_bus.h ****   *         APB1ENR      USART2EN      LL_APB1_GRP1_DisableClock\n
 540:Drivers/STM32F1xx_HAL_Driver/Inc/stm32f1xx_ll_bus.h ****   *         APB1ENR      USART3EN      LL_APB1_GRP1_DisableClock\n
 541:Drivers/STM32F1xx_HAL_Driver/Inc/stm32f1xx_ll_bus.h ****   *         APB1ENR      USBEN         LL_APB1_GRP1_DisableClock\n
 542:Drivers/STM32F1xx_HAL_Driver/Inc/stm32f1xx_ll_bus.h ****   *         APB1ENR      WWDGEN        LL_APB1_GRP1_DisableClock
 543:Drivers/STM32F1xx_HAL_Driver/Inc/stm32f1xx_ll_bus.h ****   * @param  Periphs This parameter can be a combination of the following values:
 544:Drivers/STM32F1xx_HAL_Driver/Inc/stm32f1xx_ll_bus.h ****   *         @arg @ref LL_APB1_GRP1_PERIPH_BKP
 545:Drivers/STM32F1xx_HAL_Driver/Inc/stm32f1xx_ll_bus.h ****   *         @arg @ref LL_APB1_GRP1_PERIPH_CAN1 (*)
 546:Drivers/STM32F1xx_HAL_Driver/Inc/stm32f1xx_ll_bus.h ****   *         @arg @ref LL_APB1_GRP1_PERIPH_CAN2 (*)
 547:Drivers/STM32F1xx_HAL_Driver/Inc/stm32f1xx_ll_bus.h ****   *         @arg @ref LL_APB1_GRP1_PERIPH_CEC (*)
 548:Drivers/STM32F1xx_HAL_Driver/Inc/stm32f1xx_ll_bus.h ****   *         @arg @ref LL_APB1_GRP1_PERIPH_DAC1 (*)
 549:Drivers/STM32F1xx_HAL_Driver/Inc/stm32f1xx_ll_bus.h ****   *         @arg @ref LL_APB1_GRP1_PERIPH_I2C1
 550:Drivers/STM32F1xx_HAL_Driver/Inc/stm32f1xx_ll_bus.h ****   *         @arg @ref LL_APB1_GRP1_PERIPH_I2C2 (*)
 551:Drivers/STM32F1xx_HAL_Driver/Inc/stm32f1xx_ll_bus.h ****   *         @arg @ref LL_APB1_GRP1_PERIPH_PWR
 552:Drivers/STM32F1xx_HAL_Driver/Inc/stm32f1xx_ll_bus.h ****   *         @arg @ref LL_APB1_GRP1_PERIPH_SPI2 (*)
 553:Drivers/STM32F1xx_HAL_Driver/Inc/stm32f1xx_ll_bus.h ****   *         @arg @ref LL_APB1_GRP1_PERIPH_SPI3 (*)
 554:Drivers/STM32F1xx_HAL_Driver/Inc/stm32f1xx_ll_bus.h ****   *         @arg @ref LL_APB1_GRP1_PERIPH_TIM12 (*)
 555:Drivers/STM32F1xx_HAL_Driver/Inc/stm32f1xx_ll_bus.h ****   *         @arg @ref LL_APB1_GRP1_PERIPH_TIM13 (*)
 556:Drivers/STM32F1xx_HAL_Driver/Inc/stm32f1xx_ll_bus.h ****   *         @arg @ref LL_APB1_GRP1_PERIPH_TIM14 (*)
 557:Drivers/STM32F1xx_HAL_Driver/Inc/stm32f1xx_ll_bus.h ****   *         @arg @ref LL_APB1_GRP1_PERIPH_TIM2
ARM GAS  /tmp/ccO145yx.s 			page 13


 558:Drivers/STM32F1xx_HAL_Driver/Inc/stm32f1xx_ll_bus.h ****   *         @arg @ref LL_APB1_GRP1_PERIPH_TIM3
 559:Drivers/STM32F1xx_HAL_Driver/Inc/stm32f1xx_ll_bus.h ****   *         @arg @ref LL_APB1_GRP1_PERIPH_TIM4 (*)
 560:Drivers/STM32F1xx_HAL_Driver/Inc/stm32f1xx_ll_bus.h ****   *         @arg @ref LL_APB1_GRP1_PERIPH_TIM5 (*)
 561:Drivers/STM32F1xx_HAL_Driver/Inc/stm32f1xx_ll_bus.h ****   *         @arg @ref LL_APB1_GRP1_PERIPH_TIM6 (*)
 562:Drivers/STM32F1xx_HAL_Driver/Inc/stm32f1xx_ll_bus.h ****   *         @arg @ref LL_APB1_GRP1_PERIPH_TIM7 (*)
 563:Drivers/STM32F1xx_HAL_Driver/Inc/stm32f1xx_ll_bus.h ****   *         @arg @ref LL_APB1_GRP1_PERIPH_UART4 (*)
 564:Drivers/STM32F1xx_HAL_Driver/Inc/stm32f1xx_ll_bus.h ****   *         @arg @ref LL_APB1_GRP1_PERIPH_UART5 (*)
 565:Drivers/STM32F1xx_HAL_Driver/Inc/stm32f1xx_ll_bus.h ****   *         @arg @ref LL_APB1_GRP1_PERIPH_USART2
 566:Drivers/STM32F1xx_HAL_Driver/Inc/stm32f1xx_ll_bus.h ****   *         @arg @ref LL_APB1_GRP1_PERIPH_USART3 (*)
 567:Drivers/STM32F1xx_HAL_Driver/Inc/stm32f1xx_ll_bus.h ****   *         @arg @ref LL_APB1_GRP1_PERIPH_USB (*)
 568:Drivers/STM32F1xx_HAL_Driver/Inc/stm32f1xx_ll_bus.h ****   *         @arg @ref LL_APB1_GRP1_PERIPH_WWDG
 569:Drivers/STM32F1xx_HAL_Driver/Inc/stm32f1xx_ll_bus.h ****   *
 570:Drivers/STM32F1xx_HAL_Driver/Inc/stm32f1xx_ll_bus.h ****   *         (*) value not defined in all devices.
 571:Drivers/STM32F1xx_HAL_Driver/Inc/stm32f1xx_ll_bus.h ****   * @retval None
 572:Drivers/STM32F1xx_HAL_Driver/Inc/stm32f1xx_ll_bus.h **** */
 573:Drivers/STM32F1xx_HAL_Driver/Inc/stm32f1xx_ll_bus.h **** __STATIC_INLINE void LL_APB1_GRP1_DisableClock(uint32_t Periphs)
 574:Drivers/STM32F1xx_HAL_Driver/Inc/stm32f1xx_ll_bus.h **** {
 575:Drivers/STM32F1xx_HAL_Driver/Inc/stm32f1xx_ll_bus.h ****   CLEAR_BIT(RCC->APB1ENR, Periphs);
 576:Drivers/STM32F1xx_HAL_Driver/Inc/stm32f1xx_ll_bus.h **** }
 577:Drivers/STM32F1xx_HAL_Driver/Inc/stm32f1xx_ll_bus.h **** 
 578:Drivers/STM32F1xx_HAL_Driver/Inc/stm32f1xx_ll_bus.h **** /**
 579:Drivers/STM32F1xx_HAL_Driver/Inc/stm32f1xx_ll_bus.h ****   * @brief  Force APB1 peripherals reset.
 580:Drivers/STM32F1xx_HAL_Driver/Inc/stm32f1xx_ll_bus.h ****   * @rmtoll APB1RSTR     BKPRST        LL_APB1_GRP1_ForceReset\n
 581:Drivers/STM32F1xx_HAL_Driver/Inc/stm32f1xx_ll_bus.h ****   *         APB1RSTR     CAN1RST       LL_APB1_GRP1_ForceReset\n
 582:Drivers/STM32F1xx_HAL_Driver/Inc/stm32f1xx_ll_bus.h ****   *         APB1RSTR     CAN2RST       LL_APB1_GRP1_ForceReset\n
 583:Drivers/STM32F1xx_HAL_Driver/Inc/stm32f1xx_ll_bus.h ****   *         APB1RSTR     CECRST        LL_APB1_GRP1_ForceReset\n
 584:Drivers/STM32F1xx_HAL_Driver/Inc/stm32f1xx_ll_bus.h ****   *         APB1RSTR     DACRST        LL_APB1_GRP1_ForceReset\n
 585:Drivers/STM32F1xx_HAL_Driver/Inc/stm32f1xx_ll_bus.h ****   *         APB1RSTR     I2C1RST       LL_APB1_GRP1_ForceReset\n
 586:Drivers/STM32F1xx_HAL_Driver/Inc/stm32f1xx_ll_bus.h ****   *         APB1RSTR     I2C2RST       LL_APB1_GRP1_ForceReset\n
 587:Drivers/STM32F1xx_HAL_Driver/Inc/stm32f1xx_ll_bus.h ****   *         APB1RSTR     PWRRST        LL_APB1_GRP1_ForceReset\n
 588:Drivers/STM32F1xx_HAL_Driver/Inc/stm32f1xx_ll_bus.h ****   *         APB1RSTR     SPI2RST       LL_APB1_GRP1_ForceReset\n
 589:Drivers/STM32F1xx_HAL_Driver/Inc/stm32f1xx_ll_bus.h ****   *         APB1RSTR     SPI3RST       LL_APB1_GRP1_ForceReset\n
 590:Drivers/STM32F1xx_HAL_Driver/Inc/stm32f1xx_ll_bus.h ****   *         APB1RSTR     TIM12RST      LL_APB1_GRP1_ForceReset\n
 591:Drivers/STM32F1xx_HAL_Driver/Inc/stm32f1xx_ll_bus.h ****   *         APB1RSTR     TIM13RST      LL_APB1_GRP1_ForceReset\n
 592:Drivers/STM32F1xx_HAL_Driver/Inc/stm32f1xx_ll_bus.h ****   *         APB1RSTR     TIM14RST      LL_APB1_GRP1_ForceReset\n
 593:Drivers/STM32F1xx_HAL_Driver/Inc/stm32f1xx_ll_bus.h ****   *         APB1RSTR     TIM2RST       LL_APB1_GRP1_ForceReset\n
 594:Drivers/STM32F1xx_HAL_Driver/Inc/stm32f1xx_ll_bus.h ****   *         APB1RSTR     TIM3RST       LL_APB1_GRP1_ForceReset\n
 595:Drivers/STM32F1xx_HAL_Driver/Inc/stm32f1xx_ll_bus.h ****   *         APB1RSTR     TIM4RST       LL_APB1_GRP1_ForceReset\n
 596:Drivers/STM32F1xx_HAL_Driver/Inc/stm32f1xx_ll_bus.h ****   *         APB1RSTR     TIM5RST       LL_APB1_GRP1_ForceReset\n
 597:Drivers/STM32F1xx_HAL_Driver/Inc/stm32f1xx_ll_bus.h ****   *         APB1RSTR     TIM6RST       LL_APB1_GRP1_ForceReset\n
 598:Drivers/STM32F1xx_HAL_Driver/Inc/stm32f1xx_ll_bus.h ****   *         APB1RSTR     TIM7RST       LL_APB1_GRP1_ForceReset\n
 599:Drivers/STM32F1xx_HAL_Driver/Inc/stm32f1xx_ll_bus.h ****   *         APB1RSTR     UART4RST      LL_APB1_GRP1_ForceReset\n
 600:Drivers/STM32F1xx_HAL_Driver/Inc/stm32f1xx_ll_bus.h ****   *         APB1RSTR     UART5RST      LL_APB1_GRP1_ForceReset\n
 601:Drivers/STM32F1xx_HAL_Driver/Inc/stm32f1xx_ll_bus.h ****   *         APB1RSTR     USART2RST     LL_APB1_GRP1_ForceReset\n
 602:Drivers/STM32F1xx_HAL_Driver/Inc/stm32f1xx_ll_bus.h ****   *         APB1RSTR     USART3RST     LL_APB1_GRP1_ForceReset\n
 603:Drivers/STM32F1xx_HAL_Driver/Inc/stm32f1xx_ll_bus.h ****   *         APB1RSTR     USBRST        LL_APB1_GRP1_ForceReset\n
 604:Drivers/STM32F1xx_HAL_Driver/Inc/stm32f1xx_ll_bus.h ****   *         APB1RSTR     WWDGRST       LL_APB1_GRP1_ForceReset
 605:Drivers/STM32F1xx_HAL_Driver/Inc/stm32f1xx_ll_bus.h ****   * @param  Periphs This parameter can be a combination of the following values:
 606:Drivers/STM32F1xx_HAL_Driver/Inc/stm32f1xx_ll_bus.h ****   *         @arg @ref LL_APB1_GRP1_PERIPH_ALL
 607:Drivers/STM32F1xx_HAL_Driver/Inc/stm32f1xx_ll_bus.h ****   *         @arg @ref LL_APB1_GRP1_PERIPH_BKP
 608:Drivers/STM32F1xx_HAL_Driver/Inc/stm32f1xx_ll_bus.h ****   *         @arg @ref LL_APB1_GRP1_PERIPH_CAN1 (*)
 609:Drivers/STM32F1xx_HAL_Driver/Inc/stm32f1xx_ll_bus.h ****   *         @arg @ref LL_APB1_GRP1_PERIPH_CAN2 (*)
 610:Drivers/STM32F1xx_HAL_Driver/Inc/stm32f1xx_ll_bus.h ****   *         @arg @ref LL_APB1_GRP1_PERIPH_CEC (*)
 611:Drivers/STM32F1xx_HAL_Driver/Inc/stm32f1xx_ll_bus.h ****   *         @arg @ref LL_APB1_GRP1_PERIPH_DAC1 (*)
 612:Drivers/STM32F1xx_HAL_Driver/Inc/stm32f1xx_ll_bus.h ****   *         @arg @ref LL_APB1_GRP1_PERIPH_I2C1
 613:Drivers/STM32F1xx_HAL_Driver/Inc/stm32f1xx_ll_bus.h ****   *         @arg @ref LL_APB1_GRP1_PERIPH_I2C2 (*)
 614:Drivers/STM32F1xx_HAL_Driver/Inc/stm32f1xx_ll_bus.h ****   *         @arg @ref LL_APB1_GRP1_PERIPH_PWR
ARM GAS  /tmp/ccO145yx.s 			page 14


 615:Drivers/STM32F1xx_HAL_Driver/Inc/stm32f1xx_ll_bus.h ****   *         @arg @ref LL_APB1_GRP1_PERIPH_SPI2 (*)
 616:Drivers/STM32F1xx_HAL_Driver/Inc/stm32f1xx_ll_bus.h ****   *         @arg @ref LL_APB1_GRP1_PERIPH_SPI3 (*)
 617:Drivers/STM32F1xx_HAL_Driver/Inc/stm32f1xx_ll_bus.h ****   *         @arg @ref LL_APB1_GRP1_PERIPH_TIM12 (*)
 618:Drivers/STM32F1xx_HAL_Driver/Inc/stm32f1xx_ll_bus.h ****   *         @arg @ref LL_APB1_GRP1_PERIPH_TIM13 (*)
 619:Drivers/STM32F1xx_HAL_Driver/Inc/stm32f1xx_ll_bus.h ****   *         @arg @ref LL_APB1_GRP1_PERIPH_TIM14 (*)
 620:Drivers/STM32F1xx_HAL_Driver/Inc/stm32f1xx_ll_bus.h ****   *         @arg @ref LL_APB1_GRP1_PERIPH_TIM2
 621:Drivers/STM32F1xx_HAL_Driver/Inc/stm32f1xx_ll_bus.h ****   *         @arg @ref LL_APB1_GRP1_PERIPH_TIM3
 622:Drivers/STM32F1xx_HAL_Driver/Inc/stm32f1xx_ll_bus.h ****   *         @arg @ref LL_APB1_GRP1_PERIPH_TIM4 (*)
 623:Drivers/STM32F1xx_HAL_Driver/Inc/stm32f1xx_ll_bus.h ****   *         @arg @ref LL_APB1_GRP1_PERIPH_TIM5 (*)
 624:Drivers/STM32F1xx_HAL_Driver/Inc/stm32f1xx_ll_bus.h ****   *         @arg @ref LL_APB1_GRP1_PERIPH_TIM6 (*)
 625:Drivers/STM32F1xx_HAL_Driver/Inc/stm32f1xx_ll_bus.h ****   *         @arg @ref LL_APB1_GRP1_PERIPH_TIM7 (*)
 626:Drivers/STM32F1xx_HAL_Driver/Inc/stm32f1xx_ll_bus.h ****   *         @arg @ref LL_APB1_GRP1_PERIPH_UART4 (*)
 627:Drivers/STM32F1xx_HAL_Driver/Inc/stm32f1xx_ll_bus.h ****   *         @arg @ref LL_APB1_GRP1_PERIPH_UART5 (*)
 628:Drivers/STM32F1xx_HAL_Driver/Inc/stm32f1xx_ll_bus.h ****   *         @arg @ref LL_APB1_GRP1_PERIPH_USART2
 629:Drivers/STM32F1xx_HAL_Driver/Inc/stm32f1xx_ll_bus.h ****   *         @arg @ref LL_APB1_GRP1_PERIPH_USART3 (*)
 630:Drivers/STM32F1xx_HAL_Driver/Inc/stm32f1xx_ll_bus.h ****   *         @arg @ref LL_APB1_GRP1_PERIPH_USB (*)
 631:Drivers/STM32F1xx_HAL_Driver/Inc/stm32f1xx_ll_bus.h ****   *         @arg @ref LL_APB1_GRP1_PERIPH_WWDG
 632:Drivers/STM32F1xx_HAL_Driver/Inc/stm32f1xx_ll_bus.h ****   *
 633:Drivers/STM32F1xx_HAL_Driver/Inc/stm32f1xx_ll_bus.h ****   *         (*) value not defined in all devices.
 634:Drivers/STM32F1xx_HAL_Driver/Inc/stm32f1xx_ll_bus.h ****   * @retval None
 635:Drivers/STM32F1xx_HAL_Driver/Inc/stm32f1xx_ll_bus.h **** */
 636:Drivers/STM32F1xx_HAL_Driver/Inc/stm32f1xx_ll_bus.h **** __STATIC_INLINE void LL_APB1_GRP1_ForceReset(uint32_t Periphs)
 637:Drivers/STM32F1xx_HAL_Driver/Inc/stm32f1xx_ll_bus.h **** {
 638:Drivers/STM32F1xx_HAL_Driver/Inc/stm32f1xx_ll_bus.h ****   SET_BIT(RCC->APB1RSTR, Periphs);
 639:Drivers/STM32F1xx_HAL_Driver/Inc/stm32f1xx_ll_bus.h **** }
 640:Drivers/STM32F1xx_HAL_Driver/Inc/stm32f1xx_ll_bus.h **** 
 641:Drivers/STM32F1xx_HAL_Driver/Inc/stm32f1xx_ll_bus.h **** /**
 642:Drivers/STM32F1xx_HAL_Driver/Inc/stm32f1xx_ll_bus.h ****   * @brief  Release APB1 peripherals reset.
 643:Drivers/STM32F1xx_HAL_Driver/Inc/stm32f1xx_ll_bus.h ****   * @rmtoll APB1RSTR     BKPRST        LL_APB1_GRP1_ReleaseReset\n
 644:Drivers/STM32F1xx_HAL_Driver/Inc/stm32f1xx_ll_bus.h ****   *         APB1RSTR     CAN1RST       LL_APB1_GRP1_ReleaseReset\n
 645:Drivers/STM32F1xx_HAL_Driver/Inc/stm32f1xx_ll_bus.h ****   *         APB1RSTR     CAN2RST       LL_APB1_GRP1_ReleaseReset\n
 646:Drivers/STM32F1xx_HAL_Driver/Inc/stm32f1xx_ll_bus.h ****   *         APB1RSTR     CECRST        LL_APB1_GRP1_ReleaseReset\n
 647:Drivers/STM32F1xx_HAL_Driver/Inc/stm32f1xx_ll_bus.h ****   *         APB1RSTR     DACRST        LL_APB1_GRP1_ReleaseReset\n
 648:Drivers/STM32F1xx_HAL_Driver/Inc/stm32f1xx_ll_bus.h ****   *         APB1RSTR     I2C1RST       LL_APB1_GRP1_ReleaseReset\n
 649:Drivers/STM32F1xx_HAL_Driver/Inc/stm32f1xx_ll_bus.h ****   *         APB1RSTR     I2C2RST       LL_APB1_GRP1_ReleaseReset\n
 650:Drivers/STM32F1xx_HAL_Driver/Inc/stm32f1xx_ll_bus.h ****   *         APB1RSTR     PWRRST        LL_APB1_GRP1_ReleaseReset\n
 651:Drivers/STM32F1xx_HAL_Driver/Inc/stm32f1xx_ll_bus.h ****   *         APB1RSTR     SPI2RST       LL_APB1_GRP1_ReleaseReset\n
 652:Drivers/STM32F1xx_HAL_Driver/Inc/stm32f1xx_ll_bus.h ****   *         APB1RSTR     SPI3RST       LL_APB1_GRP1_ReleaseReset\n
 653:Drivers/STM32F1xx_HAL_Driver/Inc/stm32f1xx_ll_bus.h ****   *         APB1RSTR     TIM12RST      LL_APB1_GRP1_ReleaseReset\n
 654:Drivers/STM32F1xx_HAL_Driver/Inc/stm32f1xx_ll_bus.h ****   *         APB1RSTR     TIM13RST      LL_APB1_GRP1_ReleaseReset\n
 655:Drivers/STM32F1xx_HAL_Driver/Inc/stm32f1xx_ll_bus.h ****   *         APB1RSTR     TIM14RST      LL_APB1_GRP1_ReleaseReset\n
 656:Drivers/STM32F1xx_HAL_Driver/Inc/stm32f1xx_ll_bus.h ****   *         APB1RSTR     TIM2RST       LL_APB1_GRP1_ReleaseReset\n
 657:Drivers/STM32F1xx_HAL_Driver/Inc/stm32f1xx_ll_bus.h ****   *         APB1RSTR     TIM3RST       LL_APB1_GRP1_ReleaseReset\n
 658:Drivers/STM32F1xx_HAL_Driver/Inc/stm32f1xx_ll_bus.h ****   *         APB1RSTR     TIM4RST       LL_APB1_GRP1_ReleaseReset\n
 659:Drivers/STM32F1xx_HAL_Driver/Inc/stm32f1xx_ll_bus.h ****   *         APB1RSTR     TIM5RST       LL_APB1_GRP1_ReleaseReset\n
 660:Drivers/STM32F1xx_HAL_Driver/Inc/stm32f1xx_ll_bus.h ****   *         APB1RSTR     TIM6RST       LL_APB1_GRP1_ReleaseReset\n
 661:Drivers/STM32F1xx_HAL_Driver/Inc/stm32f1xx_ll_bus.h ****   *         APB1RSTR     TIM7RST       LL_APB1_GRP1_ReleaseReset\n
 662:Drivers/STM32F1xx_HAL_Driver/Inc/stm32f1xx_ll_bus.h ****   *         APB1RSTR     UART4RST      LL_APB1_GRP1_ReleaseReset\n
 663:Drivers/STM32F1xx_HAL_Driver/Inc/stm32f1xx_ll_bus.h ****   *         APB1RSTR     UART5RST      LL_APB1_GRP1_ReleaseReset\n
 664:Drivers/STM32F1xx_HAL_Driver/Inc/stm32f1xx_ll_bus.h ****   *         APB1RSTR     USART2RST     LL_APB1_GRP1_ReleaseReset\n
 665:Drivers/STM32F1xx_HAL_Driver/Inc/stm32f1xx_ll_bus.h ****   *         APB1RSTR     USART3RST     LL_APB1_GRP1_ReleaseReset\n
 666:Drivers/STM32F1xx_HAL_Driver/Inc/stm32f1xx_ll_bus.h ****   *         APB1RSTR     USBRST        LL_APB1_GRP1_ReleaseReset\n
 667:Drivers/STM32F1xx_HAL_Driver/Inc/stm32f1xx_ll_bus.h ****   *         APB1RSTR     WWDGRST       LL_APB1_GRP1_ReleaseReset
 668:Drivers/STM32F1xx_HAL_Driver/Inc/stm32f1xx_ll_bus.h ****   * @param  Periphs This parameter can be a combination of the following values:
 669:Drivers/STM32F1xx_HAL_Driver/Inc/stm32f1xx_ll_bus.h ****   *         @arg @ref LL_APB1_GRP1_PERIPH_ALL
 670:Drivers/STM32F1xx_HAL_Driver/Inc/stm32f1xx_ll_bus.h ****   *         @arg @ref LL_APB1_GRP1_PERIPH_BKP
 671:Drivers/STM32F1xx_HAL_Driver/Inc/stm32f1xx_ll_bus.h ****   *         @arg @ref LL_APB1_GRP1_PERIPH_CAN1 (*)
ARM GAS  /tmp/ccO145yx.s 			page 15


 672:Drivers/STM32F1xx_HAL_Driver/Inc/stm32f1xx_ll_bus.h ****   *         @arg @ref LL_APB1_GRP1_PERIPH_CAN2 (*)
 673:Drivers/STM32F1xx_HAL_Driver/Inc/stm32f1xx_ll_bus.h ****   *         @arg @ref LL_APB1_GRP1_PERIPH_CEC (*)
 674:Drivers/STM32F1xx_HAL_Driver/Inc/stm32f1xx_ll_bus.h ****   *         @arg @ref LL_APB1_GRP1_PERIPH_DAC1 (*)
 675:Drivers/STM32F1xx_HAL_Driver/Inc/stm32f1xx_ll_bus.h ****   *         @arg @ref LL_APB1_GRP1_PERIPH_I2C1
 676:Drivers/STM32F1xx_HAL_Driver/Inc/stm32f1xx_ll_bus.h ****   *         @arg @ref LL_APB1_GRP1_PERIPH_I2C2 (*)
 677:Drivers/STM32F1xx_HAL_Driver/Inc/stm32f1xx_ll_bus.h ****   *         @arg @ref LL_APB1_GRP1_PERIPH_PWR
 678:Drivers/STM32F1xx_HAL_Driver/Inc/stm32f1xx_ll_bus.h ****   *         @arg @ref LL_APB1_GRP1_PERIPH_SPI2 (*)
 679:Drivers/STM32F1xx_HAL_Driver/Inc/stm32f1xx_ll_bus.h ****   *         @arg @ref LL_APB1_GRP1_PERIPH_SPI3 (*)
 680:Drivers/STM32F1xx_HAL_Driver/Inc/stm32f1xx_ll_bus.h ****   *         @arg @ref LL_APB1_GRP1_PERIPH_TIM12 (*)
 681:Drivers/STM32F1xx_HAL_Driver/Inc/stm32f1xx_ll_bus.h ****   *         @arg @ref LL_APB1_GRP1_PERIPH_TIM13 (*)
 682:Drivers/STM32F1xx_HAL_Driver/Inc/stm32f1xx_ll_bus.h ****   *         @arg @ref LL_APB1_GRP1_PERIPH_TIM14 (*)
 683:Drivers/STM32F1xx_HAL_Driver/Inc/stm32f1xx_ll_bus.h ****   *         @arg @ref LL_APB1_GRP1_PERIPH_TIM2
 684:Drivers/STM32F1xx_HAL_Driver/Inc/stm32f1xx_ll_bus.h ****   *         @arg @ref LL_APB1_GRP1_PERIPH_TIM3
 685:Drivers/STM32F1xx_HAL_Driver/Inc/stm32f1xx_ll_bus.h ****   *         @arg @ref LL_APB1_GRP1_PERIPH_TIM4 (*)
 686:Drivers/STM32F1xx_HAL_Driver/Inc/stm32f1xx_ll_bus.h ****   *         @arg @ref LL_APB1_GRP1_PERIPH_TIM5 (*)
 687:Drivers/STM32F1xx_HAL_Driver/Inc/stm32f1xx_ll_bus.h ****   *         @arg @ref LL_APB1_GRP1_PERIPH_TIM6 (*)
 688:Drivers/STM32F1xx_HAL_Driver/Inc/stm32f1xx_ll_bus.h ****   *         @arg @ref LL_APB1_GRP1_PERIPH_TIM7 (*)
 689:Drivers/STM32F1xx_HAL_Driver/Inc/stm32f1xx_ll_bus.h ****   *         @arg @ref LL_APB1_GRP1_PERIPH_UART4 (*)
 690:Drivers/STM32F1xx_HAL_Driver/Inc/stm32f1xx_ll_bus.h ****   *         @arg @ref LL_APB1_GRP1_PERIPH_UART5 (*)
 691:Drivers/STM32F1xx_HAL_Driver/Inc/stm32f1xx_ll_bus.h ****   *         @arg @ref LL_APB1_GRP1_PERIPH_USART2
 692:Drivers/STM32F1xx_HAL_Driver/Inc/stm32f1xx_ll_bus.h ****   *         @arg @ref LL_APB1_GRP1_PERIPH_USART3 (*)
 693:Drivers/STM32F1xx_HAL_Driver/Inc/stm32f1xx_ll_bus.h ****   *         @arg @ref LL_APB1_GRP1_PERIPH_USB (*)
 694:Drivers/STM32F1xx_HAL_Driver/Inc/stm32f1xx_ll_bus.h ****   *         @arg @ref LL_APB1_GRP1_PERIPH_WWDG
 695:Drivers/STM32F1xx_HAL_Driver/Inc/stm32f1xx_ll_bus.h ****   *
 696:Drivers/STM32F1xx_HAL_Driver/Inc/stm32f1xx_ll_bus.h ****   *         (*) value not defined in all devices.
 697:Drivers/STM32F1xx_HAL_Driver/Inc/stm32f1xx_ll_bus.h ****   * @retval None
 698:Drivers/STM32F1xx_HAL_Driver/Inc/stm32f1xx_ll_bus.h **** */
 699:Drivers/STM32F1xx_HAL_Driver/Inc/stm32f1xx_ll_bus.h **** __STATIC_INLINE void LL_APB1_GRP1_ReleaseReset(uint32_t Periphs)
 700:Drivers/STM32F1xx_HAL_Driver/Inc/stm32f1xx_ll_bus.h **** {
 701:Drivers/STM32F1xx_HAL_Driver/Inc/stm32f1xx_ll_bus.h ****   CLEAR_BIT(RCC->APB1RSTR, Periphs);
 702:Drivers/STM32F1xx_HAL_Driver/Inc/stm32f1xx_ll_bus.h **** }
 703:Drivers/STM32F1xx_HAL_Driver/Inc/stm32f1xx_ll_bus.h **** 
 704:Drivers/STM32F1xx_HAL_Driver/Inc/stm32f1xx_ll_bus.h **** /**
 705:Drivers/STM32F1xx_HAL_Driver/Inc/stm32f1xx_ll_bus.h ****   * @}
 706:Drivers/STM32F1xx_HAL_Driver/Inc/stm32f1xx_ll_bus.h ****   */
 707:Drivers/STM32F1xx_HAL_Driver/Inc/stm32f1xx_ll_bus.h **** 
 708:Drivers/STM32F1xx_HAL_Driver/Inc/stm32f1xx_ll_bus.h **** /** @defgroup BUS_LL_EF_APB2 APB2
 709:Drivers/STM32F1xx_HAL_Driver/Inc/stm32f1xx_ll_bus.h ****   * @{
 710:Drivers/STM32F1xx_HAL_Driver/Inc/stm32f1xx_ll_bus.h ****   */
 711:Drivers/STM32F1xx_HAL_Driver/Inc/stm32f1xx_ll_bus.h **** 
 712:Drivers/STM32F1xx_HAL_Driver/Inc/stm32f1xx_ll_bus.h **** /**
 713:Drivers/STM32F1xx_HAL_Driver/Inc/stm32f1xx_ll_bus.h ****   * @brief  Enable APB2 peripherals clock.
 714:Drivers/STM32F1xx_HAL_Driver/Inc/stm32f1xx_ll_bus.h ****   * @rmtoll APB2ENR      ADC1EN        LL_APB2_GRP1_EnableClock\n
 715:Drivers/STM32F1xx_HAL_Driver/Inc/stm32f1xx_ll_bus.h ****   *         APB2ENR      ADC2EN        LL_APB2_GRP1_EnableClock\n
 716:Drivers/STM32F1xx_HAL_Driver/Inc/stm32f1xx_ll_bus.h ****   *         APB2ENR      ADC3EN        LL_APB2_GRP1_EnableClock\n
 717:Drivers/STM32F1xx_HAL_Driver/Inc/stm32f1xx_ll_bus.h ****   *         APB2ENR      AFIOEN        LL_APB2_GRP1_EnableClock\n
 718:Drivers/STM32F1xx_HAL_Driver/Inc/stm32f1xx_ll_bus.h ****   *         APB2ENR      IOPAEN        LL_APB2_GRP1_EnableClock\n
 719:Drivers/STM32F1xx_HAL_Driver/Inc/stm32f1xx_ll_bus.h ****   *         APB2ENR      IOPBEN        LL_APB2_GRP1_EnableClock\n
 720:Drivers/STM32F1xx_HAL_Driver/Inc/stm32f1xx_ll_bus.h ****   *         APB2ENR      IOPCEN        LL_APB2_GRP1_EnableClock\n
 721:Drivers/STM32F1xx_HAL_Driver/Inc/stm32f1xx_ll_bus.h ****   *         APB2ENR      IOPDEN        LL_APB2_GRP1_EnableClock\n
 722:Drivers/STM32F1xx_HAL_Driver/Inc/stm32f1xx_ll_bus.h ****   *         APB2ENR      IOPEEN        LL_APB2_GRP1_EnableClock\n
 723:Drivers/STM32F1xx_HAL_Driver/Inc/stm32f1xx_ll_bus.h ****   *         APB2ENR      IOPFEN        LL_APB2_GRP1_EnableClock\n
 724:Drivers/STM32F1xx_HAL_Driver/Inc/stm32f1xx_ll_bus.h ****   *         APB2ENR      IOPGEN        LL_APB2_GRP1_EnableClock\n
 725:Drivers/STM32F1xx_HAL_Driver/Inc/stm32f1xx_ll_bus.h ****   *         APB2ENR      SPI1EN        LL_APB2_GRP1_EnableClock\n
 726:Drivers/STM32F1xx_HAL_Driver/Inc/stm32f1xx_ll_bus.h ****   *         APB2ENR      TIM10EN       LL_APB2_GRP1_EnableClock\n
 727:Drivers/STM32F1xx_HAL_Driver/Inc/stm32f1xx_ll_bus.h ****   *         APB2ENR      TIM11EN       LL_APB2_GRP1_EnableClock\n
 728:Drivers/STM32F1xx_HAL_Driver/Inc/stm32f1xx_ll_bus.h ****   *         APB2ENR      TIM15EN       LL_APB2_GRP1_EnableClock\n
ARM GAS  /tmp/ccO145yx.s 			page 16


 729:Drivers/STM32F1xx_HAL_Driver/Inc/stm32f1xx_ll_bus.h ****   *         APB2ENR      TIM16EN       LL_APB2_GRP1_EnableClock\n
 730:Drivers/STM32F1xx_HAL_Driver/Inc/stm32f1xx_ll_bus.h ****   *         APB2ENR      TIM17EN       LL_APB2_GRP1_EnableClock\n
 731:Drivers/STM32F1xx_HAL_Driver/Inc/stm32f1xx_ll_bus.h ****   *         APB2ENR      TIM1EN        LL_APB2_GRP1_EnableClock\n
 732:Drivers/STM32F1xx_HAL_Driver/Inc/stm32f1xx_ll_bus.h ****   *         APB2ENR      TIM8EN        LL_APB2_GRP1_EnableClock\n
 733:Drivers/STM32F1xx_HAL_Driver/Inc/stm32f1xx_ll_bus.h ****   *         APB2ENR      TIM9EN        LL_APB2_GRP1_EnableClock\n
 734:Drivers/STM32F1xx_HAL_Driver/Inc/stm32f1xx_ll_bus.h ****   *         APB2ENR      USART1EN      LL_APB2_GRP1_EnableClock
 735:Drivers/STM32F1xx_HAL_Driver/Inc/stm32f1xx_ll_bus.h ****   * @param  Periphs This parameter can be a combination of the following values:
 736:Drivers/STM32F1xx_HAL_Driver/Inc/stm32f1xx_ll_bus.h ****   *         @arg @ref LL_APB2_GRP1_PERIPH_ADC1
 737:Drivers/STM32F1xx_HAL_Driver/Inc/stm32f1xx_ll_bus.h ****   *         @arg @ref LL_APB2_GRP1_PERIPH_ADC2 (*)
 738:Drivers/STM32F1xx_HAL_Driver/Inc/stm32f1xx_ll_bus.h ****   *         @arg @ref LL_APB2_GRP1_PERIPH_ADC3 (*)
 739:Drivers/STM32F1xx_HAL_Driver/Inc/stm32f1xx_ll_bus.h ****   *         @arg @ref LL_APB2_GRP1_PERIPH_AFIO
 740:Drivers/STM32F1xx_HAL_Driver/Inc/stm32f1xx_ll_bus.h ****   *         @arg @ref LL_APB2_GRP1_PERIPH_GPIOA
 741:Drivers/STM32F1xx_HAL_Driver/Inc/stm32f1xx_ll_bus.h ****   *         @arg @ref LL_APB2_GRP1_PERIPH_GPIOB
 742:Drivers/STM32F1xx_HAL_Driver/Inc/stm32f1xx_ll_bus.h ****   *         @arg @ref LL_APB2_GRP1_PERIPH_GPIOC
 743:Drivers/STM32F1xx_HAL_Driver/Inc/stm32f1xx_ll_bus.h ****   *         @arg @ref LL_APB2_GRP1_PERIPH_GPIOD
 744:Drivers/STM32F1xx_HAL_Driver/Inc/stm32f1xx_ll_bus.h ****   *         @arg @ref LL_APB2_GRP1_PERIPH_GPIOE (*)
 745:Drivers/STM32F1xx_HAL_Driver/Inc/stm32f1xx_ll_bus.h ****   *         @arg @ref LL_APB2_GRP1_PERIPH_GPIOF (*)
 746:Drivers/STM32F1xx_HAL_Driver/Inc/stm32f1xx_ll_bus.h ****   *         @arg @ref LL_APB2_GRP1_PERIPH_GPIOG (*)
 747:Drivers/STM32F1xx_HAL_Driver/Inc/stm32f1xx_ll_bus.h ****   *         @arg @ref LL_APB2_GRP1_PERIPH_SPI1
 748:Drivers/STM32F1xx_HAL_Driver/Inc/stm32f1xx_ll_bus.h ****   *         @arg @ref LL_APB2_GRP1_PERIPH_TIM10 (*)
 749:Drivers/STM32F1xx_HAL_Driver/Inc/stm32f1xx_ll_bus.h ****   *         @arg @ref LL_APB2_GRP1_PERIPH_TIM11 (*)
 750:Drivers/STM32F1xx_HAL_Driver/Inc/stm32f1xx_ll_bus.h ****   *         @arg @ref LL_APB2_GRP1_PERIPH_TIM15 (*)
 751:Drivers/STM32F1xx_HAL_Driver/Inc/stm32f1xx_ll_bus.h ****   *         @arg @ref LL_APB2_GRP1_PERIPH_TIM16 (*)
 752:Drivers/STM32F1xx_HAL_Driver/Inc/stm32f1xx_ll_bus.h ****   *         @arg @ref LL_APB2_GRP1_PERIPH_TIM17 (*)
 753:Drivers/STM32F1xx_HAL_Driver/Inc/stm32f1xx_ll_bus.h ****   *         @arg @ref LL_APB2_GRP1_PERIPH_TIM1
 754:Drivers/STM32F1xx_HAL_Driver/Inc/stm32f1xx_ll_bus.h ****   *         @arg @ref LL_APB2_GRP1_PERIPH_TIM8 (*)
 755:Drivers/STM32F1xx_HAL_Driver/Inc/stm32f1xx_ll_bus.h ****   *         @arg @ref LL_APB2_GRP1_PERIPH_TIM9 (*)
 756:Drivers/STM32F1xx_HAL_Driver/Inc/stm32f1xx_ll_bus.h ****   *         @arg @ref LL_APB2_GRP1_PERIPH_USART1
 757:Drivers/STM32F1xx_HAL_Driver/Inc/stm32f1xx_ll_bus.h ****   *
 758:Drivers/STM32F1xx_HAL_Driver/Inc/stm32f1xx_ll_bus.h ****   *         (*) value not defined in all devices.
 759:Drivers/STM32F1xx_HAL_Driver/Inc/stm32f1xx_ll_bus.h ****   * @retval None
 760:Drivers/STM32F1xx_HAL_Driver/Inc/stm32f1xx_ll_bus.h **** */
 761:Drivers/STM32F1xx_HAL_Driver/Inc/stm32f1xx_ll_bus.h **** __STATIC_INLINE void LL_APB2_GRP1_EnableClock(uint32_t Periphs)
  83              		.loc 2 761 22 view .LVU15
  84              	.LBB66:
 762:Drivers/STM32F1xx_HAL_Driver/Inc/stm32f1xx_ll_bus.h **** {
 763:Drivers/STM32F1xx_HAL_Driver/Inc/stm32f1xx_ll_bus.h ****   __IO uint32_t tmpreg;
  85              		.loc 2 763 3 view .LVU16
 764:Drivers/STM32F1xx_HAL_Driver/Inc/stm32f1xx_ll_bus.h ****   SET_BIT(RCC->APB2ENR, Periphs);
  86              		.loc 2 764 3 view .LVU17
  87 002e 9A69     		ldr	r2, [r3, #24]
  88 0030 42F00802 		orr	r2, r2, #8
  89 0034 9A61     		str	r2, [r3, #24]
 765:Drivers/STM32F1xx_HAL_Driver/Inc/stm32f1xx_ll_bus.h ****   /* Delay after an RCC peripheral clock enabling */
 766:Drivers/STM32F1xx_HAL_Driver/Inc/stm32f1xx_ll_bus.h ****   tmpreg = READ_BIT(RCC->APB2ENR, Periphs);
  90              		.loc 2 766 3 view .LVU18
  91              		.loc 2 766 12 is_stmt 0 view .LVU19
  92 0036 9B69     		ldr	r3, [r3, #24]
  93 0038 03F00803 		and	r3, r3, #8
  94              		.loc 2 766 10 view .LVU20
  95 003c 0193     		str	r3, [sp, #4]
 767:Drivers/STM32F1xx_HAL_Driver/Inc/stm32f1xx_ll_bus.h ****   (void)tmpreg;
  96              		.loc 2 767 3 is_stmt 1 view .LVU21
  97 003e 019B     		ldr	r3, [sp, #4]
  98              	.LVL3:
  99              		.loc 2 767 3 is_stmt 0 view .LVU22
 100              	.LBE66:
ARM GAS  /tmp/ccO145yx.s 			page 17


 101              	.LBE65:
  47:Core/Src/spi.c ****   /**SPI2 GPIO Configuration
  48:Core/Src/spi.c ****   PB13   ------> SPI2_SCK
  49:Core/Src/spi.c ****   PB15   ------> SPI2_MOSI
  50:Core/Src/spi.c ****   */
  51:Core/Src/spi.c ****   GPIO_InitStruct.Pin = DISP_SCK_Pin|DISP_MOSI_Pin;
 102              		.loc 1 51 3 is_stmt 1 view .LVU23
 103              		.loc 1 51 23 is_stmt 0 view .LVU24
 104 0040 2E4B     		ldr	r3, .L3+4
 105 0042 0393     		str	r3, [sp, #12]
  52:Core/Src/spi.c ****   GPIO_InitStruct.Mode = LL_GPIO_MODE_ALTERNATE;
 106              		.loc 1 52 3 is_stmt 1 view .LVU25
 107              		.loc 1 52 24 is_stmt 0 view .LVU26
 108 0044 0923     		movs	r3, #9
 109 0046 0493     		str	r3, [sp, #16]
  53:Core/Src/spi.c ****   GPIO_InitStruct.Speed = LL_GPIO_SPEED_FREQ_HIGH;
 110              		.loc 1 53 3 is_stmt 1 view .LVU27
 111              		.loc 1 53 25 is_stmt 0 view .LVU28
 112 0048 0323     		movs	r3, #3
 113 004a 0593     		str	r3, [sp, #20]
  54:Core/Src/spi.c ****   GPIO_InitStruct.OutputType = LL_GPIO_OUTPUT_PUSHPULL;
 114              		.loc 1 54 3 is_stmt 1 view .LVU29
  55:Core/Src/spi.c ****   LL_GPIO_Init(GPIOB, &GPIO_InitStruct);
 115              		.loc 1 55 3 view .LVU30
 116 004c 03A9     		add	r1, sp, #12
 117 004e 2C48     		ldr	r0, .L3+8
 118 0050 FFF7FEFF 		bl	LL_GPIO_Init
 119              	.LVL4:
  56:Core/Src/spi.c **** 
  57:Core/Src/spi.c ****   /* SPI2 DMA Init */
  58:Core/Src/spi.c **** 
  59:Core/Src/spi.c ****   /* SPI2_TX Init */
  60:Core/Src/spi.c ****   LL_DMA_SetDataTransferDirection(DMA1, LL_DMA_CHANNEL_5, LL_DMA_DIRECTION_MEMORY_TO_PERIPH);
 120              		.loc 1 60 3 view .LVU31
 121              	.LBB67:
 122              	.LBI67:
 123              		.file 3 "Drivers/STM32F1xx_HAL_Driver/Inc/stm32f1xx_ll_dma.h"
   1:Drivers/STM32F1xx_HAL_Driver/Inc/stm32f1xx_ll_dma.h **** /**
   2:Drivers/STM32F1xx_HAL_Driver/Inc/stm32f1xx_ll_dma.h ****   ******************************************************************************
   3:Drivers/STM32F1xx_HAL_Driver/Inc/stm32f1xx_ll_dma.h ****   * @file    stm32f1xx_ll_dma.h
   4:Drivers/STM32F1xx_HAL_Driver/Inc/stm32f1xx_ll_dma.h ****   * @author  MCD Application Team
   5:Drivers/STM32F1xx_HAL_Driver/Inc/stm32f1xx_ll_dma.h ****   * @brief   Header file of DMA LL module.
   6:Drivers/STM32F1xx_HAL_Driver/Inc/stm32f1xx_ll_dma.h ****   ******************************************************************************
   7:Drivers/STM32F1xx_HAL_Driver/Inc/stm32f1xx_ll_dma.h ****   * @attention
   8:Drivers/STM32F1xx_HAL_Driver/Inc/stm32f1xx_ll_dma.h ****   *
   9:Drivers/STM32F1xx_HAL_Driver/Inc/stm32f1xx_ll_dma.h ****   * Copyright (c) 2016 STMicroelectronics.
  10:Drivers/STM32F1xx_HAL_Driver/Inc/stm32f1xx_ll_dma.h ****   * All rights reserved.
  11:Drivers/STM32F1xx_HAL_Driver/Inc/stm32f1xx_ll_dma.h ****   *
  12:Drivers/STM32F1xx_HAL_Driver/Inc/stm32f1xx_ll_dma.h ****   * This software is licensed under terms that can be found in the LICENSE file in
  13:Drivers/STM32F1xx_HAL_Driver/Inc/stm32f1xx_ll_dma.h ****   * the root directory of this software component.
  14:Drivers/STM32F1xx_HAL_Driver/Inc/stm32f1xx_ll_dma.h ****   * If no LICENSE file comes with this software, it is provided AS-IS.
  15:Drivers/STM32F1xx_HAL_Driver/Inc/stm32f1xx_ll_dma.h ****   *
  16:Drivers/STM32F1xx_HAL_Driver/Inc/stm32f1xx_ll_dma.h ****   ******************************************************************************
  17:Drivers/STM32F1xx_HAL_Driver/Inc/stm32f1xx_ll_dma.h ****   */
  18:Drivers/STM32F1xx_HAL_Driver/Inc/stm32f1xx_ll_dma.h **** 
  19:Drivers/STM32F1xx_HAL_Driver/Inc/stm32f1xx_ll_dma.h **** /* Define to prevent recursive inclusion -------------------------------------*/
  20:Drivers/STM32F1xx_HAL_Driver/Inc/stm32f1xx_ll_dma.h **** #ifndef __STM32F1xx_LL_DMA_H
ARM GAS  /tmp/ccO145yx.s 			page 18


  21:Drivers/STM32F1xx_HAL_Driver/Inc/stm32f1xx_ll_dma.h **** #define __STM32F1xx_LL_DMA_H
  22:Drivers/STM32F1xx_HAL_Driver/Inc/stm32f1xx_ll_dma.h **** 
  23:Drivers/STM32F1xx_HAL_Driver/Inc/stm32f1xx_ll_dma.h **** #ifdef __cplusplus
  24:Drivers/STM32F1xx_HAL_Driver/Inc/stm32f1xx_ll_dma.h **** extern "C" {
  25:Drivers/STM32F1xx_HAL_Driver/Inc/stm32f1xx_ll_dma.h **** #endif
  26:Drivers/STM32F1xx_HAL_Driver/Inc/stm32f1xx_ll_dma.h **** 
  27:Drivers/STM32F1xx_HAL_Driver/Inc/stm32f1xx_ll_dma.h **** /* Includes ------------------------------------------------------------------*/
  28:Drivers/STM32F1xx_HAL_Driver/Inc/stm32f1xx_ll_dma.h **** #include "stm32f1xx.h"
  29:Drivers/STM32F1xx_HAL_Driver/Inc/stm32f1xx_ll_dma.h **** 
  30:Drivers/STM32F1xx_HAL_Driver/Inc/stm32f1xx_ll_dma.h **** /** @addtogroup STM32F1xx_LL_Driver
  31:Drivers/STM32F1xx_HAL_Driver/Inc/stm32f1xx_ll_dma.h ****   * @{
  32:Drivers/STM32F1xx_HAL_Driver/Inc/stm32f1xx_ll_dma.h ****   */
  33:Drivers/STM32F1xx_HAL_Driver/Inc/stm32f1xx_ll_dma.h **** 
  34:Drivers/STM32F1xx_HAL_Driver/Inc/stm32f1xx_ll_dma.h **** #if defined (DMA1) || defined (DMA2)
  35:Drivers/STM32F1xx_HAL_Driver/Inc/stm32f1xx_ll_dma.h **** 
  36:Drivers/STM32F1xx_HAL_Driver/Inc/stm32f1xx_ll_dma.h **** /** @defgroup DMA_LL DMA
  37:Drivers/STM32F1xx_HAL_Driver/Inc/stm32f1xx_ll_dma.h ****   * @{
  38:Drivers/STM32F1xx_HAL_Driver/Inc/stm32f1xx_ll_dma.h ****   */
  39:Drivers/STM32F1xx_HAL_Driver/Inc/stm32f1xx_ll_dma.h **** 
  40:Drivers/STM32F1xx_HAL_Driver/Inc/stm32f1xx_ll_dma.h **** /* Private types -------------------------------------------------------------*/
  41:Drivers/STM32F1xx_HAL_Driver/Inc/stm32f1xx_ll_dma.h **** /* Private variables ---------------------------------------------------------*/
  42:Drivers/STM32F1xx_HAL_Driver/Inc/stm32f1xx_ll_dma.h **** /** @defgroup DMA_LL_Private_Variables DMA Private Variables
  43:Drivers/STM32F1xx_HAL_Driver/Inc/stm32f1xx_ll_dma.h ****   * @{
  44:Drivers/STM32F1xx_HAL_Driver/Inc/stm32f1xx_ll_dma.h ****   */
  45:Drivers/STM32F1xx_HAL_Driver/Inc/stm32f1xx_ll_dma.h **** /* Array used to get the DMA channel register offset versus channel index LL_DMA_CHANNEL_x */
  46:Drivers/STM32F1xx_HAL_Driver/Inc/stm32f1xx_ll_dma.h **** static const uint8_t CHANNEL_OFFSET_TAB[] =
  47:Drivers/STM32F1xx_HAL_Driver/Inc/stm32f1xx_ll_dma.h **** {
  48:Drivers/STM32F1xx_HAL_Driver/Inc/stm32f1xx_ll_dma.h ****   (uint8_t)(DMA1_Channel1_BASE - DMA1_BASE),
  49:Drivers/STM32F1xx_HAL_Driver/Inc/stm32f1xx_ll_dma.h ****   (uint8_t)(DMA1_Channel2_BASE - DMA1_BASE),
  50:Drivers/STM32F1xx_HAL_Driver/Inc/stm32f1xx_ll_dma.h ****   (uint8_t)(DMA1_Channel3_BASE - DMA1_BASE),
  51:Drivers/STM32F1xx_HAL_Driver/Inc/stm32f1xx_ll_dma.h ****   (uint8_t)(DMA1_Channel4_BASE - DMA1_BASE),
  52:Drivers/STM32F1xx_HAL_Driver/Inc/stm32f1xx_ll_dma.h ****   (uint8_t)(DMA1_Channel5_BASE - DMA1_BASE),
  53:Drivers/STM32F1xx_HAL_Driver/Inc/stm32f1xx_ll_dma.h ****   (uint8_t)(DMA1_Channel6_BASE - DMA1_BASE),
  54:Drivers/STM32F1xx_HAL_Driver/Inc/stm32f1xx_ll_dma.h ****   (uint8_t)(DMA1_Channel7_BASE - DMA1_BASE)
  55:Drivers/STM32F1xx_HAL_Driver/Inc/stm32f1xx_ll_dma.h **** };
  56:Drivers/STM32F1xx_HAL_Driver/Inc/stm32f1xx_ll_dma.h **** /**
  57:Drivers/STM32F1xx_HAL_Driver/Inc/stm32f1xx_ll_dma.h ****   * @}
  58:Drivers/STM32F1xx_HAL_Driver/Inc/stm32f1xx_ll_dma.h ****   */
  59:Drivers/STM32F1xx_HAL_Driver/Inc/stm32f1xx_ll_dma.h **** /* Private constants ---------------------------------------------------------*/
  60:Drivers/STM32F1xx_HAL_Driver/Inc/stm32f1xx_ll_dma.h **** /* Private macros ------------------------------------------------------------*/
  61:Drivers/STM32F1xx_HAL_Driver/Inc/stm32f1xx_ll_dma.h **** #if defined(USE_FULL_LL_DRIVER)
  62:Drivers/STM32F1xx_HAL_Driver/Inc/stm32f1xx_ll_dma.h **** /** @defgroup DMA_LL_Private_Macros DMA Private Macros
  63:Drivers/STM32F1xx_HAL_Driver/Inc/stm32f1xx_ll_dma.h ****   * @{
  64:Drivers/STM32F1xx_HAL_Driver/Inc/stm32f1xx_ll_dma.h ****   */
  65:Drivers/STM32F1xx_HAL_Driver/Inc/stm32f1xx_ll_dma.h **** /**
  66:Drivers/STM32F1xx_HAL_Driver/Inc/stm32f1xx_ll_dma.h ****   * @}
  67:Drivers/STM32F1xx_HAL_Driver/Inc/stm32f1xx_ll_dma.h ****   */
  68:Drivers/STM32F1xx_HAL_Driver/Inc/stm32f1xx_ll_dma.h **** #endif /*USE_FULL_LL_DRIVER*/
  69:Drivers/STM32F1xx_HAL_Driver/Inc/stm32f1xx_ll_dma.h **** 
  70:Drivers/STM32F1xx_HAL_Driver/Inc/stm32f1xx_ll_dma.h **** /* Exported types ------------------------------------------------------------*/
  71:Drivers/STM32F1xx_HAL_Driver/Inc/stm32f1xx_ll_dma.h **** #if defined(USE_FULL_LL_DRIVER)
  72:Drivers/STM32F1xx_HAL_Driver/Inc/stm32f1xx_ll_dma.h **** /** @defgroup DMA_LL_ES_INIT DMA Exported Init structure
  73:Drivers/STM32F1xx_HAL_Driver/Inc/stm32f1xx_ll_dma.h ****   * @{
  74:Drivers/STM32F1xx_HAL_Driver/Inc/stm32f1xx_ll_dma.h ****   */
  75:Drivers/STM32F1xx_HAL_Driver/Inc/stm32f1xx_ll_dma.h **** typedef struct
  76:Drivers/STM32F1xx_HAL_Driver/Inc/stm32f1xx_ll_dma.h **** {
  77:Drivers/STM32F1xx_HAL_Driver/Inc/stm32f1xx_ll_dma.h ****   uint32_t PeriphOrM2MSrcAddress;  /*!< Specifies the peripheral base address for DMA transfer
ARM GAS  /tmp/ccO145yx.s 			page 19


  78:Drivers/STM32F1xx_HAL_Driver/Inc/stm32f1xx_ll_dma.h ****                                         or as Source base address in case of memory to memory trans
  79:Drivers/STM32F1xx_HAL_Driver/Inc/stm32f1xx_ll_dma.h **** 
  80:Drivers/STM32F1xx_HAL_Driver/Inc/stm32f1xx_ll_dma.h ****                                         This parameter must be a value between Min_Data = 0 and Max
  81:Drivers/STM32F1xx_HAL_Driver/Inc/stm32f1xx_ll_dma.h **** 
  82:Drivers/STM32F1xx_HAL_Driver/Inc/stm32f1xx_ll_dma.h ****   uint32_t MemoryOrM2MDstAddress;  /*!< Specifies the memory base address for DMA transfer
  83:Drivers/STM32F1xx_HAL_Driver/Inc/stm32f1xx_ll_dma.h ****                                         or as Destination base address in case of memory to memory 
  84:Drivers/STM32F1xx_HAL_Driver/Inc/stm32f1xx_ll_dma.h **** 
  85:Drivers/STM32F1xx_HAL_Driver/Inc/stm32f1xx_ll_dma.h ****                                         This parameter must be a value between Min_Data = 0 and Max
  86:Drivers/STM32F1xx_HAL_Driver/Inc/stm32f1xx_ll_dma.h **** 
  87:Drivers/STM32F1xx_HAL_Driver/Inc/stm32f1xx_ll_dma.h ****   uint32_t Direction;              /*!< Specifies if the data will be transferred from memory to pe
  88:Drivers/STM32F1xx_HAL_Driver/Inc/stm32f1xx_ll_dma.h ****                                         from memory to memory or from peripheral to memory.
  89:Drivers/STM32F1xx_HAL_Driver/Inc/stm32f1xx_ll_dma.h ****                                         This parameter can be a value of @ref DMA_LL_EC_DIRECTION
  90:Drivers/STM32F1xx_HAL_Driver/Inc/stm32f1xx_ll_dma.h **** 
  91:Drivers/STM32F1xx_HAL_Driver/Inc/stm32f1xx_ll_dma.h ****                                         This feature can be modified afterwards using unitary funct
  92:Drivers/STM32F1xx_HAL_Driver/Inc/stm32f1xx_ll_dma.h **** 
  93:Drivers/STM32F1xx_HAL_Driver/Inc/stm32f1xx_ll_dma.h ****   uint32_t Mode;                   /*!< Specifies the normal or circular operation mode.
  94:Drivers/STM32F1xx_HAL_Driver/Inc/stm32f1xx_ll_dma.h ****                                         This parameter can be a value of @ref DMA_LL_EC_MODE
  95:Drivers/STM32F1xx_HAL_Driver/Inc/stm32f1xx_ll_dma.h ****                                         @note: The circular buffer mode cannot be used if the memor
  96:Drivers/STM32F1xx_HAL_Driver/Inc/stm32f1xx_ll_dma.h ****                                                data transfer direction is configured on the selecte
  97:Drivers/STM32F1xx_HAL_Driver/Inc/stm32f1xx_ll_dma.h **** 
  98:Drivers/STM32F1xx_HAL_Driver/Inc/stm32f1xx_ll_dma.h ****                                         This feature can be modified afterwards using unitary funct
  99:Drivers/STM32F1xx_HAL_Driver/Inc/stm32f1xx_ll_dma.h **** 
 100:Drivers/STM32F1xx_HAL_Driver/Inc/stm32f1xx_ll_dma.h ****   uint32_t PeriphOrM2MSrcIncMode;  /*!< Specifies whether the Peripheral address or Source address 
 101:Drivers/STM32F1xx_HAL_Driver/Inc/stm32f1xx_ll_dma.h ****                                         is incremented or not.
 102:Drivers/STM32F1xx_HAL_Driver/Inc/stm32f1xx_ll_dma.h ****                                         This parameter can be a value of @ref DMA_LL_EC_PERIPH
 103:Drivers/STM32F1xx_HAL_Driver/Inc/stm32f1xx_ll_dma.h **** 
 104:Drivers/STM32F1xx_HAL_Driver/Inc/stm32f1xx_ll_dma.h ****                                         This feature can be modified afterwards using unitary funct
 105:Drivers/STM32F1xx_HAL_Driver/Inc/stm32f1xx_ll_dma.h **** 
 106:Drivers/STM32F1xx_HAL_Driver/Inc/stm32f1xx_ll_dma.h ****   uint32_t MemoryOrM2MDstIncMode;  /*!< Specifies whether the Memory address or Destination address
 107:Drivers/STM32F1xx_HAL_Driver/Inc/stm32f1xx_ll_dma.h ****                                         is incremented or not.
 108:Drivers/STM32F1xx_HAL_Driver/Inc/stm32f1xx_ll_dma.h ****                                         This parameter can be a value of @ref DMA_LL_EC_MEMORY
 109:Drivers/STM32F1xx_HAL_Driver/Inc/stm32f1xx_ll_dma.h **** 
 110:Drivers/STM32F1xx_HAL_Driver/Inc/stm32f1xx_ll_dma.h ****                                         This feature can be modified afterwards using unitary funct
 111:Drivers/STM32F1xx_HAL_Driver/Inc/stm32f1xx_ll_dma.h **** 
 112:Drivers/STM32F1xx_HAL_Driver/Inc/stm32f1xx_ll_dma.h ****   uint32_t PeriphOrM2MSrcDataSize; /*!< Specifies the Peripheral data size alignment or Source data
 113:Drivers/STM32F1xx_HAL_Driver/Inc/stm32f1xx_ll_dma.h ****                                         in case of memory to memory transfer direction.
 114:Drivers/STM32F1xx_HAL_Driver/Inc/stm32f1xx_ll_dma.h ****                                         This parameter can be a value of @ref DMA_LL_EC_PDATAALIGN
 115:Drivers/STM32F1xx_HAL_Driver/Inc/stm32f1xx_ll_dma.h **** 
 116:Drivers/STM32F1xx_HAL_Driver/Inc/stm32f1xx_ll_dma.h ****                                         This feature can be modified afterwards using unitary funct
 117:Drivers/STM32F1xx_HAL_Driver/Inc/stm32f1xx_ll_dma.h **** 
 118:Drivers/STM32F1xx_HAL_Driver/Inc/stm32f1xx_ll_dma.h ****   uint32_t MemoryOrM2MDstDataSize; /*!< Specifies the Memory data size alignment or Destination dat
 119:Drivers/STM32F1xx_HAL_Driver/Inc/stm32f1xx_ll_dma.h ****                                         in case of memory to memory transfer direction.
 120:Drivers/STM32F1xx_HAL_Driver/Inc/stm32f1xx_ll_dma.h ****                                         This parameter can be a value of @ref DMA_LL_EC_MDATAALIGN
 121:Drivers/STM32F1xx_HAL_Driver/Inc/stm32f1xx_ll_dma.h **** 
 122:Drivers/STM32F1xx_HAL_Driver/Inc/stm32f1xx_ll_dma.h ****                                         This feature can be modified afterwards using unitary funct
 123:Drivers/STM32F1xx_HAL_Driver/Inc/stm32f1xx_ll_dma.h **** 
 124:Drivers/STM32F1xx_HAL_Driver/Inc/stm32f1xx_ll_dma.h ****   uint32_t NbData;                 /*!< Specifies the number of data to transfer, in data unit.
 125:Drivers/STM32F1xx_HAL_Driver/Inc/stm32f1xx_ll_dma.h ****                                         The data unit is equal to the source buffer configuration s
 126:Drivers/STM32F1xx_HAL_Driver/Inc/stm32f1xx_ll_dma.h ****                                         or MemorySize parameters depending in the transfer directio
 127:Drivers/STM32F1xx_HAL_Driver/Inc/stm32f1xx_ll_dma.h ****                                         This parameter must be a value between Min_Data = 0 and Max
 128:Drivers/STM32F1xx_HAL_Driver/Inc/stm32f1xx_ll_dma.h **** 
 129:Drivers/STM32F1xx_HAL_Driver/Inc/stm32f1xx_ll_dma.h ****                                         This feature can be modified afterwards using unitary funct
 130:Drivers/STM32F1xx_HAL_Driver/Inc/stm32f1xx_ll_dma.h **** 
 131:Drivers/STM32F1xx_HAL_Driver/Inc/stm32f1xx_ll_dma.h ****   uint32_t Priority;               /*!< Specifies the channel priority level.
 132:Drivers/STM32F1xx_HAL_Driver/Inc/stm32f1xx_ll_dma.h ****                                         This parameter can be a value of @ref DMA_LL_EC_PRIORITY
 133:Drivers/STM32F1xx_HAL_Driver/Inc/stm32f1xx_ll_dma.h **** 
 134:Drivers/STM32F1xx_HAL_Driver/Inc/stm32f1xx_ll_dma.h ****                                         This feature can be modified afterwards using unitary funct
ARM GAS  /tmp/ccO145yx.s 			page 20


 135:Drivers/STM32F1xx_HAL_Driver/Inc/stm32f1xx_ll_dma.h **** 
 136:Drivers/STM32F1xx_HAL_Driver/Inc/stm32f1xx_ll_dma.h **** } LL_DMA_InitTypeDef;
 137:Drivers/STM32F1xx_HAL_Driver/Inc/stm32f1xx_ll_dma.h **** /**
 138:Drivers/STM32F1xx_HAL_Driver/Inc/stm32f1xx_ll_dma.h ****   * @}
 139:Drivers/STM32F1xx_HAL_Driver/Inc/stm32f1xx_ll_dma.h ****   */
 140:Drivers/STM32F1xx_HAL_Driver/Inc/stm32f1xx_ll_dma.h **** #endif /*USE_FULL_LL_DRIVER*/
 141:Drivers/STM32F1xx_HAL_Driver/Inc/stm32f1xx_ll_dma.h **** 
 142:Drivers/STM32F1xx_HAL_Driver/Inc/stm32f1xx_ll_dma.h **** /* Exported constants --------------------------------------------------------*/
 143:Drivers/STM32F1xx_HAL_Driver/Inc/stm32f1xx_ll_dma.h **** /** @defgroup DMA_LL_Exported_Constants DMA Exported Constants
 144:Drivers/STM32F1xx_HAL_Driver/Inc/stm32f1xx_ll_dma.h ****   * @{
 145:Drivers/STM32F1xx_HAL_Driver/Inc/stm32f1xx_ll_dma.h ****   */
 146:Drivers/STM32F1xx_HAL_Driver/Inc/stm32f1xx_ll_dma.h **** /** @defgroup DMA_LL_EC_CLEAR_FLAG Clear Flags Defines
 147:Drivers/STM32F1xx_HAL_Driver/Inc/stm32f1xx_ll_dma.h ****   * @brief    Flags defines which can be used with LL_DMA_WriteReg function
 148:Drivers/STM32F1xx_HAL_Driver/Inc/stm32f1xx_ll_dma.h ****   * @{
 149:Drivers/STM32F1xx_HAL_Driver/Inc/stm32f1xx_ll_dma.h ****   */
 150:Drivers/STM32F1xx_HAL_Driver/Inc/stm32f1xx_ll_dma.h **** #define LL_DMA_IFCR_CGIF1                 DMA_IFCR_CGIF1        /*!< Channel 1 global flag         
 151:Drivers/STM32F1xx_HAL_Driver/Inc/stm32f1xx_ll_dma.h **** #define LL_DMA_IFCR_CTCIF1                DMA_IFCR_CTCIF1       /*!< Channel 1 transfer complete fl
 152:Drivers/STM32F1xx_HAL_Driver/Inc/stm32f1xx_ll_dma.h **** #define LL_DMA_IFCR_CHTIF1                DMA_IFCR_CHTIF1       /*!< Channel 1 half transfer flag  
 153:Drivers/STM32F1xx_HAL_Driver/Inc/stm32f1xx_ll_dma.h **** #define LL_DMA_IFCR_CTEIF1                DMA_IFCR_CTEIF1       /*!< Channel 1 transfer error flag 
 154:Drivers/STM32F1xx_HAL_Driver/Inc/stm32f1xx_ll_dma.h **** #define LL_DMA_IFCR_CGIF2                 DMA_IFCR_CGIF2        /*!< Channel 2 global flag         
 155:Drivers/STM32F1xx_HAL_Driver/Inc/stm32f1xx_ll_dma.h **** #define LL_DMA_IFCR_CTCIF2                DMA_IFCR_CTCIF2       /*!< Channel 2 transfer complete fl
 156:Drivers/STM32F1xx_HAL_Driver/Inc/stm32f1xx_ll_dma.h **** #define LL_DMA_IFCR_CHTIF2                DMA_IFCR_CHTIF2       /*!< Channel 2 half transfer flag  
 157:Drivers/STM32F1xx_HAL_Driver/Inc/stm32f1xx_ll_dma.h **** #define LL_DMA_IFCR_CTEIF2                DMA_IFCR_CTEIF2       /*!< Channel 2 transfer error flag 
 158:Drivers/STM32F1xx_HAL_Driver/Inc/stm32f1xx_ll_dma.h **** #define LL_DMA_IFCR_CGIF3                 DMA_IFCR_CGIF3        /*!< Channel 3 global flag         
 159:Drivers/STM32F1xx_HAL_Driver/Inc/stm32f1xx_ll_dma.h **** #define LL_DMA_IFCR_CTCIF3                DMA_IFCR_CTCIF3       /*!< Channel 3 transfer complete fl
 160:Drivers/STM32F1xx_HAL_Driver/Inc/stm32f1xx_ll_dma.h **** #define LL_DMA_IFCR_CHTIF3                DMA_IFCR_CHTIF3       /*!< Channel 3 half transfer flag  
 161:Drivers/STM32F1xx_HAL_Driver/Inc/stm32f1xx_ll_dma.h **** #define LL_DMA_IFCR_CTEIF3                DMA_IFCR_CTEIF3       /*!< Channel 3 transfer error flag 
 162:Drivers/STM32F1xx_HAL_Driver/Inc/stm32f1xx_ll_dma.h **** #define LL_DMA_IFCR_CGIF4                 DMA_IFCR_CGIF4        /*!< Channel 4 global flag         
 163:Drivers/STM32F1xx_HAL_Driver/Inc/stm32f1xx_ll_dma.h **** #define LL_DMA_IFCR_CTCIF4                DMA_IFCR_CTCIF4       /*!< Channel 4 transfer complete fl
 164:Drivers/STM32F1xx_HAL_Driver/Inc/stm32f1xx_ll_dma.h **** #define LL_DMA_IFCR_CHTIF4                DMA_IFCR_CHTIF4       /*!< Channel 4 half transfer flag  
 165:Drivers/STM32F1xx_HAL_Driver/Inc/stm32f1xx_ll_dma.h **** #define LL_DMA_IFCR_CTEIF4                DMA_IFCR_CTEIF4       /*!< Channel 4 transfer error flag 
 166:Drivers/STM32F1xx_HAL_Driver/Inc/stm32f1xx_ll_dma.h **** #define LL_DMA_IFCR_CGIF5                 DMA_IFCR_CGIF5        /*!< Channel 5 global flag         
 167:Drivers/STM32F1xx_HAL_Driver/Inc/stm32f1xx_ll_dma.h **** #define LL_DMA_IFCR_CTCIF5                DMA_IFCR_CTCIF5       /*!< Channel 5 transfer complete fl
 168:Drivers/STM32F1xx_HAL_Driver/Inc/stm32f1xx_ll_dma.h **** #define LL_DMA_IFCR_CHTIF5                DMA_IFCR_CHTIF5       /*!< Channel 5 half transfer flag  
 169:Drivers/STM32F1xx_HAL_Driver/Inc/stm32f1xx_ll_dma.h **** #define LL_DMA_IFCR_CTEIF5                DMA_IFCR_CTEIF5       /*!< Channel 5 transfer error flag 
 170:Drivers/STM32F1xx_HAL_Driver/Inc/stm32f1xx_ll_dma.h **** #define LL_DMA_IFCR_CGIF6                 DMA_IFCR_CGIF6        /*!< Channel 6 global flag         
 171:Drivers/STM32F1xx_HAL_Driver/Inc/stm32f1xx_ll_dma.h **** #define LL_DMA_IFCR_CTCIF6                DMA_IFCR_CTCIF6       /*!< Channel 6 transfer complete fl
 172:Drivers/STM32F1xx_HAL_Driver/Inc/stm32f1xx_ll_dma.h **** #define LL_DMA_IFCR_CHTIF6                DMA_IFCR_CHTIF6       /*!< Channel 6 half transfer flag  
 173:Drivers/STM32F1xx_HAL_Driver/Inc/stm32f1xx_ll_dma.h **** #define LL_DMA_IFCR_CTEIF6                DMA_IFCR_CTEIF6       /*!< Channel 6 transfer error flag 
 174:Drivers/STM32F1xx_HAL_Driver/Inc/stm32f1xx_ll_dma.h **** #define LL_DMA_IFCR_CGIF7                 DMA_IFCR_CGIF7        /*!< Channel 7 global flag         
 175:Drivers/STM32F1xx_HAL_Driver/Inc/stm32f1xx_ll_dma.h **** #define LL_DMA_IFCR_CTCIF7                DMA_IFCR_CTCIF7       /*!< Channel 7 transfer complete fl
 176:Drivers/STM32F1xx_HAL_Driver/Inc/stm32f1xx_ll_dma.h **** #define LL_DMA_IFCR_CHTIF7                DMA_IFCR_CHTIF7       /*!< Channel 7 half transfer flag  
 177:Drivers/STM32F1xx_HAL_Driver/Inc/stm32f1xx_ll_dma.h **** #define LL_DMA_IFCR_CTEIF7                DMA_IFCR_CTEIF7       /*!< Channel 7 transfer error flag 
 178:Drivers/STM32F1xx_HAL_Driver/Inc/stm32f1xx_ll_dma.h **** /**
 179:Drivers/STM32F1xx_HAL_Driver/Inc/stm32f1xx_ll_dma.h ****   * @}
 180:Drivers/STM32F1xx_HAL_Driver/Inc/stm32f1xx_ll_dma.h ****   */
 181:Drivers/STM32F1xx_HAL_Driver/Inc/stm32f1xx_ll_dma.h **** 
 182:Drivers/STM32F1xx_HAL_Driver/Inc/stm32f1xx_ll_dma.h **** /** @defgroup DMA_LL_EC_GET_FLAG Get Flags Defines
 183:Drivers/STM32F1xx_HAL_Driver/Inc/stm32f1xx_ll_dma.h ****   * @brief    Flags defines which can be used with LL_DMA_ReadReg function
 184:Drivers/STM32F1xx_HAL_Driver/Inc/stm32f1xx_ll_dma.h ****   * @{
 185:Drivers/STM32F1xx_HAL_Driver/Inc/stm32f1xx_ll_dma.h ****   */
 186:Drivers/STM32F1xx_HAL_Driver/Inc/stm32f1xx_ll_dma.h **** #define LL_DMA_ISR_GIF1                   DMA_ISR_GIF1          /*!< Channel 1 global flag         
 187:Drivers/STM32F1xx_HAL_Driver/Inc/stm32f1xx_ll_dma.h **** #define LL_DMA_ISR_TCIF1                  DMA_ISR_TCIF1         /*!< Channel 1 transfer complete fl
 188:Drivers/STM32F1xx_HAL_Driver/Inc/stm32f1xx_ll_dma.h **** #define LL_DMA_ISR_HTIF1                  DMA_ISR_HTIF1         /*!< Channel 1 half transfer flag  
 189:Drivers/STM32F1xx_HAL_Driver/Inc/stm32f1xx_ll_dma.h **** #define LL_DMA_ISR_TEIF1                  DMA_ISR_TEIF1         /*!< Channel 1 transfer error flag 
 190:Drivers/STM32F1xx_HAL_Driver/Inc/stm32f1xx_ll_dma.h **** #define LL_DMA_ISR_GIF2                   DMA_ISR_GIF2          /*!< Channel 2 global flag         
 191:Drivers/STM32F1xx_HAL_Driver/Inc/stm32f1xx_ll_dma.h **** #define LL_DMA_ISR_TCIF2                  DMA_ISR_TCIF2         /*!< Channel 2 transfer complete fl
ARM GAS  /tmp/ccO145yx.s 			page 21


 192:Drivers/STM32F1xx_HAL_Driver/Inc/stm32f1xx_ll_dma.h **** #define LL_DMA_ISR_HTIF2                  DMA_ISR_HTIF2         /*!< Channel 2 half transfer flag  
 193:Drivers/STM32F1xx_HAL_Driver/Inc/stm32f1xx_ll_dma.h **** #define LL_DMA_ISR_TEIF2                  DMA_ISR_TEIF2         /*!< Channel 2 transfer error flag 
 194:Drivers/STM32F1xx_HAL_Driver/Inc/stm32f1xx_ll_dma.h **** #define LL_DMA_ISR_GIF3                   DMA_ISR_GIF3          /*!< Channel 3 global flag         
 195:Drivers/STM32F1xx_HAL_Driver/Inc/stm32f1xx_ll_dma.h **** #define LL_DMA_ISR_TCIF3                  DMA_ISR_TCIF3         /*!< Channel 3 transfer complete fl
 196:Drivers/STM32F1xx_HAL_Driver/Inc/stm32f1xx_ll_dma.h **** #define LL_DMA_ISR_HTIF3                  DMA_ISR_HTIF3         /*!< Channel 3 half transfer flag  
 197:Drivers/STM32F1xx_HAL_Driver/Inc/stm32f1xx_ll_dma.h **** #define LL_DMA_ISR_TEIF3                  DMA_ISR_TEIF3         /*!< Channel 3 transfer error flag 
 198:Drivers/STM32F1xx_HAL_Driver/Inc/stm32f1xx_ll_dma.h **** #define LL_DMA_ISR_GIF4                   DMA_ISR_GIF4          /*!< Channel 4 global flag         
 199:Drivers/STM32F1xx_HAL_Driver/Inc/stm32f1xx_ll_dma.h **** #define LL_DMA_ISR_TCIF4                  DMA_ISR_TCIF4         /*!< Channel 4 transfer complete fl
 200:Drivers/STM32F1xx_HAL_Driver/Inc/stm32f1xx_ll_dma.h **** #define LL_DMA_ISR_HTIF4                  DMA_ISR_HTIF4         /*!< Channel 4 half transfer flag  
 201:Drivers/STM32F1xx_HAL_Driver/Inc/stm32f1xx_ll_dma.h **** #define LL_DMA_ISR_TEIF4                  DMA_ISR_TEIF4         /*!< Channel 4 transfer error flag 
 202:Drivers/STM32F1xx_HAL_Driver/Inc/stm32f1xx_ll_dma.h **** #define LL_DMA_ISR_GIF5                   DMA_ISR_GIF5          /*!< Channel 5 global flag         
 203:Drivers/STM32F1xx_HAL_Driver/Inc/stm32f1xx_ll_dma.h **** #define LL_DMA_ISR_TCIF5                  DMA_ISR_TCIF5         /*!< Channel 5 transfer complete fl
 204:Drivers/STM32F1xx_HAL_Driver/Inc/stm32f1xx_ll_dma.h **** #define LL_DMA_ISR_HTIF5                  DMA_ISR_HTIF5         /*!< Channel 5 half transfer flag  
 205:Drivers/STM32F1xx_HAL_Driver/Inc/stm32f1xx_ll_dma.h **** #define LL_DMA_ISR_TEIF5                  DMA_ISR_TEIF5         /*!< Channel 5 transfer error flag 
 206:Drivers/STM32F1xx_HAL_Driver/Inc/stm32f1xx_ll_dma.h **** #define LL_DMA_ISR_GIF6                   DMA_ISR_GIF6          /*!< Channel 6 global flag         
 207:Drivers/STM32F1xx_HAL_Driver/Inc/stm32f1xx_ll_dma.h **** #define LL_DMA_ISR_TCIF6                  DMA_ISR_TCIF6         /*!< Channel 6 transfer complete fl
 208:Drivers/STM32F1xx_HAL_Driver/Inc/stm32f1xx_ll_dma.h **** #define LL_DMA_ISR_HTIF6                  DMA_ISR_HTIF6         /*!< Channel 6 half transfer flag  
 209:Drivers/STM32F1xx_HAL_Driver/Inc/stm32f1xx_ll_dma.h **** #define LL_DMA_ISR_TEIF6                  DMA_ISR_TEIF6         /*!< Channel 6 transfer error flag 
 210:Drivers/STM32F1xx_HAL_Driver/Inc/stm32f1xx_ll_dma.h **** #define LL_DMA_ISR_GIF7                   DMA_ISR_GIF7          /*!< Channel 7 global flag         
 211:Drivers/STM32F1xx_HAL_Driver/Inc/stm32f1xx_ll_dma.h **** #define LL_DMA_ISR_TCIF7                  DMA_ISR_TCIF7         /*!< Channel 7 transfer complete fl
 212:Drivers/STM32F1xx_HAL_Driver/Inc/stm32f1xx_ll_dma.h **** #define LL_DMA_ISR_HTIF7                  DMA_ISR_HTIF7         /*!< Channel 7 half transfer flag  
 213:Drivers/STM32F1xx_HAL_Driver/Inc/stm32f1xx_ll_dma.h **** #define LL_DMA_ISR_TEIF7                  DMA_ISR_TEIF7         /*!< Channel 7 transfer error flag 
 214:Drivers/STM32F1xx_HAL_Driver/Inc/stm32f1xx_ll_dma.h **** /**
 215:Drivers/STM32F1xx_HAL_Driver/Inc/stm32f1xx_ll_dma.h ****   * @}
 216:Drivers/STM32F1xx_HAL_Driver/Inc/stm32f1xx_ll_dma.h ****   */
 217:Drivers/STM32F1xx_HAL_Driver/Inc/stm32f1xx_ll_dma.h **** 
 218:Drivers/STM32F1xx_HAL_Driver/Inc/stm32f1xx_ll_dma.h **** /** @defgroup DMA_LL_EC_IT IT Defines
 219:Drivers/STM32F1xx_HAL_Driver/Inc/stm32f1xx_ll_dma.h ****   * @brief    IT defines which can be used with LL_DMA_ReadReg and  LL_DMA_WriteReg functions
 220:Drivers/STM32F1xx_HAL_Driver/Inc/stm32f1xx_ll_dma.h ****   * @{
 221:Drivers/STM32F1xx_HAL_Driver/Inc/stm32f1xx_ll_dma.h ****   */
 222:Drivers/STM32F1xx_HAL_Driver/Inc/stm32f1xx_ll_dma.h **** #define LL_DMA_CCR_TCIE                   DMA_CCR_TCIE          /*!< Transfer complete interrupt */
 223:Drivers/STM32F1xx_HAL_Driver/Inc/stm32f1xx_ll_dma.h **** #define LL_DMA_CCR_HTIE                   DMA_CCR_HTIE          /*!< Half Transfer interrupt     */
 224:Drivers/STM32F1xx_HAL_Driver/Inc/stm32f1xx_ll_dma.h **** #define LL_DMA_CCR_TEIE                   DMA_CCR_TEIE          /*!< Transfer error interrupt    */
 225:Drivers/STM32F1xx_HAL_Driver/Inc/stm32f1xx_ll_dma.h **** /**
 226:Drivers/STM32F1xx_HAL_Driver/Inc/stm32f1xx_ll_dma.h ****   * @}
 227:Drivers/STM32F1xx_HAL_Driver/Inc/stm32f1xx_ll_dma.h ****   */
 228:Drivers/STM32F1xx_HAL_Driver/Inc/stm32f1xx_ll_dma.h **** 
 229:Drivers/STM32F1xx_HAL_Driver/Inc/stm32f1xx_ll_dma.h **** /** @defgroup DMA_LL_EC_CHANNEL CHANNEL
 230:Drivers/STM32F1xx_HAL_Driver/Inc/stm32f1xx_ll_dma.h ****   * @{
 231:Drivers/STM32F1xx_HAL_Driver/Inc/stm32f1xx_ll_dma.h ****   */
 232:Drivers/STM32F1xx_HAL_Driver/Inc/stm32f1xx_ll_dma.h **** #define LL_DMA_CHANNEL_1                  0x00000001U /*!< DMA Channel 1 */
 233:Drivers/STM32F1xx_HAL_Driver/Inc/stm32f1xx_ll_dma.h **** #define LL_DMA_CHANNEL_2                  0x00000002U /*!< DMA Channel 2 */
 234:Drivers/STM32F1xx_HAL_Driver/Inc/stm32f1xx_ll_dma.h **** #define LL_DMA_CHANNEL_3                  0x00000003U /*!< DMA Channel 3 */
 235:Drivers/STM32F1xx_HAL_Driver/Inc/stm32f1xx_ll_dma.h **** #define LL_DMA_CHANNEL_4                  0x00000004U /*!< DMA Channel 4 */
 236:Drivers/STM32F1xx_HAL_Driver/Inc/stm32f1xx_ll_dma.h **** #define LL_DMA_CHANNEL_5                  0x00000005U /*!< DMA Channel 5 */
 237:Drivers/STM32F1xx_HAL_Driver/Inc/stm32f1xx_ll_dma.h **** #define LL_DMA_CHANNEL_6                  0x00000006U /*!< DMA Channel 6 */
 238:Drivers/STM32F1xx_HAL_Driver/Inc/stm32f1xx_ll_dma.h **** #define LL_DMA_CHANNEL_7                  0x00000007U /*!< DMA Channel 7 */
 239:Drivers/STM32F1xx_HAL_Driver/Inc/stm32f1xx_ll_dma.h **** #if defined(USE_FULL_LL_DRIVER)
 240:Drivers/STM32F1xx_HAL_Driver/Inc/stm32f1xx_ll_dma.h **** #define LL_DMA_CHANNEL_ALL                0xFFFF0000U /*!< DMA Channel all (used only for function 
 241:Drivers/STM32F1xx_HAL_Driver/Inc/stm32f1xx_ll_dma.h **** #endif /*USE_FULL_LL_DRIVER*/
 242:Drivers/STM32F1xx_HAL_Driver/Inc/stm32f1xx_ll_dma.h **** /**
 243:Drivers/STM32F1xx_HAL_Driver/Inc/stm32f1xx_ll_dma.h ****   * @}
 244:Drivers/STM32F1xx_HAL_Driver/Inc/stm32f1xx_ll_dma.h ****   */
 245:Drivers/STM32F1xx_HAL_Driver/Inc/stm32f1xx_ll_dma.h **** 
 246:Drivers/STM32F1xx_HAL_Driver/Inc/stm32f1xx_ll_dma.h **** /** @defgroup DMA_LL_EC_DIRECTION Transfer Direction
 247:Drivers/STM32F1xx_HAL_Driver/Inc/stm32f1xx_ll_dma.h ****   * @{
 248:Drivers/STM32F1xx_HAL_Driver/Inc/stm32f1xx_ll_dma.h ****   */
ARM GAS  /tmp/ccO145yx.s 			page 22


 249:Drivers/STM32F1xx_HAL_Driver/Inc/stm32f1xx_ll_dma.h **** #define LL_DMA_DIRECTION_PERIPH_TO_MEMORY 0x00000000U             /*!< Peripheral to memory directi
 250:Drivers/STM32F1xx_HAL_Driver/Inc/stm32f1xx_ll_dma.h **** #define LL_DMA_DIRECTION_MEMORY_TO_PERIPH DMA_CCR_DIR             /*!< Memory to peripheral directi
 251:Drivers/STM32F1xx_HAL_Driver/Inc/stm32f1xx_ll_dma.h **** #define LL_DMA_DIRECTION_MEMORY_TO_MEMORY DMA_CCR_MEM2MEM         /*!< Memory to memory direction  
 252:Drivers/STM32F1xx_HAL_Driver/Inc/stm32f1xx_ll_dma.h **** /**
 253:Drivers/STM32F1xx_HAL_Driver/Inc/stm32f1xx_ll_dma.h ****   * @}
 254:Drivers/STM32F1xx_HAL_Driver/Inc/stm32f1xx_ll_dma.h ****   */
 255:Drivers/STM32F1xx_HAL_Driver/Inc/stm32f1xx_ll_dma.h **** 
 256:Drivers/STM32F1xx_HAL_Driver/Inc/stm32f1xx_ll_dma.h **** /** @defgroup DMA_LL_EC_MODE Transfer mode
 257:Drivers/STM32F1xx_HAL_Driver/Inc/stm32f1xx_ll_dma.h ****   * @{
 258:Drivers/STM32F1xx_HAL_Driver/Inc/stm32f1xx_ll_dma.h ****   */
 259:Drivers/STM32F1xx_HAL_Driver/Inc/stm32f1xx_ll_dma.h **** #define LL_DMA_MODE_NORMAL                0x00000000U             /*!< Normal Mode                 
 260:Drivers/STM32F1xx_HAL_Driver/Inc/stm32f1xx_ll_dma.h **** #define LL_DMA_MODE_CIRCULAR              DMA_CCR_CIRC            /*!< Circular Mode               
 261:Drivers/STM32F1xx_HAL_Driver/Inc/stm32f1xx_ll_dma.h **** /**
 262:Drivers/STM32F1xx_HAL_Driver/Inc/stm32f1xx_ll_dma.h ****   * @}
 263:Drivers/STM32F1xx_HAL_Driver/Inc/stm32f1xx_ll_dma.h ****   */
 264:Drivers/STM32F1xx_HAL_Driver/Inc/stm32f1xx_ll_dma.h **** 
 265:Drivers/STM32F1xx_HAL_Driver/Inc/stm32f1xx_ll_dma.h **** /** @defgroup DMA_LL_EC_PERIPH Peripheral increment mode
 266:Drivers/STM32F1xx_HAL_Driver/Inc/stm32f1xx_ll_dma.h ****   * @{
 267:Drivers/STM32F1xx_HAL_Driver/Inc/stm32f1xx_ll_dma.h ****   */
 268:Drivers/STM32F1xx_HAL_Driver/Inc/stm32f1xx_ll_dma.h **** #define LL_DMA_PERIPH_INCREMENT           DMA_CCR_PINC            /*!< Peripheral increment mode En
 269:Drivers/STM32F1xx_HAL_Driver/Inc/stm32f1xx_ll_dma.h **** #define LL_DMA_PERIPH_NOINCREMENT         0x00000000U             /*!< Peripheral increment mode Di
 270:Drivers/STM32F1xx_HAL_Driver/Inc/stm32f1xx_ll_dma.h **** /**
 271:Drivers/STM32F1xx_HAL_Driver/Inc/stm32f1xx_ll_dma.h ****   * @}
 272:Drivers/STM32F1xx_HAL_Driver/Inc/stm32f1xx_ll_dma.h ****   */
 273:Drivers/STM32F1xx_HAL_Driver/Inc/stm32f1xx_ll_dma.h **** 
 274:Drivers/STM32F1xx_HAL_Driver/Inc/stm32f1xx_ll_dma.h **** /** @defgroup DMA_LL_EC_MEMORY Memory increment mode
 275:Drivers/STM32F1xx_HAL_Driver/Inc/stm32f1xx_ll_dma.h ****   * @{
 276:Drivers/STM32F1xx_HAL_Driver/Inc/stm32f1xx_ll_dma.h ****   */
 277:Drivers/STM32F1xx_HAL_Driver/Inc/stm32f1xx_ll_dma.h **** #define LL_DMA_MEMORY_INCREMENT           DMA_CCR_MINC            /*!< Memory increment mode Enable
 278:Drivers/STM32F1xx_HAL_Driver/Inc/stm32f1xx_ll_dma.h **** #define LL_DMA_MEMORY_NOINCREMENT         0x00000000U             /*!< Memory increment mode Disabl
 279:Drivers/STM32F1xx_HAL_Driver/Inc/stm32f1xx_ll_dma.h **** /**
 280:Drivers/STM32F1xx_HAL_Driver/Inc/stm32f1xx_ll_dma.h ****   * @}
 281:Drivers/STM32F1xx_HAL_Driver/Inc/stm32f1xx_ll_dma.h ****   */
 282:Drivers/STM32F1xx_HAL_Driver/Inc/stm32f1xx_ll_dma.h **** 
 283:Drivers/STM32F1xx_HAL_Driver/Inc/stm32f1xx_ll_dma.h **** /** @defgroup DMA_LL_EC_PDATAALIGN Peripheral data alignment
 284:Drivers/STM32F1xx_HAL_Driver/Inc/stm32f1xx_ll_dma.h ****   * @{
 285:Drivers/STM32F1xx_HAL_Driver/Inc/stm32f1xx_ll_dma.h ****   */
 286:Drivers/STM32F1xx_HAL_Driver/Inc/stm32f1xx_ll_dma.h **** #define LL_DMA_PDATAALIGN_BYTE            0x00000000U             /*!< Peripheral data alignment : 
 287:Drivers/STM32F1xx_HAL_Driver/Inc/stm32f1xx_ll_dma.h **** #define LL_DMA_PDATAALIGN_HALFWORD        DMA_CCR_PSIZE_0         /*!< Peripheral data alignment : 
 288:Drivers/STM32F1xx_HAL_Driver/Inc/stm32f1xx_ll_dma.h **** #define LL_DMA_PDATAALIGN_WORD            DMA_CCR_PSIZE_1         /*!< Peripheral data alignment : 
 289:Drivers/STM32F1xx_HAL_Driver/Inc/stm32f1xx_ll_dma.h **** /**
 290:Drivers/STM32F1xx_HAL_Driver/Inc/stm32f1xx_ll_dma.h ****   * @}
 291:Drivers/STM32F1xx_HAL_Driver/Inc/stm32f1xx_ll_dma.h ****   */
 292:Drivers/STM32F1xx_HAL_Driver/Inc/stm32f1xx_ll_dma.h **** 
 293:Drivers/STM32F1xx_HAL_Driver/Inc/stm32f1xx_ll_dma.h **** /** @defgroup DMA_LL_EC_MDATAALIGN Memory data alignment
 294:Drivers/STM32F1xx_HAL_Driver/Inc/stm32f1xx_ll_dma.h ****   * @{
 295:Drivers/STM32F1xx_HAL_Driver/Inc/stm32f1xx_ll_dma.h ****   */
 296:Drivers/STM32F1xx_HAL_Driver/Inc/stm32f1xx_ll_dma.h **** #define LL_DMA_MDATAALIGN_BYTE            0x00000000U             /*!< Memory data alignment : Byte
 297:Drivers/STM32F1xx_HAL_Driver/Inc/stm32f1xx_ll_dma.h **** #define LL_DMA_MDATAALIGN_HALFWORD        DMA_CCR_MSIZE_0         /*!< Memory data alignment : Half
 298:Drivers/STM32F1xx_HAL_Driver/Inc/stm32f1xx_ll_dma.h **** #define LL_DMA_MDATAALIGN_WORD            DMA_CCR_MSIZE_1         /*!< Memory data alignment : Word
 299:Drivers/STM32F1xx_HAL_Driver/Inc/stm32f1xx_ll_dma.h **** /**
 300:Drivers/STM32F1xx_HAL_Driver/Inc/stm32f1xx_ll_dma.h ****   * @}
 301:Drivers/STM32F1xx_HAL_Driver/Inc/stm32f1xx_ll_dma.h ****   */
 302:Drivers/STM32F1xx_HAL_Driver/Inc/stm32f1xx_ll_dma.h **** 
 303:Drivers/STM32F1xx_HAL_Driver/Inc/stm32f1xx_ll_dma.h **** /** @defgroup DMA_LL_EC_PRIORITY Transfer Priority level
 304:Drivers/STM32F1xx_HAL_Driver/Inc/stm32f1xx_ll_dma.h ****   * @{
 305:Drivers/STM32F1xx_HAL_Driver/Inc/stm32f1xx_ll_dma.h ****   */
ARM GAS  /tmp/ccO145yx.s 			page 23


 306:Drivers/STM32F1xx_HAL_Driver/Inc/stm32f1xx_ll_dma.h **** #define LL_DMA_PRIORITY_LOW               0x00000000U             /*!< Priority level : Low       *
 307:Drivers/STM32F1xx_HAL_Driver/Inc/stm32f1xx_ll_dma.h **** #define LL_DMA_PRIORITY_MEDIUM            DMA_CCR_PL_0            /*!< Priority level : Medium    *
 308:Drivers/STM32F1xx_HAL_Driver/Inc/stm32f1xx_ll_dma.h **** #define LL_DMA_PRIORITY_HIGH              DMA_CCR_PL_1            /*!< Priority level : High      *
 309:Drivers/STM32F1xx_HAL_Driver/Inc/stm32f1xx_ll_dma.h **** #define LL_DMA_PRIORITY_VERYHIGH          DMA_CCR_PL              /*!< Priority level : Very_High *
 310:Drivers/STM32F1xx_HAL_Driver/Inc/stm32f1xx_ll_dma.h **** /**
 311:Drivers/STM32F1xx_HAL_Driver/Inc/stm32f1xx_ll_dma.h ****   * @}
 312:Drivers/STM32F1xx_HAL_Driver/Inc/stm32f1xx_ll_dma.h ****   */
 313:Drivers/STM32F1xx_HAL_Driver/Inc/stm32f1xx_ll_dma.h **** 
 314:Drivers/STM32F1xx_HAL_Driver/Inc/stm32f1xx_ll_dma.h **** /**
 315:Drivers/STM32F1xx_HAL_Driver/Inc/stm32f1xx_ll_dma.h ****   * @}
 316:Drivers/STM32F1xx_HAL_Driver/Inc/stm32f1xx_ll_dma.h ****   */
 317:Drivers/STM32F1xx_HAL_Driver/Inc/stm32f1xx_ll_dma.h **** 
 318:Drivers/STM32F1xx_HAL_Driver/Inc/stm32f1xx_ll_dma.h **** /* Exported macro ------------------------------------------------------------*/
 319:Drivers/STM32F1xx_HAL_Driver/Inc/stm32f1xx_ll_dma.h **** /** @defgroup DMA_LL_Exported_Macros DMA Exported Macros
 320:Drivers/STM32F1xx_HAL_Driver/Inc/stm32f1xx_ll_dma.h ****   * @{
 321:Drivers/STM32F1xx_HAL_Driver/Inc/stm32f1xx_ll_dma.h ****   */
 322:Drivers/STM32F1xx_HAL_Driver/Inc/stm32f1xx_ll_dma.h **** 
 323:Drivers/STM32F1xx_HAL_Driver/Inc/stm32f1xx_ll_dma.h **** /** @defgroup DMA_LL_EM_WRITE_READ Common Write and read registers macros
 324:Drivers/STM32F1xx_HAL_Driver/Inc/stm32f1xx_ll_dma.h ****   * @{
 325:Drivers/STM32F1xx_HAL_Driver/Inc/stm32f1xx_ll_dma.h ****   */
 326:Drivers/STM32F1xx_HAL_Driver/Inc/stm32f1xx_ll_dma.h **** /**
 327:Drivers/STM32F1xx_HAL_Driver/Inc/stm32f1xx_ll_dma.h ****   * @brief  Write a value in DMA register
 328:Drivers/STM32F1xx_HAL_Driver/Inc/stm32f1xx_ll_dma.h ****   * @param  __INSTANCE__ DMA Instance
 329:Drivers/STM32F1xx_HAL_Driver/Inc/stm32f1xx_ll_dma.h ****   * @param  __REG__ Register to be written
 330:Drivers/STM32F1xx_HAL_Driver/Inc/stm32f1xx_ll_dma.h ****   * @param  __VALUE__ Value to be written in the register
 331:Drivers/STM32F1xx_HAL_Driver/Inc/stm32f1xx_ll_dma.h ****   * @retval None
 332:Drivers/STM32F1xx_HAL_Driver/Inc/stm32f1xx_ll_dma.h ****   */
 333:Drivers/STM32F1xx_HAL_Driver/Inc/stm32f1xx_ll_dma.h **** #define LL_DMA_WriteReg(__INSTANCE__, __REG__, __VALUE__) WRITE_REG(__INSTANCE__->__REG__, (__VALUE
 334:Drivers/STM32F1xx_HAL_Driver/Inc/stm32f1xx_ll_dma.h **** 
 335:Drivers/STM32F1xx_HAL_Driver/Inc/stm32f1xx_ll_dma.h **** /**
 336:Drivers/STM32F1xx_HAL_Driver/Inc/stm32f1xx_ll_dma.h ****   * @brief  Read a value in DMA register
 337:Drivers/STM32F1xx_HAL_Driver/Inc/stm32f1xx_ll_dma.h ****   * @param  __INSTANCE__ DMA Instance
 338:Drivers/STM32F1xx_HAL_Driver/Inc/stm32f1xx_ll_dma.h ****   * @param  __REG__ Register to be read
 339:Drivers/STM32F1xx_HAL_Driver/Inc/stm32f1xx_ll_dma.h ****   * @retval Register value
 340:Drivers/STM32F1xx_HAL_Driver/Inc/stm32f1xx_ll_dma.h ****   */
 341:Drivers/STM32F1xx_HAL_Driver/Inc/stm32f1xx_ll_dma.h **** #define LL_DMA_ReadReg(__INSTANCE__, __REG__) READ_REG(__INSTANCE__->__REG__)
 342:Drivers/STM32F1xx_HAL_Driver/Inc/stm32f1xx_ll_dma.h **** /**
 343:Drivers/STM32F1xx_HAL_Driver/Inc/stm32f1xx_ll_dma.h ****   * @}
 344:Drivers/STM32F1xx_HAL_Driver/Inc/stm32f1xx_ll_dma.h ****   */
 345:Drivers/STM32F1xx_HAL_Driver/Inc/stm32f1xx_ll_dma.h **** 
 346:Drivers/STM32F1xx_HAL_Driver/Inc/stm32f1xx_ll_dma.h **** /** @defgroup DMA_LL_EM_CONVERT_DMAxCHANNELy Convert DMAxChannely
 347:Drivers/STM32F1xx_HAL_Driver/Inc/stm32f1xx_ll_dma.h ****   * @{
 348:Drivers/STM32F1xx_HAL_Driver/Inc/stm32f1xx_ll_dma.h ****   */
 349:Drivers/STM32F1xx_HAL_Driver/Inc/stm32f1xx_ll_dma.h **** 
 350:Drivers/STM32F1xx_HAL_Driver/Inc/stm32f1xx_ll_dma.h **** /**
 351:Drivers/STM32F1xx_HAL_Driver/Inc/stm32f1xx_ll_dma.h ****   * @brief  Convert DMAx_Channely into DMAx
 352:Drivers/STM32F1xx_HAL_Driver/Inc/stm32f1xx_ll_dma.h ****   * @param  __CHANNEL_INSTANCE__ DMAx_Channely
 353:Drivers/STM32F1xx_HAL_Driver/Inc/stm32f1xx_ll_dma.h ****   * @retval DMAx
 354:Drivers/STM32F1xx_HAL_Driver/Inc/stm32f1xx_ll_dma.h ****   */
 355:Drivers/STM32F1xx_HAL_Driver/Inc/stm32f1xx_ll_dma.h **** #if defined(DMA2)
 356:Drivers/STM32F1xx_HAL_Driver/Inc/stm32f1xx_ll_dma.h **** #define __LL_DMA_GET_INSTANCE(__CHANNEL_INSTANCE__)   \
 357:Drivers/STM32F1xx_HAL_Driver/Inc/stm32f1xx_ll_dma.h **** (((uint32_t)(__CHANNEL_INSTANCE__) > ((uint32_t)DMA1_Channel7)) ?  DMA2 : DMA1)
 358:Drivers/STM32F1xx_HAL_Driver/Inc/stm32f1xx_ll_dma.h **** #else
 359:Drivers/STM32F1xx_HAL_Driver/Inc/stm32f1xx_ll_dma.h **** #define __LL_DMA_GET_INSTANCE(__CHANNEL_INSTANCE__)  (DMA1)
 360:Drivers/STM32F1xx_HAL_Driver/Inc/stm32f1xx_ll_dma.h **** #endif
 361:Drivers/STM32F1xx_HAL_Driver/Inc/stm32f1xx_ll_dma.h **** 
 362:Drivers/STM32F1xx_HAL_Driver/Inc/stm32f1xx_ll_dma.h **** /**
ARM GAS  /tmp/ccO145yx.s 			page 24


 363:Drivers/STM32F1xx_HAL_Driver/Inc/stm32f1xx_ll_dma.h ****   * @brief  Convert DMAx_Channely into LL_DMA_CHANNEL_y
 364:Drivers/STM32F1xx_HAL_Driver/Inc/stm32f1xx_ll_dma.h ****   * @param  __CHANNEL_INSTANCE__ DMAx_Channely
 365:Drivers/STM32F1xx_HAL_Driver/Inc/stm32f1xx_ll_dma.h ****   * @retval LL_DMA_CHANNEL_y
 366:Drivers/STM32F1xx_HAL_Driver/Inc/stm32f1xx_ll_dma.h ****   */
 367:Drivers/STM32F1xx_HAL_Driver/Inc/stm32f1xx_ll_dma.h **** #if defined (DMA2)
 368:Drivers/STM32F1xx_HAL_Driver/Inc/stm32f1xx_ll_dma.h **** #define __LL_DMA_GET_CHANNEL(__CHANNEL_INSTANCE__)   \
 369:Drivers/STM32F1xx_HAL_Driver/Inc/stm32f1xx_ll_dma.h **** (((uint32_t)(__CHANNEL_INSTANCE__) == ((uint32_t)DMA1_Channel1)) ? LL_DMA_CHANNEL_1 : \
 370:Drivers/STM32F1xx_HAL_Driver/Inc/stm32f1xx_ll_dma.h ****  ((uint32_t)(__CHANNEL_INSTANCE__) == ((uint32_t)DMA2_Channel1)) ? LL_DMA_CHANNEL_1 : \
 371:Drivers/STM32F1xx_HAL_Driver/Inc/stm32f1xx_ll_dma.h ****  ((uint32_t)(__CHANNEL_INSTANCE__) == ((uint32_t)DMA1_Channel2)) ? LL_DMA_CHANNEL_2 : \
 372:Drivers/STM32F1xx_HAL_Driver/Inc/stm32f1xx_ll_dma.h ****  ((uint32_t)(__CHANNEL_INSTANCE__) == ((uint32_t)DMA2_Channel2)) ? LL_DMA_CHANNEL_2 : \
 373:Drivers/STM32F1xx_HAL_Driver/Inc/stm32f1xx_ll_dma.h ****  ((uint32_t)(__CHANNEL_INSTANCE__) == ((uint32_t)DMA1_Channel3)) ? LL_DMA_CHANNEL_3 : \
 374:Drivers/STM32F1xx_HAL_Driver/Inc/stm32f1xx_ll_dma.h ****  ((uint32_t)(__CHANNEL_INSTANCE__) == ((uint32_t)DMA2_Channel3)) ? LL_DMA_CHANNEL_3 : \
 375:Drivers/STM32F1xx_HAL_Driver/Inc/stm32f1xx_ll_dma.h ****  ((uint32_t)(__CHANNEL_INSTANCE__) == ((uint32_t)DMA1_Channel4)) ? LL_DMA_CHANNEL_4 : \
 376:Drivers/STM32F1xx_HAL_Driver/Inc/stm32f1xx_ll_dma.h ****  ((uint32_t)(__CHANNEL_INSTANCE__) == ((uint32_t)DMA2_Channel4)) ? LL_DMA_CHANNEL_4 : \
 377:Drivers/STM32F1xx_HAL_Driver/Inc/stm32f1xx_ll_dma.h ****  ((uint32_t)(__CHANNEL_INSTANCE__) == ((uint32_t)DMA1_Channel5)) ? LL_DMA_CHANNEL_5 : \
 378:Drivers/STM32F1xx_HAL_Driver/Inc/stm32f1xx_ll_dma.h ****  ((uint32_t)(__CHANNEL_INSTANCE__) == ((uint32_t)DMA2_Channel5)) ? LL_DMA_CHANNEL_5 : \
 379:Drivers/STM32F1xx_HAL_Driver/Inc/stm32f1xx_ll_dma.h ****  ((uint32_t)(__CHANNEL_INSTANCE__) == ((uint32_t)DMA1_Channel6)) ? LL_DMA_CHANNEL_6 : \
 380:Drivers/STM32F1xx_HAL_Driver/Inc/stm32f1xx_ll_dma.h ****  LL_DMA_CHANNEL_7)
 381:Drivers/STM32F1xx_HAL_Driver/Inc/stm32f1xx_ll_dma.h **** #else
 382:Drivers/STM32F1xx_HAL_Driver/Inc/stm32f1xx_ll_dma.h **** #define __LL_DMA_GET_CHANNEL(__CHANNEL_INSTANCE__)   \
 383:Drivers/STM32F1xx_HAL_Driver/Inc/stm32f1xx_ll_dma.h **** (((uint32_t)(__CHANNEL_INSTANCE__) == ((uint32_t)DMA1_Channel1)) ? LL_DMA_CHANNEL_1 : \
 384:Drivers/STM32F1xx_HAL_Driver/Inc/stm32f1xx_ll_dma.h ****  ((uint32_t)(__CHANNEL_INSTANCE__) == ((uint32_t)DMA1_Channel2)) ? LL_DMA_CHANNEL_2 : \
 385:Drivers/STM32F1xx_HAL_Driver/Inc/stm32f1xx_ll_dma.h ****  ((uint32_t)(__CHANNEL_INSTANCE__) == ((uint32_t)DMA1_Channel3)) ? LL_DMA_CHANNEL_3 : \
 386:Drivers/STM32F1xx_HAL_Driver/Inc/stm32f1xx_ll_dma.h ****  ((uint32_t)(__CHANNEL_INSTANCE__) == ((uint32_t)DMA1_Channel4)) ? LL_DMA_CHANNEL_4 : \
 387:Drivers/STM32F1xx_HAL_Driver/Inc/stm32f1xx_ll_dma.h ****  ((uint32_t)(__CHANNEL_INSTANCE__) == ((uint32_t)DMA1_Channel5)) ? LL_DMA_CHANNEL_5 : \
 388:Drivers/STM32F1xx_HAL_Driver/Inc/stm32f1xx_ll_dma.h ****  ((uint32_t)(__CHANNEL_INSTANCE__) == ((uint32_t)DMA1_Channel6)) ? LL_DMA_CHANNEL_6 : \
 389:Drivers/STM32F1xx_HAL_Driver/Inc/stm32f1xx_ll_dma.h ****  LL_DMA_CHANNEL_7)
 390:Drivers/STM32F1xx_HAL_Driver/Inc/stm32f1xx_ll_dma.h **** #endif
 391:Drivers/STM32F1xx_HAL_Driver/Inc/stm32f1xx_ll_dma.h **** 
 392:Drivers/STM32F1xx_HAL_Driver/Inc/stm32f1xx_ll_dma.h **** /**
 393:Drivers/STM32F1xx_HAL_Driver/Inc/stm32f1xx_ll_dma.h ****   * @brief  Convert DMA Instance DMAx and LL_DMA_CHANNEL_y into DMAx_Channely
 394:Drivers/STM32F1xx_HAL_Driver/Inc/stm32f1xx_ll_dma.h ****   * @param  __DMA_INSTANCE__ DMAx
 395:Drivers/STM32F1xx_HAL_Driver/Inc/stm32f1xx_ll_dma.h ****   * @param  __CHANNEL__ LL_DMA_CHANNEL_y
 396:Drivers/STM32F1xx_HAL_Driver/Inc/stm32f1xx_ll_dma.h ****   * @retval DMAx_Channely
 397:Drivers/STM32F1xx_HAL_Driver/Inc/stm32f1xx_ll_dma.h ****   */
 398:Drivers/STM32F1xx_HAL_Driver/Inc/stm32f1xx_ll_dma.h **** #if defined (DMA2)
 399:Drivers/STM32F1xx_HAL_Driver/Inc/stm32f1xx_ll_dma.h **** #define __LL_DMA_GET_CHANNEL_INSTANCE(__DMA_INSTANCE__, __CHANNEL__)   \
 400:Drivers/STM32F1xx_HAL_Driver/Inc/stm32f1xx_ll_dma.h **** ((((uint32_t)(__DMA_INSTANCE__) == ((uint32_t)DMA1)) && ((uint32_t)(__CHANNEL__) == ((uint32_t)LL_D
 401:Drivers/STM32F1xx_HAL_Driver/Inc/stm32f1xx_ll_dma.h ****  (((uint32_t)(__DMA_INSTANCE__) == ((uint32_t)DMA2)) && ((uint32_t)(__CHANNEL__) == ((uint32_t)LL_D
 402:Drivers/STM32F1xx_HAL_Driver/Inc/stm32f1xx_ll_dma.h ****  (((uint32_t)(__DMA_INSTANCE__) == ((uint32_t)DMA1)) && ((uint32_t)(__CHANNEL__) == ((uint32_t)LL_D
 403:Drivers/STM32F1xx_HAL_Driver/Inc/stm32f1xx_ll_dma.h ****  (((uint32_t)(__DMA_INSTANCE__) == ((uint32_t)DMA2)) && ((uint32_t)(__CHANNEL__) == ((uint32_t)LL_D
 404:Drivers/STM32F1xx_HAL_Driver/Inc/stm32f1xx_ll_dma.h ****  (((uint32_t)(__DMA_INSTANCE__) == ((uint32_t)DMA1)) && ((uint32_t)(__CHANNEL__) == ((uint32_t)LL_D
 405:Drivers/STM32F1xx_HAL_Driver/Inc/stm32f1xx_ll_dma.h ****  (((uint32_t)(__DMA_INSTANCE__) == ((uint32_t)DMA2)) && ((uint32_t)(__CHANNEL__) == ((uint32_t)LL_D
 406:Drivers/STM32F1xx_HAL_Driver/Inc/stm32f1xx_ll_dma.h ****  (((uint32_t)(__DMA_INSTANCE__) == ((uint32_t)DMA1)) && ((uint32_t)(__CHANNEL__) == ((uint32_t)LL_D
 407:Drivers/STM32F1xx_HAL_Driver/Inc/stm32f1xx_ll_dma.h ****  (((uint32_t)(__DMA_INSTANCE__) == ((uint32_t)DMA2)) && ((uint32_t)(__CHANNEL__) == ((uint32_t)LL_D
 408:Drivers/STM32F1xx_HAL_Driver/Inc/stm32f1xx_ll_dma.h ****  (((uint32_t)(__DMA_INSTANCE__) == ((uint32_t)DMA1)) && ((uint32_t)(__CHANNEL__) == ((uint32_t)LL_D
 409:Drivers/STM32F1xx_HAL_Driver/Inc/stm32f1xx_ll_dma.h ****  (((uint32_t)(__DMA_INSTANCE__) == ((uint32_t)DMA2)) && ((uint32_t)(__CHANNEL__) == ((uint32_t)LL_D
 410:Drivers/STM32F1xx_HAL_Driver/Inc/stm32f1xx_ll_dma.h ****  (((uint32_t)(__DMA_INSTANCE__) == ((uint32_t)DMA1)) && ((uint32_t)(__CHANNEL__) == ((uint32_t)LL_D
 411:Drivers/STM32F1xx_HAL_Driver/Inc/stm32f1xx_ll_dma.h ****  DMA1_Channel7)
 412:Drivers/STM32F1xx_HAL_Driver/Inc/stm32f1xx_ll_dma.h **** #else
 413:Drivers/STM32F1xx_HAL_Driver/Inc/stm32f1xx_ll_dma.h **** #define __LL_DMA_GET_CHANNEL_INSTANCE(__DMA_INSTANCE__, __CHANNEL__)   \
 414:Drivers/STM32F1xx_HAL_Driver/Inc/stm32f1xx_ll_dma.h **** ((((uint32_t)(__DMA_INSTANCE__) == ((uint32_t)DMA1)) && ((uint32_t)(__CHANNEL__) == ((uint32_t)LL_D
 415:Drivers/STM32F1xx_HAL_Driver/Inc/stm32f1xx_ll_dma.h ****  (((uint32_t)(__DMA_INSTANCE__) == ((uint32_t)DMA1)) && ((uint32_t)(__CHANNEL__) == ((uint32_t)LL_D
 416:Drivers/STM32F1xx_HAL_Driver/Inc/stm32f1xx_ll_dma.h ****  (((uint32_t)(__DMA_INSTANCE__) == ((uint32_t)DMA1)) && ((uint32_t)(__CHANNEL__) == ((uint32_t)LL_D
 417:Drivers/STM32F1xx_HAL_Driver/Inc/stm32f1xx_ll_dma.h ****  (((uint32_t)(__DMA_INSTANCE__) == ((uint32_t)DMA1)) && ((uint32_t)(__CHANNEL__) == ((uint32_t)LL_D
 418:Drivers/STM32F1xx_HAL_Driver/Inc/stm32f1xx_ll_dma.h ****  (((uint32_t)(__DMA_INSTANCE__) == ((uint32_t)DMA1)) && ((uint32_t)(__CHANNEL__) == ((uint32_t)LL_D
 419:Drivers/STM32F1xx_HAL_Driver/Inc/stm32f1xx_ll_dma.h ****  (((uint32_t)(__DMA_INSTANCE__) == ((uint32_t)DMA1)) && ((uint32_t)(__CHANNEL__) == ((uint32_t)LL_D
ARM GAS  /tmp/ccO145yx.s 			page 25


 420:Drivers/STM32F1xx_HAL_Driver/Inc/stm32f1xx_ll_dma.h ****  DMA1_Channel7)
 421:Drivers/STM32F1xx_HAL_Driver/Inc/stm32f1xx_ll_dma.h **** #endif
 422:Drivers/STM32F1xx_HAL_Driver/Inc/stm32f1xx_ll_dma.h **** 
 423:Drivers/STM32F1xx_HAL_Driver/Inc/stm32f1xx_ll_dma.h **** /**
 424:Drivers/STM32F1xx_HAL_Driver/Inc/stm32f1xx_ll_dma.h ****   * @}
 425:Drivers/STM32F1xx_HAL_Driver/Inc/stm32f1xx_ll_dma.h ****   */
 426:Drivers/STM32F1xx_HAL_Driver/Inc/stm32f1xx_ll_dma.h **** 
 427:Drivers/STM32F1xx_HAL_Driver/Inc/stm32f1xx_ll_dma.h **** /**
 428:Drivers/STM32F1xx_HAL_Driver/Inc/stm32f1xx_ll_dma.h ****   * @}
 429:Drivers/STM32F1xx_HAL_Driver/Inc/stm32f1xx_ll_dma.h ****   */
 430:Drivers/STM32F1xx_HAL_Driver/Inc/stm32f1xx_ll_dma.h **** 
 431:Drivers/STM32F1xx_HAL_Driver/Inc/stm32f1xx_ll_dma.h **** /* Exported functions --------------------------------------------------------*/
 432:Drivers/STM32F1xx_HAL_Driver/Inc/stm32f1xx_ll_dma.h **** /** @defgroup DMA_LL_Exported_Functions DMA Exported Functions
 433:Drivers/STM32F1xx_HAL_Driver/Inc/stm32f1xx_ll_dma.h ****  * @{
 434:Drivers/STM32F1xx_HAL_Driver/Inc/stm32f1xx_ll_dma.h ****  */
 435:Drivers/STM32F1xx_HAL_Driver/Inc/stm32f1xx_ll_dma.h **** 
 436:Drivers/STM32F1xx_HAL_Driver/Inc/stm32f1xx_ll_dma.h **** /** @defgroup DMA_LL_EF_Configuration Configuration
 437:Drivers/STM32F1xx_HAL_Driver/Inc/stm32f1xx_ll_dma.h ****   * @{
 438:Drivers/STM32F1xx_HAL_Driver/Inc/stm32f1xx_ll_dma.h ****   */
 439:Drivers/STM32F1xx_HAL_Driver/Inc/stm32f1xx_ll_dma.h **** /**
 440:Drivers/STM32F1xx_HAL_Driver/Inc/stm32f1xx_ll_dma.h ****   * @brief  Enable DMA channel.
 441:Drivers/STM32F1xx_HAL_Driver/Inc/stm32f1xx_ll_dma.h ****   * @rmtoll CCR          EN            LL_DMA_EnableChannel
 442:Drivers/STM32F1xx_HAL_Driver/Inc/stm32f1xx_ll_dma.h ****   * @param  DMAx DMAx Instance
 443:Drivers/STM32F1xx_HAL_Driver/Inc/stm32f1xx_ll_dma.h ****   * @param  Channel This parameter can be one of the following values:
 444:Drivers/STM32F1xx_HAL_Driver/Inc/stm32f1xx_ll_dma.h ****   *         @arg @ref LL_DMA_CHANNEL_1
 445:Drivers/STM32F1xx_HAL_Driver/Inc/stm32f1xx_ll_dma.h ****   *         @arg @ref LL_DMA_CHANNEL_2
 446:Drivers/STM32F1xx_HAL_Driver/Inc/stm32f1xx_ll_dma.h ****   *         @arg @ref LL_DMA_CHANNEL_3
 447:Drivers/STM32F1xx_HAL_Driver/Inc/stm32f1xx_ll_dma.h ****   *         @arg @ref LL_DMA_CHANNEL_4
 448:Drivers/STM32F1xx_HAL_Driver/Inc/stm32f1xx_ll_dma.h ****   *         @arg @ref LL_DMA_CHANNEL_5
 449:Drivers/STM32F1xx_HAL_Driver/Inc/stm32f1xx_ll_dma.h ****   *         @arg @ref LL_DMA_CHANNEL_6
 450:Drivers/STM32F1xx_HAL_Driver/Inc/stm32f1xx_ll_dma.h ****   *         @arg @ref LL_DMA_CHANNEL_7
 451:Drivers/STM32F1xx_HAL_Driver/Inc/stm32f1xx_ll_dma.h ****   * @retval None
 452:Drivers/STM32F1xx_HAL_Driver/Inc/stm32f1xx_ll_dma.h ****   */
 453:Drivers/STM32F1xx_HAL_Driver/Inc/stm32f1xx_ll_dma.h **** __STATIC_INLINE void LL_DMA_EnableChannel(DMA_TypeDef *DMAx, uint32_t Channel)
 454:Drivers/STM32F1xx_HAL_Driver/Inc/stm32f1xx_ll_dma.h **** {
 455:Drivers/STM32F1xx_HAL_Driver/Inc/stm32f1xx_ll_dma.h ****   SET_BIT(((DMA_Channel_TypeDef *)((uint32_t)((uint32_t)DMAx + CHANNEL_OFFSET_TAB[Channel - 1U])))-
 456:Drivers/STM32F1xx_HAL_Driver/Inc/stm32f1xx_ll_dma.h **** }
 457:Drivers/STM32F1xx_HAL_Driver/Inc/stm32f1xx_ll_dma.h **** 
 458:Drivers/STM32F1xx_HAL_Driver/Inc/stm32f1xx_ll_dma.h **** /**
 459:Drivers/STM32F1xx_HAL_Driver/Inc/stm32f1xx_ll_dma.h ****   * @brief  Disable DMA channel.
 460:Drivers/STM32F1xx_HAL_Driver/Inc/stm32f1xx_ll_dma.h ****   * @rmtoll CCR          EN            LL_DMA_DisableChannel
 461:Drivers/STM32F1xx_HAL_Driver/Inc/stm32f1xx_ll_dma.h ****   * @param  DMAx DMAx Instance
 462:Drivers/STM32F1xx_HAL_Driver/Inc/stm32f1xx_ll_dma.h ****   * @param  Channel This parameter can be one of the following values:
 463:Drivers/STM32F1xx_HAL_Driver/Inc/stm32f1xx_ll_dma.h ****   *         @arg @ref LL_DMA_CHANNEL_1
 464:Drivers/STM32F1xx_HAL_Driver/Inc/stm32f1xx_ll_dma.h ****   *         @arg @ref LL_DMA_CHANNEL_2
 465:Drivers/STM32F1xx_HAL_Driver/Inc/stm32f1xx_ll_dma.h ****   *         @arg @ref LL_DMA_CHANNEL_3
 466:Drivers/STM32F1xx_HAL_Driver/Inc/stm32f1xx_ll_dma.h ****   *         @arg @ref LL_DMA_CHANNEL_4
 467:Drivers/STM32F1xx_HAL_Driver/Inc/stm32f1xx_ll_dma.h ****   *         @arg @ref LL_DMA_CHANNEL_5
 468:Drivers/STM32F1xx_HAL_Driver/Inc/stm32f1xx_ll_dma.h ****   *         @arg @ref LL_DMA_CHANNEL_6
 469:Drivers/STM32F1xx_HAL_Driver/Inc/stm32f1xx_ll_dma.h ****   *         @arg @ref LL_DMA_CHANNEL_7
 470:Drivers/STM32F1xx_HAL_Driver/Inc/stm32f1xx_ll_dma.h ****   * @retval None
 471:Drivers/STM32F1xx_HAL_Driver/Inc/stm32f1xx_ll_dma.h ****   */
 472:Drivers/STM32F1xx_HAL_Driver/Inc/stm32f1xx_ll_dma.h **** __STATIC_INLINE void LL_DMA_DisableChannel(DMA_TypeDef *DMAx, uint32_t Channel)
 473:Drivers/STM32F1xx_HAL_Driver/Inc/stm32f1xx_ll_dma.h **** {
 474:Drivers/STM32F1xx_HAL_Driver/Inc/stm32f1xx_ll_dma.h ****   CLEAR_BIT(((DMA_Channel_TypeDef *)((uint32_t)((uint32_t)DMAx + CHANNEL_OFFSET_TAB[Channel - 1U]))
 475:Drivers/STM32F1xx_HAL_Driver/Inc/stm32f1xx_ll_dma.h **** }
 476:Drivers/STM32F1xx_HAL_Driver/Inc/stm32f1xx_ll_dma.h **** 
ARM GAS  /tmp/ccO145yx.s 			page 26


 477:Drivers/STM32F1xx_HAL_Driver/Inc/stm32f1xx_ll_dma.h **** /**
 478:Drivers/STM32F1xx_HAL_Driver/Inc/stm32f1xx_ll_dma.h ****   * @brief  Check if DMA channel is enabled or disabled.
 479:Drivers/STM32F1xx_HAL_Driver/Inc/stm32f1xx_ll_dma.h ****   * @rmtoll CCR          EN            LL_DMA_IsEnabledChannel
 480:Drivers/STM32F1xx_HAL_Driver/Inc/stm32f1xx_ll_dma.h ****   * @param  DMAx DMAx Instance
 481:Drivers/STM32F1xx_HAL_Driver/Inc/stm32f1xx_ll_dma.h ****   * @param  Channel This parameter can be one of the following values:
 482:Drivers/STM32F1xx_HAL_Driver/Inc/stm32f1xx_ll_dma.h ****   *         @arg @ref LL_DMA_CHANNEL_1
 483:Drivers/STM32F1xx_HAL_Driver/Inc/stm32f1xx_ll_dma.h ****   *         @arg @ref LL_DMA_CHANNEL_2
 484:Drivers/STM32F1xx_HAL_Driver/Inc/stm32f1xx_ll_dma.h ****   *         @arg @ref LL_DMA_CHANNEL_3
 485:Drivers/STM32F1xx_HAL_Driver/Inc/stm32f1xx_ll_dma.h ****   *         @arg @ref LL_DMA_CHANNEL_4
 486:Drivers/STM32F1xx_HAL_Driver/Inc/stm32f1xx_ll_dma.h ****   *         @arg @ref LL_DMA_CHANNEL_5
 487:Drivers/STM32F1xx_HAL_Driver/Inc/stm32f1xx_ll_dma.h ****   *         @arg @ref LL_DMA_CHANNEL_6
 488:Drivers/STM32F1xx_HAL_Driver/Inc/stm32f1xx_ll_dma.h ****   *         @arg @ref LL_DMA_CHANNEL_7
 489:Drivers/STM32F1xx_HAL_Driver/Inc/stm32f1xx_ll_dma.h ****   * @retval State of bit (1 or 0).
 490:Drivers/STM32F1xx_HAL_Driver/Inc/stm32f1xx_ll_dma.h ****   */
 491:Drivers/STM32F1xx_HAL_Driver/Inc/stm32f1xx_ll_dma.h **** __STATIC_INLINE uint32_t LL_DMA_IsEnabledChannel(DMA_TypeDef *DMAx, uint32_t Channel)
 492:Drivers/STM32F1xx_HAL_Driver/Inc/stm32f1xx_ll_dma.h **** {
 493:Drivers/STM32F1xx_HAL_Driver/Inc/stm32f1xx_ll_dma.h ****   return (READ_BIT(((DMA_Channel_TypeDef *)((uint32_t)((uint32_t)DMAx + CHANNEL_OFFSET_TAB[Channel 
 494:Drivers/STM32F1xx_HAL_Driver/Inc/stm32f1xx_ll_dma.h ****                    DMA_CCR_EN) == (DMA_CCR_EN));
 495:Drivers/STM32F1xx_HAL_Driver/Inc/stm32f1xx_ll_dma.h **** }
 496:Drivers/STM32F1xx_HAL_Driver/Inc/stm32f1xx_ll_dma.h **** 
 497:Drivers/STM32F1xx_HAL_Driver/Inc/stm32f1xx_ll_dma.h **** /**
 498:Drivers/STM32F1xx_HAL_Driver/Inc/stm32f1xx_ll_dma.h ****   * @brief  Configure all parameters link to DMA transfer.
 499:Drivers/STM32F1xx_HAL_Driver/Inc/stm32f1xx_ll_dma.h ****   * @rmtoll CCR          DIR           LL_DMA_ConfigTransfer\n
 500:Drivers/STM32F1xx_HAL_Driver/Inc/stm32f1xx_ll_dma.h ****   *         CCR          MEM2MEM       LL_DMA_ConfigTransfer\n
 501:Drivers/STM32F1xx_HAL_Driver/Inc/stm32f1xx_ll_dma.h ****   *         CCR          CIRC          LL_DMA_ConfigTransfer\n
 502:Drivers/STM32F1xx_HAL_Driver/Inc/stm32f1xx_ll_dma.h ****   *         CCR          PINC          LL_DMA_ConfigTransfer\n
 503:Drivers/STM32F1xx_HAL_Driver/Inc/stm32f1xx_ll_dma.h ****   *         CCR          MINC          LL_DMA_ConfigTransfer\n
 504:Drivers/STM32F1xx_HAL_Driver/Inc/stm32f1xx_ll_dma.h ****   *         CCR          PSIZE         LL_DMA_ConfigTransfer\n
 505:Drivers/STM32F1xx_HAL_Driver/Inc/stm32f1xx_ll_dma.h ****   *         CCR          MSIZE         LL_DMA_ConfigTransfer\n
 506:Drivers/STM32F1xx_HAL_Driver/Inc/stm32f1xx_ll_dma.h ****   *         CCR          PL            LL_DMA_ConfigTransfer
 507:Drivers/STM32F1xx_HAL_Driver/Inc/stm32f1xx_ll_dma.h ****   * @param  DMAx DMAx Instance
 508:Drivers/STM32F1xx_HAL_Driver/Inc/stm32f1xx_ll_dma.h ****   * @param  Channel This parameter can be one of the following values:
 509:Drivers/STM32F1xx_HAL_Driver/Inc/stm32f1xx_ll_dma.h ****   *         @arg @ref LL_DMA_CHANNEL_1
 510:Drivers/STM32F1xx_HAL_Driver/Inc/stm32f1xx_ll_dma.h ****   *         @arg @ref LL_DMA_CHANNEL_2
 511:Drivers/STM32F1xx_HAL_Driver/Inc/stm32f1xx_ll_dma.h ****   *         @arg @ref LL_DMA_CHANNEL_3
 512:Drivers/STM32F1xx_HAL_Driver/Inc/stm32f1xx_ll_dma.h ****   *         @arg @ref LL_DMA_CHANNEL_4
 513:Drivers/STM32F1xx_HAL_Driver/Inc/stm32f1xx_ll_dma.h ****   *         @arg @ref LL_DMA_CHANNEL_5
 514:Drivers/STM32F1xx_HAL_Driver/Inc/stm32f1xx_ll_dma.h ****   *         @arg @ref LL_DMA_CHANNEL_6
 515:Drivers/STM32F1xx_HAL_Driver/Inc/stm32f1xx_ll_dma.h ****   *         @arg @ref LL_DMA_CHANNEL_7
 516:Drivers/STM32F1xx_HAL_Driver/Inc/stm32f1xx_ll_dma.h ****   * @param  Configuration This parameter must be a combination of all the following values:
 517:Drivers/STM32F1xx_HAL_Driver/Inc/stm32f1xx_ll_dma.h ****   *         @arg @ref LL_DMA_DIRECTION_PERIPH_TO_MEMORY or @ref LL_DMA_DIRECTION_MEMORY_TO_PERIPH o
 518:Drivers/STM32F1xx_HAL_Driver/Inc/stm32f1xx_ll_dma.h ****   *         @arg @ref LL_DMA_MODE_NORMAL or @ref LL_DMA_MODE_CIRCULAR
 519:Drivers/STM32F1xx_HAL_Driver/Inc/stm32f1xx_ll_dma.h ****   *         @arg @ref LL_DMA_PERIPH_INCREMENT or @ref LL_DMA_PERIPH_NOINCREMENT
 520:Drivers/STM32F1xx_HAL_Driver/Inc/stm32f1xx_ll_dma.h ****   *         @arg @ref LL_DMA_MEMORY_INCREMENT or @ref LL_DMA_MEMORY_NOINCREMENT
 521:Drivers/STM32F1xx_HAL_Driver/Inc/stm32f1xx_ll_dma.h ****   *         @arg @ref LL_DMA_PDATAALIGN_BYTE or @ref LL_DMA_PDATAALIGN_HALFWORD or @ref LL_DMA_PDAT
 522:Drivers/STM32F1xx_HAL_Driver/Inc/stm32f1xx_ll_dma.h ****   *         @arg @ref LL_DMA_MDATAALIGN_BYTE or @ref LL_DMA_MDATAALIGN_HALFWORD or @ref LL_DMA_MDAT
 523:Drivers/STM32F1xx_HAL_Driver/Inc/stm32f1xx_ll_dma.h ****   *         @arg @ref LL_DMA_PRIORITY_LOW or @ref LL_DMA_PRIORITY_MEDIUM or @ref LL_DMA_PRIORITY_HI
 524:Drivers/STM32F1xx_HAL_Driver/Inc/stm32f1xx_ll_dma.h ****   * @retval None
 525:Drivers/STM32F1xx_HAL_Driver/Inc/stm32f1xx_ll_dma.h ****   */
 526:Drivers/STM32F1xx_HAL_Driver/Inc/stm32f1xx_ll_dma.h **** __STATIC_INLINE void LL_DMA_ConfigTransfer(DMA_TypeDef *DMAx, uint32_t Channel, uint32_t Configurat
 527:Drivers/STM32F1xx_HAL_Driver/Inc/stm32f1xx_ll_dma.h **** {
 528:Drivers/STM32F1xx_HAL_Driver/Inc/stm32f1xx_ll_dma.h ****   MODIFY_REG(((DMA_Channel_TypeDef *)((uint32_t)((uint32_t)DMAx + CHANNEL_OFFSET_TAB[Channel - 1U])
 529:Drivers/STM32F1xx_HAL_Driver/Inc/stm32f1xx_ll_dma.h ****              DMA_CCR_DIR | DMA_CCR_MEM2MEM | DMA_CCR_CIRC | DMA_CCR_PINC | DMA_CCR_MINC | DMA_CCR_P
 530:Drivers/STM32F1xx_HAL_Driver/Inc/stm32f1xx_ll_dma.h ****              Configuration);
 531:Drivers/STM32F1xx_HAL_Driver/Inc/stm32f1xx_ll_dma.h **** }
 532:Drivers/STM32F1xx_HAL_Driver/Inc/stm32f1xx_ll_dma.h **** 
 533:Drivers/STM32F1xx_HAL_Driver/Inc/stm32f1xx_ll_dma.h **** /**
ARM GAS  /tmp/ccO145yx.s 			page 27


 534:Drivers/STM32F1xx_HAL_Driver/Inc/stm32f1xx_ll_dma.h ****   * @brief  Set Data transfer direction (read from peripheral or from memory).
 535:Drivers/STM32F1xx_HAL_Driver/Inc/stm32f1xx_ll_dma.h ****   * @rmtoll CCR          DIR           LL_DMA_SetDataTransferDirection\n
 536:Drivers/STM32F1xx_HAL_Driver/Inc/stm32f1xx_ll_dma.h ****   *         CCR          MEM2MEM       LL_DMA_SetDataTransferDirection
 537:Drivers/STM32F1xx_HAL_Driver/Inc/stm32f1xx_ll_dma.h ****   * @param  DMAx DMAx Instance
 538:Drivers/STM32F1xx_HAL_Driver/Inc/stm32f1xx_ll_dma.h ****   * @param  Channel This parameter can be one of the following values:
 539:Drivers/STM32F1xx_HAL_Driver/Inc/stm32f1xx_ll_dma.h ****   *         @arg @ref LL_DMA_CHANNEL_1
 540:Drivers/STM32F1xx_HAL_Driver/Inc/stm32f1xx_ll_dma.h ****   *         @arg @ref LL_DMA_CHANNEL_2
 541:Drivers/STM32F1xx_HAL_Driver/Inc/stm32f1xx_ll_dma.h ****   *         @arg @ref LL_DMA_CHANNEL_3
 542:Drivers/STM32F1xx_HAL_Driver/Inc/stm32f1xx_ll_dma.h ****   *         @arg @ref LL_DMA_CHANNEL_4
 543:Drivers/STM32F1xx_HAL_Driver/Inc/stm32f1xx_ll_dma.h ****   *         @arg @ref LL_DMA_CHANNEL_5
 544:Drivers/STM32F1xx_HAL_Driver/Inc/stm32f1xx_ll_dma.h ****   *         @arg @ref LL_DMA_CHANNEL_6
 545:Drivers/STM32F1xx_HAL_Driver/Inc/stm32f1xx_ll_dma.h ****   *         @arg @ref LL_DMA_CHANNEL_7
 546:Drivers/STM32F1xx_HAL_Driver/Inc/stm32f1xx_ll_dma.h ****   * @param  Direction This parameter can be one of the following values:
 547:Drivers/STM32F1xx_HAL_Driver/Inc/stm32f1xx_ll_dma.h ****   *         @arg @ref LL_DMA_DIRECTION_PERIPH_TO_MEMORY
 548:Drivers/STM32F1xx_HAL_Driver/Inc/stm32f1xx_ll_dma.h ****   *         @arg @ref LL_DMA_DIRECTION_MEMORY_TO_PERIPH
 549:Drivers/STM32F1xx_HAL_Driver/Inc/stm32f1xx_ll_dma.h ****   *         @arg @ref LL_DMA_DIRECTION_MEMORY_TO_MEMORY
 550:Drivers/STM32F1xx_HAL_Driver/Inc/stm32f1xx_ll_dma.h ****   * @retval None
 551:Drivers/STM32F1xx_HAL_Driver/Inc/stm32f1xx_ll_dma.h ****   */
 552:Drivers/STM32F1xx_HAL_Driver/Inc/stm32f1xx_ll_dma.h **** __STATIC_INLINE void LL_DMA_SetDataTransferDirection(DMA_TypeDef *DMAx, uint32_t Channel, uint32_t 
 124              		.loc 3 552 22 view .LVU32
 125              	.LBB68:
 553:Drivers/STM32F1xx_HAL_Driver/Inc/stm32f1xx_ll_dma.h **** {
 554:Drivers/STM32F1xx_HAL_Driver/Inc/stm32f1xx_ll_dma.h ****   MODIFY_REG(((DMA_Channel_TypeDef *)((uint32_t)((uint32_t)DMAx + CHANNEL_OFFSET_TAB[Channel - 1U])
 126              		.loc 3 554 3 view .LVU33
 127 0054 2B4C     		ldr	r4, .L3+12
 128 0056 A36D     		ldr	r3, [r4, #88]
 129 0058 23F48043 		bic	r3, r3, #16384
 130 005c 23F01003 		bic	r3, r3, #16
 131 0060 43F01003 		orr	r3, r3, #16
 132 0064 A365     		str	r3, [r4, #88]
 133              	.LVL5:
 134              		.loc 3 554 3 is_stmt 0 view .LVU34
 135              	.LBE68:
 136              	.LBE67:
  61:Core/Src/spi.c **** 
  62:Core/Src/spi.c ****   LL_DMA_SetChannelPriorityLevel(DMA1, LL_DMA_CHANNEL_5, LL_DMA_PRIORITY_LOW);
 137              		.loc 1 62 3 is_stmt 1 view .LVU35
 138              	.LBB69:
 139              	.LBI69:
 555:Drivers/STM32F1xx_HAL_Driver/Inc/stm32f1xx_ll_dma.h ****              DMA_CCR_DIR | DMA_CCR_MEM2MEM, Direction);
 556:Drivers/STM32F1xx_HAL_Driver/Inc/stm32f1xx_ll_dma.h **** }
 557:Drivers/STM32F1xx_HAL_Driver/Inc/stm32f1xx_ll_dma.h **** 
 558:Drivers/STM32F1xx_HAL_Driver/Inc/stm32f1xx_ll_dma.h **** /**
 559:Drivers/STM32F1xx_HAL_Driver/Inc/stm32f1xx_ll_dma.h ****   * @brief  Get Data transfer direction (read from peripheral or from memory).
 560:Drivers/STM32F1xx_HAL_Driver/Inc/stm32f1xx_ll_dma.h ****   * @rmtoll CCR          DIR           LL_DMA_GetDataTransferDirection\n
 561:Drivers/STM32F1xx_HAL_Driver/Inc/stm32f1xx_ll_dma.h ****   *         CCR          MEM2MEM       LL_DMA_GetDataTransferDirection
 562:Drivers/STM32F1xx_HAL_Driver/Inc/stm32f1xx_ll_dma.h ****   * @param  DMAx DMAx Instance
 563:Drivers/STM32F1xx_HAL_Driver/Inc/stm32f1xx_ll_dma.h ****   * @param  Channel This parameter can be one of the following values:
 564:Drivers/STM32F1xx_HAL_Driver/Inc/stm32f1xx_ll_dma.h ****   *         @arg @ref LL_DMA_CHANNEL_1
 565:Drivers/STM32F1xx_HAL_Driver/Inc/stm32f1xx_ll_dma.h ****   *         @arg @ref LL_DMA_CHANNEL_2
 566:Drivers/STM32F1xx_HAL_Driver/Inc/stm32f1xx_ll_dma.h ****   *         @arg @ref LL_DMA_CHANNEL_3
 567:Drivers/STM32F1xx_HAL_Driver/Inc/stm32f1xx_ll_dma.h ****   *         @arg @ref LL_DMA_CHANNEL_4
 568:Drivers/STM32F1xx_HAL_Driver/Inc/stm32f1xx_ll_dma.h ****   *         @arg @ref LL_DMA_CHANNEL_5
 569:Drivers/STM32F1xx_HAL_Driver/Inc/stm32f1xx_ll_dma.h ****   *         @arg @ref LL_DMA_CHANNEL_6
 570:Drivers/STM32F1xx_HAL_Driver/Inc/stm32f1xx_ll_dma.h ****   *         @arg @ref LL_DMA_CHANNEL_7
 571:Drivers/STM32F1xx_HAL_Driver/Inc/stm32f1xx_ll_dma.h ****   * @retval Returned value can be one of the following values:
 572:Drivers/STM32F1xx_HAL_Driver/Inc/stm32f1xx_ll_dma.h ****   *         @arg @ref LL_DMA_DIRECTION_PERIPH_TO_MEMORY
ARM GAS  /tmp/ccO145yx.s 			page 28


 573:Drivers/STM32F1xx_HAL_Driver/Inc/stm32f1xx_ll_dma.h ****   *         @arg @ref LL_DMA_DIRECTION_MEMORY_TO_PERIPH
 574:Drivers/STM32F1xx_HAL_Driver/Inc/stm32f1xx_ll_dma.h ****   *         @arg @ref LL_DMA_DIRECTION_MEMORY_TO_MEMORY
 575:Drivers/STM32F1xx_HAL_Driver/Inc/stm32f1xx_ll_dma.h ****   */
 576:Drivers/STM32F1xx_HAL_Driver/Inc/stm32f1xx_ll_dma.h **** __STATIC_INLINE uint32_t LL_DMA_GetDataTransferDirection(DMA_TypeDef *DMAx, uint32_t Channel)
 577:Drivers/STM32F1xx_HAL_Driver/Inc/stm32f1xx_ll_dma.h **** {
 578:Drivers/STM32F1xx_HAL_Driver/Inc/stm32f1xx_ll_dma.h ****   return (READ_BIT(((DMA_Channel_TypeDef *)((uint32_t)((uint32_t)DMAx + CHANNEL_OFFSET_TAB[Channel 
 579:Drivers/STM32F1xx_HAL_Driver/Inc/stm32f1xx_ll_dma.h ****                    DMA_CCR_DIR | DMA_CCR_MEM2MEM));
 580:Drivers/STM32F1xx_HAL_Driver/Inc/stm32f1xx_ll_dma.h **** }
 581:Drivers/STM32F1xx_HAL_Driver/Inc/stm32f1xx_ll_dma.h **** 
 582:Drivers/STM32F1xx_HAL_Driver/Inc/stm32f1xx_ll_dma.h **** /**
 583:Drivers/STM32F1xx_HAL_Driver/Inc/stm32f1xx_ll_dma.h ****   * @brief  Set DMA mode circular or normal.
 584:Drivers/STM32F1xx_HAL_Driver/Inc/stm32f1xx_ll_dma.h ****   * @note The circular buffer mode cannot be used if the memory-to-memory
 585:Drivers/STM32F1xx_HAL_Driver/Inc/stm32f1xx_ll_dma.h ****   * data transfer is configured on the selected Channel.
 586:Drivers/STM32F1xx_HAL_Driver/Inc/stm32f1xx_ll_dma.h ****   * @rmtoll CCR          CIRC          LL_DMA_SetMode
 587:Drivers/STM32F1xx_HAL_Driver/Inc/stm32f1xx_ll_dma.h ****   * @param  DMAx DMAx Instance
 588:Drivers/STM32F1xx_HAL_Driver/Inc/stm32f1xx_ll_dma.h ****   * @param  Channel This parameter can be one of the following values:
 589:Drivers/STM32F1xx_HAL_Driver/Inc/stm32f1xx_ll_dma.h ****   *         @arg @ref LL_DMA_CHANNEL_1
 590:Drivers/STM32F1xx_HAL_Driver/Inc/stm32f1xx_ll_dma.h ****   *         @arg @ref LL_DMA_CHANNEL_2
 591:Drivers/STM32F1xx_HAL_Driver/Inc/stm32f1xx_ll_dma.h ****   *         @arg @ref LL_DMA_CHANNEL_3
 592:Drivers/STM32F1xx_HAL_Driver/Inc/stm32f1xx_ll_dma.h ****   *         @arg @ref LL_DMA_CHANNEL_4
 593:Drivers/STM32F1xx_HAL_Driver/Inc/stm32f1xx_ll_dma.h ****   *         @arg @ref LL_DMA_CHANNEL_5
 594:Drivers/STM32F1xx_HAL_Driver/Inc/stm32f1xx_ll_dma.h ****   *         @arg @ref LL_DMA_CHANNEL_6
 595:Drivers/STM32F1xx_HAL_Driver/Inc/stm32f1xx_ll_dma.h ****   *         @arg @ref LL_DMA_CHANNEL_7
 596:Drivers/STM32F1xx_HAL_Driver/Inc/stm32f1xx_ll_dma.h ****   * @param  Mode This parameter can be one of the following values:
 597:Drivers/STM32F1xx_HAL_Driver/Inc/stm32f1xx_ll_dma.h ****   *         @arg @ref LL_DMA_MODE_NORMAL
 598:Drivers/STM32F1xx_HAL_Driver/Inc/stm32f1xx_ll_dma.h ****   *         @arg @ref LL_DMA_MODE_CIRCULAR
 599:Drivers/STM32F1xx_HAL_Driver/Inc/stm32f1xx_ll_dma.h ****   * @retval None
 600:Drivers/STM32F1xx_HAL_Driver/Inc/stm32f1xx_ll_dma.h ****   */
 601:Drivers/STM32F1xx_HAL_Driver/Inc/stm32f1xx_ll_dma.h **** __STATIC_INLINE void LL_DMA_SetMode(DMA_TypeDef *DMAx, uint32_t Channel, uint32_t Mode)
 602:Drivers/STM32F1xx_HAL_Driver/Inc/stm32f1xx_ll_dma.h **** {
 603:Drivers/STM32F1xx_HAL_Driver/Inc/stm32f1xx_ll_dma.h ****   MODIFY_REG(((DMA_Channel_TypeDef *)((uint32_t)((uint32_t)DMAx + CHANNEL_OFFSET_TAB[Channel - 1U])
 604:Drivers/STM32F1xx_HAL_Driver/Inc/stm32f1xx_ll_dma.h ****              Mode);
 605:Drivers/STM32F1xx_HAL_Driver/Inc/stm32f1xx_ll_dma.h **** }
 606:Drivers/STM32F1xx_HAL_Driver/Inc/stm32f1xx_ll_dma.h **** 
 607:Drivers/STM32F1xx_HAL_Driver/Inc/stm32f1xx_ll_dma.h **** /**
 608:Drivers/STM32F1xx_HAL_Driver/Inc/stm32f1xx_ll_dma.h ****   * @brief  Get DMA mode circular or normal.
 609:Drivers/STM32F1xx_HAL_Driver/Inc/stm32f1xx_ll_dma.h ****   * @rmtoll CCR          CIRC          LL_DMA_GetMode
 610:Drivers/STM32F1xx_HAL_Driver/Inc/stm32f1xx_ll_dma.h ****   * @param  DMAx DMAx Instance
 611:Drivers/STM32F1xx_HAL_Driver/Inc/stm32f1xx_ll_dma.h ****   * @param  Channel This parameter can be one of the following values:
 612:Drivers/STM32F1xx_HAL_Driver/Inc/stm32f1xx_ll_dma.h ****   *         @arg @ref LL_DMA_CHANNEL_1
 613:Drivers/STM32F1xx_HAL_Driver/Inc/stm32f1xx_ll_dma.h ****   *         @arg @ref LL_DMA_CHANNEL_2
 614:Drivers/STM32F1xx_HAL_Driver/Inc/stm32f1xx_ll_dma.h ****   *         @arg @ref LL_DMA_CHANNEL_3
 615:Drivers/STM32F1xx_HAL_Driver/Inc/stm32f1xx_ll_dma.h ****   *         @arg @ref LL_DMA_CHANNEL_4
 616:Drivers/STM32F1xx_HAL_Driver/Inc/stm32f1xx_ll_dma.h ****   *         @arg @ref LL_DMA_CHANNEL_5
 617:Drivers/STM32F1xx_HAL_Driver/Inc/stm32f1xx_ll_dma.h ****   *         @arg @ref LL_DMA_CHANNEL_6
 618:Drivers/STM32F1xx_HAL_Driver/Inc/stm32f1xx_ll_dma.h ****   *         @arg @ref LL_DMA_CHANNEL_7
 619:Drivers/STM32F1xx_HAL_Driver/Inc/stm32f1xx_ll_dma.h ****   * @retval Returned value can be one of the following values:
 620:Drivers/STM32F1xx_HAL_Driver/Inc/stm32f1xx_ll_dma.h ****   *         @arg @ref LL_DMA_MODE_NORMAL
 621:Drivers/STM32F1xx_HAL_Driver/Inc/stm32f1xx_ll_dma.h ****   *         @arg @ref LL_DMA_MODE_CIRCULAR
 622:Drivers/STM32F1xx_HAL_Driver/Inc/stm32f1xx_ll_dma.h ****   */
 623:Drivers/STM32F1xx_HAL_Driver/Inc/stm32f1xx_ll_dma.h **** __STATIC_INLINE uint32_t LL_DMA_GetMode(DMA_TypeDef *DMAx, uint32_t Channel)
 624:Drivers/STM32F1xx_HAL_Driver/Inc/stm32f1xx_ll_dma.h **** {
 625:Drivers/STM32F1xx_HAL_Driver/Inc/stm32f1xx_ll_dma.h ****   return (READ_BIT(((DMA_Channel_TypeDef *)((uint32_t)((uint32_t)DMAx + CHANNEL_OFFSET_TAB[Channel 
 626:Drivers/STM32F1xx_HAL_Driver/Inc/stm32f1xx_ll_dma.h ****                    DMA_CCR_CIRC));
 627:Drivers/STM32F1xx_HAL_Driver/Inc/stm32f1xx_ll_dma.h **** }
 628:Drivers/STM32F1xx_HAL_Driver/Inc/stm32f1xx_ll_dma.h **** 
 629:Drivers/STM32F1xx_HAL_Driver/Inc/stm32f1xx_ll_dma.h **** /**
ARM GAS  /tmp/ccO145yx.s 			page 29


 630:Drivers/STM32F1xx_HAL_Driver/Inc/stm32f1xx_ll_dma.h ****   * @brief  Set Peripheral increment mode.
 631:Drivers/STM32F1xx_HAL_Driver/Inc/stm32f1xx_ll_dma.h ****   * @rmtoll CCR          PINC          LL_DMA_SetPeriphIncMode
 632:Drivers/STM32F1xx_HAL_Driver/Inc/stm32f1xx_ll_dma.h ****   * @param  DMAx DMAx Instance
 633:Drivers/STM32F1xx_HAL_Driver/Inc/stm32f1xx_ll_dma.h ****   * @param  Channel This parameter can be one of the following values:
 634:Drivers/STM32F1xx_HAL_Driver/Inc/stm32f1xx_ll_dma.h ****   *         @arg @ref LL_DMA_CHANNEL_1
 635:Drivers/STM32F1xx_HAL_Driver/Inc/stm32f1xx_ll_dma.h ****   *         @arg @ref LL_DMA_CHANNEL_2
 636:Drivers/STM32F1xx_HAL_Driver/Inc/stm32f1xx_ll_dma.h ****   *         @arg @ref LL_DMA_CHANNEL_3
 637:Drivers/STM32F1xx_HAL_Driver/Inc/stm32f1xx_ll_dma.h ****   *         @arg @ref LL_DMA_CHANNEL_4
 638:Drivers/STM32F1xx_HAL_Driver/Inc/stm32f1xx_ll_dma.h ****   *         @arg @ref LL_DMA_CHANNEL_5
 639:Drivers/STM32F1xx_HAL_Driver/Inc/stm32f1xx_ll_dma.h ****   *         @arg @ref LL_DMA_CHANNEL_6
 640:Drivers/STM32F1xx_HAL_Driver/Inc/stm32f1xx_ll_dma.h ****   *         @arg @ref LL_DMA_CHANNEL_7
 641:Drivers/STM32F1xx_HAL_Driver/Inc/stm32f1xx_ll_dma.h ****   * @param  PeriphOrM2MSrcIncMode This parameter can be one of the following values:
 642:Drivers/STM32F1xx_HAL_Driver/Inc/stm32f1xx_ll_dma.h ****   *         @arg @ref LL_DMA_PERIPH_INCREMENT
 643:Drivers/STM32F1xx_HAL_Driver/Inc/stm32f1xx_ll_dma.h ****   *         @arg @ref LL_DMA_PERIPH_NOINCREMENT
 644:Drivers/STM32F1xx_HAL_Driver/Inc/stm32f1xx_ll_dma.h ****   * @retval None
 645:Drivers/STM32F1xx_HAL_Driver/Inc/stm32f1xx_ll_dma.h ****   */
 646:Drivers/STM32F1xx_HAL_Driver/Inc/stm32f1xx_ll_dma.h **** __STATIC_INLINE void LL_DMA_SetPeriphIncMode(DMA_TypeDef *DMAx, uint32_t Channel, uint32_t PeriphOr
 647:Drivers/STM32F1xx_HAL_Driver/Inc/stm32f1xx_ll_dma.h **** {
 648:Drivers/STM32F1xx_HAL_Driver/Inc/stm32f1xx_ll_dma.h ****   MODIFY_REG(((DMA_Channel_TypeDef *)((uint32_t)((uint32_t)DMAx + CHANNEL_OFFSET_TAB[Channel - 1U])
 649:Drivers/STM32F1xx_HAL_Driver/Inc/stm32f1xx_ll_dma.h ****              PeriphOrM2MSrcIncMode);
 650:Drivers/STM32F1xx_HAL_Driver/Inc/stm32f1xx_ll_dma.h **** }
 651:Drivers/STM32F1xx_HAL_Driver/Inc/stm32f1xx_ll_dma.h **** 
 652:Drivers/STM32F1xx_HAL_Driver/Inc/stm32f1xx_ll_dma.h **** /**
 653:Drivers/STM32F1xx_HAL_Driver/Inc/stm32f1xx_ll_dma.h ****   * @brief  Get Peripheral increment mode.
 654:Drivers/STM32F1xx_HAL_Driver/Inc/stm32f1xx_ll_dma.h ****   * @rmtoll CCR          PINC          LL_DMA_GetPeriphIncMode
 655:Drivers/STM32F1xx_HAL_Driver/Inc/stm32f1xx_ll_dma.h ****   * @param  DMAx DMAx Instance
 656:Drivers/STM32F1xx_HAL_Driver/Inc/stm32f1xx_ll_dma.h ****   * @param  Channel This parameter can be one of the following values:
 657:Drivers/STM32F1xx_HAL_Driver/Inc/stm32f1xx_ll_dma.h ****   *         @arg @ref LL_DMA_CHANNEL_1
 658:Drivers/STM32F1xx_HAL_Driver/Inc/stm32f1xx_ll_dma.h ****   *         @arg @ref LL_DMA_CHANNEL_2
 659:Drivers/STM32F1xx_HAL_Driver/Inc/stm32f1xx_ll_dma.h ****   *         @arg @ref LL_DMA_CHANNEL_3
 660:Drivers/STM32F1xx_HAL_Driver/Inc/stm32f1xx_ll_dma.h ****   *         @arg @ref LL_DMA_CHANNEL_4
 661:Drivers/STM32F1xx_HAL_Driver/Inc/stm32f1xx_ll_dma.h ****   *         @arg @ref LL_DMA_CHANNEL_5
 662:Drivers/STM32F1xx_HAL_Driver/Inc/stm32f1xx_ll_dma.h ****   *         @arg @ref LL_DMA_CHANNEL_6
 663:Drivers/STM32F1xx_HAL_Driver/Inc/stm32f1xx_ll_dma.h ****   *         @arg @ref LL_DMA_CHANNEL_7
 664:Drivers/STM32F1xx_HAL_Driver/Inc/stm32f1xx_ll_dma.h ****   * @retval Returned value can be one of the following values:
 665:Drivers/STM32F1xx_HAL_Driver/Inc/stm32f1xx_ll_dma.h ****   *         @arg @ref LL_DMA_PERIPH_INCREMENT
 666:Drivers/STM32F1xx_HAL_Driver/Inc/stm32f1xx_ll_dma.h ****   *         @arg @ref LL_DMA_PERIPH_NOINCREMENT
 667:Drivers/STM32F1xx_HAL_Driver/Inc/stm32f1xx_ll_dma.h ****   */
 668:Drivers/STM32F1xx_HAL_Driver/Inc/stm32f1xx_ll_dma.h **** __STATIC_INLINE uint32_t LL_DMA_GetPeriphIncMode(DMA_TypeDef *DMAx, uint32_t Channel)
 669:Drivers/STM32F1xx_HAL_Driver/Inc/stm32f1xx_ll_dma.h **** {
 670:Drivers/STM32F1xx_HAL_Driver/Inc/stm32f1xx_ll_dma.h ****   return (READ_BIT(((DMA_Channel_TypeDef *)((uint32_t)((uint32_t)DMAx + CHANNEL_OFFSET_TAB[Channel 
 671:Drivers/STM32F1xx_HAL_Driver/Inc/stm32f1xx_ll_dma.h ****                    DMA_CCR_PINC));
 672:Drivers/STM32F1xx_HAL_Driver/Inc/stm32f1xx_ll_dma.h **** }
 673:Drivers/STM32F1xx_HAL_Driver/Inc/stm32f1xx_ll_dma.h **** 
 674:Drivers/STM32F1xx_HAL_Driver/Inc/stm32f1xx_ll_dma.h **** /**
 675:Drivers/STM32F1xx_HAL_Driver/Inc/stm32f1xx_ll_dma.h ****   * @brief  Set Memory increment mode.
 676:Drivers/STM32F1xx_HAL_Driver/Inc/stm32f1xx_ll_dma.h ****   * @rmtoll CCR          MINC          LL_DMA_SetMemoryIncMode
 677:Drivers/STM32F1xx_HAL_Driver/Inc/stm32f1xx_ll_dma.h ****   * @param  DMAx DMAx Instance
 678:Drivers/STM32F1xx_HAL_Driver/Inc/stm32f1xx_ll_dma.h ****   * @param  Channel This parameter can be one of the following values:
 679:Drivers/STM32F1xx_HAL_Driver/Inc/stm32f1xx_ll_dma.h ****   *         @arg @ref LL_DMA_CHANNEL_1
 680:Drivers/STM32F1xx_HAL_Driver/Inc/stm32f1xx_ll_dma.h ****   *         @arg @ref LL_DMA_CHANNEL_2
 681:Drivers/STM32F1xx_HAL_Driver/Inc/stm32f1xx_ll_dma.h ****   *         @arg @ref LL_DMA_CHANNEL_3
 682:Drivers/STM32F1xx_HAL_Driver/Inc/stm32f1xx_ll_dma.h ****   *         @arg @ref LL_DMA_CHANNEL_4
 683:Drivers/STM32F1xx_HAL_Driver/Inc/stm32f1xx_ll_dma.h ****   *         @arg @ref LL_DMA_CHANNEL_5
 684:Drivers/STM32F1xx_HAL_Driver/Inc/stm32f1xx_ll_dma.h ****   *         @arg @ref LL_DMA_CHANNEL_6
 685:Drivers/STM32F1xx_HAL_Driver/Inc/stm32f1xx_ll_dma.h ****   *         @arg @ref LL_DMA_CHANNEL_7
 686:Drivers/STM32F1xx_HAL_Driver/Inc/stm32f1xx_ll_dma.h ****   * @param  MemoryOrM2MDstIncMode This parameter can be one of the following values:
ARM GAS  /tmp/ccO145yx.s 			page 30


 687:Drivers/STM32F1xx_HAL_Driver/Inc/stm32f1xx_ll_dma.h ****   *         @arg @ref LL_DMA_MEMORY_INCREMENT
 688:Drivers/STM32F1xx_HAL_Driver/Inc/stm32f1xx_ll_dma.h ****   *         @arg @ref LL_DMA_MEMORY_NOINCREMENT
 689:Drivers/STM32F1xx_HAL_Driver/Inc/stm32f1xx_ll_dma.h ****   * @retval None
 690:Drivers/STM32F1xx_HAL_Driver/Inc/stm32f1xx_ll_dma.h ****   */
 691:Drivers/STM32F1xx_HAL_Driver/Inc/stm32f1xx_ll_dma.h **** __STATIC_INLINE void LL_DMA_SetMemoryIncMode(DMA_TypeDef *DMAx, uint32_t Channel, uint32_t MemoryOr
 692:Drivers/STM32F1xx_HAL_Driver/Inc/stm32f1xx_ll_dma.h **** {
 693:Drivers/STM32F1xx_HAL_Driver/Inc/stm32f1xx_ll_dma.h ****   MODIFY_REG(((DMA_Channel_TypeDef *)((uint32_t)((uint32_t)DMAx + CHANNEL_OFFSET_TAB[Channel - 1U])
 694:Drivers/STM32F1xx_HAL_Driver/Inc/stm32f1xx_ll_dma.h ****              MemoryOrM2MDstIncMode);
 695:Drivers/STM32F1xx_HAL_Driver/Inc/stm32f1xx_ll_dma.h **** }
 696:Drivers/STM32F1xx_HAL_Driver/Inc/stm32f1xx_ll_dma.h **** 
 697:Drivers/STM32F1xx_HAL_Driver/Inc/stm32f1xx_ll_dma.h **** /**
 698:Drivers/STM32F1xx_HAL_Driver/Inc/stm32f1xx_ll_dma.h ****   * @brief  Get Memory increment mode.
 699:Drivers/STM32F1xx_HAL_Driver/Inc/stm32f1xx_ll_dma.h ****   * @rmtoll CCR          MINC          LL_DMA_GetMemoryIncMode
 700:Drivers/STM32F1xx_HAL_Driver/Inc/stm32f1xx_ll_dma.h ****   * @param  DMAx DMAx Instance
 701:Drivers/STM32F1xx_HAL_Driver/Inc/stm32f1xx_ll_dma.h ****   * @param  Channel This parameter can be one of the following values:
 702:Drivers/STM32F1xx_HAL_Driver/Inc/stm32f1xx_ll_dma.h ****   *         @arg @ref LL_DMA_CHANNEL_1
 703:Drivers/STM32F1xx_HAL_Driver/Inc/stm32f1xx_ll_dma.h ****   *         @arg @ref LL_DMA_CHANNEL_2
 704:Drivers/STM32F1xx_HAL_Driver/Inc/stm32f1xx_ll_dma.h ****   *         @arg @ref LL_DMA_CHANNEL_3
 705:Drivers/STM32F1xx_HAL_Driver/Inc/stm32f1xx_ll_dma.h ****   *         @arg @ref LL_DMA_CHANNEL_4
 706:Drivers/STM32F1xx_HAL_Driver/Inc/stm32f1xx_ll_dma.h ****   *         @arg @ref LL_DMA_CHANNEL_5
 707:Drivers/STM32F1xx_HAL_Driver/Inc/stm32f1xx_ll_dma.h ****   *         @arg @ref LL_DMA_CHANNEL_6
 708:Drivers/STM32F1xx_HAL_Driver/Inc/stm32f1xx_ll_dma.h ****   *         @arg @ref LL_DMA_CHANNEL_7
 709:Drivers/STM32F1xx_HAL_Driver/Inc/stm32f1xx_ll_dma.h ****   * @retval Returned value can be one of the following values:
 710:Drivers/STM32F1xx_HAL_Driver/Inc/stm32f1xx_ll_dma.h ****   *         @arg @ref LL_DMA_MEMORY_INCREMENT
 711:Drivers/STM32F1xx_HAL_Driver/Inc/stm32f1xx_ll_dma.h ****   *         @arg @ref LL_DMA_MEMORY_NOINCREMENT
 712:Drivers/STM32F1xx_HAL_Driver/Inc/stm32f1xx_ll_dma.h ****   */
 713:Drivers/STM32F1xx_HAL_Driver/Inc/stm32f1xx_ll_dma.h **** __STATIC_INLINE uint32_t LL_DMA_GetMemoryIncMode(DMA_TypeDef *DMAx, uint32_t Channel)
 714:Drivers/STM32F1xx_HAL_Driver/Inc/stm32f1xx_ll_dma.h **** {
 715:Drivers/STM32F1xx_HAL_Driver/Inc/stm32f1xx_ll_dma.h ****   return (READ_BIT(((DMA_Channel_TypeDef *)((uint32_t)((uint32_t)DMAx + CHANNEL_OFFSET_TAB[Channel 
 716:Drivers/STM32F1xx_HAL_Driver/Inc/stm32f1xx_ll_dma.h ****                    DMA_CCR_MINC));
 717:Drivers/STM32F1xx_HAL_Driver/Inc/stm32f1xx_ll_dma.h **** }
 718:Drivers/STM32F1xx_HAL_Driver/Inc/stm32f1xx_ll_dma.h **** 
 719:Drivers/STM32F1xx_HAL_Driver/Inc/stm32f1xx_ll_dma.h **** /**
 720:Drivers/STM32F1xx_HAL_Driver/Inc/stm32f1xx_ll_dma.h ****   * @brief  Set Peripheral size.
 721:Drivers/STM32F1xx_HAL_Driver/Inc/stm32f1xx_ll_dma.h ****   * @rmtoll CCR          PSIZE         LL_DMA_SetPeriphSize
 722:Drivers/STM32F1xx_HAL_Driver/Inc/stm32f1xx_ll_dma.h ****   * @param  DMAx DMAx Instance
 723:Drivers/STM32F1xx_HAL_Driver/Inc/stm32f1xx_ll_dma.h ****   * @param  Channel This parameter can be one of the following values:
 724:Drivers/STM32F1xx_HAL_Driver/Inc/stm32f1xx_ll_dma.h ****   *         @arg @ref LL_DMA_CHANNEL_1
 725:Drivers/STM32F1xx_HAL_Driver/Inc/stm32f1xx_ll_dma.h ****   *         @arg @ref LL_DMA_CHANNEL_2
 726:Drivers/STM32F1xx_HAL_Driver/Inc/stm32f1xx_ll_dma.h ****   *         @arg @ref LL_DMA_CHANNEL_3
 727:Drivers/STM32F1xx_HAL_Driver/Inc/stm32f1xx_ll_dma.h ****   *         @arg @ref LL_DMA_CHANNEL_4
 728:Drivers/STM32F1xx_HAL_Driver/Inc/stm32f1xx_ll_dma.h ****   *         @arg @ref LL_DMA_CHANNEL_5
 729:Drivers/STM32F1xx_HAL_Driver/Inc/stm32f1xx_ll_dma.h ****   *         @arg @ref LL_DMA_CHANNEL_6
 730:Drivers/STM32F1xx_HAL_Driver/Inc/stm32f1xx_ll_dma.h ****   *         @arg @ref LL_DMA_CHANNEL_7
 731:Drivers/STM32F1xx_HAL_Driver/Inc/stm32f1xx_ll_dma.h ****   * @param  PeriphOrM2MSrcDataSize This parameter can be one of the following values:
 732:Drivers/STM32F1xx_HAL_Driver/Inc/stm32f1xx_ll_dma.h ****   *         @arg @ref LL_DMA_PDATAALIGN_BYTE
 733:Drivers/STM32F1xx_HAL_Driver/Inc/stm32f1xx_ll_dma.h ****   *         @arg @ref LL_DMA_PDATAALIGN_HALFWORD
 734:Drivers/STM32F1xx_HAL_Driver/Inc/stm32f1xx_ll_dma.h ****   *         @arg @ref LL_DMA_PDATAALIGN_WORD
 735:Drivers/STM32F1xx_HAL_Driver/Inc/stm32f1xx_ll_dma.h ****   * @retval None
 736:Drivers/STM32F1xx_HAL_Driver/Inc/stm32f1xx_ll_dma.h ****   */
 737:Drivers/STM32F1xx_HAL_Driver/Inc/stm32f1xx_ll_dma.h **** __STATIC_INLINE void LL_DMA_SetPeriphSize(DMA_TypeDef *DMAx, uint32_t Channel, uint32_t PeriphOrM2M
 738:Drivers/STM32F1xx_HAL_Driver/Inc/stm32f1xx_ll_dma.h **** {
 739:Drivers/STM32F1xx_HAL_Driver/Inc/stm32f1xx_ll_dma.h ****   MODIFY_REG(((DMA_Channel_TypeDef *)((uint32_t)((uint32_t)DMAx + CHANNEL_OFFSET_TAB[Channel - 1U])
 740:Drivers/STM32F1xx_HAL_Driver/Inc/stm32f1xx_ll_dma.h ****              PeriphOrM2MSrcDataSize);
 741:Drivers/STM32F1xx_HAL_Driver/Inc/stm32f1xx_ll_dma.h **** }
 742:Drivers/STM32F1xx_HAL_Driver/Inc/stm32f1xx_ll_dma.h **** 
 743:Drivers/STM32F1xx_HAL_Driver/Inc/stm32f1xx_ll_dma.h **** /**
ARM GAS  /tmp/ccO145yx.s 			page 31


 744:Drivers/STM32F1xx_HAL_Driver/Inc/stm32f1xx_ll_dma.h ****   * @brief  Get Peripheral size.
 745:Drivers/STM32F1xx_HAL_Driver/Inc/stm32f1xx_ll_dma.h ****   * @rmtoll CCR          PSIZE         LL_DMA_GetPeriphSize
 746:Drivers/STM32F1xx_HAL_Driver/Inc/stm32f1xx_ll_dma.h ****   * @param  DMAx DMAx Instance
 747:Drivers/STM32F1xx_HAL_Driver/Inc/stm32f1xx_ll_dma.h ****   * @param  Channel This parameter can be one of the following values:
 748:Drivers/STM32F1xx_HAL_Driver/Inc/stm32f1xx_ll_dma.h ****   *         @arg @ref LL_DMA_CHANNEL_1
 749:Drivers/STM32F1xx_HAL_Driver/Inc/stm32f1xx_ll_dma.h ****   *         @arg @ref LL_DMA_CHANNEL_2
 750:Drivers/STM32F1xx_HAL_Driver/Inc/stm32f1xx_ll_dma.h ****   *         @arg @ref LL_DMA_CHANNEL_3
 751:Drivers/STM32F1xx_HAL_Driver/Inc/stm32f1xx_ll_dma.h ****   *         @arg @ref LL_DMA_CHANNEL_4
 752:Drivers/STM32F1xx_HAL_Driver/Inc/stm32f1xx_ll_dma.h ****   *         @arg @ref LL_DMA_CHANNEL_5
 753:Drivers/STM32F1xx_HAL_Driver/Inc/stm32f1xx_ll_dma.h ****   *         @arg @ref LL_DMA_CHANNEL_6
 754:Drivers/STM32F1xx_HAL_Driver/Inc/stm32f1xx_ll_dma.h ****   *         @arg @ref LL_DMA_CHANNEL_7
 755:Drivers/STM32F1xx_HAL_Driver/Inc/stm32f1xx_ll_dma.h ****   * @retval Returned value can be one of the following values:
 756:Drivers/STM32F1xx_HAL_Driver/Inc/stm32f1xx_ll_dma.h ****   *         @arg @ref LL_DMA_PDATAALIGN_BYTE
 757:Drivers/STM32F1xx_HAL_Driver/Inc/stm32f1xx_ll_dma.h ****   *         @arg @ref LL_DMA_PDATAALIGN_HALFWORD
 758:Drivers/STM32F1xx_HAL_Driver/Inc/stm32f1xx_ll_dma.h ****   *         @arg @ref LL_DMA_PDATAALIGN_WORD
 759:Drivers/STM32F1xx_HAL_Driver/Inc/stm32f1xx_ll_dma.h ****   */
 760:Drivers/STM32F1xx_HAL_Driver/Inc/stm32f1xx_ll_dma.h **** __STATIC_INLINE uint32_t LL_DMA_GetPeriphSize(DMA_TypeDef *DMAx, uint32_t Channel)
 761:Drivers/STM32F1xx_HAL_Driver/Inc/stm32f1xx_ll_dma.h **** {
 762:Drivers/STM32F1xx_HAL_Driver/Inc/stm32f1xx_ll_dma.h ****   return (READ_BIT(((DMA_Channel_TypeDef *)((uint32_t)((uint32_t)DMAx + CHANNEL_OFFSET_TAB[Channel 
 763:Drivers/STM32F1xx_HAL_Driver/Inc/stm32f1xx_ll_dma.h ****                    DMA_CCR_PSIZE));
 764:Drivers/STM32F1xx_HAL_Driver/Inc/stm32f1xx_ll_dma.h **** }
 765:Drivers/STM32F1xx_HAL_Driver/Inc/stm32f1xx_ll_dma.h **** 
 766:Drivers/STM32F1xx_HAL_Driver/Inc/stm32f1xx_ll_dma.h **** /**
 767:Drivers/STM32F1xx_HAL_Driver/Inc/stm32f1xx_ll_dma.h ****   * @brief  Set Memory size.
 768:Drivers/STM32F1xx_HAL_Driver/Inc/stm32f1xx_ll_dma.h ****   * @rmtoll CCR          MSIZE         LL_DMA_SetMemorySize
 769:Drivers/STM32F1xx_HAL_Driver/Inc/stm32f1xx_ll_dma.h ****   * @param  DMAx DMAx Instance
 770:Drivers/STM32F1xx_HAL_Driver/Inc/stm32f1xx_ll_dma.h ****   * @param  Channel This parameter can be one of the following values:
 771:Drivers/STM32F1xx_HAL_Driver/Inc/stm32f1xx_ll_dma.h ****   *         @arg @ref LL_DMA_CHANNEL_1
 772:Drivers/STM32F1xx_HAL_Driver/Inc/stm32f1xx_ll_dma.h ****   *         @arg @ref LL_DMA_CHANNEL_2
 773:Drivers/STM32F1xx_HAL_Driver/Inc/stm32f1xx_ll_dma.h ****   *         @arg @ref LL_DMA_CHANNEL_3
 774:Drivers/STM32F1xx_HAL_Driver/Inc/stm32f1xx_ll_dma.h ****   *         @arg @ref LL_DMA_CHANNEL_4
 775:Drivers/STM32F1xx_HAL_Driver/Inc/stm32f1xx_ll_dma.h ****   *         @arg @ref LL_DMA_CHANNEL_5
 776:Drivers/STM32F1xx_HAL_Driver/Inc/stm32f1xx_ll_dma.h ****   *         @arg @ref LL_DMA_CHANNEL_6
 777:Drivers/STM32F1xx_HAL_Driver/Inc/stm32f1xx_ll_dma.h ****   *         @arg @ref LL_DMA_CHANNEL_7
 778:Drivers/STM32F1xx_HAL_Driver/Inc/stm32f1xx_ll_dma.h ****   * @param  MemoryOrM2MDstDataSize This parameter can be one of the following values:
 779:Drivers/STM32F1xx_HAL_Driver/Inc/stm32f1xx_ll_dma.h ****   *         @arg @ref LL_DMA_MDATAALIGN_BYTE
 780:Drivers/STM32F1xx_HAL_Driver/Inc/stm32f1xx_ll_dma.h ****   *         @arg @ref LL_DMA_MDATAALIGN_HALFWORD
 781:Drivers/STM32F1xx_HAL_Driver/Inc/stm32f1xx_ll_dma.h ****   *         @arg @ref LL_DMA_MDATAALIGN_WORD
 782:Drivers/STM32F1xx_HAL_Driver/Inc/stm32f1xx_ll_dma.h ****   * @retval None
 783:Drivers/STM32F1xx_HAL_Driver/Inc/stm32f1xx_ll_dma.h ****   */
 784:Drivers/STM32F1xx_HAL_Driver/Inc/stm32f1xx_ll_dma.h **** __STATIC_INLINE void LL_DMA_SetMemorySize(DMA_TypeDef *DMAx, uint32_t Channel, uint32_t MemoryOrM2M
 785:Drivers/STM32F1xx_HAL_Driver/Inc/stm32f1xx_ll_dma.h **** {
 786:Drivers/STM32F1xx_HAL_Driver/Inc/stm32f1xx_ll_dma.h ****   MODIFY_REG(((DMA_Channel_TypeDef *)((uint32_t)((uint32_t)DMAx + CHANNEL_OFFSET_TAB[Channel - 1U])
 787:Drivers/STM32F1xx_HAL_Driver/Inc/stm32f1xx_ll_dma.h ****              MemoryOrM2MDstDataSize);
 788:Drivers/STM32F1xx_HAL_Driver/Inc/stm32f1xx_ll_dma.h **** }
 789:Drivers/STM32F1xx_HAL_Driver/Inc/stm32f1xx_ll_dma.h **** 
 790:Drivers/STM32F1xx_HAL_Driver/Inc/stm32f1xx_ll_dma.h **** /**
 791:Drivers/STM32F1xx_HAL_Driver/Inc/stm32f1xx_ll_dma.h ****   * @brief  Get Memory size.
 792:Drivers/STM32F1xx_HAL_Driver/Inc/stm32f1xx_ll_dma.h ****   * @rmtoll CCR          MSIZE         LL_DMA_GetMemorySize
 793:Drivers/STM32F1xx_HAL_Driver/Inc/stm32f1xx_ll_dma.h ****   * @param  DMAx DMAx Instance
 794:Drivers/STM32F1xx_HAL_Driver/Inc/stm32f1xx_ll_dma.h ****   * @param  Channel This parameter can be one of the following values:
 795:Drivers/STM32F1xx_HAL_Driver/Inc/stm32f1xx_ll_dma.h ****   *         @arg @ref LL_DMA_CHANNEL_1
 796:Drivers/STM32F1xx_HAL_Driver/Inc/stm32f1xx_ll_dma.h ****   *         @arg @ref LL_DMA_CHANNEL_2
 797:Drivers/STM32F1xx_HAL_Driver/Inc/stm32f1xx_ll_dma.h ****   *         @arg @ref LL_DMA_CHANNEL_3
 798:Drivers/STM32F1xx_HAL_Driver/Inc/stm32f1xx_ll_dma.h ****   *         @arg @ref LL_DMA_CHANNEL_4
 799:Drivers/STM32F1xx_HAL_Driver/Inc/stm32f1xx_ll_dma.h ****   *         @arg @ref LL_DMA_CHANNEL_5
 800:Drivers/STM32F1xx_HAL_Driver/Inc/stm32f1xx_ll_dma.h ****   *         @arg @ref LL_DMA_CHANNEL_6
ARM GAS  /tmp/ccO145yx.s 			page 32


 801:Drivers/STM32F1xx_HAL_Driver/Inc/stm32f1xx_ll_dma.h ****   *         @arg @ref LL_DMA_CHANNEL_7
 802:Drivers/STM32F1xx_HAL_Driver/Inc/stm32f1xx_ll_dma.h ****   * @retval Returned value can be one of the following values:
 803:Drivers/STM32F1xx_HAL_Driver/Inc/stm32f1xx_ll_dma.h ****   *         @arg @ref LL_DMA_MDATAALIGN_BYTE
 804:Drivers/STM32F1xx_HAL_Driver/Inc/stm32f1xx_ll_dma.h ****   *         @arg @ref LL_DMA_MDATAALIGN_HALFWORD
 805:Drivers/STM32F1xx_HAL_Driver/Inc/stm32f1xx_ll_dma.h ****   *         @arg @ref LL_DMA_MDATAALIGN_WORD
 806:Drivers/STM32F1xx_HAL_Driver/Inc/stm32f1xx_ll_dma.h ****   */
 807:Drivers/STM32F1xx_HAL_Driver/Inc/stm32f1xx_ll_dma.h **** __STATIC_INLINE uint32_t LL_DMA_GetMemorySize(DMA_TypeDef *DMAx, uint32_t Channel)
 808:Drivers/STM32F1xx_HAL_Driver/Inc/stm32f1xx_ll_dma.h **** {
 809:Drivers/STM32F1xx_HAL_Driver/Inc/stm32f1xx_ll_dma.h ****   return (READ_BIT(((DMA_Channel_TypeDef *)((uint32_t)((uint32_t)DMAx + CHANNEL_OFFSET_TAB[Channel 
 810:Drivers/STM32F1xx_HAL_Driver/Inc/stm32f1xx_ll_dma.h ****                    DMA_CCR_MSIZE));
 811:Drivers/STM32F1xx_HAL_Driver/Inc/stm32f1xx_ll_dma.h **** }
 812:Drivers/STM32F1xx_HAL_Driver/Inc/stm32f1xx_ll_dma.h **** 
 813:Drivers/STM32F1xx_HAL_Driver/Inc/stm32f1xx_ll_dma.h **** /**
 814:Drivers/STM32F1xx_HAL_Driver/Inc/stm32f1xx_ll_dma.h ****   * @brief  Set Channel priority level.
 815:Drivers/STM32F1xx_HAL_Driver/Inc/stm32f1xx_ll_dma.h ****   * @rmtoll CCR          PL            LL_DMA_SetChannelPriorityLevel
 816:Drivers/STM32F1xx_HAL_Driver/Inc/stm32f1xx_ll_dma.h ****   * @param  DMAx DMAx Instance
 817:Drivers/STM32F1xx_HAL_Driver/Inc/stm32f1xx_ll_dma.h ****   * @param  Channel This parameter can be one of the following values:
 818:Drivers/STM32F1xx_HAL_Driver/Inc/stm32f1xx_ll_dma.h ****   *         @arg @ref LL_DMA_CHANNEL_1
 819:Drivers/STM32F1xx_HAL_Driver/Inc/stm32f1xx_ll_dma.h ****   *         @arg @ref LL_DMA_CHANNEL_2
 820:Drivers/STM32F1xx_HAL_Driver/Inc/stm32f1xx_ll_dma.h ****   *         @arg @ref LL_DMA_CHANNEL_3
 821:Drivers/STM32F1xx_HAL_Driver/Inc/stm32f1xx_ll_dma.h ****   *         @arg @ref LL_DMA_CHANNEL_4
 822:Drivers/STM32F1xx_HAL_Driver/Inc/stm32f1xx_ll_dma.h ****   *         @arg @ref LL_DMA_CHANNEL_5
 823:Drivers/STM32F1xx_HAL_Driver/Inc/stm32f1xx_ll_dma.h ****   *         @arg @ref LL_DMA_CHANNEL_6
 824:Drivers/STM32F1xx_HAL_Driver/Inc/stm32f1xx_ll_dma.h ****   *         @arg @ref LL_DMA_CHANNEL_7
 825:Drivers/STM32F1xx_HAL_Driver/Inc/stm32f1xx_ll_dma.h ****   * @param  Priority This parameter can be one of the following values:
 826:Drivers/STM32F1xx_HAL_Driver/Inc/stm32f1xx_ll_dma.h ****   *         @arg @ref LL_DMA_PRIORITY_LOW
 827:Drivers/STM32F1xx_HAL_Driver/Inc/stm32f1xx_ll_dma.h ****   *         @arg @ref LL_DMA_PRIORITY_MEDIUM
 828:Drivers/STM32F1xx_HAL_Driver/Inc/stm32f1xx_ll_dma.h ****   *         @arg @ref LL_DMA_PRIORITY_HIGH
 829:Drivers/STM32F1xx_HAL_Driver/Inc/stm32f1xx_ll_dma.h ****   *         @arg @ref LL_DMA_PRIORITY_VERYHIGH
 830:Drivers/STM32F1xx_HAL_Driver/Inc/stm32f1xx_ll_dma.h ****   * @retval None
 831:Drivers/STM32F1xx_HAL_Driver/Inc/stm32f1xx_ll_dma.h ****   */
 832:Drivers/STM32F1xx_HAL_Driver/Inc/stm32f1xx_ll_dma.h **** __STATIC_INLINE void LL_DMA_SetChannelPriorityLevel(DMA_TypeDef *DMAx, uint32_t Channel, uint32_t P
 140              		.loc 3 832 22 view .LVU36
 141              	.LBB70:
 833:Drivers/STM32F1xx_HAL_Driver/Inc/stm32f1xx_ll_dma.h **** {
 834:Drivers/STM32F1xx_HAL_Driver/Inc/stm32f1xx_ll_dma.h ****   MODIFY_REG(((DMA_Channel_TypeDef *)((uint32_t)((uint32_t)DMAx + CHANNEL_OFFSET_TAB[Channel - 1U])
 142              		.loc 3 834 3 view .LVU37
 143 0066 A36D     		ldr	r3, [r4, #88]
 144 0068 23F44053 		bic	r3, r3, #12288
 145 006c A365     		str	r3, [r4, #88]
 146              	.LVL6:
 147              		.loc 3 834 3 is_stmt 0 view .LVU38
 148              	.LBE70:
 149              	.LBE69:
  63:Core/Src/spi.c **** 
  64:Core/Src/spi.c ****   LL_DMA_SetMode(DMA1, LL_DMA_CHANNEL_5, LL_DMA_MODE_NORMAL);
 150              		.loc 1 64 3 is_stmt 1 view .LVU39
 151              	.LBB71:
 152              	.LBI71:
 601:Drivers/STM32F1xx_HAL_Driver/Inc/stm32f1xx_ll_dma.h **** {
 153              		.loc 3 601 22 view .LVU40
 154              	.LBB72:
 603:Drivers/STM32F1xx_HAL_Driver/Inc/stm32f1xx_ll_dma.h ****              Mode);
 155              		.loc 3 603 3 view .LVU41
 156 006e A36D     		ldr	r3, [r4, #88]
 157 0070 23F02003 		bic	r3, r3, #32
 158 0074 A365     		str	r3, [r4, #88]
ARM GAS  /tmp/ccO145yx.s 			page 33


 159              	.LVL7:
 603:Drivers/STM32F1xx_HAL_Driver/Inc/stm32f1xx_ll_dma.h ****              Mode);
 160              		.loc 3 603 3 is_stmt 0 view .LVU42
 161              	.LBE72:
 162              	.LBE71:
  65:Core/Src/spi.c **** 
  66:Core/Src/spi.c ****   LL_DMA_SetPeriphIncMode(DMA1, LL_DMA_CHANNEL_5, LL_DMA_PERIPH_NOINCREMENT);
 163              		.loc 1 66 3 is_stmt 1 view .LVU43
 164              	.LBB73:
 165              	.LBI73:
 646:Drivers/STM32F1xx_HAL_Driver/Inc/stm32f1xx_ll_dma.h **** {
 166              		.loc 3 646 22 view .LVU44
 167              	.LBB74:
 648:Drivers/STM32F1xx_HAL_Driver/Inc/stm32f1xx_ll_dma.h ****              PeriphOrM2MSrcIncMode);
 168              		.loc 3 648 3 view .LVU45
 169 0076 A36D     		ldr	r3, [r4, #88]
 170 0078 23F04003 		bic	r3, r3, #64
 171 007c A365     		str	r3, [r4, #88]
 172              	.LVL8:
 648:Drivers/STM32F1xx_HAL_Driver/Inc/stm32f1xx_ll_dma.h ****              PeriphOrM2MSrcIncMode);
 173              		.loc 3 648 3 is_stmt 0 view .LVU46
 174              	.LBE74:
 175              	.LBE73:
  67:Core/Src/spi.c **** 
  68:Core/Src/spi.c ****   LL_DMA_SetMemoryIncMode(DMA1, LL_DMA_CHANNEL_5, LL_DMA_MEMORY_INCREMENT);
 176              		.loc 1 68 3 is_stmt 1 view .LVU47
 177              	.LBB75:
 178              	.LBI75:
 691:Drivers/STM32F1xx_HAL_Driver/Inc/stm32f1xx_ll_dma.h **** {
 179              		.loc 3 691 22 view .LVU48
 180              	.LBB76:
 693:Drivers/STM32F1xx_HAL_Driver/Inc/stm32f1xx_ll_dma.h ****              MemoryOrM2MDstIncMode);
 181              		.loc 3 693 3 view .LVU49
 182 007e A36D     		ldr	r3, [r4, #88]
 183 0080 43F08003 		orr	r3, r3, #128
 184 0084 A365     		str	r3, [r4, #88]
 185              	.LVL9:
 693:Drivers/STM32F1xx_HAL_Driver/Inc/stm32f1xx_ll_dma.h ****              MemoryOrM2MDstIncMode);
 186              		.loc 3 693 3 is_stmt 0 view .LVU50
 187              	.LBE76:
 188              	.LBE75:
  69:Core/Src/spi.c **** 
  70:Core/Src/spi.c ****   LL_DMA_SetPeriphSize(DMA1, LL_DMA_CHANNEL_5, LL_DMA_PDATAALIGN_BYTE);
 189              		.loc 1 70 3 is_stmt 1 view .LVU51
 190              	.LBB77:
 191              	.LBI77:
 737:Drivers/STM32F1xx_HAL_Driver/Inc/stm32f1xx_ll_dma.h **** {
 192              		.loc 3 737 22 view .LVU52
 193              	.LBB78:
 739:Drivers/STM32F1xx_HAL_Driver/Inc/stm32f1xx_ll_dma.h ****              PeriphOrM2MSrcDataSize);
 194              		.loc 3 739 3 view .LVU53
 195 0086 A36D     		ldr	r3, [r4, #88]
 196 0088 23F44073 		bic	r3, r3, #768
 197 008c A365     		str	r3, [r4, #88]
 198              	.LVL10:
 739:Drivers/STM32F1xx_HAL_Driver/Inc/stm32f1xx_ll_dma.h ****              PeriphOrM2MSrcDataSize);
 199              		.loc 3 739 3 is_stmt 0 view .LVU54
ARM GAS  /tmp/ccO145yx.s 			page 34


 200              	.LBE78:
 201              	.LBE77:
  71:Core/Src/spi.c **** 
  72:Core/Src/spi.c ****   LL_DMA_SetMemorySize(DMA1, LL_DMA_CHANNEL_5, LL_DMA_MDATAALIGN_BYTE);
 202              		.loc 1 72 3 is_stmt 1 view .LVU55
 203              	.LBB79:
 204              	.LBI79:
 784:Drivers/STM32F1xx_HAL_Driver/Inc/stm32f1xx_ll_dma.h **** {
 205              		.loc 3 784 22 view .LVU56
 206              	.LBB80:
 786:Drivers/STM32F1xx_HAL_Driver/Inc/stm32f1xx_ll_dma.h ****              MemoryOrM2MDstDataSize);
 207              		.loc 3 786 3 view .LVU57
 208 008e A36D     		ldr	r3, [r4, #88]
 209 0090 23F44063 		bic	r3, r3, #3072
 210 0094 A365     		str	r3, [r4, #88]
 211              	.LVL11:
 786:Drivers/STM32F1xx_HAL_Driver/Inc/stm32f1xx_ll_dma.h ****              MemoryOrM2MDstDataSize);
 212              		.loc 3 786 3 is_stmt 0 view .LVU58
 213              	.LBE80:
 214              	.LBE79:
  73:Core/Src/spi.c **** 
  74:Core/Src/spi.c ****   /* USER CODE BEGIN SPI2_Init 1 */
  75:Core/Src/spi.c **** 
  76:Core/Src/spi.c ****   /* USER CODE END SPI2_Init 1 */
  77:Core/Src/spi.c ****   SPI_InitStruct.TransferDirection = LL_SPI_FULL_DUPLEX;
 215              		.loc 1 77 3 is_stmt 1 view .LVU59
 216              		.loc 1 77 36 is_stmt 0 view .LVU60
 217 0096 0895     		str	r5, [sp, #32]
  78:Core/Src/spi.c ****   SPI_InitStruct.Mode = LL_SPI_MODE_MASTER;
 218              		.loc 1 78 3 is_stmt 1 view .LVU61
 219              		.loc 1 78 23 is_stmt 0 view .LVU62
 220 0098 4FF48273 		mov	r3, #260
 221 009c 0993     		str	r3, [sp, #36]
  79:Core/Src/spi.c ****   SPI_InitStruct.DataWidth = LL_SPI_DATAWIDTH_8BIT;
 222              		.loc 1 79 3 is_stmt 1 view .LVU63
 223              		.loc 1 79 28 is_stmt 0 view .LVU64
 224 009e 0A95     		str	r5, [sp, #40]
  80:Core/Src/spi.c ****   SPI_InitStruct.ClockPolarity = LL_SPI_POLARITY_LOW;
 225              		.loc 1 80 3 is_stmt 1 view .LVU65
 226              		.loc 1 80 32 is_stmt 0 view .LVU66
 227 00a0 0B95     		str	r5, [sp, #44]
  81:Core/Src/spi.c ****   SPI_InitStruct.ClockPhase = LL_SPI_PHASE_1EDGE;
 228              		.loc 1 81 3 is_stmt 1 view .LVU67
 229              		.loc 1 81 29 is_stmt 0 view .LVU68
 230 00a2 0C95     		str	r5, [sp, #48]
  82:Core/Src/spi.c ****   SPI_InitStruct.NSS = LL_SPI_NSS_SOFT;
 231              		.loc 1 82 3 is_stmt 1 view .LVU69
 232              		.loc 1 82 22 is_stmt 0 view .LVU70
 233 00a4 4FF40073 		mov	r3, #512
 234 00a8 0D93     		str	r3, [sp, #52]
  83:Core/Src/spi.c ****   SPI_InitStruct.BaudRate = LL_SPI_BAUDRATEPRESCALER_DIV4;
 235              		.loc 1 83 3 is_stmt 1 view .LVU71
 236              		.loc 1 83 27 is_stmt 0 view .LVU72
 237 00aa 0823     		movs	r3, #8
 238 00ac 0E93     		str	r3, [sp, #56]
  84:Core/Src/spi.c ****   SPI_InitStruct.BitOrder = LL_SPI_MSB_FIRST;
 239              		.loc 1 84 3 is_stmt 1 view .LVU73
ARM GAS  /tmp/ccO145yx.s 			page 35


 240              		.loc 1 84 27 is_stmt 0 view .LVU74
 241 00ae 0F95     		str	r5, [sp, #60]
  85:Core/Src/spi.c ****   SPI_InitStruct.CRCCalculation = LL_SPI_CRCCALCULATION_DISABLE;
 242              		.loc 1 85 3 is_stmt 1 view .LVU75
 243              		.loc 1 85 33 is_stmt 0 view .LVU76
 244 00b0 1095     		str	r5, [sp, #64]
  86:Core/Src/spi.c ****   SPI_InitStruct.CRCPoly = 10;
 245              		.loc 1 86 3 is_stmt 1 view .LVU77
 246              		.loc 1 86 26 is_stmt 0 view .LVU78
 247 00b2 0A23     		movs	r3, #10
 248 00b4 1193     		str	r3, [sp, #68]
  87:Core/Src/spi.c ****   LL_SPI_Init(SPI2, &SPI_InitStruct);
 249              		.loc 1 87 3 is_stmt 1 view .LVU79
 250 00b6 144D     		ldr	r5, .L3+16
 251 00b8 08A9     		add	r1, sp, #32
 252 00ba 2846     		mov	r0, r5
 253 00bc FFF7FEFF 		bl	LL_SPI_Init
 254              	.LVL12:
  88:Core/Src/spi.c ****   /* USER CODE BEGIN SPI2_Init 2 */
  89:Core/Src/spi.c **** 	LL_DMA_DisableChannel(DMA1, LL_DMA_CHANNEL_5);
 255              		.loc 1 89 2 view .LVU80
 256              	.LBB81:
 257              	.LBI81:
 472:Drivers/STM32F1xx_HAL_Driver/Inc/stm32f1xx_ll_dma.h **** {
 258              		.loc 3 472 22 view .LVU81
 259              	.LBB82:
 474:Drivers/STM32F1xx_HAL_Driver/Inc/stm32f1xx_ll_dma.h **** }
 260              		.loc 3 474 3 view .LVU82
 261 00c0 A36D     		ldr	r3, [r4, #88]
 262 00c2 23F00103 		bic	r3, r3, #1
 263 00c6 A365     		str	r3, [r4, #88]
 264              	.LVL13:
 474:Drivers/STM32F1xx_HAL_Driver/Inc/stm32f1xx_ll_dma.h **** }
 265              		.loc 3 474 3 is_stmt 0 view .LVU83
 266              	.LBE82:
 267              	.LBE81:
  90:Core/Src/spi.c ****   LL_DMA_ClearFlag_TC5(DMA1);
 268              		.loc 1 90 3 is_stmt 1 view .LVU84
 269              	.LBB83:
 270              	.LBI83:
 835:Drivers/STM32F1xx_HAL_Driver/Inc/stm32f1xx_ll_dma.h ****              Priority);
 836:Drivers/STM32F1xx_HAL_Driver/Inc/stm32f1xx_ll_dma.h **** }
 837:Drivers/STM32F1xx_HAL_Driver/Inc/stm32f1xx_ll_dma.h **** 
 838:Drivers/STM32F1xx_HAL_Driver/Inc/stm32f1xx_ll_dma.h **** /**
 839:Drivers/STM32F1xx_HAL_Driver/Inc/stm32f1xx_ll_dma.h ****   * @brief  Get Channel priority level.
 840:Drivers/STM32F1xx_HAL_Driver/Inc/stm32f1xx_ll_dma.h ****   * @rmtoll CCR          PL            LL_DMA_GetChannelPriorityLevel
 841:Drivers/STM32F1xx_HAL_Driver/Inc/stm32f1xx_ll_dma.h ****   * @param  DMAx DMAx Instance
 842:Drivers/STM32F1xx_HAL_Driver/Inc/stm32f1xx_ll_dma.h ****   * @param  Channel This parameter can be one of the following values:
 843:Drivers/STM32F1xx_HAL_Driver/Inc/stm32f1xx_ll_dma.h ****   *         @arg @ref LL_DMA_CHANNEL_1
 844:Drivers/STM32F1xx_HAL_Driver/Inc/stm32f1xx_ll_dma.h ****   *         @arg @ref LL_DMA_CHANNEL_2
 845:Drivers/STM32F1xx_HAL_Driver/Inc/stm32f1xx_ll_dma.h ****   *         @arg @ref LL_DMA_CHANNEL_3
 846:Drivers/STM32F1xx_HAL_Driver/Inc/stm32f1xx_ll_dma.h ****   *         @arg @ref LL_DMA_CHANNEL_4
 847:Drivers/STM32F1xx_HAL_Driver/Inc/stm32f1xx_ll_dma.h ****   *         @arg @ref LL_DMA_CHANNEL_5
 848:Drivers/STM32F1xx_HAL_Driver/Inc/stm32f1xx_ll_dma.h ****   *         @arg @ref LL_DMA_CHANNEL_6
 849:Drivers/STM32F1xx_HAL_Driver/Inc/stm32f1xx_ll_dma.h ****   *         @arg @ref LL_DMA_CHANNEL_7
 850:Drivers/STM32F1xx_HAL_Driver/Inc/stm32f1xx_ll_dma.h ****   * @retval Returned value can be one of the following values:
 851:Drivers/STM32F1xx_HAL_Driver/Inc/stm32f1xx_ll_dma.h ****   *         @arg @ref LL_DMA_PRIORITY_LOW
ARM GAS  /tmp/ccO145yx.s 			page 36


 852:Drivers/STM32F1xx_HAL_Driver/Inc/stm32f1xx_ll_dma.h ****   *         @arg @ref LL_DMA_PRIORITY_MEDIUM
 853:Drivers/STM32F1xx_HAL_Driver/Inc/stm32f1xx_ll_dma.h ****   *         @arg @ref LL_DMA_PRIORITY_HIGH
 854:Drivers/STM32F1xx_HAL_Driver/Inc/stm32f1xx_ll_dma.h ****   *         @arg @ref LL_DMA_PRIORITY_VERYHIGH
 855:Drivers/STM32F1xx_HAL_Driver/Inc/stm32f1xx_ll_dma.h ****   */
 856:Drivers/STM32F1xx_HAL_Driver/Inc/stm32f1xx_ll_dma.h **** __STATIC_INLINE uint32_t LL_DMA_GetChannelPriorityLevel(DMA_TypeDef *DMAx, uint32_t Channel)
 857:Drivers/STM32F1xx_HAL_Driver/Inc/stm32f1xx_ll_dma.h **** {
 858:Drivers/STM32F1xx_HAL_Driver/Inc/stm32f1xx_ll_dma.h ****   return (READ_BIT(((DMA_Channel_TypeDef *)((uint32_t)((uint32_t)DMAx + CHANNEL_OFFSET_TAB[Channel 
 859:Drivers/STM32F1xx_HAL_Driver/Inc/stm32f1xx_ll_dma.h ****                    DMA_CCR_PL));
 860:Drivers/STM32F1xx_HAL_Driver/Inc/stm32f1xx_ll_dma.h **** }
 861:Drivers/STM32F1xx_HAL_Driver/Inc/stm32f1xx_ll_dma.h **** 
 862:Drivers/STM32F1xx_HAL_Driver/Inc/stm32f1xx_ll_dma.h **** /**
 863:Drivers/STM32F1xx_HAL_Driver/Inc/stm32f1xx_ll_dma.h ****   * @brief  Set Number of data to transfer.
 864:Drivers/STM32F1xx_HAL_Driver/Inc/stm32f1xx_ll_dma.h ****   * @note   This action has no effect if
 865:Drivers/STM32F1xx_HAL_Driver/Inc/stm32f1xx_ll_dma.h ****   *         channel is enabled.
 866:Drivers/STM32F1xx_HAL_Driver/Inc/stm32f1xx_ll_dma.h ****   * @rmtoll CNDTR        NDT           LL_DMA_SetDataLength
 867:Drivers/STM32F1xx_HAL_Driver/Inc/stm32f1xx_ll_dma.h ****   * @param  DMAx DMAx Instance
 868:Drivers/STM32F1xx_HAL_Driver/Inc/stm32f1xx_ll_dma.h ****   * @param  Channel This parameter can be one of the following values:
 869:Drivers/STM32F1xx_HAL_Driver/Inc/stm32f1xx_ll_dma.h ****   *         @arg @ref LL_DMA_CHANNEL_1
 870:Drivers/STM32F1xx_HAL_Driver/Inc/stm32f1xx_ll_dma.h ****   *         @arg @ref LL_DMA_CHANNEL_2
 871:Drivers/STM32F1xx_HAL_Driver/Inc/stm32f1xx_ll_dma.h ****   *         @arg @ref LL_DMA_CHANNEL_3
 872:Drivers/STM32F1xx_HAL_Driver/Inc/stm32f1xx_ll_dma.h ****   *         @arg @ref LL_DMA_CHANNEL_4
 873:Drivers/STM32F1xx_HAL_Driver/Inc/stm32f1xx_ll_dma.h ****   *         @arg @ref LL_DMA_CHANNEL_5
 874:Drivers/STM32F1xx_HAL_Driver/Inc/stm32f1xx_ll_dma.h ****   *         @arg @ref LL_DMA_CHANNEL_6
 875:Drivers/STM32F1xx_HAL_Driver/Inc/stm32f1xx_ll_dma.h ****   *         @arg @ref LL_DMA_CHANNEL_7
 876:Drivers/STM32F1xx_HAL_Driver/Inc/stm32f1xx_ll_dma.h ****   * @param  NbData Between Min_Data = 0 and Max_Data = 0x0000FFFF
 877:Drivers/STM32F1xx_HAL_Driver/Inc/stm32f1xx_ll_dma.h ****   * @retval None
 878:Drivers/STM32F1xx_HAL_Driver/Inc/stm32f1xx_ll_dma.h ****   */
 879:Drivers/STM32F1xx_HAL_Driver/Inc/stm32f1xx_ll_dma.h **** __STATIC_INLINE void LL_DMA_SetDataLength(DMA_TypeDef *DMAx, uint32_t Channel, uint32_t NbData)
 880:Drivers/STM32F1xx_HAL_Driver/Inc/stm32f1xx_ll_dma.h **** {
 881:Drivers/STM32F1xx_HAL_Driver/Inc/stm32f1xx_ll_dma.h ****   MODIFY_REG(((DMA_Channel_TypeDef *)((uint32_t)((uint32_t)DMAx + CHANNEL_OFFSET_TAB[Channel - 1U])
 882:Drivers/STM32F1xx_HAL_Driver/Inc/stm32f1xx_ll_dma.h ****              DMA_CNDTR_NDT, NbData);
 883:Drivers/STM32F1xx_HAL_Driver/Inc/stm32f1xx_ll_dma.h **** }
 884:Drivers/STM32F1xx_HAL_Driver/Inc/stm32f1xx_ll_dma.h **** 
 885:Drivers/STM32F1xx_HAL_Driver/Inc/stm32f1xx_ll_dma.h **** /**
 886:Drivers/STM32F1xx_HAL_Driver/Inc/stm32f1xx_ll_dma.h ****   * @brief  Get Number of data to transfer.
 887:Drivers/STM32F1xx_HAL_Driver/Inc/stm32f1xx_ll_dma.h ****   * @note   Once the channel is enabled, the return value indicate the
 888:Drivers/STM32F1xx_HAL_Driver/Inc/stm32f1xx_ll_dma.h ****   *         remaining bytes to be transmitted.
 889:Drivers/STM32F1xx_HAL_Driver/Inc/stm32f1xx_ll_dma.h ****   * @rmtoll CNDTR        NDT           LL_DMA_GetDataLength
 890:Drivers/STM32F1xx_HAL_Driver/Inc/stm32f1xx_ll_dma.h ****   * @param  DMAx DMAx Instance
 891:Drivers/STM32F1xx_HAL_Driver/Inc/stm32f1xx_ll_dma.h ****   * @param  Channel This parameter can be one of the following values:
 892:Drivers/STM32F1xx_HAL_Driver/Inc/stm32f1xx_ll_dma.h ****   *         @arg @ref LL_DMA_CHANNEL_1
 893:Drivers/STM32F1xx_HAL_Driver/Inc/stm32f1xx_ll_dma.h ****   *         @arg @ref LL_DMA_CHANNEL_2
 894:Drivers/STM32F1xx_HAL_Driver/Inc/stm32f1xx_ll_dma.h ****   *         @arg @ref LL_DMA_CHANNEL_3
 895:Drivers/STM32F1xx_HAL_Driver/Inc/stm32f1xx_ll_dma.h ****   *         @arg @ref LL_DMA_CHANNEL_4
 896:Drivers/STM32F1xx_HAL_Driver/Inc/stm32f1xx_ll_dma.h ****   *         @arg @ref LL_DMA_CHANNEL_5
 897:Drivers/STM32F1xx_HAL_Driver/Inc/stm32f1xx_ll_dma.h ****   *         @arg @ref LL_DMA_CHANNEL_6
 898:Drivers/STM32F1xx_HAL_Driver/Inc/stm32f1xx_ll_dma.h ****   *         @arg @ref LL_DMA_CHANNEL_7
 899:Drivers/STM32F1xx_HAL_Driver/Inc/stm32f1xx_ll_dma.h ****   * @retval Between Min_Data = 0 and Max_Data = 0xFFFFFFFF
 900:Drivers/STM32F1xx_HAL_Driver/Inc/stm32f1xx_ll_dma.h ****   */
 901:Drivers/STM32F1xx_HAL_Driver/Inc/stm32f1xx_ll_dma.h **** __STATIC_INLINE uint32_t LL_DMA_GetDataLength(DMA_TypeDef *DMAx, uint32_t Channel)
 902:Drivers/STM32F1xx_HAL_Driver/Inc/stm32f1xx_ll_dma.h **** {
 903:Drivers/STM32F1xx_HAL_Driver/Inc/stm32f1xx_ll_dma.h ****   return (READ_BIT(((DMA_Channel_TypeDef *)((uint32_t)((uint32_t)DMAx + CHANNEL_OFFSET_TAB[Channel 
 904:Drivers/STM32F1xx_HAL_Driver/Inc/stm32f1xx_ll_dma.h ****                    DMA_CNDTR_NDT));
 905:Drivers/STM32F1xx_HAL_Driver/Inc/stm32f1xx_ll_dma.h **** }
 906:Drivers/STM32F1xx_HAL_Driver/Inc/stm32f1xx_ll_dma.h **** 
 907:Drivers/STM32F1xx_HAL_Driver/Inc/stm32f1xx_ll_dma.h **** /**
 908:Drivers/STM32F1xx_HAL_Driver/Inc/stm32f1xx_ll_dma.h ****   * @brief  Configure the Source and Destination addresses.
ARM GAS  /tmp/ccO145yx.s 			page 37


 909:Drivers/STM32F1xx_HAL_Driver/Inc/stm32f1xx_ll_dma.h ****   * @note   This API must not be called when the DMA channel is enabled.
 910:Drivers/STM32F1xx_HAL_Driver/Inc/stm32f1xx_ll_dma.h ****   * @note   Each IP using DMA provides an API to get directly the register address (LL_PPP_DMA_GetR
 911:Drivers/STM32F1xx_HAL_Driver/Inc/stm32f1xx_ll_dma.h ****   * @rmtoll CPAR         PA            LL_DMA_ConfigAddresses\n
 912:Drivers/STM32F1xx_HAL_Driver/Inc/stm32f1xx_ll_dma.h ****   *         CMAR         MA            LL_DMA_ConfigAddresses
 913:Drivers/STM32F1xx_HAL_Driver/Inc/stm32f1xx_ll_dma.h ****   * @param  DMAx DMAx Instance
 914:Drivers/STM32F1xx_HAL_Driver/Inc/stm32f1xx_ll_dma.h ****   * @param  Channel This parameter can be one of the following values:
 915:Drivers/STM32F1xx_HAL_Driver/Inc/stm32f1xx_ll_dma.h ****   *         @arg @ref LL_DMA_CHANNEL_1
 916:Drivers/STM32F1xx_HAL_Driver/Inc/stm32f1xx_ll_dma.h ****   *         @arg @ref LL_DMA_CHANNEL_2
 917:Drivers/STM32F1xx_HAL_Driver/Inc/stm32f1xx_ll_dma.h ****   *         @arg @ref LL_DMA_CHANNEL_3
 918:Drivers/STM32F1xx_HAL_Driver/Inc/stm32f1xx_ll_dma.h ****   *         @arg @ref LL_DMA_CHANNEL_4
 919:Drivers/STM32F1xx_HAL_Driver/Inc/stm32f1xx_ll_dma.h ****   *         @arg @ref LL_DMA_CHANNEL_5
 920:Drivers/STM32F1xx_HAL_Driver/Inc/stm32f1xx_ll_dma.h ****   *         @arg @ref LL_DMA_CHANNEL_6
 921:Drivers/STM32F1xx_HAL_Driver/Inc/stm32f1xx_ll_dma.h ****   *         @arg @ref LL_DMA_CHANNEL_7
 922:Drivers/STM32F1xx_HAL_Driver/Inc/stm32f1xx_ll_dma.h ****   * @param  SrcAddress Between Min_Data = 0 and Max_Data = 0xFFFFFFFF
 923:Drivers/STM32F1xx_HAL_Driver/Inc/stm32f1xx_ll_dma.h ****   * @param  DstAddress Between Min_Data = 0 and Max_Data = 0xFFFFFFFF
 924:Drivers/STM32F1xx_HAL_Driver/Inc/stm32f1xx_ll_dma.h ****   * @param  Direction This parameter can be one of the following values:
 925:Drivers/STM32F1xx_HAL_Driver/Inc/stm32f1xx_ll_dma.h ****   *         @arg @ref LL_DMA_DIRECTION_PERIPH_TO_MEMORY
 926:Drivers/STM32F1xx_HAL_Driver/Inc/stm32f1xx_ll_dma.h ****   *         @arg @ref LL_DMA_DIRECTION_MEMORY_TO_PERIPH
 927:Drivers/STM32F1xx_HAL_Driver/Inc/stm32f1xx_ll_dma.h ****   *         @arg @ref LL_DMA_DIRECTION_MEMORY_TO_MEMORY
 928:Drivers/STM32F1xx_HAL_Driver/Inc/stm32f1xx_ll_dma.h ****   * @retval None
 929:Drivers/STM32F1xx_HAL_Driver/Inc/stm32f1xx_ll_dma.h ****   */
 930:Drivers/STM32F1xx_HAL_Driver/Inc/stm32f1xx_ll_dma.h **** __STATIC_INLINE void LL_DMA_ConfigAddresses(DMA_TypeDef *DMAx, uint32_t Channel, uint32_t SrcAddres
 931:Drivers/STM32F1xx_HAL_Driver/Inc/stm32f1xx_ll_dma.h ****                                             uint32_t DstAddress, uint32_t Direction)
 932:Drivers/STM32F1xx_HAL_Driver/Inc/stm32f1xx_ll_dma.h **** {
 933:Drivers/STM32F1xx_HAL_Driver/Inc/stm32f1xx_ll_dma.h ****   /* Direction Memory to Periph */
 934:Drivers/STM32F1xx_HAL_Driver/Inc/stm32f1xx_ll_dma.h ****   if (Direction == LL_DMA_DIRECTION_MEMORY_TO_PERIPH)
 935:Drivers/STM32F1xx_HAL_Driver/Inc/stm32f1xx_ll_dma.h ****   {
 936:Drivers/STM32F1xx_HAL_Driver/Inc/stm32f1xx_ll_dma.h ****     WRITE_REG(((DMA_Channel_TypeDef *)((uint32_t)((uint32_t)DMAx + CHANNEL_OFFSET_TAB[Channel - 1U]
 937:Drivers/STM32F1xx_HAL_Driver/Inc/stm32f1xx_ll_dma.h ****     WRITE_REG(((DMA_Channel_TypeDef *)((uint32_t)((uint32_t)DMAx + CHANNEL_OFFSET_TAB[Channel - 1U]
 938:Drivers/STM32F1xx_HAL_Driver/Inc/stm32f1xx_ll_dma.h ****   }
 939:Drivers/STM32F1xx_HAL_Driver/Inc/stm32f1xx_ll_dma.h ****   /* Direction Periph to Memory and Memory to Memory */
 940:Drivers/STM32F1xx_HAL_Driver/Inc/stm32f1xx_ll_dma.h ****   else
 941:Drivers/STM32F1xx_HAL_Driver/Inc/stm32f1xx_ll_dma.h ****   {
 942:Drivers/STM32F1xx_HAL_Driver/Inc/stm32f1xx_ll_dma.h ****     WRITE_REG(((DMA_Channel_TypeDef *)((uint32_t)((uint32_t)DMAx + CHANNEL_OFFSET_TAB[Channel - 1U]
 943:Drivers/STM32F1xx_HAL_Driver/Inc/stm32f1xx_ll_dma.h ****     WRITE_REG(((DMA_Channel_TypeDef *)((uint32_t)((uint32_t)DMAx + CHANNEL_OFFSET_TAB[Channel - 1U]
 944:Drivers/STM32F1xx_HAL_Driver/Inc/stm32f1xx_ll_dma.h ****   }
 945:Drivers/STM32F1xx_HAL_Driver/Inc/stm32f1xx_ll_dma.h **** }
 946:Drivers/STM32F1xx_HAL_Driver/Inc/stm32f1xx_ll_dma.h **** 
 947:Drivers/STM32F1xx_HAL_Driver/Inc/stm32f1xx_ll_dma.h **** /**
 948:Drivers/STM32F1xx_HAL_Driver/Inc/stm32f1xx_ll_dma.h ****   * @brief  Set the Memory address.
 949:Drivers/STM32F1xx_HAL_Driver/Inc/stm32f1xx_ll_dma.h ****   * @note   Interface used for direction LL_DMA_DIRECTION_PERIPH_TO_MEMORY or LL_DMA_DIRECTION_MEMO
 950:Drivers/STM32F1xx_HAL_Driver/Inc/stm32f1xx_ll_dma.h ****   * @note   This API must not be called when the DMA channel is enabled.
 951:Drivers/STM32F1xx_HAL_Driver/Inc/stm32f1xx_ll_dma.h ****   * @rmtoll CMAR         MA            LL_DMA_SetMemoryAddress
 952:Drivers/STM32F1xx_HAL_Driver/Inc/stm32f1xx_ll_dma.h ****   * @param  DMAx DMAx Instance
 953:Drivers/STM32F1xx_HAL_Driver/Inc/stm32f1xx_ll_dma.h ****   * @param  Channel This parameter can be one of the following values:
 954:Drivers/STM32F1xx_HAL_Driver/Inc/stm32f1xx_ll_dma.h ****   *         @arg @ref LL_DMA_CHANNEL_1
 955:Drivers/STM32F1xx_HAL_Driver/Inc/stm32f1xx_ll_dma.h ****   *         @arg @ref LL_DMA_CHANNEL_2
 956:Drivers/STM32F1xx_HAL_Driver/Inc/stm32f1xx_ll_dma.h ****   *         @arg @ref LL_DMA_CHANNEL_3
 957:Drivers/STM32F1xx_HAL_Driver/Inc/stm32f1xx_ll_dma.h ****   *         @arg @ref LL_DMA_CHANNEL_4
 958:Drivers/STM32F1xx_HAL_Driver/Inc/stm32f1xx_ll_dma.h ****   *         @arg @ref LL_DMA_CHANNEL_5
 959:Drivers/STM32F1xx_HAL_Driver/Inc/stm32f1xx_ll_dma.h ****   *         @arg @ref LL_DMA_CHANNEL_6
 960:Drivers/STM32F1xx_HAL_Driver/Inc/stm32f1xx_ll_dma.h ****   *         @arg @ref LL_DMA_CHANNEL_7
 961:Drivers/STM32F1xx_HAL_Driver/Inc/stm32f1xx_ll_dma.h ****   * @param  MemoryAddress Between Min_Data = 0 and Max_Data = 0xFFFFFFFF
 962:Drivers/STM32F1xx_HAL_Driver/Inc/stm32f1xx_ll_dma.h ****   * @retval None
 963:Drivers/STM32F1xx_HAL_Driver/Inc/stm32f1xx_ll_dma.h ****   */
 964:Drivers/STM32F1xx_HAL_Driver/Inc/stm32f1xx_ll_dma.h **** __STATIC_INLINE void LL_DMA_SetMemoryAddress(DMA_TypeDef *DMAx, uint32_t Channel, uint32_t MemoryAd
 965:Drivers/STM32F1xx_HAL_Driver/Inc/stm32f1xx_ll_dma.h **** {
ARM GAS  /tmp/ccO145yx.s 			page 38


 966:Drivers/STM32F1xx_HAL_Driver/Inc/stm32f1xx_ll_dma.h ****   WRITE_REG(((DMA_Channel_TypeDef *)((uint32_t)((uint32_t)DMAx + CHANNEL_OFFSET_TAB[Channel - 1U]))
 967:Drivers/STM32F1xx_HAL_Driver/Inc/stm32f1xx_ll_dma.h **** }
 968:Drivers/STM32F1xx_HAL_Driver/Inc/stm32f1xx_ll_dma.h **** 
 969:Drivers/STM32F1xx_HAL_Driver/Inc/stm32f1xx_ll_dma.h **** /**
 970:Drivers/STM32F1xx_HAL_Driver/Inc/stm32f1xx_ll_dma.h ****   * @brief  Set the Peripheral address.
 971:Drivers/STM32F1xx_HAL_Driver/Inc/stm32f1xx_ll_dma.h ****   * @note   Interface used for direction LL_DMA_DIRECTION_PERIPH_TO_MEMORY or LL_DMA_DIRECTION_MEMO
 972:Drivers/STM32F1xx_HAL_Driver/Inc/stm32f1xx_ll_dma.h ****   * @note   This API must not be called when the DMA channel is enabled.
 973:Drivers/STM32F1xx_HAL_Driver/Inc/stm32f1xx_ll_dma.h ****   * @rmtoll CPAR         PA            LL_DMA_SetPeriphAddress
 974:Drivers/STM32F1xx_HAL_Driver/Inc/stm32f1xx_ll_dma.h ****   * @param  DMAx DMAx Instance
 975:Drivers/STM32F1xx_HAL_Driver/Inc/stm32f1xx_ll_dma.h ****   * @param  Channel This parameter can be one of the following values:
 976:Drivers/STM32F1xx_HAL_Driver/Inc/stm32f1xx_ll_dma.h ****   *         @arg @ref LL_DMA_CHANNEL_1
 977:Drivers/STM32F1xx_HAL_Driver/Inc/stm32f1xx_ll_dma.h ****   *         @arg @ref LL_DMA_CHANNEL_2
 978:Drivers/STM32F1xx_HAL_Driver/Inc/stm32f1xx_ll_dma.h ****   *         @arg @ref LL_DMA_CHANNEL_3
 979:Drivers/STM32F1xx_HAL_Driver/Inc/stm32f1xx_ll_dma.h ****   *         @arg @ref LL_DMA_CHANNEL_4
 980:Drivers/STM32F1xx_HAL_Driver/Inc/stm32f1xx_ll_dma.h ****   *         @arg @ref LL_DMA_CHANNEL_5
 981:Drivers/STM32F1xx_HAL_Driver/Inc/stm32f1xx_ll_dma.h ****   *         @arg @ref LL_DMA_CHANNEL_6
 982:Drivers/STM32F1xx_HAL_Driver/Inc/stm32f1xx_ll_dma.h ****   *         @arg @ref LL_DMA_CHANNEL_7
 983:Drivers/STM32F1xx_HAL_Driver/Inc/stm32f1xx_ll_dma.h ****   * @param  PeriphAddress Between Min_Data = 0 and Max_Data = 0xFFFFFFFF
 984:Drivers/STM32F1xx_HAL_Driver/Inc/stm32f1xx_ll_dma.h ****   * @retval None
 985:Drivers/STM32F1xx_HAL_Driver/Inc/stm32f1xx_ll_dma.h ****   */
 986:Drivers/STM32F1xx_HAL_Driver/Inc/stm32f1xx_ll_dma.h **** __STATIC_INLINE void LL_DMA_SetPeriphAddress(DMA_TypeDef *DMAx, uint32_t Channel, uint32_t PeriphAd
 987:Drivers/STM32F1xx_HAL_Driver/Inc/stm32f1xx_ll_dma.h **** {
 988:Drivers/STM32F1xx_HAL_Driver/Inc/stm32f1xx_ll_dma.h ****   WRITE_REG(((DMA_Channel_TypeDef *)((uint32_t)((uint32_t)DMAx + CHANNEL_OFFSET_TAB[Channel - 1U]))
 989:Drivers/STM32F1xx_HAL_Driver/Inc/stm32f1xx_ll_dma.h **** }
 990:Drivers/STM32F1xx_HAL_Driver/Inc/stm32f1xx_ll_dma.h **** 
 991:Drivers/STM32F1xx_HAL_Driver/Inc/stm32f1xx_ll_dma.h **** /**
 992:Drivers/STM32F1xx_HAL_Driver/Inc/stm32f1xx_ll_dma.h ****   * @brief  Get Memory address.
 993:Drivers/STM32F1xx_HAL_Driver/Inc/stm32f1xx_ll_dma.h ****   * @note   Interface used for direction LL_DMA_DIRECTION_PERIPH_TO_MEMORY or LL_DMA_DIRECTION_MEMO
 994:Drivers/STM32F1xx_HAL_Driver/Inc/stm32f1xx_ll_dma.h ****   * @rmtoll CMAR         MA            LL_DMA_GetMemoryAddress
 995:Drivers/STM32F1xx_HAL_Driver/Inc/stm32f1xx_ll_dma.h ****   * @param  DMAx DMAx Instance
 996:Drivers/STM32F1xx_HAL_Driver/Inc/stm32f1xx_ll_dma.h ****   * @param  Channel This parameter can be one of the following values:
 997:Drivers/STM32F1xx_HAL_Driver/Inc/stm32f1xx_ll_dma.h ****   *         @arg @ref LL_DMA_CHANNEL_1
 998:Drivers/STM32F1xx_HAL_Driver/Inc/stm32f1xx_ll_dma.h ****   *         @arg @ref LL_DMA_CHANNEL_2
 999:Drivers/STM32F1xx_HAL_Driver/Inc/stm32f1xx_ll_dma.h ****   *         @arg @ref LL_DMA_CHANNEL_3
1000:Drivers/STM32F1xx_HAL_Driver/Inc/stm32f1xx_ll_dma.h ****   *         @arg @ref LL_DMA_CHANNEL_4
1001:Drivers/STM32F1xx_HAL_Driver/Inc/stm32f1xx_ll_dma.h ****   *         @arg @ref LL_DMA_CHANNEL_5
1002:Drivers/STM32F1xx_HAL_Driver/Inc/stm32f1xx_ll_dma.h ****   *         @arg @ref LL_DMA_CHANNEL_6
1003:Drivers/STM32F1xx_HAL_Driver/Inc/stm32f1xx_ll_dma.h ****   *         @arg @ref LL_DMA_CHANNEL_7
1004:Drivers/STM32F1xx_HAL_Driver/Inc/stm32f1xx_ll_dma.h ****   * @retval Between Min_Data = 0 and Max_Data = 0xFFFFFFFF
1005:Drivers/STM32F1xx_HAL_Driver/Inc/stm32f1xx_ll_dma.h ****   */
1006:Drivers/STM32F1xx_HAL_Driver/Inc/stm32f1xx_ll_dma.h **** __STATIC_INLINE uint32_t LL_DMA_GetMemoryAddress(DMA_TypeDef *DMAx, uint32_t Channel)
1007:Drivers/STM32F1xx_HAL_Driver/Inc/stm32f1xx_ll_dma.h **** {
1008:Drivers/STM32F1xx_HAL_Driver/Inc/stm32f1xx_ll_dma.h ****   return (READ_REG(((DMA_Channel_TypeDef *)((uint32_t)((uint32_t)DMAx + CHANNEL_OFFSET_TAB[Channel 
1009:Drivers/STM32F1xx_HAL_Driver/Inc/stm32f1xx_ll_dma.h **** }
1010:Drivers/STM32F1xx_HAL_Driver/Inc/stm32f1xx_ll_dma.h **** 
1011:Drivers/STM32F1xx_HAL_Driver/Inc/stm32f1xx_ll_dma.h **** /**
1012:Drivers/STM32F1xx_HAL_Driver/Inc/stm32f1xx_ll_dma.h ****   * @brief  Get Peripheral address.
1013:Drivers/STM32F1xx_HAL_Driver/Inc/stm32f1xx_ll_dma.h ****   * @note   Interface used for direction LL_DMA_DIRECTION_PERIPH_TO_MEMORY or LL_DMA_DIRECTION_MEMO
1014:Drivers/STM32F1xx_HAL_Driver/Inc/stm32f1xx_ll_dma.h ****   * @rmtoll CPAR         PA            LL_DMA_GetPeriphAddress
1015:Drivers/STM32F1xx_HAL_Driver/Inc/stm32f1xx_ll_dma.h ****   * @param  DMAx DMAx Instance
1016:Drivers/STM32F1xx_HAL_Driver/Inc/stm32f1xx_ll_dma.h ****   * @param  Channel This parameter can be one of the following values:
1017:Drivers/STM32F1xx_HAL_Driver/Inc/stm32f1xx_ll_dma.h ****   *         @arg @ref LL_DMA_CHANNEL_1
1018:Drivers/STM32F1xx_HAL_Driver/Inc/stm32f1xx_ll_dma.h ****   *         @arg @ref LL_DMA_CHANNEL_2
1019:Drivers/STM32F1xx_HAL_Driver/Inc/stm32f1xx_ll_dma.h ****   *         @arg @ref LL_DMA_CHANNEL_3
1020:Drivers/STM32F1xx_HAL_Driver/Inc/stm32f1xx_ll_dma.h ****   *         @arg @ref LL_DMA_CHANNEL_4
1021:Drivers/STM32F1xx_HAL_Driver/Inc/stm32f1xx_ll_dma.h ****   *         @arg @ref LL_DMA_CHANNEL_5
1022:Drivers/STM32F1xx_HAL_Driver/Inc/stm32f1xx_ll_dma.h ****   *         @arg @ref LL_DMA_CHANNEL_6
ARM GAS  /tmp/ccO145yx.s 			page 39


1023:Drivers/STM32F1xx_HAL_Driver/Inc/stm32f1xx_ll_dma.h ****   *         @arg @ref LL_DMA_CHANNEL_7
1024:Drivers/STM32F1xx_HAL_Driver/Inc/stm32f1xx_ll_dma.h ****   * @retval Between Min_Data = 0 and Max_Data = 0xFFFFFFFF
1025:Drivers/STM32F1xx_HAL_Driver/Inc/stm32f1xx_ll_dma.h ****   */
1026:Drivers/STM32F1xx_HAL_Driver/Inc/stm32f1xx_ll_dma.h **** __STATIC_INLINE uint32_t LL_DMA_GetPeriphAddress(DMA_TypeDef *DMAx, uint32_t Channel)
1027:Drivers/STM32F1xx_HAL_Driver/Inc/stm32f1xx_ll_dma.h **** {
1028:Drivers/STM32F1xx_HAL_Driver/Inc/stm32f1xx_ll_dma.h ****   return (READ_REG(((DMA_Channel_TypeDef *)((uint32_t)((uint32_t)DMAx + CHANNEL_OFFSET_TAB[Channel 
1029:Drivers/STM32F1xx_HAL_Driver/Inc/stm32f1xx_ll_dma.h **** }
1030:Drivers/STM32F1xx_HAL_Driver/Inc/stm32f1xx_ll_dma.h **** 
1031:Drivers/STM32F1xx_HAL_Driver/Inc/stm32f1xx_ll_dma.h **** /**
1032:Drivers/STM32F1xx_HAL_Driver/Inc/stm32f1xx_ll_dma.h ****   * @brief  Set the Memory to Memory Source address.
1033:Drivers/STM32F1xx_HAL_Driver/Inc/stm32f1xx_ll_dma.h ****   * @note   Interface used for direction LL_DMA_DIRECTION_MEMORY_TO_MEMORY only.
1034:Drivers/STM32F1xx_HAL_Driver/Inc/stm32f1xx_ll_dma.h ****   * @note   This API must not be called when the DMA channel is enabled.
1035:Drivers/STM32F1xx_HAL_Driver/Inc/stm32f1xx_ll_dma.h ****   * @rmtoll CPAR         PA            LL_DMA_SetM2MSrcAddress
1036:Drivers/STM32F1xx_HAL_Driver/Inc/stm32f1xx_ll_dma.h ****   * @param  DMAx DMAx Instance
1037:Drivers/STM32F1xx_HAL_Driver/Inc/stm32f1xx_ll_dma.h ****   * @param  Channel This parameter can be one of the following values:
1038:Drivers/STM32F1xx_HAL_Driver/Inc/stm32f1xx_ll_dma.h ****   *         @arg @ref LL_DMA_CHANNEL_1
1039:Drivers/STM32F1xx_HAL_Driver/Inc/stm32f1xx_ll_dma.h ****   *         @arg @ref LL_DMA_CHANNEL_2
1040:Drivers/STM32F1xx_HAL_Driver/Inc/stm32f1xx_ll_dma.h ****   *         @arg @ref LL_DMA_CHANNEL_3
1041:Drivers/STM32F1xx_HAL_Driver/Inc/stm32f1xx_ll_dma.h ****   *         @arg @ref LL_DMA_CHANNEL_4
1042:Drivers/STM32F1xx_HAL_Driver/Inc/stm32f1xx_ll_dma.h ****   *         @arg @ref LL_DMA_CHANNEL_5
1043:Drivers/STM32F1xx_HAL_Driver/Inc/stm32f1xx_ll_dma.h ****   *         @arg @ref LL_DMA_CHANNEL_6
1044:Drivers/STM32F1xx_HAL_Driver/Inc/stm32f1xx_ll_dma.h ****   *         @arg @ref LL_DMA_CHANNEL_7
1045:Drivers/STM32F1xx_HAL_Driver/Inc/stm32f1xx_ll_dma.h ****   * @param  MemoryAddress Between Min_Data = 0 and Max_Data = 0xFFFFFFFF
1046:Drivers/STM32F1xx_HAL_Driver/Inc/stm32f1xx_ll_dma.h ****   * @retval None
1047:Drivers/STM32F1xx_HAL_Driver/Inc/stm32f1xx_ll_dma.h ****   */
1048:Drivers/STM32F1xx_HAL_Driver/Inc/stm32f1xx_ll_dma.h **** __STATIC_INLINE void LL_DMA_SetM2MSrcAddress(DMA_TypeDef *DMAx, uint32_t Channel, uint32_t MemoryAd
1049:Drivers/STM32F1xx_HAL_Driver/Inc/stm32f1xx_ll_dma.h **** {
1050:Drivers/STM32F1xx_HAL_Driver/Inc/stm32f1xx_ll_dma.h ****   WRITE_REG(((DMA_Channel_TypeDef *)((uint32_t)((uint32_t)DMAx + CHANNEL_OFFSET_TAB[Channel - 1U]))
1051:Drivers/STM32F1xx_HAL_Driver/Inc/stm32f1xx_ll_dma.h **** }
1052:Drivers/STM32F1xx_HAL_Driver/Inc/stm32f1xx_ll_dma.h **** 
1053:Drivers/STM32F1xx_HAL_Driver/Inc/stm32f1xx_ll_dma.h **** /**
1054:Drivers/STM32F1xx_HAL_Driver/Inc/stm32f1xx_ll_dma.h ****   * @brief  Set the Memory to Memory Destination address.
1055:Drivers/STM32F1xx_HAL_Driver/Inc/stm32f1xx_ll_dma.h ****   * @note   Interface used for direction LL_DMA_DIRECTION_MEMORY_TO_MEMORY only.
1056:Drivers/STM32F1xx_HAL_Driver/Inc/stm32f1xx_ll_dma.h ****   * @note   This API must not be called when the DMA channel is enabled.
1057:Drivers/STM32F1xx_HAL_Driver/Inc/stm32f1xx_ll_dma.h ****   * @rmtoll CMAR         MA            LL_DMA_SetM2MDstAddress
1058:Drivers/STM32F1xx_HAL_Driver/Inc/stm32f1xx_ll_dma.h ****   * @param  DMAx DMAx Instance
1059:Drivers/STM32F1xx_HAL_Driver/Inc/stm32f1xx_ll_dma.h ****   * @param  Channel This parameter can be one of the following values:
1060:Drivers/STM32F1xx_HAL_Driver/Inc/stm32f1xx_ll_dma.h ****   *         @arg @ref LL_DMA_CHANNEL_1
1061:Drivers/STM32F1xx_HAL_Driver/Inc/stm32f1xx_ll_dma.h ****   *         @arg @ref LL_DMA_CHANNEL_2
1062:Drivers/STM32F1xx_HAL_Driver/Inc/stm32f1xx_ll_dma.h ****   *         @arg @ref LL_DMA_CHANNEL_3
1063:Drivers/STM32F1xx_HAL_Driver/Inc/stm32f1xx_ll_dma.h ****   *         @arg @ref LL_DMA_CHANNEL_4
1064:Drivers/STM32F1xx_HAL_Driver/Inc/stm32f1xx_ll_dma.h ****   *         @arg @ref LL_DMA_CHANNEL_5
1065:Drivers/STM32F1xx_HAL_Driver/Inc/stm32f1xx_ll_dma.h ****   *         @arg @ref LL_DMA_CHANNEL_6
1066:Drivers/STM32F1xx_HAL_Driver/Inc/stm32f1xx_ll_dma.h ****   *         @arg @ref LL_DMA_CHANNEL_7
1067:Drivers/STM32F1xx_HAL_Driver/Inc/stm32f1xx_ll_dma.h ****   * @param  MemoryAddress Between Min_Data = 0 and Max_Data = 0xFFFFFFFF
1068:Drivers/STM32F1xx_HAL_Driver/Inc/stm32f1xx_ll_dma.h ****   * @retval None
1069:Drivers/STM32F1xx_HAL_Driver/Inc/stm32f1xx_ll_dma.h ****   */
1070:Drivers/STM32F1xx_HAL_Driver/Inc/stm32f1xx_ll_dma.h **** __STATIC_INLINE void LL_DMA_SetM2MDstAddress(DMA_TypeDef *DMAx, uint32_t Channel, uint32_t MemoryAd
1071:Drivers/STM32F1xx_HAL_Driver/Inc/stm32f1xx_ll_dma.h **** {
1072:Drivers/STM32F1xx_HAL_Driver/Inc/stm32f1xx_ll_dma.h ****   WRITE_REG(((DMA_Channel_TypeDef *)((uint32_t)((uint32_t)DMAx + CHANNEL_OFFSET_TAB[Channel - 1U]))
1073:Drivers/STM32F1xx_HAL_Driver/Inc/stm32f1xx_ll_dma.h **** }
1074:Drivers/STM32F1xx_HAL_Driver/Inc/stm32f1xx_ll_dma.h **** 
1075:Drivers/STM32F1xx_HAL_Driver/Inc/stm32f1xx_ll_dma.h **** /**
1076:Drivers/STM32F1xx_HAL_Driver/Inc/stm32f1xx_ll_dma.h ****   * @brief  Get the Memory to Memory Source address.
1077:Drivers/STM32F1xx_HAL_Driver/Inc/stm32f1xx_ll_dma.h ****   * @note   Interface used for direction LL_DMA_DIRECTION_MEMORY_TO_MEMORY only.
1078:Drivers/STM32F1xx_HAL_Driver/Inc/stm32f1xx_ll_dma.h ****   * @rmtoll CPAR         PA            LL_DMA_GetM2MSrcAddress
1079:Drivers/STM32F1xx_HAL_Driver/Inc/stm32f1xx_ll_dma.h ****   * @param  DMAx DMAx Instance
ARM GAS  /tmp/ccO145yx.s 			page 40


1080:Drivers/STM32F1xx_HAL_Driver/Inc/stm32f1xx_ll_dma.h ****   * @param  Channel This parameter can be one of the following values:
1081:Drivers/STM32F1xx_HAL_Driver/Inc/stm32f1xx_ll_dma.h ****   *         @arg @ref LL_DMA_CHANNEL_1
1082:Drivers/STM32F1xx_HAL_Driver/Inc/stm32f1xx_ll_dma.h ****   *         @arg @ref LL_DMA_CHANNEL_2
1083:Drivers/STM32F1xx_HAL_Driver/Inc/stm32f1xx_ll_dma.h ****   *         @arg @ref LL_DMA_CHANNEL_3
1084:Drivers/STM32F1xx_HAL_Driver/Inc/stm32f1xx_ll_dma.h ****   *         @arg @ref LL_DMA_CHANNEL_4
1085:Drivers/STM32F1xx_HAL_Driver/Inc/stm32f1xx_ll_dma.h ****   *         @arg @ref LL_DMA_CHANNEL_5
1086:Drivers/STM32F1xx_HAL_Driver/Inc/stm32f1xx_ll_dma.h ****   *         @arg @ref LL_DMA_CHANNEL_6
1087:Drivers/STM32F1xx_HAL_Driver/Inc/stm32f1xx_ll_dma.h ****   *         @arg @ref LL_DMA_CHANNEL_7
1088:Drivers/STM32F1xx_HAL_Driver/Inc/stm32f1xx_ll_dma.h ****   * @retval Between Min_Data = 0 and Max_Data = 0xFFFFFFFF
1089:Drivers/STM32F1xx_HAL_Driver/Inc/stm32f1xx_ll_dma.h ****   */
1090:Drivers/STM32F1xx_HAL_Driver/Inc/stm32f1xx_ll_dma.h **** __STATIC_INLINE uint32_t LL_DMA_GetM2MSrcAddress(DMA_TypeDef *DMAx, uint32_t Channel)
1091:Drivers/STM32F1xx_HAL_Driver/Inc/stm32f1xx_ll_dma.h **** {
1092:Drivers/STM32F1xx_HAL_Driver/Inc/stm32f1xx_ll_dma.h ****   return (READ_REG(((DMA_Channel_TypeDef *)((uint32_t)((uint32_t)DMAx + CHANNEL_OFFSET_TAB[Channel 
1093:Drivers/STM32F1xx_HAL_Driver/Inc/stm32f1xx_ll_dma.h **** }
1094:Drivers/STM32F1xx_HAL_Driver/Inc/stm32f1xx_ll_dma.h **** 
1095:Drivers/STM32F1xx_HAL_Driver/Inc/stm32f1xx_ll_dma.h **** /**
1096:Drivers/STM32F1xx_HAL_Driver/Inc/stm32f1xx_ll_dma.h ****   * @brief  Get the Memory to Memory Destination address.
1097:Drivers/STM32F1xx_HAL_Driver/Inc/stm32f1xx_ll_dma.h ****   * @note   Interface used for direction LL_DMA_DIRECTION_MEMORY_TO_MEMORY only.
1098:Drivers/STM32F1xx_HAL_Driver/Inc/stm32f1xx_ll_dma.h ****   * @rmtoll CMAR         MA            LL_DMA_GetM2MDstAddress
1099:Drivers/STM32F1xx_HAL_Driver/Inc/stm32f1xx_ll_dma.h ****   * @param  DMAx DMAx Instance
1100:Drivers/STM32F1xx_HAL_Driver/Inc/stm32f1xx_ll_dma.h ****   * @param  Channel This parameter can be one of the following values:
1101:Drivers/STM32F1xx_HAL_Driver/Inc/stm32f1xx_ll_dma.h ****   *         @arg @ref LL_DMA_CHANNEL_1
1102:Drivers/STM32F1xx_HAL_Driver/Inc/stm32f1xx_ll_dma.h ****   *         @arg @ref LL_DMA_CHANNEL_2
1103:Drivers/STM32F1xx_HAL_Driver/Inc/stm32f1xx_ll_dma.h ****   *         @arg @ref LL_DMA_CHANNEL_3
1104:Drivers/STM32F1xx_HAL_Driver/Inc/stm32f1xx_ll_dma.h ****   *         @arg @ref LL_DMA_CHANNEL_4
1105:Drivers/STM32F1xx_HAL_Driver/Inc/stm32f1xx_ll_dma.h ****   *         @arg @ref LL_DMA_CHANNEL_5
1106:Drivers/STM32F1xx_HAL_Driver/Inc/stm32f1xx_ll_dma.h ****   *         @arg @ref LL_DMA_CHANNEL_6
1107:Drivers/STM32F1xx_HAL_Driver/Inc/stm32f1xx_ll_dma.h ****   *         @arg @ref LL_DMA_CHANNEL_7
1108:Drivers/STM32F1xx_HAL_Driver/Inc/stm32f1xx_ll_dma.h ****   * @retval Between Min_Data = 0 and Max_Data = 0xFFFFFFFF
1109:Drivers/STM32F1xx_HAL_Driver/Inc/stm32f1xx_ll_dma.h ****   */
1110:Drivers/STM32F1xx_HAL_Driver/Inc/stm32f1xx_ll_dma.h **** __STATIC_INLINE uint32_t LL_DMA_GetM2MDstAddress(DMA_TypeDef *DMAx, uint32_t Channel)
1111:Drivers/STM32F1xx_HAL_Driver/Inc/stm32f1xx_ll_dma.h **** {
1112:Drivers/STM32F1xx_HAL_Driver/Inc/stm32f1xx_ll_dma.h ****   return (READ_REG(((DMA_Channel_TypeDef *)((uint32_t)((uint32_t)DMAx + CHANNEL_OFFSET_TAB[Channel 
1113:Drivers/STM32F1xx_HAL_Driver/Inc/stm32f1xx_ll_dma.h **** }
1114:Drivers/STM32F1xx_HAL_Driver/Inc/stm32f1xx_ll_dma.h **** 
1115:Drivers/STM32F1xx_HAL_Driver/Inc/stm32f1xx_ll_dma.h **** /**
1116:Drivers/STM32F1xx_HAL_Driver/Inc/stm32f1xx_ll_dma.h ****   * @}
1117:Drivers/STM32F1xx_HAL_Driver/Inc/stm32f1xx_ll_dma.h ****   */
1118:Drivers/STM32F1xx_HAL_Driver/Inc/stm32f1xx_ll_dma.h **** 
1119:Drivers/STM32F1xx_HAL_Driver/Inc/stm32f1xx_ll_dma.h **** /** @defgroup DMA_LL_EF_FLAG_Management FLAG_Management
1120:Drivers/STM32F1xx_HAL_Driver/Inc/stm32f1xx_ll_dma.h ****   * @{
1121:Drivers/STM32F1xx_HAL_Driver/Inc/stm32f1xx_ll_dma.h ****   */
1122:Drivers/STM32F1xx_HAL_Driver/Inc/stm32f1xx_ll_dma.h **** 
1123:Drivers/STM32F1xx_HAL_Driver/Inc/stm32f1xx_ll_dma.h **** /**
1124:Drivers/STM32F1xx_HAL_Driver/Inc/stm32f1xx_ll_dma.h ****   * @brief  Get Channel 1 global interrupt flag.
1125:Drivers/STM32F1xx_HAL_Driver/Inc/stm32f1xx_ll_dma.h ****   * @rmtoll ISR          GIF1          LL_DMA_IsActiveFlag_GI1
1126:Drivers/STM32F1xx_HAL_Driver/Inc/stm32f1xx_ll_dma.h ****   * @param  DMAx DMAx Instance
1127:Drivers/STM32F1xx_HAL_Driver/Inc/stm32f1xx_ll_dma.h ****   * @retval State of bit (1 or 0).
1128:Drivers/STM32F1xx_HAL_Driver/Inc/stm32f1xx_ll_dma.h ****   */
1129:Drivers/STM32F1xx_HAL_Driver/Inc/stm32f1xx_ll_dma.h **** __STATIC_INLINE uint32_t LL_DMA_IsActiveFlag_GI1(DMA_TypeDef *DMAx)
1130:Drivers/STM32F1xx_HAL_Driver/Inc/stm32f1xx_ll_dma.h **** {
1131:Drivers/STM32F1xx_HAL_Driver/Inc/stm32f1xx_ll_dma.h ****   return (READ_BIT(DMAx->ISR, DMA_ISR_GIF1) == (DMA_ISR_GIF1));
1132:Drivers/STM32F1xx_HAL_Driver/Inc/stm32f1xx_ll_dma.h **** }
1133:Drivers/STM32F1xx_HAL_Driver/Inc/stm32f1xx_ll_dma.h **** 
1134:Drivers/STM32F1xx_HAL_Driver/Inc/stm32f1xx_ll_dma.h **** /**
1135:Drivers/STM32F1xx_HAL_Driver/Inc/stm32f1xx_ll_dma.h ****   * @brief  Get Channel 2 global interrupt flag.
1136:Drivers/STM32F1xx_HAL_Driver/Inc/stm32f1xx_ll_dma.h ****   * @rmtoll ISR          GIF2          LL_DMA_IsActiveFlag_GI2
ARM GAS  /tmp/ccO145yx.s 			page 41


1137:Drivers/STM32F1xx_HAL_Driver/Inc/stm32f1xx_ll_dma.h ****   * @param  DMAx DMAx Instance
1138:Drivers/STM32F1xx_HAL_Driver/Inc/stm32f1xx_ll_dma.h ****   * @retval State of bit (1 or 0).
1139:Drivers/STM32F1xx_HAL_Driver/Inc/stm32f1xx_ll_dma.h ****   */
1140:Drivers/STM32F1xx_HAL_Driver/Inc/stm32f1xx_ll_dma.h **** __STATIC_INLINE uint32_t LL_DMA_IsActiveFlag_GI2(DMA_TypeDef *DMAx)
1141:Drivers/STM32F1xx_HAL_Driver/Inc/stm32f1xx_ll_dma.h **** {
1142:Drivers/STM32F1xx_HAL_Driver/Inc/stm32f1xx_ll_dma.h ****   return (READ_BIT(DMAx->ISR, DMA_ISR_GIF2) == (DMA_ISR_GIF2));
1143:Drivers/STM32F1xx_HAL_Driver/Inc/stm32f1xx_ll_dma.h **** }
1144:Drivers/STM32F1xx_HAL_Driver/Inc/stm32f1xx_ll_dma.h **** 
1145:Drivers/STM32F1xx_HAL_Driver/Inc/stm32f1xx_ll_dma.h **** /**
1146:Drivers/STM32F1xx_HAL_Driver/Inc/stm32f1xx_ll_dma.h ****   * @brief  Get Channel 3 global interrupt flag.
1147:Drivers/STM32F1xx_HAL_Driver/Inc/stm32f1xx_ll_dma.h ****   * @rmtoll ISR          GIF3          LL_DMA_IsActiveFlag_GI3
1148:Drivers/STM32F1xx_HAL_Driver/Inc/stm32f1xx_ll_dma.h ****   * @param  DMAx DMAx Instance
1149:Drivers/STM32F1xx_HAL_Driver/Inc/stm32f1xx_ll_dma.h ****   * @retval State of bit (1 or 0).
1150:Drivers/STM32F1xx_HAL_Driver/Inc/stm32f1xx_ll_dma.h ****   */
1151:Drivers/STM32F1xx_HAL_Driver/Inc/stm32f1xx_ll_dma.h **** __STATIC_INLINE uint32_t LL_DMA_IsActiveFlag_GI3(DMA_TypeDef *DMAx)
1152:Drivers/STM32F1xx_HAL_Driver/Inc/stm32f1xx_ll_dma.h **** {
1153:Drivers/STM32F1xx_HAL_Driver/Inc/stm32f1xx_ll_dma.h ****   return (READ_BIT(DMAx->ISR, DMA_ISR_GIF3) == (DMA_ISR_GIF3));
1154:Drivers/STM32F1xx_HAL_Driver/Inc/stm32f1xx_ll_dma.h **** }
1155:Drivers/STM32F1xx_HAL_Driver/Inc/stm32f1xx_ll_dma.h **** 
1156:Drivers/STM32F1xx_HAL_Driver/Inc/stm32f1xx_ll_dma.h **** /**
1157:Drivers/STM32F1xx_HAL_Driver/Inc/stm32f1xx_ll_dma.h ****   * @brief  Get Channel 4 global interrupt flag.
1158:Drivers/STM32F1xx_HAL_Driver/Inc/stm32f1xx_ll_dma.h ****   * @rmtoll ISR          GIF4          LL_DMA_IsActiveFlag_GI4
1159:Drivers/STM32F1xx_HAL_Driver/Inc/stm32f1xx_ll_dma.h ****   * @param  DMAx DMAx Instance
1160:Drivers/STM32F1xx_HAL_Driver/Inc/stm32f1xx_ll_dma.h ****   * @retval State of bit (1 or 0).
1161:Drivers/STM32F1xx_HAL_Driver/Inc/stm32f1xx_ll_dma.h ****   */
1162:Drivers/STM32F1xx_HAL_Driver/Inc/stm32f1xx_ll_dma.h **** __STATIC_INLINE uint32_t LL_DMA_IsActiveFlag_GI4(DMA_TypeDef *DMAx)
1163:Drivers/STM32F1xx_HAL_Driver/Inc/stm32f1xx_ll_dma.h **** {
1164:Drivers/STM32F1xx_HAL_Driver/Inc/stm32f1xx_ll_dma.h ****   return (READ_BIT(DMAx->ISR, DMA_ISR_GIF4) == (DMA_ISR_GIF4));
1165:Drivers/STM32F1xx_HAL_Driver/Inc/stm32f1xx_ll_dma.h **** }
1166:Drivers/STM32F1xx_HAL_Driver/Inc/stm32f1xx_ll_dma.h **** 
1167:Drivers/STM32F1xx_HAL_Driver/Inc/stm32f1xx_ll_dma.h **** /**
1168:Drivers/STM32F1xx_HAL_Driver/Inc/stm32f1xx_ll_dma.h ****   * @brief  Get Channel 5 global interrupt flag.
1169:Drivers/STM32F1xx_HAL_Driver/Inc/stm32f1xx_ll_dma.h ****   * @rmtoll ISR          GIF5          LL_DMA_IsActiveFlag_GI5
1170:Drivers/STM32F1xx_HAL_Driver/Inc/stm32f1xx_ll_dma.h ****   * @param  DMAx DMAx Instance
1171:Drivers/STM32F1xx_HAL_Driver/Inc/stm32f1xx_ll_dma.h ****   * @retval State of bit (1 or 0).
1172:Drivers/STM32F1xx_HAL_Driver/Inc/stm32f1xx_ll_dma.h ****   */
1173:Drivers/STM32F1xx_HAL_Driver/Inc/stm32f1xx_ll_dma.h **** __STATIC_INLINE uint32_t LL_DMA_IsActiveFlag_GI5(DMA_TypeDef *DMAx)
1174:Drivers/STM32F1xx_HAL_Driver/Inc/stm32f1xx_ll_dma.h **** {
1175:Drivers/STM32F1xx_HAL_Driver/Inc/stm32f1xx_ll_dma.h ****   return (READ_BIT(DMAx->ISR, DMA_ISR_GIF5) == (DMA_ISR_GIF5));
1176:Drivers/STM32F1xx_HAL_Driver/Inc/stm32f1xx_ll_dma.h **** }
1177:Drivers/STM32F1xx_HAL_Driver/Inc/stm32f1xx_ll_dma.h **** 
1178:Drivers/STM32F1xx_HAL_Driver/Inc/stm32f1xx_ll_dma.h **** /**
1179:Drivers/STM32F1xx_HAL_Driver/Inc/stm32f1xx_ll_dma.h ****   * @brief  Get Channel 6 global interrupt flag.
1180:Drivers/STM32F1xx_HAL_Driver/Inc/stm32f1xx_ll_dma.h ****   * @rmtoll ISR          GIF6          LL_DMA_IsActiveFlag_GI6
1181:Drivers/STM32F1xx_HAL_Driver/Inc/stm32f1xx_ll_dma.h ****   * @param  DMAx DMAx Instance
1182:Drivers/STM32F1xx_HAL_Driver/Inc/stm32f1xx_ll_dma.h ****   * @retval State of bit (1 or 0).
1183:Drivers/STM32F1xx_HAL_Driver/Inc/stm32f1xx_ll_dma.h ****   */
1184:Drivers/STM32F1xx_HAL_Driver/Inc/stm32f1xx_ll_dma.h **** __STATIC_INLINE uint32_t LL_DMA_IsActiveFlag_GI6(DMA_TypeDef *DMAx)
1185:Drivers/STM32F1xx_HAL_Driver/Inc/stm32f1xx_ll_dma.h **** {
1186:Drivers/STM32F1xx_HAL_Driver/Inc/stm32f1xx_ll_dma.h ****   return (READ_BIT(DMAx->ISR, DMA_ISR_GIF6) == (DMA_ISR_GIF6));
1187:Drivers/STM32F1xx_HAL_Driver/Inc/stm32f1xx_ll_dma.h **** }
1188:Drivers/STM32F1xx_HAL_Driver/Inc/stm32f1xx_ll_dma.h **** 
1189:Drivers/STM32F1xx_HAL_Driver/Inc/stm32f1xx_ll_dma.h **** /**
1190:Drivers/STM32F1xx_HAL_Driver/Inc/stm32f1xx_ll_dma.h ****   * @brief  Get Channel 7 global interrupt flag.
1191:Drivers/STM32F1xx_HAL_Driver/Inc/stm32f1xx_ll_dma.h ****   * @rmtoll ISR          GIF7          LL_DMA_IsActiveFlag_GI7
1192:Drivers/STM32F1xx_HAL_Driver/Inc/stm32f1xx_ll_dma.h ****   * @param  DMAx DMAx Instance
1193:Drivers/STM32F1xx_HAL_Driver/Inc/stm32f1xx_ll_dma.h ****   * @retval State of bit (1 or 0).
ARM GAS  /tmp/ccO145yx.s 			page 42


1194:Drivers/STM32F1xx_HAL_Driver/Inc/stm32f1xx_ll_dma.h ****   */
1195:Drivers/STM32F1xx_HAL_Driver/Inc/stm32f1xx_ll_dma.h **** __STATIC_INLINE uint32_t LL_DMA_IsActiveFlag_GI7(DMA_TypeDef *DMAx)
1196:Drivers/STM32F1xx_HAL_Driver/Inc/stm32f1xx_ll_dma.h **** {
1197:Drivers/STM32F1xx_HAL_Driver/Inc/stm32f1xx_ll_dma.h ****   return (READ_BIT(DMAx->ISR, DMA_ISR_GIF7) == (DMA_ISR_GIF7));
1198:Drivers/STM32F1xx_HAL_Driver/Inc/stm32f1xx_ll_dma.h **** }
1199:Drivers/STM32F1xx_HAL_Driver/Inc/stm32f1xx_ll_dma.h **** 
1200:Drivers/STM32F1xx_HAL_Driver/Inc/stm32f1xx_ll_dma.h **** /**
1201:Drivers/STM32F1xx_HAL_Driver/Inc/stm32f1xx_ll_dma.h ****   * @brief  Get Channel 1 transfer complete flag.
1202:Drivers/STM32F1xx_HAL_Driver/Inc/stm32f1xx_ll_dma.h ****   * @rmtoll ISR          TCIF1         LL_DMA_IsActiveFlag_TC1
1203:Drivers/STM32F1xx_HAL_Driver/Inc/stm32f1xx_ll_dma.h ****   * @param  DMAx DMAx Instance
1204:Drivers/STM32F1xx_HAL_Driver/Inc/stm32f1xx_ll_dma.h ****   * @retval State of bit (1 or 0).
1205:Drivers/STM32F1xx_HAL_Driver/Inc/stm32f1xx_ll_dma.h ****   */
1206:Drivers/STM32F1xx_HAL_Driver/Inc/stm32f1xx_ll_dma.h **** __STATIC_INLINE uint32_t LL_DMA_IsActiveFlag_TC1(DMA_TypeDef *DMAx)
1207:Drivers/STM32F1xx_HAL_Driver/Inc/stm32f1xx_ll_dma.h **** {
1208:Drivers/STM32F1xx_HAL_Driver/Inc/stm32f1xx_ll_dma.h ****   return (READ_BIT(DMAx->ISR, DMA_ISR_TCIF1) == (DMA_ISR_TCIF1));
1209:Drivers/STM32F1xx_HAL_Driver/Inc/stm32f1xx_ll_dma.h **** }
1210:Drivers/STM32F1xx_HAL_Driver/Inc/stm32f1xx_ll_dma.h **** 
1211:Drivers/STM32F1xx_HAL_Driver/Inc/stm32f1xx_ll_dma.h **** /**
1212:Drivers/STM32F1xx_HAL_Driver/Inc/stm32f1xx_ll_dma.h ****   * @brief  Get Channel 2 transfer complete flag.
1213:Drivers/STM32F1xx_HAL_Driver/Inc/stm32f1xx_ll_dma.h ****   * @rmtoll ISR          TCIF2         LL_DMA_IsActiveFlag_TC2
1214:Drivers/STM32F1xx_HAL_Driver/Inc/stm32f1xx_ll_dma.h ****   * @param  DMAx DMAx Instance
1215:Drivers/STM32F1xx_HAL_Driver/Inc/stm32f1xx_ll_dma.h ****   * @retval State of bit (1 or 0).
1216:Drivers/STM32F1xx_HAL_Driver/Inc/stm32f1xx_ll_dma.h ****   */
1217:Drivers/STM32F1xx_HAL_Driver/Inc/stm32f1xx_ll_dma.h **** __STATIC_INLINE uint32_t LL_DMA_IsActiveFlag_TC2(DMA_TypeDef *DMAx)
1218:Drivers/STM32F1xx_HAL_Driver/Inc/stm32f1xx_ll_dma.h **** {
1219:Drivers/STM32F1xx_HAL_Driver/Inc/stm32f1xx_ll_dma.h ****   return (READ_BIT(DMAx->ISR, DMA_ISR_TCIF2) == (DMA_ISR_TCIF2));
1220:Drivers/STM32F1xx_HAL_Driver/Inc/stm32f1xx_ll_dma.h **** }
1221:Drivers/STM32F1xx_HAL_Driver/Inc/stm32f1xx_ll_dma.h **** 
1222:Drivers/STM32F1xx_HAL_Driver/Inc/stm32f1xx_ll_dma.h **** /**
1223:Drivers/STM32F1xx_HAL_Driver/Inc/stm32f1xx_ll_dma.h ****   * @brief  Get Channel 3 transfer complete flag.
1224:Drivers/STM32F1xx_HAL_Driver/Inc/stm32f1xx_ll_dma.h ****   * @rmtoll ISR          TCIF3         LL_DMA_IsActiveFlag_TC3
1225:Drivers/STM32F1xx_HAL_Driver/Inc/stm32f1xx_ll_dma.h ****   * @param  DMAx DMAx Instance
1226:Drivers/STM32F1xx_HAL_Driver/Inc/stm32f1xx_ll_dma.h ****   * @retval State of bit (1 or 0).
1227:Drivers/STM32F1xx_HAL_Driver/Inc/stm32f1xx_ll_dma.h ****   */
1228:Drivers/STM32F1xx_HAL_Driver/Inc/stm32f1xx_ll_dma.h **** __STATIC_INLINE uint32_t LL_DMA_IsActiveFlag_TC3(DMA_TypeDef *DMAx)
1229:Drivers/STM32F1xx_HAL_Driver/Inc/stm32f1xx_ll_dma.h **** {
1230:Drivers/STM32F1xx_HAL_Driver/Inc/stm32f1xx_ll_dma.h ****   return (READ_BIT(DMAx->ISR, DMA_ISR_TCIF3) == (DMA_ISR_TCIF3));
1231:Drivers/STM32F1xx_HAL_Driver/Inc/stm32f1xx_ll_dma.h **** }
1232:Drivers/STM32F1xx_HAL_Driver/Inc/stm32f1xx_ll_dma.h **** 
1233:Drivers/STM32F1xx_HAL_Driver/Inc/stm32f1xx_ll_dma.h **** /**
1234:Drivers/STM32F1xx_HAL_Driver/Inc/stm32f1xx_ll_dma.h ****   * @brief  Get Channel 4 transfer complete flag.
1235:Drivers/STM32F1xx_HAL_Driver/Inc/stm32f1xx_ll_dma.h ****   * @rmtoll ISR          TCIF4         LL_DMA_IsActiveFlag_TC4
1236:Drivers/STM32F1xx_HAL_Driver/Inc/stm32f1xx_ll_dma.h ****   * @param  DMAx DMAx Instance
1237:Drivers/STM32F1xx_HAL_Driver/Inc/stm32f1xx_ll_dma.h ****   * @retval State of bit (1 or 0).
1238:Drivers/STM32F1xx_HAL_Driver/Inc/stm32f1xx_ll_dma.h ****   */
1239:Drivers/STM32F1xx_HAL_Driver/Inc/stm32f1xx_ll_dma.h **** __STATIC_INLINE uint32_t LL_DMA_IsActiveFlag_TC4(DMA_TypeDef *DMAx)
1240:Drivers/STM32F1xx_HAL_Driver/Inc/stm32f1xx_ll_dma.h **** {
1241:Drivers/STM32F1xx_HAL_Driver/Inc/stm32f1xx_ll_dma.h ****   return (READ_BIT(DMAx->ISR, DMA_ISR_TCIF4) == (DMA_ISR_TCIF4));
1242:Drivers/STM32F1xx_HAL_Driver/Inc/stm32f1xx_ll_dma.h **** }
1243:Drivers/STM32F1xx_HAL_Driver/Inc/stm32f1xx_ll_dma.h **** 
1244:Drivers/STM32F1xx_HAL_Driver/Inc/stm32f1xx_ll_dma.h **** /**
1245:Drivers/STM32F1xx_HAL_Driver/Inc/stm32f1xx_ll_dma.h ****   * @brief  Get Channel 5 transfer complete flag.
1246:Drivers/STM32F1xx_HAL_Driver/Inc/stm32f1xx_ll_dma.h ****   * @rmtoll ISR          TCIF5         LL_DMA_IsActiveFlag_TC5
1247:Drivers/STM32F1xx_HAL_Driver/Inc/stm32f1xx_ll_dma.h ****   * @param  DMAx DMAx Instance
1248:Drivers/STM32F1xx_HAL_Driver/Inc/stm32f1xx_ll_dma.h ****   * @retval State of bit (1 or 0).
1249:Drivers/STM32F1xx_HAL_Driver/Inc/stm32f1xx_ll_dma.h ****   */
1250:Drivers/STM32F1xx_HAL_Driver/Inc/stm32f1xx_ll_dma.h **** __STATIC_INLINE uint32_t LL_DMA_IsActiveFlag_TC5(DMA_TypeDef *DMAx)
ARM GAS  /tmp/ccO145yx.s 			page 43


1251:Drivers/STM32F1xx_HAL_Driver/Inc/stm32f1xx_ll_dma.h **** {
1252:Drivers/STM32F1xx_HAL_Driver/Inc/stm32f1xx_ll_dma.h ****   return (READ_BIT(DMAx->ISR, DMA_ISR_TCIF5) == (DMA_ISR_TCIF5));
1253:Drivers/STM32F1xx_HAL_Driver/Inc/stm32f1xx_ll_dma.h **** }
1254:Drivers/STM32F1xx_HAL_Driver/Inc/stm32f1xx_ll_dma.h **** 
1255:Drivers/STM32F1xx_HAL_Driver/Inc/stm32f1xx_ll_dma.h **** /**
1256:Drivers/STM32F1xx_HAL_Driver/Inc/stm32f1xx_ll_dma.h ****   * @brief  Get Channel 6 transfer complete flag.
1257:Drivers/STM32F1xx_HAL_Driver/Inc/stm32f1xx_ll_dma.h ****   * @rmtoll ISR          TCIF6         LL_DMA_IsActiveFlag_TC6
1258:Drivers/STM32F1xx_HAL_Driver/Inc/stm32f1xx_ll_dma.h ****   * @param  DMAx DMAx Instance
1259:Drivers/STM32F1xx_HAL_Driver/Inc/stm32f1xx_ll_dma.h ****   * @retval State of bit (1 or 0).
1260:Drivers/STM32F1xx_HAL_Driver/Inc/stm32f1xx_ll_dma.h ****   */
1261:Drivers/STM32F1xx_HAL_Driver/Inc/stm32f1xx_ll_dma.h **** __STATIC_INLINE uint32_t LL_DMA_IsActiveFlag_TC6(DMA_TypeDef *DMAx)
1262:Drivers/STM32F1xx_HAL_Driver/Inc/stm32f1xx_ll_dma.h **** {
1263:Drivers/STM32F1xx_HAL_Driver/Inc/stm32f1xx_ll_dma.h ****   return (READ_BIT(DMAx->ISR, DMA_ISR_TCIF6) == (DMA_ISR_TCIF6));
1264:Drivers/STM32F1xx_HAL_Driver/Inc/stm32f1xx_ll_dma.h **** }
1265:Drivers/STM32F1xx_HAL_Driver/Inc/stm32f1xx_ll_dma.h **** 
1266:Drivers/STM32F1xx_HAL_Driver/Inc/stm32f1xx_ll_dma.h **** /**
1267:Drivers/STM32F1xx_HAL_Driver/Inc/stm32f1xx_ll_dma.h ****   * @brief  Get Channel 7 transfer complete flag.
1268:Drivers/STM32F1xx_HAL_Driver/Inc/stm32f1xx_ll_dma.h ****   * @rmtoll ISR          TCIF7         LL_DMA_IsActiveFlag_TC7
1269:Drivers/STM32F1xx_HAL_Driver/Inc/stm32f1xx_ll_dma.h ****   * @param  DMAx DMAx Instance
1270:Drivers/STM32F1xx_HAL_Driver/Inc/stm32f1xx_ll_dma.h ****   * @retval State of bit (1 or 0).
1271:Drivers/STM32F1xx_HAL_Driver/Inc/stm32f1xx_ll_dma.h ****   */
1272:Drivers/STM32F1xx_HAL_Driver/Inc/stm32f1xx_ll_dma.h **** __STATIC_INLINE uint32_t LL_DMA_IsActiveFlag_TC7(DMA_TypeDef *DMAx)
1273:Drivers/STM32F1xx_HAL_Driver/Inc/stm32f1xx_ll_dma.h **** {
1274:Drivers/STM32F1xx_HAL_Driver/Inc/stm32f1xx_ll_dma.h ****   return (READ_BIT(DMAx->ISR, DMA_ISR_TCIF7) == (DMA_ISR_TCIF7));
1275:Drivers/STM32F1xx_HAL_Driver/Inc/stm32f1xx_ll_dma.h **** }
1276:Drivers/STM32F1xx_HAL_Driver/Inc/stm32f1xx_ll_dma.h **** 
1277:Drivers/STM32F1xx_HAL_Driver/Inc/stm32f1xx_ll_dma.h **** /**
1278:Drivers/STM32F1xx_HAL_Driver/Inc/stm32f1xx_ll_dma.h ****   * @brief  Get Channel 1 half transfer flag.
1279:Drivers/STM32F1xx_HAL_Driver/Inc/stm32f1xx_ll_dma.h ****   * @rmtoll ISR          HTIF1         LL_DMA_IsActiveFlag_HT1
1280:Drivers/STM32F1xx_HAL_Driver/Inc/stm32f1xx_ll_dma.h ****   * @param  DMAx DMAx Instance
1281:Drivers/STM32F1xx_HAL_Driver/Inc/stm32f1xx_ll_dma.h ****   * @retval State of bit (1 or 0).
1282:Drivers/STM32F1xx_HAL_Driver/Inc/stm32f1xx_ll_dma.h ****   */
1283:Drivers/STM32F1xx_HAL_Driver/Inc/stm32f1xx_ll_dma.h **** __STATIC_INLINE uint32_t LL_DMA_IsActiveFlag_HT1(DMA_TypeDef *DMAx)
1284:Drivers/STM32F1xx_HAL_Driver/Inc/stm32f1xx_ll_dma.h **** {
1285:Drivers/STM32F1xx_HAL_Driver/Inc/stm32f1xx_ll_dma.h ****   return (READ_BIT(DMAx->ISR, DMA_ISR_HTIF1) == (DMA_ISR_HTIF1));
1286:Drivers/STM32F1xx_HAL_Driver/Inc/stm32f1xx_ll_dma.h **** }
1287:Drivers/STM32F1xx_HAL_Driver/Inc/stm32f1xx_ll_dma.h **** 
1288:Drivers/STM32F1xx_HAL_Driver/Inc/stm32f1xx_ll_dma.h **** /**
1289:Drivers/STM32F1xx_HAL_Driver/Inc/stm32f1xx_ll_dma.h ****   * @brief  Get Channel 2 half transfer flag.
1290:Drivers/STM32F1xx_HAL_Driver/Inc/stm32f1xx_ll_dma.h ****   * @rmtoll ISR          HTIF2         LL_DMA_IsActiveFlag_HT2
1291:Drivers/STM32F1xx_HAL_Driver/Inc/stm32f1xx_ll_dma.h ****   * @param  DMAx DMAx Instance
1292:Drivers/STM32F1xx_HAL_Driver/Inc/stm32f1xx_ll_dma.h ****   * @retval State of bit (1 or 0).
1293:Drivers/STM32F1xx_HAL_Driver/Inc/stm32f1xx_ll_dma.h ****   */
1294:Drivers/STM32F1xx_HAL_Driver/Inc/stm32f1xx_ll_dma.h **** __STATIC_INLINE uint32_t LL_DMA_IsActiveFlag_HT2(DMA_TypeDef *DMAx)
1295:Drivers/STM32F1xx_HAL_Driver/Inc/stm32f1xx_ll_dma.h **** {
1296:Drivers/STM32F1xx_HAL_Driver/Inc/stm32f1xx_ll_dma.h ****   return (READ_BIT(DMAx->ISR, DMA_ISR_HTIF2) == (DMA_ISR_HTIF2));
1297:Drivers/STM32F1xx_HAL_Driver/Inc/stm32f1xx_ll_dma.h **** }
1298:Drivers/STM32F1xx_HAL_Driver/Inc/stm32f1xx_ll_dma.h **** 
1299:Drivers/STM32F1xx_HAL_Driver/Inc/stm32f1xx_ll_dma.h **** /**
1300:Drivers/STM32F1xx_HAL_Driver/Inc/stm32f1xx_ll_dma.h ****   * @brief  Get Channel 3 half transfer flag.
1301:Drivers/STM32F1xx_HAL_Driver/Inc/stm32f1xx_ll_dma.h ****   * @rmtoll ISR          HTIF3         LL_DMA_IsActiveFlag_HT3
1302:Drivers/STM32F1xx_HAL_Driver/Inc/stm32f1xx_ll_dma.h ****   * @param  DMAx DMAx Instance
1303:Drivers/STM32F1xx_HAL_Driver/Inc/stm32f1xx_ll_dma.h ****   * @retval State of bit (1 or 0).
1304:Drivers/STM32F1xx_HAL_Driver/Inc/stm32f1xx_ll_dma.h ****   */
1305:Drivers/STM32F1xx_HAL_Driver/Inc/stm32f1xx_ll_dma.h **** __STATIC_INLINE uint32_t LL_DMA_IsActiveFlag_HT3(DMA_TypeDef *DMAx)
1306:Drivers/STM32F1xx_HAL_Driver/Inc/stm32f1xx_ll_dma.h **** {
1307:Drivers/STM32F1xx_HAL_Driver/Inc/stm32f1xx_ll_dma.h ****   return (READ_BIT(DMAx->ISR, DMA_ISR_HTIF3) == (DMA_ISR_HTIF3));
ARM GAS  /tmp/ccO145yx.s 			page 44


1308:Drivers/STM32F1xx_HAL_Driver/Inc/stm32f1xx_ll_dma.h **** }
1309:Drivers/STM32F1xx_HAL_Driver/Inc/stm32f1xx_ll_dma.h **** 
1310:Drivers/STM32F1xx_HAL_Driver/Inc/stm32f1xx_ll_dma.h **** /**
1311:Drivers/STM32F1xx_HAL_Driver/Inc/stm32f1xx_ll_dma.h ****   * @brief  Get Channel 4 half transfer flag.
1312:Drivers/STM32F1xx_HAL_Driver/Inc/stm32f1xx_ll_dma.h ****   * @rmtoll ISR          HTIF4         LL_DMA_IsActiveFlag_HT4
1313:Drivers/STM32F1xx_HAL_Driver/Inc/stm32f1xx_ll_dma.h ****   * @param  DMAx DMAx Instance
1314:Drivers/STM32F1xx_HAL_Driver/Inc/stm32f1xx_ll_dma.h ****   * @retval State of bit (1 or 0).
1315:Drivers/STM32F1xx_HAL_Driver/Inc/stm32f1xx_ll_dma.h ****   */
1316:Drivers/STM32F1xx_HAL_Driver/Inc/stm32f1xx_ll_dma.h **** __STATIC_INLINE uint32_t LL_DMA_IsActiveFlag_HT4(DMA_TypeDef *DMAx)
1317:Drivers/STM32F1xx_HAL_Driver/Inc/stm32f1xx_ll_dma.h **** {
1318:Drivers/STM32F1xx_HAL_Driver/Inc/stm32f1xx_ll_dma.h ****   return (READ_BIT(DMAx->ISR, DMA_ISR_HTIF4) == (DMA_ISR_HTIF4));
1319:Drivers/STM32F1xx_HAL_Driver/Inc/stm32f1xx_ll_dma.h **** }
1320:Drivers/STM32F1xx_HAL_Driver/Inc/stm32f1xx_ll_dma.h **** 
1321:Drivers/STM32F1xx_HAL_Driver/Inc/stm32f1xx_ll_dma.h **** /**
1322:Drivers/STM32F1xx_HAL_Driver/Inc/stm32f1xx_ll_dma.h ****   * @brief  Get Channel 5 half transfer flag.
1323:Drivers/STM32F1xx_HAL_Driver/Inc/stm32f1xx_ll_dma.h ****   * @rmtoll ISR          HTIF5         LL_DMA_IsActiveFlag_HT5
1324:Drivers/STM32F1xx_HAL_Driver/Inc/stm32f1xx_ll_dma.h ****   * @param  DMAx DMAx Instance
1325:Drivers/STM32F1xx_HAL_Driver/Inc/stm32f1xx_ll_dma.h ****   * @retval State of bit (1 or 0).
1326:Drivers/STM32F1xx_HAL_Driver/Inc/stm32f1xx_ll_dma.h ****   */
1327:Drivers/STM32F1xx_HAL_Driver/Inc/stm32f1xx_ll_dma.h **** __STATIC_INLINE uint32_t LL_DMA_IsActiveFlag_HT5(DMA_TypeDef *DMAx)
1328:Drivers/STM32F1xx_HAL_Driver/Inc/stm32f1xx_ll_dma.h **** {
1329:Drivers/STM32F1xx_HAL_Driver/Inc/stm32f1xx_ll_dma.h ****   return (READ_BIT(DMAx->ISR, DMA_ISR_HTIF5) == (DMA_ISR_HTIF5));
1330:Drivers/STM32F1xx_HAL_Driver/Inc/stm32f1xx_ll_dma.h **** }
1331:Drivers/STM32F1xx_HAL_Driver/Inc/stm32f1xx_ll_dma.h **** 
1332:Drivers/STM32F1xx_HAL_Driver/Inc/stm32f1xx_ll_dma.h **** /**
1333:Drivers/STM32F1xx_HAL_Driver/Inc/stm32f1xx_ll_dma.h ****   * @brief  Get Channel 6 half transfer flag.
1334:Drivers/STM32F1xx_HAL_Driver/Inc/stm32f1xx_ll_dma.h ****   * @rmtoll ISR          HTIF6         LL_DMA_IsActiveFlag_HT6
1335:Drivers/STM32F1xx_HAL_Driver/Inc/stm32f1xx_ll_dma.h ****   * @param  DMAx DMAx Instance
1336:Drivers/STM32F1xx_HAL_Driver/Inc/stm32f1xx_ll_dma.h ****   * @retval State of bit (1 or 0).
1337:Drivers/STM32F1xx_HAL_Driver/Inc/stm32f1xx_ll_dma.h ****   */
1338:Drivers/STM32F1xx_HAL_Driver/Inc/stm32f1xx_ll_dma.h **** __STATIC_INLINE uint32_t LL_DMA_IsActiveFlag_HT6(DMA_TypeDef *DMAx)
1339:Drivers/STM32F1xx_HAL_Driver/Inc/stm32f1xx_ll_dma.h **** {
1340:Drivers/STM32F1xx_HAL_Driver/Inc/stm32f1xx_ll_dma.h ****   return (READ_BIT(DMAx->ISR, DMA_ISR_HTIF6) == (DMA_ISR_HTIF6));
1341:Drivers/STM32F1xx_HAL_Driver/Inc/stm32f1xx_ll_dma.h **** }
1342:Drivers/STM32F1xx_HAL_Driver/Inc/stm32f1xx_ll_dma.h **** 
1343:Drivers/STM32F1xx_HAL_Driver/Inc/stm32f1xx_ll_dma.h **** /**
1344:Drivers/STM32F1xx_HAL_Driver/Inc/stm32f1xx_ll_dma.h ****   * @brief  Get Channel 7 half transfer flag.
1345:Drivers/STM32F1xx_HAL_Driver/Inc/stm32f1xx_ll_dma.h ****   * @rmtoll ISR          HTIF7         LL_DMA_IsActiveFlag_HT7
1346:Drivers/STM32F1xx_HAL_Driver/Inc/stm32f1xx_ll_dma.h ****   * @param  DMAx DMAx Instance
1347:Drivers/STM32F1xx_HAL_Driver/Inc/stm32f1xx_ll_dma.h ****   * @retval State of bit (1 or 0).
1348:Drivers/STM32F1xx_HAL_Driver/Inc/stm32f1xx_ll_dma.h ****   */
1349:Drivers/STM32F1xx_HAL_Driver/Inc/stm32f1xx_ll_dma.h **** __STATIC_INLINE uint32_t LL_DMA_IsActiveFlag_HT7(DMA_TypeDef *DMAx)
1350:Drivers/STM32F1xx_HAL_Driver/Inc/stm32f1xx_ll_dma.h **** {
1351:Drivers/STM32F1xx_HAL_Driver/Inc/stm32f1xx_ll_dma.h ****   return (READ_BIT(DMAx->ISR, DMA_ISR_HTIF7) == (DMA_ISR_HTIF7));
1352:Drivers/STM32F1xx_HAL_Driver/Inc/stm32f1xx_ll_dma.h **** }
1353:Drivers/STM32F1xx_HAL_Driver/Inc/stm32f1xx_ll_dma.h **** 
1354:Drivers/STM32F1xx_HAL_Driver/Inc/stm32f1xx_ll_dma.h **** /**
1355:Drivers/STM32F1xx_HAL_Driver/Inc/stm32f1xx_ll_dma.h ****   * @brief  Get Channel 1 transfer error flag.
1356:Drivers/STM32F1xx_HAL_Driver/Inc/stm32f1xx_ll_dma.h ****   * @rmtoll ISR          TEIF1         LL_DMA_IsActiveFlag_TE1
1357:Drivers/STM32F1xx_HAL_Driver/Inc/stm32f1xx_ll_dma.h ****   * @param  DMAx DMAx Instance
1358:Drivers/STM32F1xx_HAL_Driver/Inc/stm32f1xx_ll_dma.h ****   * @retval State of bit (1 or 0).
1359:Drivers/STM32F1xx_HAL_Driver/Inc/stm32f1xx_ll_dma.h ****   */
1360:Drivers/STM32F1xx_HAL_Driver/Inc/stm32f1xx_ll_dma.h **** __STATIC_INLINE uint32_t LL_DMA_IsActiveFlag_TE1(DMA_TypeDef *DMAx)
1361:Drivers/STM32F1xx_HAL_Driver/Inc/stm32f1xx_ll_dma.h **** {
1362:Drivers/STM32F1xx_HAL_Driver/Inc/stm32f1xx_ll_dma.h ****   return (READ_BIT(DMAx->ISR, DMA_ISR_TEIF1) == (DMA_ISR_TEIF1));
1363:Drivers/STM32F1xx_HAL_Driver/Inc/stm32f1xx_ll_dma.h **** }
1364:Drivers/STM32F1xx_HAL_Driver/Inc/stm32f1xx_ll_dma.h **** 
ARM GAS  /tmp/ccO145yx.s 			page 45


1365:Drivers/STM32F1xx_HAL_Driver/Inc/stm32f1xx_ll_dma.h **** /**
1366:Drivers/STM32F1xx_HAL_Driver/Inc/stm32f1xx_ll_dma.h ****   * @brief  Get Channel 2 transfer error flag.
1367:Drivers/STM32F1xx_HAL_Driver/Inc/stm32f1xx_ll_dma.h ****   * @rmtoll ISR          TEIF2         LL_DMA_IsActiveFlag_TE2
1368:Drivers/STM32F1xx_HAL_Driver/Inc/stm32f1xx_ll_dma.h ****   * @param  DMAx DMAx Instance
1369:Drivers/STM32F1xx_HAL_Driver/Inc/stm32f1xx_ll_dma.h ****   * @retval State of bit (1 or 0).
1370:Drivers/STM32F1xx_HAL_Driver/Inc/stm32f1xx_ll_dma.h ****   */
1371:Drivers/STM32F1xx_HAL_Driver/Inc/stm32f1xx_ll_dma.h **** __STATIC_INLINE uint32_t LL_DMA_IsActiveFlag_TE2(DMA_TypeDef *DMAx)
1372:Drivers/STM32F1xx_HAL_Driver/Inc/stm32f1xx_ll_dma.h **** {
1373:Drivers/STM32F1xx_HAL_Driver/Inc/stm32f1xx_ll_dma.h ****   return (READ_BIT(DMAx->ISR, DMA_ISR_TEIF2) == (DMA_ISR_TEIF2));
1374:Drivers/STM32F1xx_HAL_Driver/Inc/stm32f1xx_ll_dma.h **** }
1375:Drivers/STM32F1xx_HAL_Driver/Inc/stm32f1xx_ll_dma.h **** 
1376:Drivers/STM32F1xx_HAL_Driver/Inc/stm32f1xx_ll_dma.h **** /**
1377:Drivers/STM32F1xx_HAL_Driver/Inc/stm32f1xx_ll_dma.h ****   * @brief  Get Channel 3 transfer error flag.
1378:Drivers/STM32F1xx_HAL_Driver/Inc/stm32f1xx_ll_dma.h ****   * @rmtoll ISR          TEIF3         LL_DMA_IsActiveFlag_TE3
1379:Drivers/STM32F1xx_HAL_Driver/Inc/stm32f1xx_ll_dma.h ****   * @param  DMAx DMAx Instance
1380:Drivers/STM32F1xx_HAL_Driver/Inc/stm32f1xx_ll_dma.h ****   * @retval State of bit (1 or 0).
1381:Drivers/STM32F1xx_HAL_Driver/Inc/stm32f1xx_ll_dma.h ****   */
1382:Drivers/STM32F1xx_HAL_Driver/Inc/stm32f1xx_ll_dma.h **** __STATIC_INLINE uint32_t LL_DMA_IsActiveFlag_TE3(DMA_TypeDef *DMAx)
1383:Drivers/STM32F1xx_HAL_Driver/Inc/stm32f1xx_ll_dma.h **** {
1384:Drivers/STM32F1xx_HAL_Driver/Inc/stm32f1xx_ll_dma.h ****   return (READ_BIT(DMAx->ISR, DMA_ISR_TEIF3) == (DMA_ISR_TEIF3));
1385:Drivers/STM32F1xx_HAL_Driver/Inc/stm32f1xx_ll_dma.h **** }
1386:Drivers/STM32F1xx_HAL_Driver/Inc/stm32f1xx_ll_dma.h **** 
1387:Drivers/STM32F1xx_HAL_Driver/Inc/stm32f1xx_ll_dma.h **** /**
1388:Drivers/STM32F1xx_HAL_Driver/Inc/stm32f1xx_ll_dma.h ****   * @brief  Get Channel 4 transfer error flag.
1389:Drivers/STM32F1xx_HAL_Driver/Inc/stm32f1xx_ll_dma.h ****   * @rmtoll ISR          TEIF4         LL_DMA_IsActiveFlag_TE4
1390:Drivers/STM32F1xx_HAL_Driver/Inc/stm32f1xx_ll_dma.h ****   * @param  DMAx DMAx Instance
1391:Drivers/STM32F1xx_HAL_Driver/Inc/stm32f1xx_ll_dma.h ****   * @retval State of bit (1 or 0).
1392:Drivers/STM32F1xx_HAL_Driver/Inc/stm32f1xx_ll_dma.h ****   */
1393:Drivers/STM32F1xx_HAL_Driver/Inc/stm32f1xx_ll_dma.h **** __STATIC_INLINE uint32_t LL_DMA_IsActiveFlag_TE4(DMA_TypeDef *DMAx)
1394:Drivers/STM32F1xx_HAL_Driver/Inc/stm32f1xx_ll_dma.h **** {
1395:Drivers/STM32F1xx_HAL_Driver/Inc/stm32f1xx_ll_dma.h ****   return (READ_BIT(DMAx->ISR, DMA_ISR_TEIF4) == (DMA_ISR_TEIF4));
1396:Drivers/STM32F1xx_HAL_Driver/Inc/stm32f1xx_ll_dma.h **** }
1397:Drivers/STM32F1xx_HAL_Driver/Inc/stm32f1xx_ll_dma.h **** 
1398:Drivers/STM32F1xx_HAL_Driver/Inc/stm32f1xx_ll_dma.h **** /**
1399:Drivers/STM32F1xx_HAL_Driver/Inc/stm32f1xx_ll_dma.h ****   * @brief  Get Channel 5 transfer error flag.
1400:Drivers/STM32F1xx_HAL_Driver/Inc/stm32f1xx_ll_dma.h ****   * @rmtoll ISR          TEIF5         LL_DMA_IsActiveFlag_TE5
1401:Drivers/STM32F1xx_HAL_Driver/Inc/stm32f1xx_ll_dma.h ****   * @param  DMAx DMAx Instance
1402:Drivers/STM32F1xx_HAL_Driver/Inc/stm32f1xx_ll_dma.h ****   * @retval State of bit (1 or 0).
1403:Drivers/STM32F1xx_HAL_Driver/Inc/stm32f1xx_ll_dma.h ****   */
1404:Drivers/STM32F1xx_HAL_Driver/Inc/stm32f1xx_ll_dma.h **** __STATIC_INLINE uint32_t LL_DMA_IsActiveFlag_TE5(DMA_TypeDef *DMAx)
1405:Drivers/STM32F1xx_HAL_Driver/Inc/stm32f1xx_ll_dma.h **** {
1406:Drivers/STM32F1xx_HAL_Driver/Inc/stm32f1xx_ll_dma.h ****   return (READ_BIT(DMAx->ISR, DMA_ISR_TEIF5) == (DMA_ISR_TEIF5));
1407:Drivers/STM32F1xx_HAL_Driver/Inc/stm32f1xx_ll_dma.h **** }
1408:Drivers/STM32F1xx_HAL_Driver/Inc/stm32f1xx_ll_dma.h **** 
1409:Drivers/STM32F1xx_HAL_Driver/Inc/stm32f1xx_ll_dma.h **** /**
1410:Drivers/STM32F1xx_HAL_Driver/Inc/stm32f1xx_ll_dma.h ****   * @brief  Get Channel 6 transfer error flag.
1411:Drivers/STM32F1xx_HAL_Driver/Inc/stm32f1xx_ll_dma.h ****   * @rmtoll ISR          TEIF6         LL_DMA_IsActiveFlag_TE6
1412:Drivers/STM32F1xx_HAL_Driver/Inc/stm32f1xx_ll_dma.h ****   * @param  DMAx DMAx Instance
1413:Drivers/STM32F1xx_HAL_Driver/Inc/stm32f1xx_ll_dma.h ****   * @retval State of bit (1 or 0).
1414:Drivers/STM32F1xx_HAL_Driver/Inc/stm32f1xx_ll_dma.h ****   */
1415:Drivers/STM32F1xx_HAL_Driver/Inc/stm32f1xx_ll_dma.h **** __STATIC_INLINE uint32_t LL_DMA_IsActiveFlag_TE6(DMA_TypeDef *DMAx)
1416:Drivers/STM32F1xx_HAL_Driver/Inc/stm32f1xx_ll_dma.h **** {
1417:Drivers/STM32F1xx_HAL_Driver/Inc/stm32f1xx_ll_dma.h ****   return (READ_BIT(DMAx->ISR, DMA_ISR_TEIF6) == (DMA_ISR_TEIF6));
1418:Drivers/STM32F1xx_HAL_Driver/Inc/stm32f1xx_ll_dma.h **** }
1419:Drivers/STM32F1xx_HAL_Driver/Inc/stm32f1xx_ll_dma.h **** 
1420:Drivers/STM32F1xx_HAL_Driver/Inc/stm32f1xx_ll_dma.h **** /**
1421:Drivers/STM32F1xx_HAL_Driver/Inc/stm32f1xx_ll_dma.h ****   * @brief  Get Channel 7 transfer error flag.
ARM GAS  /tmp/ccO145yx.s 			page 46


1422:Drivers/STM32F1xx_HAL_Driver/Inc/stm32f1xx_ll_dma.h ****   * @rmtoll ISR          TEIF7         LL_DMA_IsActiveFlag_TE7
1423:Drivers/STM32F1xx_HAL_Driver/Inc/stm32f1xx_ll_dma.h ****   * @param  DMAx DMAx Instance
1424:Drivers/STM32F1xx_HAL_Driver/Inc/stm32f1xx_ll_dma.h ****   * @retval State of bit (1 or 0).
1425:Drivers/STM32F1xx_HAL_Driver/Inc/stm32f1xx_ll_dma.h ****   */
1426:Drivers/STM32F1xx_HAL_Driver/Inc/stm32f1xx_ll_dma.h **** __STATIC_INLINE uint32_t LL_DMA_IsActiveFlag_TE7(DMA_TypeDef *DMAx)
1427:Drivers/STM32F1xx_HAL_Driver/Inc/stm32f1xx_ll_dma.h **** {
1428:Drivers/STM32F1xx_HAL_Driver/Inc/stm32f1xx_ll_dma.h ****   return (READ_BIT(DMAx->ISR, DMA_ISR_TEIF7) == (DMA_ISR_TEIF7));
1429:Drivers/STM32F1xx_HAL_Driver/Inc/stm32f1xx_ll_dma.h **** }
1430:Drivers/STM32F1xx_HAL_Driver/Inc/stm32f1xx_ll_dma.h **** 
1431:Drivers/STM32F1xx_HAL_Driver/Inc/stm32f1xx_ll_dma.h **** /**
1432:Drivers/STM32F1xx_HAL_Driver/Inc/stm32f1xx_ll_dma.h ****   * @brief  Clear Channel 1 global interrupt flag.
1433:Drivers/STM32F1xx_HAL_Driver/Inc/stm32f1xx_ll_dma.h ****   * @rmtoll IFCR         CGIF1         LL_DMA_ClearFlag_GI1
1434:Drivers/STM32F1xx_HAL_Driver/Inc/stm32f1xx_ll_dma.h ****   * @param  DMAx DMAx Instance
1435:Drivers/STM32F1xx_HAL_Driver/Inc/stm32f1xx_ll_dma.h ****   * @retval None
1436:Drivers/STM32F1xx_HAL_Driver/Inc/stm32f1xx_ll_dma.h ****   */
1437:Drivers/STM32F1xx_HAL_Driver/Inc/stm32f1xx_ll_dma.h **** __STATIC_INLINE void LL_DMA_ClearFlag_GI1(DMA_TypeDef *DMAx)
1438:Drivers/STM32F1xx_HAL_Driver/Inc/stm32f1xx_ll_dma.h **** {
1439:Drivers/STM32F1xx_HAL_Driver/Inc/stm32f1xx_ll_dma.h ****   WRITE_REG(DMAx->IFCR, DMA_IFCR_CGIF1);
1440:Drivers/STM32F1xx_HAL_Driver/Inc/stm32f1xx_ll_dma.h **** }
1441:Drivers/STM32F1xx_HAL_Driver/Inc/stm32f1xx_ll_dma.h **** 
1442:Drivers/STM32F1xx_HAL_Driver/Inc/stm32f1xx_ll_dma.h **** /**
1443:Drivers/STM32F1xx_HAL_Driver/Inc/stm32f1xx_ll_dma.h ****   * @brief  Clear Channel 2 global interrupt flag.
1444:Drivers/STM32F1xx_HAL_Driver/Inc/stm32f1xx_ll_dma.h ****   * @rmtoll IFCR         CGIF2         LL_DMA_ClearFlag_GI2
1445:Drivers/STM32F1xx_HAL_Driver/Inc/stm32f1xx_ll_dma.h ****   * @param  DMAx DMAx Instance
1446:Drivers/STM32F1xx_HAL_Driver/Inc/stm32f1xx_ll_dma.h ****   * @retval None
1447:Drivers/STM32F1xx_HAL_Driver/Inc/stm32f1xx_ll_dma.h ****   */
1448:Drivers/STM32F1xx_HAL_Driver/Inc/stm32f1xx_ll_dma.h **** __STATIC_INLINE void LL_DMA_ClearFlag_GI2(DMA_TypeDef *DMAx)
1449:Drivers/STM32F1xx_HAL_Driver/Inc/stm32f1xx_ll_dma.h **** {
1450:Drivers/STM32F1xx_HAL_Driver/Inc/stm32f1xx_ll_dma.h ****   WRITE_REG(DMAx->IFCR, DMA_IFCR_CGIF2);
1451:Drivers/STM32F1xx_HAL_Driver/Inc/stm32f1xx_ll_dma.h **** }
1452:Drivers/STM32F1xx_HAL_Driver/Inc/stm32f1xx_ll_dma.h **** 
1453:Drivers/STM32F1xx_HAL_Driver/Inc/stm32f1xx_ll_dma.h **** /**
1454:Drivers/STM32F1xx_HAL_Driver/Inc/stm32f1xx_ll_dma.h ****   * @brief  Clear Channel 3 global interrupt flag.
1455:Drivers/STM32F1xx_HAL_Driver/Inc/stm32f1xx_ll_dma.h ****   * @rmtoll IFCR         CGIF3         LL_DMA_ClearFlag_GI3
