ARM GAS  /tmp/ccI0AsY7.s 			page 1


   1              		.cpu cortex-m3
   2              		.arch armv7-m
   3              		.fpu softvfp
   4              		.eabi_attribute 20, 1
   5              		.eabi_attribute 21, 1
   6              		.eabi_attribute 23, 3
   7              		.eabi_attribute 24, 1
   8              		.eabi_attribute 25, 1
   9              		.eabi_attribute 26, 1
  10              		.eabi_attribute 30, 1
  11              		.eabi_attribute 34, 1
  12              		.eabi_attribute 18, 4
  13              		.file	"ssd1306.c"
  14              		.text
  15              	.Ltext0:
  16              		.cfi_sections	.debug_frame
  17              		.section	.text.SSD1306_GotoXY,"ax",%progbits
  18              		.align	1
  19              		.global	SSD1306_GotoXY
  20              		.syntax unified
  21              		.thumb
  22              		.thumb_func
  24              	SSD1306_GotoXY:
  25              	.LVL0:
  26              	.LFB954:
  27              		.file 1 "display/ssd1306.c"
   1:display/ssd1306.c **** 
   2:display/ssd1306.c **** // Includes ------------------------------------------------------------------//
   3:display/ssd1306.c **** #include "ssd1306.h"
   4:display/ssd1306.c **** #include "ssd1306_interface.h"
   5:display/ssd1306.c **** #include "tim.h"
   6:display/ssd1306.c **** #include "gpio.h"
   7:display/ssd1306.c **** #include "typedef.h"
   8:display/ssd1306.c **** #include <stdio.h>
   9:display/ssd1306.c **** #include <string.h>
  10:display/ssd1306.c **** 
  11:display/ssd1306.c **** // Declarations and definitions -------------------------------------------------------//
  12:display/ssd1306.c **** static void void_screen (void);
  13:display/ssd1306.c **** static void clear_buffer_screen (void);
  14:display/ssd1306.c **** static void preset1_screen (void);
  15:display/ssd1306.c **** static void preset2_screen (void);
  16:display/ssd1306.c **** static void preset3_screen (void);
  17:display/ssd1306.c **** static void preset4_screen (void);
  18:display/ssd1306.c **** 
  19:display/ssd1306.c **** // Private structure  -----------------------------------------------------------------//
  20:display/ssd1306.c **** typedef struct 
  21:display/ssd1306.c **** {
  22:display/ssd1306.c **** 	uint16_t CurrentX;
  23:display/ssd1306.c **** 	uint16_t CurrentY;
  24:display/ssd1306.c **** 	uint8_t Inverted;
  25:display/ssd1306.c **** 	uint8_t Initialized;
  26:display/ssd1306.c **** } SSD1306_t;
  27:display/ssd1306.c **** 
  28:display/ssd1306.c **** // Private variables -----------------------------------------------------------------//
  29:display/ssd1306.c **** static SSD1306_t SSD1306;
  30:display/ssd1306.c **** uint8_t SSD1306_Buffer[SSD1306_BUFFER_SIZE];
  31:display/ssd1306.c **** uint8_t LCD_buff[LCD_BUFFER_SIZE];
ARM GAS  /tmp/ccI0AsY7.s 			page 2


  32:display/ssd1306.c **** 
  33:display/ssd1306.c **** // Functions -------------------------------------------------------------------------//
  34:display/ssd1306.c **** void ssd1306_Init(void)
  35:display/ssd1306.c **** {   
  36:display/ssd1306.c **** 	LCD_RESET(OFF);
  37:display/ssd1306.c **** 	delay_us(3000);	
  38:display/ssd1306.c ****   	LCD_RESET(ON);
  39:display/ssd1306.c **** 	delay_us(3000);	
  40:display/ssd1306.c **** 	
  41:display/ssd1306.c **** 	CS(ON);
  42:display/ssd1306.c **** 	ssd1306_SendCommand(DISPLAYOFF); 		//display off
  43:display/ssd1306.c **** 	ssd1306_SendCommand(SETCONTRAST); //set contrast control register
  44:display/ssd1306.c **** 	ssd1306_SendCommand(0xFF);
  45:display/ssd1306.c **** 	ssd1306_SendCommand(NORMALDISPLAY); //set normal display
  46:display/ssd1306.c **** 	ssd1306_SendCommand(DISPLAYALLON_RESUME); //0xA4-–≤–æ–∑–æ–±–Ω–æ–≤–∏—Ç—å –æ—Ç–æ–±—Ä–∞–∂–µ–Ω–∏–µ —Å–
  47:display/ssd1306.c **** 	
  48:display/ssd1306.c **** 	ssd1306_SendCommand(MEMORYMODE); 	//Set Memory Addressing Mode, 0x20   
  49:display/ssd1306.c **** 	ssd1306_SendCommand(PAGEMODE); //00,Horizontal Addressing Mode;01,Vertical Addressing Mode;10,Page
  50:display/ssd1306.c **** 	ssd1306_SendCommand(STARTPAGEADDR); //Set Page Start Address for Page Addressing Mode,0xB0-0xB7 (—
  51:display/ssd1306.c **** 	ssd1306_SendCommand(SETLOWCOLUMN); //set low column address, 0x00 (—ç—Ç–∞ –∫–æ–º–∞–Ω–¥–∞ –ø—Ä–∏–º–
  52:display/ssd1306.c **** 	ssd1306_SendCommand(SETHIGHCOLUMN); //set high column address, 0x10 (—ç—Ç–∞ –∫–æ–º–∞–Ω–¥–∞ –ø—Ä–∏–
  53:display/ssd1306.c **** 	
  54:display/ssd1306.c **** 	ssd1306_SendCommand(SETSTARTLINE); //–£—Å—Ç–∞–Ω–∞–≤–ª–∏–≤–∞–µ—Ç —Ä–µ–≥–∏—Å—Ç—Ä –Ω–∞—á–∞–ª—å–Ω–æ–π 
  55:display/ssd1306.c **** 	ssd1306_SendCommand(SETSEGREMAP+0x01); //--set segment re-map 0 to 127 	
  56:display/ssd1306.c **** 	ssd1306_SendCommand(SETMULTIPLEX); //–£—Å—Ç–∞–Ω–æ–≤–∫–∞ –∫–æ—ç—Ñ—Ñ–∏—Ü–∏–µ–Ω—Ç–∞ –º—É–ª—å—Ç–∏–ø–ª–
  57:display/ssd1306.c **** 	ssd1306_SendCommand(0x1F); //32 (128x32)
  58:display/ssd1306.c **** 	ssd1306_SendCommand(COMSCANDEC); //Set COM Output Scan Direction. 0xC8: remapped mode, —Å–∫–∞–Ω–∏—
  59:display/ssd1306.c **** 	ssd1306_SendCommand(SETDISPLAYOFFSET); //-set display offset
  60:display/ssd1306.c **** 	ssd1306_SendCommand(0x00); //-not offset
  61:display/ssd1306.c **** 	ssd1306_SendCommand(SETCOMPINS); //set com pins hardware configuration
  62:display/ssd1306.c **** 	ssd1306_SendCommand(0x12); //–∞–ª—å—Ç–µ—Ä–Ω–∞—Ç–∏–≤–Ω–∞—è –∫–æ–Ω—Ñ–∏–≥—É—Ä–∞—Ü–∏—è –≤—ã–≤–æ–¥–æ–≤ 
  63:display/ssd1306.c **** 
  64:display/ssd1306.c **** 	ssd1306_SendCommand(SETDISPLAYCLOCKDIV); //[3:0] –æ–ø—Ä–µ–¥–µ–ª–µ–Ω–∏–µ –∫–æ—ç—Ñ—Ñ–∏—Ü–∏–µ–Ω—Ç–∞ –
  65:display/ssd1306.c **** 	//7:4] —É—Å—Ç–∞–Ω–æ–≤–∫–∞ —á–∞—Å—Ç–æ—Ç—ã –≥–µ–Ω–µ—Ä–∞—Ç–æ—Ä–∞ FOSC. –ß–µ–º –±–æ–ª—å—à–µ –∑–Ω–∞—á–µ
  66:display/ssd1306.c **** 	ssd1306_SendCommand(SETDIVIDERATIO); //–∫–æ—ç—Ñ—Ñ–∏—Ü–∏–µ–Ω—Ç—É –¥–µ–ª–µ–Ω–∏—è = 1, FOSC-–º–∞–∫—Å–
  67:display/ssd1306.c **** 	//ssd1306_SendCommand(SETPRECHARGE); //—É—Å—Ç–∞–Ω–æ–≤–∫–∞ –ø–µ—Ä–∏–æ–¥–∞ Phase 1 –∏ Phase 2
  68:display/ssd1306.c **** 	//ssd1306_SendCommand(0x22); //	
  69:display/ssd1306.c **** 	ssd1306_SendCommand(SETVCOMDETECT); 	//set Vcomh Deselect Level
  70:display/ssd1306.c **** 	ssd1306_SendCommand(0x20); 		//~ 0.77¬∑VCC
  71:display/ssd1306.c **** 
  72:display/ssd1306.c **** 	ssd1306_SendCommand(DISPLAYON); //--turn on SSD1306 panel
  73:display/ssd1306.c **** 	
  74:display/ssd1306.c **** 	delay_us(5000);
  75:display/ssd1306.c **** 	
  76:display/ssd1306.c **** 	SSD1306_Clear_Screen (); 		// Clear screen 
  77:display/ssd1306.c **** 	SSD1306_UpdateScreen(); 	// Update screen 
  78:display/ssd1306.c **** 	
  79:display/ssd1306.c **** 	SSD1306.CurrentX = 0; 	// Set default values 
  80:display/ssd1306.c **** 	SSD1306.CurrentY = 0;
  81:display/ssd1306.c **** 	
  82:display/ssd1306.c **** 	SSD1306.Initialized = 1; 	// Initialized OK 
  83:display/ssd1306.c **** 	CS(OFF);
  84:display/ssd1306.c **** }
  85:display/ssd1306.c **** 
  86:display/ssd1306.c **** //-----------------------------------------------------------------------------------------------//
  87:display/ssd1306.c **** void SSD1306_GotoXY(uint16_t x, uint16_t y) 
  88:display/ssd1306.c **** {
ARM GAS  /tmp/ccI0AsY7.s 			page 3


  28              		.loc 1 88 1 view -0
  29              		.cfi_startproc
  30              		@ args = 0, pretend = 0, frame = 0
  31              		@ frame_needed = 0, uses_anonymous_args = 0
  32              		@ link register save eliminated.
  89:display/ssd1306.c **** 	SSD1306.CurrentX = x; // Set write pointers 
  33              		.loc 1 89 2 view .LVU1
  34              		.loc 1 89 19 is_stmt 0 view .LVU2
  35 0000 014B     		ldr	r3, .L2
  36 0002 1880     		strh	r0, [r3]	@ movhi
  90:display/ssd1306.c **** 	SSD1306.CurrentY = y;
  37              		.loc 1 90 2 is_stmt 1 view .LVU3
  38              		.loc 1 90 19 is_stmt 0 view .LVU4
  39 0004 5980     		strh	r1, [r3, #2]	@ movhi
  91:display/ssd1306.c **** }
  40              		.loc 1 91 1 view .LVU5
  41 0006 7047     		bx	lr
  42              	.L3:
  43              		.align	2
  44              	.L2:
  45 0008 00000000 		.word	.LANCHOR0
  46              		.cfi_endproc
  47              	.LFE954:
  49              		.section	.text.SSD1306_DrawPixel,"ax",%progbits
  50              		.align	1
  51              		.global	SSD1306_DrawPixel
  52              		.syntax unified
  53              		.thumb
  54              		.thumb_func
  56              	SSD1306_DrawPixel:
  57              	.LVL1:
  58              	.LFB955:
  92:display/ssd1306.c **** 
  93:display/ssd1306.c **** //-----------------------------------------------------------------------------------------------//
  94:display/ssd1306.c **** void SSD1306_DrawPixel(uint16_t x, uint16_t y, SSD1306_COLOR_t color) 
  95:display/ssd1306.c **** {
  59              		.loc 1 95 1 is_stmt 1 view -0
  60              		.cfi_startproc
  61              		@ args = 0, pretend = 0, frame = 0
  62              		@ frame_needed = 0, uses_anonymous_args = 0
  63              		@ link register save eliminated.
  96:display/ssd1306.c **** 	if (x >= SSD1306_X_SIZE || y >= SSD1306_Y_SIZE) 
  64              		.loc 1 96 2 view .LVU7
  65              		.loc 1 96 5 is_stmt 0 view .LVU8
  66 0000 8328     		cmp	r0, #131
  67 0002 17D8     		bhi	.L4
  68              		.loc 1 96 26 discriminator 1 view .LVU9
  69 0004 1F29     		cmp	r1, #31
  70 0006 15D8     		bhi	.L4
  97:display/ssd1306.c **** 	{	return; } 						// Error 
  98:display/ssd1306.c **** 	
  99:display/ssd1306.c **** 	if (SSD1306.Inverted) 	// Check if pixels are inverted 
  71              		.loc 1 99 2 is_stmt 1 view .LVU10
  72              		.loc 1 99 13 is_stmt 0 view .LVU11
  73 0008 124B     		ldr	r3, .L9
  74 000a 1B79     		ldrb	r3, [r3, #4]	@ zero_extendqisi2
  75              		.loc 1 99 5 view .LVU12
ARM GAS  /tmp/ccI0AsY7.s 			page 4


  76 000c 13B1     		cbz	r3, .L6
 100:display/ssd1306.c **** 	{	color = (SSD1306_COLOR_t)!color;	}
  77              		.loc 1 100 4 is_stmt 1 view .LVU13
  78              		.loc 1 100 12 is_stmt 0 view .LVU14
  79 000e B2FA82F2 		clz	r2, r2
  80              	.LVL2:
  81              		.loc 1 100 12 view .LVU15
  82 0012 5209     		lsrs	r2, r2, #5
  83              	.LVL3:
  84              	.L6:
 101:display/ssd1306.c **** 	
 102:display/ssd1306.c **** 	if (color == SSD1306_COLOR_WHITE)  // Set color 
  85              		.loc 1 102 2 is_stmt 1 view .LVU16
  86              		.loc 1 102 5 is_stmt 0 view .LVU17
  87 0014 012A     		cmp	r2, #1
  88 0016 0ED0     		beq	.L8
 103:display/ssd1306.c **** 	{	SSD1306_Buffer[x + (y/8) * SSD1306_X_SIZE] |= 1 << (y % 8);	} 
 104:display/ssd1306.c **** 	else 
 105:display/ssd1306.c **** 	{	SSD1306_Buffer[x + (y/8) * SSD1306_X_SIZE] &= ~(1 << (y % 8));	}
  89              		.loc 1 105 4 is_stmt 1 view .LVU18
  90              		.loc 1 105 47 is_stmt 0 view .LVU19
  91 0018 CB08     		lsrs	r3, r1, #3
  92 001a 03EB4313 		add	r3, r3, r3, lsl #5
  93 001e 00EB8300 		add	r0, r0, r3, lsl #2
  94              	.LVL4:
  95              		.loc 1 105 60 view .LVU20
  96 0022 01F00701 		and	r1, r1, #7
  97              	.LVL5:
  98              		.loc 1 105 54 view .LVU21
  99 0026 0123     		movs	r3, #1
 100 0028 8B40     		lsls	r3, r3, r1
 101              		.loc 1 105 47 view .LVU22
 102 002a 0B4A     		ldr	r2, .L9+4
 103              	.LVL6:
 104              		.loc 1 105 47 view .LVU23
 105 002c 115C     		ldrb	r1, [r2, r0]	@ zero_extendqisi2
 106 002e 21EA0301 		bic	r1, r1, r3
 107 0032 1154     		strb	r1, [r2, r0]
 108              	.L4:
 106:display/ssd1306.c **** }
 109              		.loc 1 106 1 view .LVU24
 110 0034 7047     		bx	lr
 111              	.LVL7:
 112              	.L8:
 103:display/ssd1306.c **** 	{	SSD1306_Buffer[x + (y/8) * SSD1306_X_SIZE] |= 1 << (y % 8);	} 
 113              		.loc 1 103 4 is_stmt 1 view .LVU25
 103:display/ssd1306.c **** 	{	SSD1306_Buffer[x + (y/8) * SSD1306_X_SIZE] |= 1 << (y % 8);	} 
 114              		.loc 1 103 47 is_stmt 0 view .LVU26
 115 0036 CB08     		lsrs	r3, r1, #3
 116 0038 03EB4313 		add	r3, r3, r3, lsl #5
 117 003c 00EB8300 		add	r0, r0, r3, lsl #2
 118              	.LVL8:
 103:display/ssd1306.c **** 	{	SSD1306_Buffer[x + (y/8) * SSD1306_X_SIZE] |= 1 << (y % 8);	} 
 119              		.loc 1 103 58 view .LVU27
 120 0040 01F00701 		and	r1, r1, #7
 121              	.LVL9:
 103:display/ssd1306.c **** 	{	SSD1306_Buffer[x + (y/8) * SSD1306_X_SIZE] |= 1 << (y % 8);	} 
ARM GAS  /tmp/ccI0AsY7.s 			page 5


 122              		.loc 1 103 52 view .LVU28
 123 0044 0123     		movs	r3, #1
 124 0046 8B40     		lsls	r3, r3, r1
 103:display/ssd1306.c **** 	{	SSD1306_Buffer[x + (y/8) * SSD1306_X_SIZE] |= 1 << (y % 8);	} 
 125              		.loc 1 103 47 view .LVU29
 126 0048 034A     		ldr	r2, .L9+4
 127              	.LVL10:
 103:display/ssd1306.c **** 	{	SSD1306_Buffer[x + (y/8) * SSD1306_X_SIZE] |= 1 << (y % 8);	} 
 128              		.loc 1 103 47 view .LVU30
 129 004a 115C     		ldrb	r1, [r2, r0]	@ zero_extendqisi2
 130 004c 1943     		orrs	r1, r1, r3
 131 004e 1154     		strb	r1, [r2, r0]
 132 0050 7047     		bx	lr
 133              	.L10:
 134 0052 00BF     		.align	2
 135              	.L9:
 136 0054 00000000 		.word	.LANCHOR0
 137 0058 00000000 		.word	.LANCHOR1
 138              		.cfi_endproc
 139              	.LFE955:
 141              		.section	.text.SSD1306_PutChar,"ax",%progbits
 142              		.align	1
 143              		.global	SSD1306_PutChar
 144              		.syntax unified
 145              		.thumb
 146              		.thumb_func
 148              	SSD1306_PutChar:
 149              	.LVL11:
 150              	.LFB956:
 107:display/ssd1306.c **** 
 108:display/ssd1306.c **** //-----------------------------------------------------------------------------------------------//
 109:display/ssd1306.c **** char SSD1306_PutChar(char ch, FontDef_t* Font, SSD1306_COLOR_t color) 
 110:display/ssd1306.c **** {
 151              		.loc 1 110 1 is_stmt 1 view -0
 152              		.cfi_startproc
 153              		@ args = 0, pretend = 0, frame = 0
 154              		@ frame_needed = 0, uses_anonymous_args = 0
 155              		.loc 1 110 1 is_stmt 0 view .LVU32
 156 0000 2DE9F843 		push	{r3, r4, r5, r6, r7, r8, r9, lr}
 157              	.LCFI0:
 158              		.cfi_def_cfa_offset 32
 159              		.cfi_offset 3, -32
 160              		.cfi_offset 4, -28
 161              		.cfi_offset 5, -24
 162              		.cfi_offset 6, -20
 163              		.cfi_offset 7, -16
 164              		.cfi_offset 8, -12
 165              		.cfi_offset 9, -8
 166              		.cfi_offset 14, -4
 167 0004 9046     		mov	r8, r2
 111:display/ssd1306.c **** 	uint32_t i, b, j;
 168              		.loc 1 111 2 is_stmt 1 view .LVU33
 112:display/ssd1306.c **** 	//if (SSD1306.Inverted) {		color = (SSD1306_COLOR_t)!color;	}
 113:display/ssd1306.c **** 	if (SSD1306_X_SIZE <= (SSD1306.CurrentX + Font->FontWidth) ||
 169              		.loc 1 113 2 view .LVU34
 170              		.loc 1 113 32 is_stmt 0 view .LVU35
 171 0006 244B     		ldr	r3, .L24
ARM GAS  /tmp/ccI0AsY7.s 			page 6


 172 0008 1B88     		ldrh	r3, [r3]
 173              		.loc 1 113 48 view .LVU36
 174 000a 0A78     		ldrb	r2, [r1]	@ zero_extendqisi2
 175              	.LVL12:
 176              		.loc 1 113 42 view .LVU37
 177 000c 1344     		add	r3, r3, r2
 178              		.loc 1 113 5 view .LVU38
 179 000e 832B     		cmp	r3, #131
 180 0010 3EDC     		bgt	.L19
 181 0012 8146     		mov	r9, r0
 182 0014 0D46     		mov	r5, r1
 114:display/ssd1306.c **** 			SSD1306_Y_SIZE <= (SSD1306.CurrentY + Font->FontHeight)) // Check available space in LCD 
 183              		.loc 1 114 30 discriminator 1 view .LVU39
 184 0016 204B     		ldr	r3, .L24
 185 0018 5B88     		ldrh	r3, [r3, #2]
 186              		.loc 1 114 46 discriminator 1 view .LVU40
 187 001a 4A78     		ldrb	r2, [r1, #1]	@ zero_extendqisi2
 188              		.loc 1 114 40 discriminator 1 view .LVU41
 189 001c 1344     		add	r3, r3, r2
 113:display/ssd1306.c **** 			SSD1306_Y_SIZE <= (SSD1306.CurrentY + Font->FontHeight)) // Check available space in LCD 
 190              		.loc 1 113 61 discriminator 1 view .LVU42
 191 001e 1F2B     		cmp	r3, #31
 192 0020 38DC     		bgt	.L20
 115:display/ssd1306.c **** 	{	return 0;	}     // Error 
 116:display/ssd1306.c **** 	
 117:display/ssd1306.c **** 	for (i = 0; i < Font->FontHeight; i++) // Go through font 
 193              		.loc 1 117 9 view .LVU43
 194 0022 0026     		movs	r6, #0
 195 0024 20E0     		b	.L13
 196              	.LVL13:
 197              	.L15:
 118:display/ssd1306.c **** 	{
 119:display/ssd1306.c **** 		b = Font->data[(ch-32) * Font->FontHeight + i];
 120:display/ssd1306.c **** 		for (j = 0; j < Font->FontWidth; j++) 
 121:display/ssd1306.c **** 		{
 122:display/ssd1306.c **** 			if ((b << j) & 0x8000) 
 123:display/ssd1306.c **** 			{	SSD1306_DrawPixel(SSD1306.CurrentX + j, (SSD1306.CurrentY + i), (SSD1306_COLOR_t)color);	} 
 124:display/ssd1306.c **** 			else 
 125:display/ssd1306.c **** 			{	SSD1306_DrawPixel(SSD1306.CurrentX + j, (SSD1306.CurrentY + i), (SSD1306_COLOR_t)!color);	}
 198              		.loc 1 125 6 is_stmt 1 view .LVU44
 199              		.loc 1 125 31 is_stmt 0 view .LVU45
 200 0026 1C4B     		ldr	r3, .L24
 201 0028 1888     		ldrh	r0, [r3]
 202              		.loc 1 125 54 view .LVU46
 203 002a 5988     		ldrh	r1, [r3, #2]
 204              		.loc 1 125 6 view .LVU47
 205 002c 3144     		add	r1, r1, r6
 206 002e 2044     		add	r0, r0, r4
 207 0030 B8FA88F2 		clz	r2, r8
 208 0034 5209     		lsrs	r2, r2, #5
 209 0036 89B2     		uxth	r1, r1
 210 0038 80B2     		uxth	r0, r0
 211 003a FFF7FEFF 		bl	SSD1306_DrawPixel
 212              	.LVL14:
 213              	.L16:
 120:display/ssd1306.c **** 		{
 214              		.loc 1 120 36 is_stmt 1 discriminator 2 view .LVU48
ARM GAS  /tmp/ccI0AsY7.s 			page 7


 120:display/ssd1306.c **** 		{
 215              		.loc 1 120 37 is_stmt 0 discriminator 2 view .LVU49
 216 003e 0134     		adds	r4, r4, #1
 217              	.LVL15:
 218              	.L14:
 120:display/ssd1306.c **** 		{
 219              		.loc 1 120 15 is_stmt 1 discriminator 1 view .LVU50
 120:display/ssd1306.c **** 		{
 220              		.loc 1 120 23 is_stmt 0 discriminator 1 view .LVU51
 221 0040 2B78     		ldrb	r3, [r5]	@ zero_extendqisi2
 120:display/ssd1306.c **** 		{
 222              		.loc 1 120 3 discriminator 1 view .LVU52
 223 0042 A342     		cmp	r3, r4
 224 0044 0FD9     		bls	.L22
 122:display/ssd1306.c **** 			{	SSD1306_DrawPixel(SSD1306.CurrentX + j, (SSD1306.CurrentY + i), (SSD1306_COLOR_t)color);	} 
 225              		.loc 1 122 4 is_stmt 1 view .LVU53
 122:display/ssd1306.c **** 			{	SSD1306_DrawPixel(SSD1306.CurrentX + j, (SSD1306.CurrentY + i), (SSD1306_COLOR_t)color);	} 
 226              		.loc 1 122 11 is_stmt 0 view .LVU54
 227 0046 07FA04F3 		lsl	r3, r7, r4
 122:display/ssd1306.c **** 			{	SSD1306_DrawPixel(SSD1306.CurrentX + j, (SSD1306.CurrentY + i), (SSD1306_COLOR_t)color);	} 
 228              		.loc 1 122 7 view .LVU55
 229 004a 13F4004F 		tst	r3, #32768
 230 004e EAD0     		beq	.L15
 123:display/ssd1306.c **** 			else 
 231              		.loc 1 123 6 is_stmt 1 view .LVU56
 123:display/ssd1306.c **** 			else 
 232              		.loc 1 123 31 is_stmt 0 view .LVU57
 233 0050 114B     		ldr	r3, .L24
 234 0052 1888     		ldrh	r0, [r3]
 123:display/ssd1306.c **** 			else 
 235              		.loc 1 123 54 view .LVU58
 236 0054 5988     		ldrh	r1, [r3, #2]
 123:display/ssd1306.c **** 			else 
 237              		.loc 1 123 6 view .LVU59
 238 0056 3144     		add	r1, r1, r6
 239 0058 2044     		add	r0, r0, r4
 240 005a 4246     		mov	r2, r8
 241 005c 89B2     		uxth	r1, r1
 242 005e 80B2     		uxth	r0, r0
 243 0060 FFF7FEFF 		bl	SSD1306_DrawPixel
 244              	.LVL16:
 245 0064 EBE7     		b	.L16
 246              	.L22:
 117:display/ssd1306.c **** 	{
 247              		.loc 1 117 36 is_stmt 1 discriminator 2 view .LVU60
 117:display/ssd1306.c **** 	{
 248              		.loc 1 117 37 is_stmt 0 discriminator 2 view .LVU61
 249 0066 0136     		adds	r6, r6, #1
 250              	.LVL17:
 251              	.L13:
 117:display/ssd1306.c **** 	{
 252              		.loc 1 117 14 is_stmt 1 discriminator 1 view .LVU62
 117:display/ssd1306.c **** 	{
 253              		.loc 1 117 22 is_stmt 0 discriminator 1 view .LVU63
 254 0068 6A78     		ldrb	r2, [r5, #1]	@ zero_extendqisi2
 117:display/ssd1306.c **** 	{
 255              		.loc 1 117 2 discriminator 1 view .LVU64
ARM GAS  /tmp/ccI0AsY7.s 			page 8


 256 006a B242     		cmp	r2, r6
 257 006c 08D9     		bls	.L23
 119:display/ssd1306.c **** 		for (j = 0; j < Font->FontWidth; j++) 
 258              		.loc 1 119 3 is_stmt 1 view .LVU65
 119:display/ssd1306.c **** 		for (j = 0; j < Font->FontWidth; j++) 
 259              		.loc 1 119 11 is_stmt 0 view .LVU66
 260 006e 6968     		ldr	r1, [r5, #4]
 119:display/ssd1306.c **** 		for (j = 0; j < Font->FontWidth; j++) 
 261              		.loc 1 119 21 view .LVU67
 262 0070 A9F12003 		sub	r3, r9, #32
 119:display/ssd1306.c **** 		for (j = 0; j < Font->FontWidth; j++) 
 263              		.loc 1 119 45 view .LVU68
 264 0074 02FB0363 		mla	r3, r2, r3, r6
 119:display/ssd1306.c **** 		for (j = 0; j < Font->FontWidth; j++) 
 265              		.loc 1 119 17 view .LVU69
 266 0078 31F81370 		ldrh	r7, [r1, r3, lsl #1]
 267              	.LVL18:
 120:display/ssd1306.c **** 		{
 268              		.loc 1 120 3 is_stmt 1 view .LVU70
 120:display/ssd1306.c **** 		{
 269              		.loc 1 120 10 is_stmt 0 view .LVU71
 270 007c 0024     		movs	r4, #0
 120:display/ssd1306.c **** 		{
 271              		.loc 1 120 3 view .LVU72
 272 007e DFE7     		b	.L14
 273              	.LVL19:
 274              	.L23:
 126:display/ssd1306.c **** 		}
 127:display/ssd1306.c **** 	}
 128:display/ssd1306.c **** 	
 129:display/ssd1306.c **** 	SSD1306.CurrentX += Font->FontWidth; // Increase pointer 	
 275              		.loc 1 129 2 is_stmt 1 view .LVU73
 276              		.loc 1 129 26 is_stmt 0 view .LVU74
 277 0080 2B78     		ldrb	r3, [r5]	@ zero_extendqisi2
 278              		.loc 1 129 19 view .LVU75
 279 0082 054A     		ldr	r2, .L24
 280 0084 1188     		ldrh	r1, [r2]
 281 0086 0B44     		add	r3, r3, r1
 282 0088 1380     		strh	r3, [r2]	@ movhi
 130:display/ssd1306.c **** 	return ch; 	// Return character written 
 283              		.loc 1 130 2 is_stmt 1 view .LVU76
 284              		.loc 1 130 9 is_stmt 0 view .LVU77
 285 008a 4846     		mov	r0, r9
 286              	.LVL20:
 287              	.L12:
 131:display/ssd1306.c **** }
 288              		.loc 1 131 1 view .LVU78
 289 008c BDE8F883 		pop	{r3, r4, r5, r6, r7, r8, r9, pc}
 290              	.LVL21:
 291              	.L19:
 115:display/ssd1306.c **** 	
 292              		.loc 1 115 11 view .LVU79
 293 0090 0020     		movs	r0, #0
 294              	.LVL22:
 115:display/ssd1306.c **** 	
 295              		.loc 1 115 11 view .LVU80
 296 0092 FBE7     		b	.L12
ARM GAS  /tmp/ccI0AsY7.s 			page 9


 297              	.LVL23:
 298              	.L20:
 115:display/ssd1306.c **** 	
 299              		.loc 1 115 11 view .LVU81
 300 0094 0020     		movs	r0, #0
 301              	.LVL24:
 115:display/ssd1306.c **** 	
 302              		.loc 1 115 11 view .LVU82
 303 0096 F9E7     		b	.L12
 304              	.L25:
 305              		.align	2
 306              	.L24:
 307 0098 00000000 		.word	.LANCHOR0
 308              		.cfi_endproc
 309              	.LFE956:
 311              		.section	.text.SSD1306_PutString,"ax",%progbits
 312              		.align	1
 313              		.global	SSD1306_PutString
 314              		.syntax unified
 315              		.thumb
 316              		.thumb_func
 318              	SSD1306_PutString:
 319              	.LVL25:
 320              	.LFB957:
 132:display/ssd1306.c **** 
 133:display/ssd1306.c **** //-----------------------------------------------------------------------------------------------//
 134:display/ssd1306.c **** char SSD1306_PutString (uint8_t* str, FontDef_t* Font, SSD1306_COLOR_t color) 
 135:display/ssd1306.c **** {
 321              		.loc 1 135 1 is_stmt 1 view -0
 322              		.cfi_startproc
 323              		@ args = 0, pretend = 0, frame = 0
 324              		@ frame_needed = 0, uses_anonymous_args = 0
 325              		.loc 1 135 1 is_stmt 0 view .LVU84
 326 0000 70B5     		push	{r4, r5, r6, lr}
 327              	.LCFI1:
 328              		.cfi_def_cfa_offset 16
 329              		.cfi_offset 4, -16
 330              		.cfi_offset 5, -12
 331              		.cfi_offset 6, -8
 332              		.cfi_offset 14, -4
 333 0002 0446     		mov	r4, r0
 334 0004 0E46     		mov	r6, r1
 335 0006 1546     		mov	r5, r2
 136:display/ssd1306.c **** 	while (*str) 
 336              		.loc 1 136 2 is_stmt 1 view .LVU85
 337              		.loc 1 136 8 is_stmt 0 view .LVU86
 338 0008 00E0     		b	.L27
 339              	.LVL26:
 340              	.L31:
 137:display/ssd1306.c **** 	{
 138:display/ssd1306.c **** 		if (SSD1306_PutChar(*str, Font, color) != *str)
 139:display/ssd1306.c **** 		{	return *str;	}
 140:display/ssd1306.c **** 		str++;
 341              		.loc 1 140 3 is_stmt 1 view .LVU87
 342              		.loc 1 140 6 is_stmt 0 view .LVU88
 343 000a 0134     		adds	r4, r4, #1
 344              	.LVL27:
ARM GAS  /tmp/ccI0AsY7.s 			page 10


 345              	.L27:
 136:display/ssd1306.c **** 	while (*str) 
 346              		.loc 1 136 8 is_stmt 1 view .LVU89
 136:display/ssd1306.c **** 	while (*str) 
 347              		.loc 1 136 9 is_stmt 0 view .LVU90
 348 000c 2078     		ldrb	r0, [r4]	@ zero_extendqisi2
 136:display/ssd1306.c **** 	while (*str) 
 349              		.loc 1 136 8 view .LVU91
 350 000e 38B1     		cbz	r0, .L28
 138:display/ssd1306.c **** 		{	return *str;	}
 351              		.loc 1 138 3 is_stmt 1 view .LVU92
 138:display/ssd1306.c **** 		{	return *str;	}
 352              		.loc 1 138 7 is_stmt 0 view .LVU93
 353 0010 2A46     		mov	r2, r5
 354 0012 3146     		mov	r1, r6
 355 0014 FFF7FEFF 		bl	SSD1306_PutChar
 356              	.LVL28:
 357 0018 0346     		mov	r3, r0
 138:display/ssd1306.c **** 		{	return *str;	}
 358              		.loc 1 138 42 view .LVU94
 359 001a 2078     		ldrb	r0, [r4]	@ zero_extendqisi2
 138:display/ssd1306.c **** 		{	return *str;	}
 360              		.loc 1 138 6 view .LVU95
 361 001c 8342     		cmp	r3, r0
 362 001e F4D0     		beq	.L31
 363              	.L28:
 141:display/ssd1306.c **** 	}
 142:display/ssd1306.c **** 	return *str; // Everything OK, zero should be returned 
 143:display/ssd1306.c **** }
 364              		.loc 1 143 1 view .LVU96
 365 0020 70BD     		pop	{r4, r5, r6, pc}
 366              		.loc 1 143 1 view .LVU97
 367              		.cfi_endproc
 368              	.LFE957:
 370              		.section	.text.SSD1306_Putc,"ax",%progbits
 371              		.align	1
 372              		.global	SSD1306_Putc
 373              		.syntax unified
 374              		.thumb
 375              		.thumb_func
 377              	SSD1306_Putc:
 378              	.LVL29:
 379              	.LFB958:
 144:display/ssd1306.c **** 
 145:display/ssd1306.c **** //-----------------------------------------------------------------------------------------------//
 146:display/ssd1306.c **** char SSD1306_Putc(char ch, FontDef_t* Font, SSD1306_COLOR_t color) 
 147:display/ssd1306.c **** {
 380              		.loc 1 147 1 is_stmt 1 view -0
 381              		.cfi_startproc
 382              		@ args = 0, pretend = 0, frame = 0
 383              		@ frame_needed = 0, uses_anonymous_args = 0
 384              		.loc 1 147 1 is_stmt 0 view .LVU99
 385 0000 2DE9F843 		push	{r3, r4, r5, r6, r7, r8, r9, lr}
 386              	.LCFI2:
 387              		.cfi_def_cfa_offset 32
 388              		.cfi_offset 3, -32
 389              		.cfi_offset 4, -28
ARM GAS  /tmp/ccI0AsY7.s 			page 11


 390              		.cfi_offset 5, -24
 391              		.cfi_offset 6, -20
 392              		.cfi_offset 7, -16
 393              		.cfi_offset 8, -12
 394              		.cfi_offset 9, -8
 395              		.cfi_offset 14, -4
 148:display/ssd1306.c **** 	uint32_t i, b, j;
 396              		.loc 1 148 2 is_stmt 1 view .LVU100
 149:display/ssd1306.c **** 
 150:display/ssd1306.c **** 	 // Check available space in LCD 
 151:display/ssd1306.c **** 	//if (SSD1306_X_SIZE <= (SSD1306.CurrentX + Font->FontWidth) ||	SSD1306_Y_SIZE <= (SSD1306.Current
 152:display/ssd1306.c **** 	if (SSD1306_X_SIZE <= (SSD1306.CurrentX) ||	SSD1306_Y_SIZE <= (SSD1306.CurrentY)) 
 397              		.loc 1 152 2 view .LVU101
 398              		.loc 1 152 32 is_stmt 0 view .LVU102
 399 0004 224B     		ldr	r3, .L45
 400 0006 1B88     		ldrh	r3, [r3]
 401              		.loc 1 152 5 view .LVU103
 402 0008 832B     		cmp	r3, #131
 403 000a 3DD8     		bhi	.L40
 404 000c 8146     		mov	r9, r0
 405 000e 0E46     		mov	r6, r1
 406 0010 9046     		mov	r8, r2
 407              		.loc 1 152 72 discriminator 1 view .LVU104
 408 0012 1F4B     		ldr	r3, .L45
 409 0014 5B88     		ldrh	r3, [r3, #2]
 410              		.loc 1 152 43 discriminator 1 view .LVU105
 411 0016 1F2B     		cmp	r3, #31
 412 0018 38D8     		bhi	.L41
 153:display/ssd1306.c **** 	{	return 0;	}     // Error
 154:display/ssd1306.c **** 
 155:display/ssd1306.c **** 	for (i = 0; i < Font->FontHeight; i++) 	// Go through font 
 413              		.loc 1 155 9 view .LVU106
 414 001a 0025     		movs	r5, #0
 415 001c 20E0     		b	.L34
 416              	.LVL30:
 417              	.L36:
 156:display/ssd1306.c **** 	{
 157:display/ssd1306.c **** 		b = Font->data[(ch - 32) * Font->FontHeight + i];
 158:display/ssd1306.c **** 		for (j = 0; j < Font->FontWidth; j++) 
 159:display/ssd1306.c **** 		{
 160:display/ssd1306.c **** 			if ((b << j) & 0x8000) 
 161:display/ssd1306.c **** 			{	SSD1306_DrawPixel(SSD1306.CurrentX + j, (SSD1306.CurrentY + i), (SSD1306_COLOR_t) color);	} 
 162:display/ssd1306.c **** 			else 
 163:display/ssd1306.c **** 			{	SSD1306_DrawPixel(SSD1306.CurrentX + j, (SSD1306.CurrentY + i), (SSD1306_COLOR_t)!color);	}
 418              		.loc 1 163 6 is_stmt 1 view .LVU107
 419              		.loc 1 163 31 is_stmt 0 view .LVU108
 420 001e 1C4B     		ldr	r3, .L45
 421 0020 1888     		ldrh	r0, [r3]
 422              		.loc 1 163 54 view .LVU109
 423 0022 5988     		ldrh	r1, [r3, #2]
 424              		.loc 1 163 6 view .LVU110
 425 0024 2944     		add	r1, r1, r5
 426 0026 2044     		add	r0, r0, r4
 427 0028 B8FA88F2 		clz	r2, r8
 428 002c 5209     		lsrs	r2, r2, #5
 429 002e 89B2     		uxth	r1, r1
 430 0030 80B2     		uxth	r0, r0
ARM GAS  /tmp/ccI0AsY7.s 			page 12


 431 0032 FFF7FEFF 		bl	SSD1306_DrawPixel
 432              	.LVL31:
 433              	.L37:
 158:display/ssd1306.c **** 		{
 434              		.loc 1 158 36 is_stmt 1 discriminator 2 view .LVU111
 158:display/ssd1306.c **** 		{
 435              		.loc 1 158 37 is_stmt 0 discriminator 2 view .LVU112
 436 0036 0134     		adds	r4, r4, #1
 437              	.LVL32:
 438              	.L35:
 158:display/ssd1306.c **** 		{
 439              		.loc 1 158 15 is_stmt 1 discriminator 1 view .LVU113
 158:display/ssd1306.c **** 		{
 440              		.loc 1 158 23 is_stmt 0 discriminator 1 view .LVU114
 441 0038 3378     		ldrb	r3, [r6]	@ zero_extendqisi2
 158:display/ssd1306.c **** 		{
 442              		.loc 1 158 3 discriminator 1 view .LVU115
 443 003a A342     		cmp	r3, r4
 444 003c 0FD9     		bls	.L43
 160:display/ssd1306.c **** 			{	SSD1306_DrawPixel(SSD1306.CurrentX + j, (SSD1306.CurrentY + i), (SSD1306_COLOR_t) color);	} 
 445              		.loc 1 160 4 is_stmt 1 view .LVU116
 160:display/ssd1306.c **** 			{	SSD1306_DrawPixel(SSD1306.CurrentX + j, (SSD1306.CurrentY + i), (SSD1306_COLOR_t) color);	} 
 446              		.loc 1 160 11 is_stmt 0 view .LVU117
 447 003e 07FA04F3 		lsl	r3, r7, r4
 160:display/ssd1306.c **** 			{	SSD1306_DrawPixel(SSD1306.CurrentX + j, (SSD1306.CurrentY + i), (SSD1306_COLOR_t) color);	} 
 448              		.loc 1 160 7 view .LVU118
 449 0042 13F4004F 		tst	r3, #32768
 450 0046 EAD0     		beq	.L36
 161:display/ssd1306.c **** 			else 
 451              		.loc 1 161 6 is_stmt 1 view .LVU119
 161:display/ssd1306.c **** 			else 
 452              		.loc 1 161 31 is_stmt 0 view .LVU120
 453 0048 114B     		ldr	r3, .L45
 454 004a 1888     		ldrh	r0, [r3]
 161:display/ssd1306.c **** 			else 
 455              		.loc 1 161 54 view .LVU121
 456 004c 5988     		ldrh	r1, [r3, #2]
 161:display/ssd1306.c **** 			else 
 457              		.loc 1 161 6 view .LVU122
 458 004e 2944     		add	r1, r1, r5
 459 0050 2044     		add	r0, r0, r4
 460 0052 4246     		mov	r2, r8
 461 0054 89B2     		uxth	r1, r1
 462 0056 80B2     		uxth	r0, r0
 463 0058 FFF7FEFF 		bl	SSD1306_DrawPixel
 464              	.LVL33:
 465 005c EBE7     		b	.L37
 466              	.L43:
 155:display/ssd1306.c **** 	{
 467              		.loc 1 155 36 is_stmt 1 discriminator 2 view .LVU123
 155:display/ssd1306.c **** 	{
 468              		.loc 1 155 37 is_stmt 0 discriminator 2 view .LVU124
 469 005e 0135     		adds	r5, r5, #1
 470              	.LVL34:
 471              	.L34:
 155:display/ssd1306.c **** 	{
 472              		.loc 1 155 14 is_stmt 1 discriminator 1 view .LVU125
ARM GAS  /tmp/ccI0AsY7.s 			page 13


 155:display/ssd1306.c **** 	{
 473              		.loc 1 155 22 is_stmt 0 discriminator 1 view .LVU126
 474 0060 7278     		ldrb	r2, [r6, #1]	@ zero_extendqisi2
 155:display/ssd1306.c **** 	{
 475              		.loc 1 155 2 discriminator 1 view .LVU127
 476 0062 AA42     		cmp	r2, r5
 477 0064 08D9     		bls	.L44
 157:display/ssd1306.c **** 		for (j = 0; j < Font->FontWidth; j++) 
 478              		.loc 1 157 3 is_stmt 1 view .LVU128
 157:display/ssd1306.c **** 		for (j = 0; j < Font->FontWidth; j++) 
 479              		.loc 1 157 11 is_stmt 0 view .LVU129
 480 0066 7168     		ldr	r1, [r6, #4]
 157:display/ssd1306.c **** 		for (j = 0; j < Font->FontWidth; j++) 
 481              		.loc 1 157 22 view .LVU130
 482 0068 A9F12003 		sub	r3, r9, #32
 157:display/ssd1306.c **** 		for (j = 0; j < Font->FontWidth; j++) 
 483              		.loc 1 157 47 view .LVU131
 484 006c 02FB0353 		mla	r3, r2, r3, r5
 157:display/ssd1306.c **** 		for (j = 0; j < Font->FontWidth; j++) 
 485              		.loc 1 157 17 view .LVU132
 486 0070 31F81370 		ldrh	r7, [r1, r3, lsl #1]
 487              	.LVL35:
 158:display/ssd1306.c **** 		{
 488              		.loc 1 158 3 is_stmt 1 view .LVU133
 158:display/ssd1306.c **** 		{
 489              		.loc 1 158 10 is_stmt 0 view .LVU134
 490 0074 0024     		movs	r4, #0
 158:display/ssd1306.c **** 		{
 491              		.loc 1 158 3 view .LVU135
 492 0076 DFE7     		b	.L35
 493              	.LVL36:
 494              	.L44:
 164:display/ssd1306.c **** 		}
 165:display/ssd1306.c **** 	}
 166:display/ssd1306.c **** 	
 167:display/ssd1306.c **** 	SSD1306.CurrentX += Font->FontWidth; 	// Increase pointer 
 495              		.loc 1 167 2 is_stmt 1 view .LVU136
 496              		.loc 1 167 26 is_stmt 0 view .LVU137
 497 0078 3378     		ldrb	r3, [r6]	@ zero_extendqisi2
 498              		.loc 1 167 19 view .LVU138
 499 007a 054A     		ldr	r2, .L45
 500 007c 1188     		ldrh	r1, [r2]
 501 007e 0B44     		add	r3, r3, r1
 502 0080 1380     		strh	r3, [r2]	@ movhi
 168:display/ssd1306.c **** 	return ch; 	// Return character written 
 503              		.loc 1 168 2 is_stmt 1 view .LVU139
 504              		.loc 1 168 9 is_stmt 0 view .LVU140
 505 0082 4846     		mov	r0, r9
 506              	.LVL37:
 507              	.L33:
 169:display/ssd1306.c **** }
 508              		.loc 1 169 1 view .LVU141
 509 0084 BDE8F883 		pop	{r3, r4, r5, r6, r7, r8, r9, pc}
 510              	.LVL38:
 511              	.L40:
 153:display/ssd1306.c **** 
 512              		.loc 1 153 11 view .LVU142
ARM GAS  /tmp/ccI0AsY7.s 			page 14


 513 0088 0020     		movs	r0, #0
 514              	.LVL39:
 153:display/ssd1306.c **** 
 515              		.loc 1 153 11 view .LVU143
 516 008a FBE7     		b	.L33
 517              	.LVL40:
 518              	.L41:
 153:display/ssd1306.c **** 
 519              		.loc 1 153 11 view .LVU144
 520 008c 0020     		movs	r0, #0
 521              	.LVL41:
 153:display/ssd1306.c **** 
 522              		.loc 1 153 11 view .LVU145
 523 008e F9E7     		b	.L33
 524              	.L46:
 525              		.align	2
 526              	.L45:
 527 0090 00000000 		.word	.LANCHOR0
 528              		.cfi_endproc
 529              	.LFE958:
 531              		.section	.text.SSD1306_Puts,"ax",%progbits
 532              		.align	1
 533              		.global	SSD1306_Puts
 534              		.syntax unified
 535              		.thumb
 536              		.thumb_func
 538              	SSD1306_Puts:
 539              	.LVL42:
 540              	.LFB959:
 170:display/ssd1306.c **** 
 171:display/ssd1306.c **** //---------------------------------–∑–∞–ø–æ–ª–Ω–µ–Ω–∏–µ –±—É—Ñ—Ñ–µ—Ä–∞ –¥–ª—è –¥–∏—Å–ø–ª–µ—è-------
 172:display/ssd1306.c **** char SSD1306_Puts(uint8_t* str, FontDef_t* Font, SSD1306_COLOR_t color) 
 173:display/ssd1306.c **** {
 541              		.loc 1 173 1 is_stmt 1 view -0
 542              		.cfi_startproc
 543              		@ args = 0, pretend = 0, frame = 0
 544              		@ frame_needed = 0, uses_anonymous_args = 0
 545              		.loc 1 173 1 is_stmt 0 view .LVU147
 546 0000 70B5     		push	{r4, r5, r6, lr}
 547              	.LCFI3:
 548              		.cfi_def_cfa_offset 16
 549              		.cfi_offset 4, -16
 550              		.cfi_offset 5, -12
 551              		.cfi_offset 6, -8
 552              		.cfi_offset 14, -4
 553 0002 0446     		mov	r4, r0
 554 0004 0E46     		mov	r6, r1
 555 0006 1546     		mov	r5, r2
 174:display/ssd1306.c **** 	while (*str) 
 556              		.loc 1 174 2 is_stmt 1 view .LVU148
 557              		.loc 1 174 8 is_stmt 0 view .LVU149
 558 0008 00E0     		b	.L48
 559              	.LVL43:
 560              	.L52:
 175:display/ssd1306.c **** 	{
 176:display/ssd1306.c **** 		if (SSD1306_Putc(*str, Font, color) != *str) 
 177:display/ssd1306.c **** 		{	return *str;	}
ARM GAS  /tmp/ccI0AsY7.s 			page 15


 178:display/ssd1306.c **** 		str++;
 561              		.loc 1 178 3 is_stmt 1 view .LVU150
 562              		.loc 1 178 6 is_stmt 0 view .LVU151
 563 000a 0134     		adds	r4, r4, #1
 564              	.LVL44:
 565              	.L48:
 174:display/ssd1306.c **** 	while (*str) 
 566              		.loc 1 174 8 is_stmt 1 view .LVU152
 174:display/ssd1306.c **** 	while (*str) 
 567              		.loc 1 174 9 is_stmt 0 view .LVU153
 568 000c 2078     		ldrb	r0, [r4]	@ zero_extendqisi2
 174:display/ssd1306.c **** 	while (*str) 
 569              		.loc 1 174 8 view .LVU154
 570 000e 38B1     		cbz	r0, .L49
 176:display/ssd1306.c **** 		{	return *str;	}
 571              		.loc 1 176 3 is_stmt 1 view .LVU155
 176:display/ssd1306.c **** 		{	return *str;	}
 572              		.loc 1 176 7 is_stmt 0 view .LVU156
 573 0010 2A46     		mov	r2, r5
 574 0012 3146     		mov	r1, r6
 575 0014 FFF7FEFF 		bl	SSD1306_Putc
 576              	.LVL45:
 577 0018 0346     		mov	r3, r0
 176:display/ssd1306.c **** 		{	return *str;	}
 578              		.loc 1 176 39 view .LVU157
 579 001a 2078     		ldrb	r0, [r4]	@ zero_extendqisi2
 176:display/ssd1306.c **** 		{	return *str;	}
 580              		.loc 1 176 6 view .LVU158
 581 001c 8342     		cmp	r3, r0
 582 001e F4D0     		beq	.L52
 583              	.L49:
 179:display/ssd1306.c **** 	}	
 180:display/ssd1306.c **** 	return *str; // Everything OK, zero should be returned 
 181:display/ssd1306.c **** }
 584              		.loc 1 181 1 view .LVU159
 585 0020 70BD     		pop	{r4, r5, r6, pc}
 586              		.loc 1 181 1 view .LVU160
 587              		.cfi_endproc
 588              	.LFE959:
 590              		.section	.text.SSD1306_UpdateScreen,"ax",%progbits
 591              		.align	1
 592              		.global	SSD1306_UpdateScreen
 593              		.syntax unified
 594              		.thumb
 595              		.thumb_func
 597              	SSD1306_UpdateScreen:
 598              	.LFB960:
 182:display/ssd1306.c **** 
 183:display/ssd1306.c **** //-----------------------------------–æ—Ç–ø—Ä–∞–≤–∫–∞ –±—É—Ñ—Ñ–µ—Ä–∞ –≤ –¥–∏—Å–ø–ª–µ–π-------------
 184:display/ssd1306.c **** void SSD1306_UpdateScreen(void) 
 185:display/ssd1306.c **** {
 599              		.loc 1 185 1 is_stmt 1 view -0
 600              		.cfi_startproc
 601              		@ args = 0, pretend = 0, frame = 0
 602              		@ frame_needed = 0, uses_anonymous_args = 0
 603 0000 08B5     		push	{r3, lr}
 604              	.LCFI4:
ARM GAS  /tmp/ccI0AsY7.s 			page 16


 605              		.cfi_def_cfa_offset 8
 606              		.cfi_offset 3, -8
 607              		.cfi_offset 14, -4
 186:display/ssd1306.c **** 	#ifdef __SPI_DMA_MODE	 
 187:display/ssd1306.c **** 	ssd1306_SendDataBuffer (SSD1306_Buffer,  SSD1306_BUFFER_SIZE);
 608              		.loc 1 187 2 view .LVU162
 609 0002 4FF40471 		mov	r1, #528
 610 0006 0248     		ldr	r0, .L55
 611 0008 FFF7FEFF 		bl	ssd1306_SendDataBuffer
 612              	.LVL46:
 188:display/ssd1306.c **** 	#else
 189:display/ssd1306.c **** 	uint8_t m = 0;
 190:display/ssd1306.c **** 	for (m = 0; m < 4; m++)  
 191:display/ssd1306.c **** 	{ 
 192:display/ssd1306.c **** 		SSD1306_PageAdress(m);
 193:display/ssd1306.c **** 		ssd1306_SendDataBuffer (&SSD1306_Buffer[(SSD1306_X_SIZE*m) - 4], (SSD1306_BUFFER_SIZE/4)); 	// Wr
 194:display/ssd1306.c **** 	}
 195:display/ssd1306.c **** 	#endif
 196:display/ssd1306.c **** }
 613              		.loc 1 196 1 is_stmt 0 view .LVU163
 614 000c 08BD     		pop	{r3, pc}
 615              	.L56:
 616 000e 00BF     		.align	2
 617              	.L55:
 618 0010 00000000 		.word	.LANCHOR1
 619              		.cfi_endproc
 620              	.LFE960:
 622              		.section	.rodata.preset2_screen.str1.4,"aMS",%progbits,1
 623              		.align	2
 624              	.LC0:
 625 0000 20505245 		.ascii	" PRESET1\000"
 625      53455431 
 625      00
 626 0009 000000   		.align	2
 627              	.LC1:
 628 000c 3E505245 		.ascii	">PRESET2\000"
 628      53455432 
 628      00
 629              		.section	.text.preset2_screen,"ax",%progbits
 630              		.align	1
 631              		.syntax unified
 632              		.thumb
 633              		.thumb_func
 635              	preset2_screen:
 636              	.LFB983:
 197:display/ssd1306.c **** 
 198:display/ssd1306.c **** //-----------------------------------–ø–æ—Å—ã–ª–∫–∞ –∞–¥—Ä–µ—Å–∞ —Å—Ç—Ä–∞–Ω–∏—Ü—ã------------------
 199:display/ssd1306.c **** void SSD1306_PageAdress(uint8_t i) 
 200:display/ssd1306.c **** {
 201:display/ssd1306.c **** 		CS(ON);
 202:display/ssd1306.c **** 		SSD1306_WRITECOMMAND(0xB0 + i); //–£—Å—Ç–∞–Ω–æ–≤–∫–∞ –±–∏—Ç–∞–º–∏ X[2:0] –∞–¥—Ä–µ—Å–∞ –Ω–∞—á–∞–ª—
 203:display/ssd1306.c **** 		SSD1306_WRITECOMMAND(0x00); //–£—Å—Ç–∞–Ω–∞–≤–∫–∞ –º–ª–∞–¥—à–µ–≥–æ –Ω–∏–±–±–ª–∞ —Ä–µ–≥–∏—Å—Ç—Ä–∞ –
 204:display/ssd1306.c **** 		SSD1306_WRITECOMMAND(0x10); //–£—Å—Ç–∞–Ω–∞–≤–∫–∞ —Å—Ç–∞—Ä—à–µ–≥–æ –Ω–∏–±–±–ª–∞ —Ä–µ–≥–∏—Å—Ç—Ä–∞ –
 205:display/ssd1306.c **** 	//  CS(OFF);
 206:display/ssd1306.c **** }
 207:display/ssd1306.c **** 
 208:display/ssd1306.c **** //-----------------------------------------------------------------------------------------------//
ARM GAS  /tmp/ccI0AsY7.s 			page 17


 209:display/ssd1306.c **** void SSD1306_Clear_Screen (void)
 210:display/ssd1306.c **** {
 211:display/ssd1306.c **** 	SSD1306_Fill(SSD1306_COLOR_BLACK); 
 212:display/ssd1306.c **** }
 213:display/ssd1306.c **** 
 214:display/ssd1306.c **** //-----------------------------------------------------------------------------------------------//
 215:display/ssd1306.c **** void SSD1306_ToggleInvert(void) 
 216:display/ssd1306.c **** {
 217:display/ssd1306.c **** 	uint16_t i;
 218:display/ssd1306.c **** 	
 219:display/ssd1306.c **** 	SSD1306.Inverted = !SSD1306.Inverted; // Toggle invert 
 220:display/ssd1306.c **** 
 221:display/ssd1306.c **** 	for (i = 0; i < sizeof(SSD1306_Buffer); i++) 	// Do memory toggle 
 222:display/ssd1306.c **** 	{	SSD1306_Buffer[i] = ~SSD1306_Buffer[i];	}
 223:display/ssd1306.c **** }
 224:display/ssd1306.c **** 
 225:display/ssd1306.c **** //-----------------------------------------------------------------------------------------------//
 226:display/ssd1306.c **** void SSD1306_Fill(SSD1306_COLOR_t color) 
 227:display/ssd1306.c **** {
 228:display/ssd1306.c **** 	if (SSD1306.Inverted) 
 229:display/ssd1306.c **** 	{	memset(SSD1306_Buffer, (color == SSD1306_COLOR_WHITE) ? 0x00 : 0xFF, SSD1306_BUFFER_SIZE);	}
 230:display/ssd1306.c **** 	else 
 231:display/ssd1306.c **** 	{	memset(SSD1306_Buffer, (color == SSD1306_COLOR_BLACK) ? 0x00 : 0xFF, SSD1306_BUFFER_SIZE);	}
 232:display/ssd1306.c **** }
 233:display/ssd1306.c **** 
 234:display/ssd1306.c **** //-----------------------------------------------------------------------------------------------//
 235:display/ssd1306.c **** void SSD1306_DrawLine(uint16_t x0, uint16_t y0, uint16_t x1, uint16_t y1, SSD1306_COLOR_t c) 
 236:display/ssd1306.c **** {
 237:display/ssd1306.c **** 	int16_t dx, dy, sx, sy, err, e2, i, tmp; 
 238:display/ssd1306.c **** 	
 239:display/ssd1306.c **** 	if (x0 >= SSD1306_X_SIZE) // Check for overflow 
 240:display/ssd1306.c **** 	{	x0 = SSD1306_X_SIZE - 1;	}
 241:display/ssd1306.c **** 	
 242:display/ssd1306.c **** 	if (x1 >= SSD1306_X_SIZE) 
 243:display/ssd1306.c **** 	{	x1 = SSD1306_X_SIZE - 1;	}
 244:display/ssd1306.c **** 	
 245:display/ssd1306.c **** 	if (y0 >= SSD1306_Y_SIZE) 
 246:display/ssd1306.c **** 	{	y0 = SSD1306_Y_SIZE - 1;	}
 247:display/ssd1306.c **** 	
 248:display/ssd1306.c **** 	if (y1 >= SSD1306_Y_SIZE) 
 249:display/ssd1306.c **** 	{	y1 = SSD1306_Y_SIZE - 1;	}
 250:display/ssd1306.c **** 	
 251:display/ssd1306.c **** 	dx = (x0 < x1) ? (x1 - x0) : (x0 - x1); 
 252:display/ssd1306.c **** 	dy = (y0 < y1) ? (y1 - y0) : (y0 - y1); 
 253:display/ssd1306.c **** 	sx = (x0 < x1) ? 1 : -1; 
 254:display/ssd1306.c **** 	sy = (y0 < y1) ? 1 : -1; 
 255:display/ssd1306.c **** 	err = ((dx > dy) ? dx : -dy) / 2; 
 256:display/ssd1306.c **** 
 257:display/ssd1306.c **** 	if (dx == 0) 
 258:display/ssd1306.c **** 	{
 259:display/ssd1306.c **** 		if (y1 < y0) 
 260:display/ssd1306.c **** 		{
 261:display/ssd1306.c **** 			tmp = y1;
 262:display/ssd1306.c **** 			y1 = y0;
 263:display/ssd1306.c **** 			y0 = tmp;
 264:display/ssd1306.c **** 		}
 265:display/ssd1306.c **** 		
ARM GAS  /tmp/ccI0AsY7.s 			page 18


 266:display/ssd1306.c **** 		if (x1 < x0) 
 267:display/ssd1306.c **** 		{
 268:display/ssd1306.c **** 			tmp = x1;
 269:display/ssd1306.c **** 			x1 = x0;
 270:display/ssd1306.c **** 			x0 = tmp;
 271:display/ssd1306.c **** 		}
 272:display/ssd1306.c **** 		
 273:display/ssd1306.c **** 		for (i = y0; i <= y1; i++) 
 274:display/ssd1306.c **** 		{	SSD1306_DrawPixel(x0, i, c);	} // Vertical line 
 275:display/ssd1306.c **** 		
 276:display/ssd1306.c **** 		return; 	// Return from function 
 277:display/ssd1306.c **** 	}
 278:display/ssd1306.c **** 	
 279:display/ssd1306.c **** 	if (dy == 0) 
 280:display/ssd1306.c **** 	{
 281:display/ssd1306.c **** 		if (y1 < y0) 
 282:display/ssd1306.c **** 		{
 283:display/ssd1306.c **** 			tmp = y1;
 284:display/ssd1306.c **** 			y1 = y0;
 285:display/ssd1306.c **** 			y0 = tmp;
 286:display/ssd1306.c **** 		}
 287:display/ssd1306.c **** 		
 288:display/ssd1306.c **** 		if (x1 < x0) 
 289:display/ssd1306.c **** 		{
 290:display/ssd1306.c **** 			tmp = x1;
 291:display/ssd1306.c **** 			x1 = x0;
 292:display/ssd1306.c **** 			x0 = tmp;
 293:display/ssd1306.c **** 		}
 294:display/ssd1306.c **** 			
 295:display/ssd1306.c **** 		for (i = x0; i <= x1; i++) 
 296:display/ssd1306.c **** 		{	SSD1306_DrawPixel(i, y0, c);	} // Horizontal line 
 297:display/ssd1306.c **** 		return; 	// Return from function 
 298:display/ssd1306.c **** 	}
 299:display/ssd1306.c **** 	
 300:display/ssd1306.c **** 	while (1) 
 301:display/ssd1306.c **** 	{
 302:display/ssd1306.c **** 		SSD1306_DrawPixel(x0, y0, c);
 303:display/ssd1306.c **** 		if (x0 == x1 && y0 == y1) 
 304:display/ssd1306.c **** 		{	break;	}
 305:display/ssd1306.c **** 		e2 = err; 
 306:display/ssd1306.c **** 		if (e2 > -dx) 
 307:display/ssd1306.c **** 		{
 308:display/ssd1306.c **** 			err -= dy;
 309:display/ssd1306.c **** 			x0 += sx;
 310:display/ssd1306.c **** 		} 
 311:display/ssd1306.c **** 		if (e2 < dy) 
 312:display/ssd1306.c **** 		{
 313:display/ssd1306.c **** 			err += dx;
 314:display/ssd1306.c **** 			y0 += sy;
 315:display/ssd1306.c **** 		} 
 316:display/ssd1306.c **** 	}
 317:display/ssd1306.c **** }
 318:display/ssd1306.c **** 
 319:display/ssd1306.c **** //-----------------------------------------------------------------------------------------------//
 320:display/ssd1306.c **** void SSD1306_DrawRectangle(uint16_t x, uint16_t y, uint16_t w, uint16_t h, SSD1306_COLOR_t c) 
 321:display/ssd1306.c **** {
 322:display/ssd1306.c **** 	
ARM GAS  /tmp/ccI0AsY7.s 			page 19


 323:display/ssd1306.c **** 	if (x >= SSD1306_X_SIZE ||	y >= SSD1306_Y_SIZE) // Check input parameters 
 324:display/ssd1306.c **** 	{	return; }// Return error 
 325:display/ssd1306.c **** 	
 326:display/ssd1306.c **** 	if ((x + w) >= SSD1306_X_SIZE) // Check width 
 327:display/ssd1306.c **** 	{	w = SSD1306_X_SIZE - x;	}
 328:display/ssd1306.c **** 	
 329:display/ssd1306.c **** 	if ((y + h) >= SSD1306_Y_SIZE)  // Check height 
 330:display/ssd1306.c **** 	{	h = SSD1306_Y_SIZE - y;	}
 331:display/ssd1306.c **** 	
 332:display/ssd1306.c **** 	//--------------Draw 4 lines 
 333:display/ssd1306.c **** 	SSD1306_DrawLine(x, y, x + w, y, c);         // Top line 
 334:display/ssd1306.c **** 	SSD1306_DrawLine(x, y + h, x + w, y + h, c); // Bottom line 
 335:display/ssd1306.c **** 	SSD1306_DrawLine(x, y, x, y + h, c);         // Left line 
 336:display/ssd1306.c **** 	SSD1306_DrawLine(x + w, y, x + w, y + h, c); // Right line 
 337:display/ssd1306.c **** }
 338:display/ssd1306.c **** 
 339:display/ssd1306.c **** //-----------------------------------------------------------------------------------------------//
 340:display/ssd1306.c **** void SSD1306_DrawFilledRectangle(uint16_t x, uint16_t y, uint16_t w, uint16_t h, SSD1306_COLOR_t c)
 341:display/ssd1306.c **** {
 342:display/ssd1306.c **** 	uint8_t i;
 343:display/ssd1306.c **** 	
 344:display/ssd1306.c **** 	if (x >= SSD1306_X_SIZE ||	y >= SSD1306_Y_SIZE)  // Check input parameters 
 345:display/ssd1306.c **** 	{	return; }																				// Return error 
 346:display/ssd1306.c **** 	
 347:display/ssd1306.c **** 	if ((x + w) >= SSD1306_X_SIZE) // Check width 
 348:display/ssd1306.c **** 	{	w = SSD1306_X_SIZE - x;	}
 349:display/ssd1306.c **** 	
 350:display/ssd1306.c **** 	if ((y + h) >= SSD1306_Y_SIZE) // Check height 
 351:display/ssd1306.c **** 	{	h = SSD1306_Y_SIZE - y;	}
 352:display/ssd1306.c **** 	
 353:display/ssd1306.c **** 	for (i = 0; i <= h; i++) 
 354:display/ssd1306.c **** 	{	SSD1306_DrawLine(x, y + i, x + w, y + i, c); 	}	// Draw lines 
 355:display/ssd1306.c **** }
 356:display/ssd1306.c **** 
 357:display/ssd1306.c **** //-----------------------------------------------------------------------------------------------//
 358:display/ssd1306.c **** void SSD1306_DrawTriangle(uint16_t x1, uint16_t y1, uint16_t x2, uint16_t y2, uint16_t x3, 
 359:display/ssd1306.c **** uint16_t y3,	SSD1306_COLOR_t color) 
 360:display/ssd1306.c **** {
 361:display/ssd1306.c **** 	
 362:display/ssd1306.c **** 	SSD1306_DrawLine(x1, y1, x2, y2, color); // Draw lines 
 363:display/ssd1306.c **** 	SSD1306_DrawLine(x2, y2, x3, y3, color);
 364:display/ssd1306.c **** 	SSD1306_DrawLine(x3, y3, x1, y1, color);
 365:display/ssd1306.c **** }
 366:display/ssd1306.c **** 
 367:display/ssd1306.c **** //-----------------------------------------------------------------------------------------------//
 368:display/ssd1306.c **** void SSD1306_DrawFilledTriangle(uint16_t x1, uint16_t y1, uint16_t x2, uint16_t y2, uint16_t x3, 
 369:display/ssd1306.c **** uint16_t y3, SSD1306_COLOR_t color) 
 370:display/ssd1306.c **** {
 371:display/ssd1306.c **** 	int16_t deltax = 0, deltay = 0, x = 0, y = 0, xinc1 = 0, xinc2 = 0, 
 372:display/ssd1306.c **** 	yinc1 = 0, yinc2 = 0, den = 0, num = 0, numadd = 0, numpixels = 0, 
 373:display/ssd1306.c **** 	curpixel = 0;
 374:display/ssd1306.c **** 	
 375:display/ssd1306.c **** 	deltax = ABS(x2 - x1);
 376:display/ssd1306.c **** 	deltay = ABS(y2 - y1);
 377:display/ssd1306.c **** 	x = x1;
 378:display/ssd1306.c **** 	y = y1;
 379:display/ssd1306.c **** 
ARM GAS  /tmp/ccI0AsY7.s 			page 20


 380:display/ssd1306.c **** 	if (x2 >= x1) 
 381:display/ssd1306.c **** 	{
 382:display/ssd1306.c **** 		xinc1 = 1;
 383:display/ssd1306.c **** 		xinc2 = 1;
 384:display/ssd1306.c **** 	} 
 385:display/ssd1306.c **** 	else 
 386:display/ssd1306.c **** 	{
 387:display/ssd1306.c **** 		xinc1 = -1;
 388:display/ssd1306.c **** 		xinc2 = -1;
 389:display/ssd1306.c **** 	}
 390:display/ssd1306.c **** 
 391:display/ssd1306.c **** 	if (y2 >= y1) 
 392:display/ssd1306.c **** 	{
 393:display/ssd1306.c **** 		yinc1 = 1;
 394:display/ssd1306.c **** 		yinc2 = 1;
 395:display/ssd1306.c **** 	} 
 396:display/ssd1306.c **** 	else 
 397:display/ssd1306.c **** 	{
 398:display/ssd1306.c **** 		yinc1 = -1;
 399:display/ssd1306.c **** 		yinc2 = -1;
 400:display/ssd1306.c **** 	}
 401:display/ssd1306.c **** 
 402:display/ssd1306.c **** 	if (deltax >= deltay)
 403:display/ssd1306.c **** 	{
 404:display/ssd1306.c **** 		xinc1 = 0;
 405:display/ssd1306.c **** 		yinc2 = 0;
 406:display/ssd1306.c **** 		den = deltax;
 407:display/ssd1306.c **** 		num = deltax / 2;
 408:display/ssd1306.c **** 		numadd = deltay;
 409:display/ssd1306.c **** 		numpixels = deltax;
 410:display/ssd1306.c **** 	} 
 411:display/ssd1306.c **** 	else
 412:display/ssd1306.c **** 	{
 413:display/ssd1306.c **** 		xinc2 = 0;
 414:display/ssd1306.c **** 		yinc1 = 0;
 415:display/ssd1306.c **** 		den = deltay;
 416:display/ssd1306.c **** 		num = deltay / 2;
 417:display/ssd1306.c **** 		numadd = deltax;
 418:display/ssd1306.c **** 		numpixels = deltay;
 419:display/ssd1306.c **** 	}
 420:display/ssd1306.c **** 
 421:display/ssd1306.c **** 	for (curpixel = 0; curpixel <= numpixels; curpixel++) 
 422:display/ssd1306.c **** 	{
 423:display/ssd1306.c **** 		SSD1306_DrawLine(x, y, x3, y3, color);
 424:display/ssd1306.c **** 
 425:display/ssd1306.c **** 		num += numadd;
 426:display/ssd1306.c **** 		if (num >= den) 
 427:display/ssd1306.c **** 		{
 428:display/ssd1306.c **** 			num -= den;
 429:display/ssd1306.c **** 			x += xinc1;
 430:display/ssd1306.c **** 			y += yinc1;
 431:display/ssd1306.c **** 		}
 432:display/ssd1306.c **** 		x += xinc2;
 433:display/ssd1306.c **** 		y += yinc2;
 434:display/ssd1306.c **** 	}
 435:display/ssd1306.c **** }
 436:display/ssd1306.c **** 
ARM GAS  /tmp/ccI0AsY7.s 			page 21


 437:display/ssd1306.c **** //-----------------------------------------------------------------------------------------------//
 438:display/ssd1306.c **** void SSD1306_DrawCircle(int16_t x0, int16_t y0, int16_t r, SSD1306_COLOR_t c) 
 439:display/ssd1306.c **** {
 440:display/ssd1306.c **** 	int16_t f = 1 - r;
 441:display/ssd1306.c **** 	int16_t ddF_x = 1;
 442:display/ssd1306.c **** 	int16_t ddF_y = -2 * r;
 443:display/ssd1306.c **** 	int16_t x = 0;
 444:display/ssd1306.c **** 	int16_t y = r;
 445:display/ssd1306.c **** 
 446:display/ssd1306.c ****   SSD1306_DrawPixel(x0, y0 + r, c);
 447:display/ssd1306.c ****   SSD1306_DrawPixel(x0, y0 - r, c);
 448:display/ssd1306.c ****   SSD1306_DrawPixel(x0 + r, y0, c);
 449:display/ssd1306.c ****   SSD1306_DrawPixel(x0 - r, y0, c);
 450:display/ssd1306.c **** 
 451:display/ssd1306.c ****   while (x < y) 
 452:display/ssd1306.c **** 	{
 453:display/ssd1306.c **** 		if (f >= 0) 
 454:display/ssd1306.c **** 		{
 455:display/ssd1306.c **** 			y--;
 456:display/ssd1306.c **** 			ddF_y += 2;
 457:display/ssd1306.c **** 			f += ddF_y;
 458:display/ssd1306.c **** 		}
 459:display/ssd1306.c ****     x++;
 460:display/ssd1306.c ****     ddF_x += 2;
 461:display/ssd1306.c ****     f += ddF_x;
 462:display/ssd1306.c **** 
 463:display/ssd1306.c ****     SSD1306_DrawPixel(x0 + x, y0 + y, c);
 464:display/ssd1306.c ****     SSD1306_DrawPixel(x0 - x, y0 + y, c);
 465:display/ssd1306.c ****     SSD1306_DrawPixel(x0 + x, y0 - y, c);
 466:display/ssd1306.c ****     SSD1306_DrawPixel(x0 - x, y0 - y, c);
 467:display/ssd1306.c **** 
 468:display/ssd1306.c ****     SSD1306_DrawPixel(x0 + y, y0 + x, c);
 469:display/ssd1306.c ****     SSD1306_DrawPixel(x0 - y, y0 + x, c);
 470:display/ssd1306.c ****     SSD1306_DrawPixel(x0 + y, y0 - x, c);
 471:display/ssd1306.c ****     SSD1306_DrawPixel(x0 - y, y0 - x, c);
 472:display/ssd1306.c ****   }
 473:display/ssd1306.c **** }
 474:display/ssd1306.c **** 
 475:display/ssd1306.c **** //-----------------------------------------------------------------------------------------------//
 476:display/ssd1306.c **** void SSD1306_DrawFilledCircle(int16_t x0, int16_t y0, int16_t r, SSD1306_COLOR_t c) 
 477:display/ssd1306.c **** {
 478:display/ssd1306.c **** 	int16_t f = 1 - r;
 479:display/ssd1306.c **** 	int16_t ddF_x = 1;
 480:display/ssd1306.c **** 	int16_t ddF_y = -2 * r;
 481:display/ssd1306.c **** 	int16_t x = 0;
 482:display/ssd1306.c **** 	int16_t y = r;
 483:display/ssd1306.c **** 
 484:display/ssd1306.c ****   SSD1306_DrawPixel(x0, y0 + r, c);
 485:display/ssd1306.c ****   SSD1306_DrawPixel(x0, y0 - r, c);
 486:display/ssd1306.c ****   SSD1306_DrawPixel(x0 + r, y0, c);
 487:display/ssd1306.c ****   SSD1306_DrawPixel(x0 - r, y0, c);
 488:display/ssd1306.c ****   SSD1306_DrawLine(x0 - r, y0, x0 + r, y0, c);
 489:display/ssd1306.c **** 
 490:display/ssd1306.c **** 	while (x < y) 
 491:display/ssd1306.c **** 	{
 492:display/ssd1306.c **** 		if (f >= 0) 
 493:display/ssd1306.c **** 		{
ARM GAS  /tmp/ccI0AsY7.s 			page 22


 494:display/ssd1306.c **** 			y--;
 495:display/ssd1306.c **** 			ddF_y += 2;
 496:display/ssd1306.c **** 			f += ddF_y;
 497:display/ssd1306.c ****     }
 498:display/ssd1306.c **** 		x++;
 499:display/ssd1306.c **** 		ddF_x += 2;
 500:display/ssd1306.c **** 		f += ddF_x;
 501:display/ssd1306.c **** 
 502:display/ssd1306.c **** 		SSD1306_DrawLine(x0 - x, y0 + y, x0 + x, y0 + y, c);
 503:display/ssd1306.c **** 		SSD1306_DrawLine(x0 + x, y0 - y, x0 - x, y0 - y, c);
 504:display/ssd1306.c **** 		SSD1306_DrawLine(x0 + y, y0 + x, x0 - y, y0 + x, c);
 505:display/ssd1306.c **** 		SSD1306_DrawLine(x0 + y, y0 - x, x0 - y, y0 - x, c);
 506:display/ssd1306.c ****   }
 507:display/ssd1306.c **** }
 508:display/ssd1306.c **** 
 509:display/ssd1306.c **** //-----------------------------------------------------------------------------------------------//
 510:display/ssd1306.c **** static void void_screen (void)
 511:display/ssd1306.c **** {
 512:display/ssd1306.c **** 	SSD1306_GotoXY(LCD_DEFAULT_X_SIZE, LCD_DEFAULT_Y_SIZE);
 513:display/ssd1306.c **** 	SSD1306_Clear_Screen ();
 514:display/ssd1306.c **** 	SSD1306_UpdateScreen();
 515:display/ssd1306.c **** }
 516:display/ssd1306.c **** 
 517:display/ssd1306.c **** //-----------------------------------------------------------------------------------------------//
 518:display/ssd1306.c **** static void clear_buffer_screen (void)
 519:display/ssd1306.c **** {
 520:display/ssd1306.c **** 	SSD1306_GotoXY(LCD_DEFAULT_X_SIZE, LCD_DEFAULT_Y_SIZE);
 521:display/ssd1306.c **** 	SSD1306_Clear_Screen ();
 522:display/ssd1306.c **** }
 523:display/ssd1306.c **** 
 524:display/ssd1306.c **** //--------------------------------—Ñ-—è –æ—Ç–æ–±—Ä–∞–∂–µ–Ω–∏—è –æ—Å–Ω–æ–≤–Ω–æ–≥–æ –º–µ–Ω—é---------
 525:display/ssd1306.c **** void default_screen (uint8_t numb_preset, int16_t r_number, int16_t s_number, uint8_t number_coil)
 526:display/ssd1306.c **** {
 527:display/ssd1306.c **** 	clear_buffer_screen ();
 528:display/ssd1306.c **** 	SSD1306_GotoXY(LCD_DEFAULT_X_SIZE, LCD_DEFAULT_Y_SIZE);
 529:display/ssd1306.c **** 	snprintf ((char *)LCD_buff, LCD_BUFFER_SIZE, "PRESET%u", numb_preset);
 530:display/ssd1306.c **** 	SSD1306_Puts (LCD_buff , &Font_7x10, SSD1306_COLOR_WHITE);
 531:display/ssd1306.c **** 	
 532:display/ssd1306.c **** 	SSD1306_GotoXY(LCD_DEFAULT_X_SIZE, LCD_DEFAULT_Y_SIZE+13);
 533:display/ssd1306.c **** 	snprintf ((char *)LCD_buff, LCD_BUFFER_SIZE, "%uC:%03d/%03d",number_coil, r_number, s_number);
 534:display/ssd1306.c **** 	SSD1306_Puts (LCD_buff , &Font_11x17, SSD1306_COLOR_WHITE);
 535:display/ssd1306.c **** 	SSD1306_UpdateScreen();
 536:display/ssd1306.c **** }
 537:display/ssd1306.c **** 
 538:display/ssd1306.c **** //----------------------—Ñ-—è –æ—Ç–æ–±—Ä–∞–∂–µ–Ω–∏—è —É—Å—Ç–∞–Ω–æ–≤–ª–µ–Ω–Ω–æ–≥–æ –ø–µ—Ä–µ–¥–∞—Ç–æ—
 539:display/ssd1306.c **** void setup_ratio_screen (int16_t gear_ratio)
 540:display/ssd1306.c **** {
 541:display/ssd1306.c **** 	uint8_t int_number = gear_ratio/100;
 542:display/ssd1306.c **** 	uint8_t fraction_part = gear_ratio%100;
 543:display/ssd1306.c **** 	SSD1306_GotoXY(LCD_DEFAULT_X_SIZE, LCD_DEFAULT_Y_SIZE+5);
 544:display/ssd1306.c **** 	SSD1306_Clear_Screen ();
 545:display/ssd1306.c **** 	snprintf ((char *)LCD_buff, LCD_BUFFER_SIZE, "RT:%u.%02u", int_number, fraction_part);
 546:display/ssd1306.c **** 	SSD1306_Puts (LCD_buff , &Font_16x26, SSD1306_COLOR_WHITE);
 547:display/ssd1306.c **** 	SSD1306_UpdateScreen();
 548:display/ssd1306.c **** }
 549:display/ssd1306.c **** 
 550:display/ssd1306.c **** //-------------------------------—Ñ-—è –æ—Ç–æ–±—Ä–∞–∂–µ–Ω–∏—è —É—Å—Ç–∞–Ω–æ–≤–ª–µ–Ω–Ω–æ–π —Å–∫–æ—Ä–æ
ARM GAS  /tmp/ccI0AsY7.s 			page 23


 551:display/ssd1306.c **** void setup_speed_screen (int16_t rotation_speed)
 552:display/ssd1306.c **** {
 553:display/ssd1306.c **** 	SSD1306_GotoXY(LCD_DEFAULT_X_SIZE, LCD_DEFAULT_Y_SIZE+5);
 554:display/ssd1306.c **** 	SSD1306_Clear_Screen ();
 555:display/ssd1306.c **** 	snprintf ((char *)LCD_buff, LCD_BUFFER_SIZE, "%3u RPM", rotation_speed);
 556:display/ssd1306.c **** 	SSD1306_Puts (LCD_buff , &Font_16x26, SSD1306_COLOR_WHITE);
 557:display/ssd1306.c **** 	SSD1306_UpdateScreen();
 558:display/ssd1306.c **** }
 559:display/ssd1306.c **** 
 560:display/ssd1306.c **** //------------------------—Ñ-—è –æ—Ç–æ–±—Ä–∞–∂–µ–Ω–∏—è —É—Å—Ç–∞–Ω–æ–≤–ª–µ–Ω–Ω–æ–≥–æ –∫–æ–ª–∏—á–µ—Å—
 561:display/ssd1306.c **** void setup_coil_screen (uint8_t count, int32_t number_click)
 562:display/ssd1306.c **** {
 563:display/ssd1306.c **** 	SSD1306_Clear_Screen ();
 564:display/ssd1306.c **** 	
 565:display/ssd1306.c **** 	SSD1306_GotoXY(LCD_DEFAULT_X_SIZE, LCD_DEFAULT_Y_SIZE+5);
 566:display/ssd1306.c **** 	snprintf ((char *)LCD_buff, LCD_BUFFER_SIZE, "%uC:%03ld", count, number_click);
 567:display/ssd1306.c **** 	SSD1306_Puts (LCD_buff , &Font_16x26, SSD1306_COLOR_WHITE);
 568:display/ssd1306.c **** 	SSD1306_UpdateScreen();
 569:display/ssd1306.c **** }
 570:display/ssd1306.c **** 
 571:display/ssd1306.c **** //-----------------------------------------------------------------------------------------------//
 572:display/ssd1306.c **** void main_menu_select_preset_screen (void)
 573:display/ssd1306.c **** {
 574:display/ssd1306.c **** 	clear_buffer_screen ();
 575:display/ssd1306.c **** 	
 576:display/ssd1306.c **** 	SSD1306_GotoXY(LCD_DEFAULT_X_SIZE, LCD_DEFAULT_Y_SIZE);
 577:display/ssd1306.c **** 	snprintf ((char *)LCD_buff, LCD_BUFFER_SIZE, "SELECT");
 578:display/ssd1306.c **** 	SSD1306_Puts (LCD_buff , &Font_11x17, SSD1306_COLOR_WHITE);
 579:display/ssd1306.c **** 	
 580:display/ssd1306.c **** 	SSD1306_GotoXY(LCD_DEFAULT_X_SIZE+60, LCD_DEFAULT_Y_SIZE+16);
 581:display/ssd1306.c **** 	snprintf ((char *)LCD_buff, LCD_BUFFER_SIZE, "MODE");
 582:display/ssd1306.c **** 	SSD1306_Puts (LCD_buff , &Font_11x17, SSD1306_COLOR_WHITE);
 583:display/ssd1306.c **** 	SSD1306_UpdateScreen();	
 584:display/ssd1306.c **** }
 585:display/ssd1306.c **** 
 586:display/ssd1306.c **** //-----------------------------------------------------------------------------------------------//
 587:display/ssd1306.c **** void mode_setup_null_screen(void)
 588:display/ssd1306.c **** {
 589:display/ssd1306.c **** 	clear_buffer_screen ();
 590:display/ssd1306.c **** 	
 591:display/ssd1306.c **** 	SSD1306_GotoXY(LCD_DEFAULT_X_SIZE, LCD_DEFAULT_Y_SIZE);
 592:display/ssd1306.c **** 	snprintf ((char *)LCD_buff, LCD_BUFFER_SIZE, "SET NULL");
 593:display/ssd1306.c **** 	SSD1306_Puts (LCD_buff , &Font_11x17, SSD1306_COLOR_WHITE);
 594:display/ssd1306.c **** 
 595:display/ssd1306.c **** 	SSD1306_UpdateScreen();	
 596:display/ssd1306.c **** }
 597:display/ssd1306.c **** 
 598:display/ssd1306.c **** //-----------------------------------------------------------------------------------------------//
 599:display/ssd1306.c **** void mode_setup_manual_screen (void)
 600:display/ssd1306.c **** {
 601:display/ssd1306.c **** 	clear_buffer_screen ();
 602:display/ssd1306.c **** 	
 603:display/ssd1306.c **** 	SSD1306_GotoXY(LCD_DEFAULT_X_SIZE, LCD_DEFAULT_Y_SIZE);
 604:display/ssd1306.c **** 	snprintf ((char *)LCD_buff, LCD_BUFFER_SIZE, "MANUAL MODE");
 605:display/ssd1306.c **** 	SSD1306_Puts (LCD_buff , &Font_11x17, SSD1306_COLOR_WHITE);
 606:display/ssd1306.c **** 
 607:display/ssd1306.c **** 	SSD1306_UpdateScreen();	
ARM GAS  /tmp/ccI0AsY7.s 			page 24


 608:display/ssd1306.c **** }
 609:display/ssd1306.c **** 
 610:display/ssd1306.c **** //-----------------------------------------------------------------------------------------------//
 611:display/ssd1306.c **** void mode_setup_manual_dir_screen (void)
 612:display/ssd1306.c **** {
 613:display/ssd1306.c **** 	clear_buffer_screen ();
 614:display/ssd1306.c **** 	
 615:display/ssd1306.c **** 	SSD1306_GotoXY(LCD_DEFAULT_X_SIZE, LCD_DEFAULT_Y_SIZE);
 616:display/ssd1306.c **** 	snprintf ((char *)LCD_buff, LCD_BUFFER_SIZE, "MANUAL MODE");
 617:display/ssd1306.c **** 	SSD1306_Puts (LCD_buff , &Font_11x17, SSD1306_COLOR_WHITE);
 618:display/ssd1306.c **** 	
 619:display/ssd1306.c **** 	SSD1306_GotoXY(LCD_DEFAULT_X_SIZE, LCD_DEFAULT_Y_SIZE+16);
 620:display/ssd1306.c **** 	snprintf ((char *)LCD_buff, LCD_BUFFER_SIZE, "<-SET DIR->");
 621:display/ssd1306.c **** 	SSD1306_Puts (LCD_buff , &Font_11x17, SSD1306_COLOR_WHITE);	
 622:display/ssd1306.c **** 
 623:display/ssd1306.c **** 	SSD1306_UpdateScreen();	
 624:display/ssd1306.c **** }
 625:display/ssd1306.c **** 
 626:display/ssd1306.c **** //-----------------------------------------------------------------------------------------------//
 627:display/ssd1306.c **** static void preset1_screen (void)
 628:display/ssd1306.c **** {
 629:display/ssd1306.c **** 	SSD1306_GotoXY(LCD_DEFAULT_X_SIZE, LCD_DEFAULT_Y_SIZE);
 630:display/ssd1306.c **** 	snprintf ((char *)LCD_buff, LCD_BUFFER_SIZE, ">PRESET1");
 631:display/ssd1306.c **** 	SSD1306_Puts (LCD_buff , &Font_11x17, SSD1306_COLOR_WHITE);
 632:display/ssd1306.c **** 	
 633:display/ssd1306.c **** 	SSD1306_GotoXY(LCD_DEFAULT_X_SIZE, LCD_DEFAULT_Y_SIZE+16);
 634:display/ssd1306.c **** 	snprintf ((char *)LCD_buff, LCD_BUFFER_SIZE, " PRESET2");
 635:display/ssd1306.c **** 	SSD1306_Puts (LCD_buff , &Font_11x17, SSD1306_COLOR_WHITE);
 636:display/ssd1306.c **** 	SSD1306_UpdateScreen();	
 637:display/ssd1306.c **** }
 638:display/ssd1306.c **** 
 639:display/ssd1306.c **** //-----------------------------------------------------------------------------------------------//
 640:display/ssd1306.c **** static void preset2_screen (void)
 641:display/ssd1306.c **** {
 637              		.loc 1 641 1 is_stmt 1 view -0
 638              		.cfi_startproc
 639              		@ args = 0, pretend = 0, frame = 0
 640              		@ frame_needed = 0, uses_anonymous_args = 0
 641 0000 70B5     		push	{r4, r5, r6, lr}
 642              	.LCFI5:
 643              		.cfi_def_cfa_offset 16
 644              		.cfi_offset 4, -16
 645              		.cfi_offset 5, -12
 646              		.cfi_offset 6, -8
 647              		.cfi_offset 14, -4
 642:display/ssd1306.c **** 	SSD1306_GotoXY(LCD_DEFAULT_X_SIZE, LCD_DEFAULT_Y_SIZE);
 648              		.loc 1 642 2 view .LVU165
 649 0002 0121     		movs	r1, #1
 650 0004 0020     		movs	r0, #0
 651 0006 FFF7FEFF 		bl	SSD1306_GotoXY
 652              	.LVL47:
 643:display/ssd1306.c **** 	snprintf ((char *)LCD_buff, LCD_BUFFER_SIZE, " PRESET1");
 653              		.loc 1 643 2 view .LVU166
 654 000a 0F4D     		ldr	r5, .L59
 655 000c 0F4B     		ldr	r3, .L59+4
 656 000e 2C46     		mov	r4, r5
 657 0010 93E80700 		ldm	r3, {r0, r1, r2}
ARM GAS  /tmp/ccI0AsY7.s 			page 25


 658 0014 03C4     		stmia	r4!, {r0, r1}
 659 0016 2270     		strb	r2, [r4]
 644:display/ssd1306.c **** 	SSD1306_Puts (LCD_buff , &Font_11x17, SSD1306_COLOR_WHITE);
 660              		.loc 1 644 2 view .LVU167
 661 0018 0D4E     		ldr	r6, .L59+8
 662 001a 0122     		movs	r2, #1
 663 001c 3146     		mov	r1, r6
 664 001e 2846     		mov	r0, r5
 665 0020 FFF7FEFF 		bl	SSD1306_Puts
 666              	.LVL48:
 645:display/ssd1306.c **** 	
 646:display/ssd1306.c **** 	SSD1306_GotoXY(LCD_DEFAULT_X_SIZE, LCD_DEFAULT_Y_SIZE+16);
 667              		.loc 1 646 2 view .LVU168
 668 0024 1121     		movs	r1, #17
 669 0026 0020     		movs	r0, #0
 670 0028 FFF7FEFF 		bl	SSD1306_GotoXY
 671              	.LVL49:
 647:display/ssd1306.c **** 	snprintf ((char *)LCD_buff, LCD_BUFFER_SIZE, ">PRESET2");
 672              		.loc 1 647 2 view .LVU169
 673 002c 094A     		ldr	r2, .L59+12
 674 002e 2B46     		mov	r3, r5
 675 0030 07CA     		ldm	r2, {r0, r1, r2}
 676 0032 03C3     		stmia	r3!, {r0, r1}
 677 0034 2270     		strb	r2, [r4]
 648:display/ssd1306.c **** 	SSD1306_Puts (LCD_buff , &Font_11x17, SSD1306_COLOR_WHITE);
 678              		.loc 1 648 2 view .LVU170
 679 0036 0122     		movs	r2, #1
 680 0038 3146     		mov	r1, r6
 681 003a 2846     		mov	r0, r5
 682 003c FFF7FEFF 		bl	SSD1306_Puts
 683              	.LVL50:
 649:display/ssd1306.c **** 	SSD1306_UpdateScreen();	
 684              		.loc 1 649 2 view .LVU171
 685 0040 FFF7FEFF 		bl	SSD1306_UpdateScreen
 686              	.LVL51:
 650:display/ssd1306.c **** }
 687              		.loc 1 650 1 is_stmt 0 view .LVU172
 688 0044 70BD     		pop	{r4, r5, r6, pc}
 689              	.L60:
 690 0046 00BF     		.align	2
 691              	.L59:
 692 0048 00000000 		.word	.LANCHOR2
 693 004c 00000000 		.word	.LC0
 694 0050 00000000 		.word	Font_11x17
 695 0054 0C000000 		.word	.LC1
 696              		.cfi_endproc
 697              	.LFE983:
 699              		.section	.rodata.preset3_screen.str1.4,"aMS",%progbits,1
 700              		.align	2
 701              	.LC2:
 702 0000 3E505245 		.ascii	">PRESET3\000"
 702      53455433 
 702      00
 703 0009 000000   		.align	2
 704              	.LC3:
 705 000c 20505245 		.ascii	" PRESET4\000"
 705      53455434 
ARM GAS  /tmp/ccI0AsY7.s 			page 26


 705      00
 706              		.section	.text.preset3_screen,"ax",%progbits
 707              		.align	1
 708              		.syntax unified
 709              		.thumb
 710              		.thumb_func
 712              	preset3_screen:
 713              	.LFB984:
 651:display/ssd1306.c **** 
 652:display/ssd1306.c **** //-----------------------------------------------------------------------------------------------//
 653:display/ssd1306.c **** static void preset3_screen (void)
 654:display/ssd1306.c **** {
 714              		.loc 1 654 1 is_stmt 1 view -0
 715              		.cfi_startproc
 716              		@ args = 0, pretend = 0, frame = 0
 717              		@ frame_needed = 0, uses_anonymous_args = 0
 718 0000 70B5     		push	{r4, r5, r6, lr}
 719              	.LCFI6:
 720              		.cfi_def_cfa_offset 16
 721              		.cfi_offset 4, -16
 722              		.cfi_offset 5, -12
 723              		.cfi_offset 6, -8
 724              		.cfi_offset 14, -4
 655:display/ssd1306.c **** 	SSD1306_GotoXY(LCD_DEFAULT_X_SIZE, LCD_DEFAULT_Y_SIZE);
 725              		.loc 1 655 2 view .LVU174
 726 0002 0121     		movs	r1, #1
 727 0004 0020     		movs	r0, #0
 728 0006 FFF7FEFF 		bl	SSD1306_GotoXY
 729              	.LVL52:
 656:display/ssd1306.c **** 	snprintf ((char *)LCD_buff, LCD_BUFFER_SIZE, ">PRESET3");
 730              		.loc 1 656 2 view .LVU175
 731 000a 0F4D     		ldr	r5, .L63
 732 000c 0F4B     		ldr	r3, .L63+4
 733 000e 2C46     		mov	r4, r5
 734 0010 93E80700 		ldm	r3, {r0, r1, r2}
 735 0014 03C4     		stmia	r4!, {r0, r1}
 736 0016 2270     		strb	r2, [r4]
 657:display/ssd1306.c **** 	SSD1306_Puts (LCD_buff , &Font_11x17, SSD1306_COLOR_WHITE);
 737              		.loc 1 657 2 view .LVU176
 738 0018 0D4E     		ldr	r6, .L63+8
 739 001a 0122     		movs	r2, #1
 740 001c 3146     		mov	r1, r6
 741 001e 2846     		mov	r0, r5
 742 0020 FFF7FEFF 		bl	SSD1306_Puts
 743              	.LVL53:
 658:display/ssd1306.c **** 	
 659:display/ssd1306.c **** 	SSD1306_GotoXY(LCD_DEFAULT_X_SIZE, LCD_DEFAULT_Y_SIZE+16);
 744              		.loc 1 659 2 view .LVU177
 745 0024 1121     		movs	r1, #17
 746 0026 0020     		movs	r0, #0
 747 0028 FFF7FEFF 		bl	SSD1306_GotoXY
 748              	.LVL54:
 660:display/ssd1306.c **** 	snprintf ((char *)LCD_buff, LCD_BUFFER_SIZE, " PRESET4");
 749              		.loc 1 660 2 view .LVU178
 750 002c 094A     		ldr	r2, .L63+12
 751 002e 2B46     		mov	r3, r5
 752 0030 07CA     		ldm	r2, {r0, r1, r2}
ARM GAS  /tmp/ccI0AsY7.s 			page 27


 753 0032 03C3     		stmia	r3!, {r0, r1}
 754 0034 2270     		strb	r2, [r4]
 661:display/ssd1306.c **** 	SSD1306_Puts (LCD_buff , &Font_11x17, SSD1306_COLOR_WHITE);
 755              		.loc 1 661 2 view .LVU179
 756 0036 0122     		movs	r2, #1
 757 0038 3146     		mov	r1, r6
 758 003a 2846     		mov	r0, r5
 759 003c FFF7FEFF 		bl	SSD1306_Puts
 760              	.LVL55:
 662:display/ssd1306.c **** 	SSD1306_UpdateScreen();
 761              		.loc 1 662 2 view .LVU180
 762 0040 FFF7FEFF 		bl	SSD1306_UpdateScreen
 763              	.LVL56:
 663:display/ssd1306.c **** }
 764              		.loc 1 663 1 is_stmt 0 view .LVU181
 765 0044 70BD     		pop	{r4, r5, r6, pc}
 766              	.L64:
 767 0046 00BF     		.align	2
 768              	.L63:
 769 0048 00000000 		.word	.LANCHOR2
 770 004c 00000000 		.word	.LC2
 771 0050 00000000 		.word	Font_11x17
 772 0054 0C000000 		.word	.LC3
 773              		.cfi_endproc
 774              	.LFE984:
 776              		.section	.rodata.preset4_screen.str1.4,"aMS",%progbits,1
 777              		.align	2
 778              	.LC4:
 779 0000 20505245 		.ascii	" PRESET3\000"
 779      53455433 
 779      00
 780 0009 000000   		.align	2
 781              	.LC5:
 782 000c 3E505245 		.ascii	">PRESET4\000"
 782      53455434 
 782      00
 783              		.section	.text.preset4_screen,"ax",%progbits
 784              		.align	1
 785              		.syntax unified
 786              		.thumb
 787              		.thumb_func
 789              	preset4_screen:
 790              	.LFB985:
 664:display/ssd1306.c **** 
 665:display/ssd1306.c **** //-----------------------------------------------------------------------------------------------//
 666:display/ssd1306.c **** static void preset4_screen (void)
 667:display/ssd1306.c **** {	
 791              		.loc 1 667 1 is_stmt 1 view -0
 792              		.cfi_startproc
 793              		@ args = 0, pretend = 0, frame = 0
 794              		@ frame_needed = 0, uses_anonymous_args = 0
 795 0000 70B5     		push	{r4, r5, r6, lr}
 796              	.LCFI7:
 797              		.cfi_def_cfa_offset 16
 798              		.cfi_offset 4, -16
 799              		.cfi_offset 5, -12
 800              		.cfi_offset 6, -8
ARM GAS  /tmp/ccI0AsY7.s 			page 28


 801              		.cfi_offset 14, -4
 668:display/ssd1306.c **** 	SSD1306_GotoXY(LCD_DEFAULT_X_SIZE, LCD_DEFAULT_Y_SIZE);
 802              		.loc 1 668 2 view .LVU183
 803 0002 0121     		movs	r1, #1
 804 0004 0020     		movs	r0, #0
 805 0006 FFF7FEFF 		bl	SSD1306_GotoXY
 806              	.LVL57:
 669:display/ssd1306.c **** 	snprintf ((char *)LCD_buff, LCD_BUFFER_SIZE, " PRESET3");
 807              		.loc 1 669 2 view .LVU184
 808 000a 0F4D     		ldr	r5, .L67
 809 000c 0F4B     		ldr	r3, .L67+4
 810 000e 2C46     		mov	r4, r5
 811 0010 93E80700 		ldm	r3, {r0, r1, r2}
 812 0014 03C4     		stmia	r4!, {r0, r1}
 813 0016 2270     		strb	r2, [r4]
 670:display/ssd1306.c **** 	SSD1306_Puts (LCD_buff , &Font_11x17, SSD1306_COLOR_WHITE);
 814              		.loc 1 670 2 view .LVU185
 815 0018 0D4E     		ldr	r6, .L67+8
 816 001a 0122     		movs	r2, #1
 817 001c 3146     		mov	r1, r6
 818 001e 2846     		mov	r0, r5
 819 0020 FFF7FEFF 		bl	SSD1306_Puts
 820              	.LVL58:
 671:display/ssd1306.c **** 	
 672:display/ssd1306.c **** 	SSD1306_GotoXY(LCD_DEFAULT_X_SIZE, LCD_DEFAULT_Y_SIZE+16);
 821              		.loc 1 672 2 view .LVU186
 822 0024 1121     		movs	r1, #17
 823 0026 0020     		movs	r0, #0
 824 0028 FFF7FEFF 		bl	SSD1306_GotoXY
 825              	.LVL59:
 673:display/ssd1306.c **** 	snprintf ((char *)LCD_buff, LCD_BUFFER_SIZE, ">PRESET4");
 826              		.loc 1 673 2 view .LVU187
 827 002c 094A     		ldr	r2, .L67+12
 828 002e 2B46     		mov	r3, r5
 829 0030 07CA     		ldm	r2, {r0, r1, r2}
 830 0032 03C3     		stmia	r3!, {r0, r1}
 831 0034 2270     		strb	r2, [r4]
 674:display/ssd1306.c **** 	SSD1306_Puts (LCD_buff , &Font_11x17, SSD1306_COLOR_WHITE);
 832              		.loc 1 674 2 view .LVU188
 833 0036 0122     		movs	r2, #1
 834 0038 3146     		mov	r1, r6
 835 003a 2846     		mov	r0, r5
 836 003c FFF7FEFF 		bl	SSD1306_Puts
 837              	.LVL60:
 675:display/ssd1306.c **** 	SSD1306_UpdateScreen();	
 838              		.loc 1 675 2 view .LVU189
 839 0040 FFF7FEFF 		bl	SSD1306_UpdateScreen
 840              	.LVL61:
 676:display/ssd1306.c **** }
 841              		.loc 1 676 1 is_stmt 0 view .LVU190
 842 0044 70BD     		pop	{r4, r5, r6, pc}
 843              	.L68:
 844 0046 00BF     		.align	2
 845              	.L67:
 846 0048 00000000 		.word	.LANCHOR2
 847 004c 00000000 		.word	.LC4
 848 0050 00000000 		.word	Font_11x17
ARM GAS  /tmp/ccI0AsY7.s 			page 29


 849 0054 0C000000 		.word	.LC5
 850              		.cfi_endproc
 851              	.LFE985:
 853              		.section	.rodata.preset1_screen.str1.4,"aMS",%progbits,1
 854              		.align	2
 855              	.LC6:
 856 0000 3E505245 		.ascii	">PRESET1\000"
 856      53455431 
 856      00
 857 0009 000000   		.align	2
 858              	.LC7:
 859 000c 20505245 		.ascii	" PRESET2\000"
 859      53455432 
 859      00
 860              		.section	.text.preset1_screen,"ax",%progbits
 861              		.align	1
 862              		.syntax unified
 863              		.thumb
 864              		.thumb_func
 866              	preset1_screen:
 867              	.LFB982:
 628:display/ssd1306.c **** 	SSD1306_GotoXY(LCD_DEFAULT_X_SIZE, LCD_DEFAULT_Y_SIZE);
 868              		.loc 1 628 1 is_stmt 1 view -0
 869              		.cfi_startproc
 870              		@ args = 0, pretend = 0, frame = 0
 871              		@ frame_needed = 0, uses_anonymous_args = 0
 872 0000 70B5     		push	{r4, r5, r6, lr}
 873              	.LCFI8:
 874              		.cfi_def_cfa_offset 16
 875              		.cfi_offset 4, -16
 876              		.cfi_offset 5, -12
 877              		.cfi_offset 6, -8
 878              		.cfi_offset 14, -4
 629:display/ssd1306.c **** 	snprintf ((char *)LCD_buff, LCD_BUFFER_SIZE, ">PRESET1");
 879              		.loc 1 629 2 view .LVU192
 880 0002 0121     		movs	r1, #1
 881 0004 0020     		movs	r0, #0
 882 0006 FFF7FEFF 		bl	SSD1306_GotoXY
 883              	.LVL62:
 630:display/ssd1306.c **** 	SSD1306_Puts (LCD_buff , &Font_11x17, SSD1306_COLOR_WHITE);
 884              		.loc 1 630 2 view .LVU193
 885 000a 0F4D     		ldr	r5, .L71
 886 000c 0F4B     		ldr	r3, .L71+4
 887 000e 2C46     		mov	r4, r5
 888 0010 93E80700 		ldm	r3, {r0, r1, r2}
 889 0014 03C4     		stmia	r4!, {r0, r1}
 890 0016 2270     		strb	r2, [r4]
 631:display/ssd1306.c **** 	
 891              		.loc 1 631 2 view .LVU194
 892 0018 0D4E     		ldr	r6, .L71+8
 893 001a 0122     		movs	r2, #1
 894 001c 3146     		mov	r1, r6
 895 001e 2846     		mov	r0, r5
 896 0020 FFF7FEFF 		bl	SSD1306_Puts
 897              	.LVL63:
 633:display/ssd1306.c **** 	snprintf ((char *)LCD_buff, LCD_BUFFER_SIZE, " PRESET2");
 898              		.loc 1 633 2 view .LVU195
ARM GAS  /tmp/ccI0AsY7.s 			page 30


 899 0024 1121     		movs	r1, #17
 900 0026 0020     		movs	r0, #0
 901 0028 FFF7FEFF 		bl	SSD1306_GotoXY
 902              	.LVL64:
 634:display/ssd1306.c **** 	SSD1306_Puts (LCD_buff , &Font_11x17, SSD1306_COLOR_WHITE);
 903              		.loc 1 634 2 view .LVU196
 904 002c 094A     		ldr	r2, .L71+12
 905 002e 2B46     		mov	r3, r5
 906 0030 07CA     		ldm	r2, {r0, r1, r2}
 907 0032 03C3     		stmia	r3!, {r0, r1}
 908 0034 2270     		strb	r2, [r4]
 635:display/ssd1306.c **** 	SSD1306_UpdateScreen();	
 909              		.loc 1 635 2 view .LVU197
 910 0036 0122     		movs	r2, #1
 911 0038 3146     		mov	r1, r6
 912 003a 2846     		mov	r0, r5
 913 003c FFF7FEFF 		bl	SSD1306_Puts
 914              	.LVL65:
 636:display/ssd1306.c **** }
 915              		.loc 1 636 2 view .LVU198
 916 0040 FFF7FEFF 		bl	SSD1306_UpdateScreen
 917              	.LVL66:
 637:display/ssd1306.c **** 
 918              		.loc 1 637 1 is_stmt 0 view .LVU199
 919 0044 70BD     		pop	{r4, r5, r6, pc}
 920              	.L72:
 921 0046 00BF     		.align	2
 922              	.L71:
 923 0048 00000000 		.word	.LANCHOR2
 924 004c 00000000 		.word	.LC6
 925 0050 00000000 		.word	Font_11x17
 926 0054 0C000000 		.word	.LC7
 927              		.cfi_endproc
 928              	.LFE982:
 930              		.section	.text.SSD1306_PageAdress,"ax",%progbits
 931              		.align	1
 932              		.global	SSD1306_PageAdress
 933              		.syntax unified
 934              		.thumb
 935              		.thumb_func
 937              	SSD1306_PageAdress:
 938              	.LVL67:
 939              	.LFB961:
 200:display/ssd1306.c **** 		CS(ON);
 940              		.loc 1 200 1 is_stmt 1 view -0
 941              		.cfi_startproc
 942              		@ args = 0, pretend = 0, frame = 0
 943              		@ frame_needed = 0, uses_anonymous_args = 0
 200:display/ssd1306.c **** 		CS(ON);
 944              		.loc 1 200 1 is_stmt 0 view .LVU201
 945 0000 08B5     		push	{r3, lr}
 946              	.LCFI9:
 947              		.cfi_def_cfa_offset 8
 948              		.cfi_offset 3, -8
 949              		.cfi_offset 14, -4
 201:display/ssd1306.c **** 		SSD1306_WRITECOMMAND(0xB0 + i); //–£—Å—Ç–∞–Ω–æ–≤–∫–∞ –±–∏—Ç–∞–º–∏ X[2:0] –∞–¥—Ä–µ—Å–∞ –Ω–∞—á–∞–ª—
 950              		.loc 1 201 3 is_stmt 1 view .LVU202
ARM GAS  /tmp/ccI0AsY7.s 			page 31


 951              	.LVL68:
 952              	.LBB12:
 953              	.LBI12:
 954              		.file 2 "Drivers/STM32F1xx_HAL_Driver/Inc/stm32f1xx_ll_gpio.h"
   1:Drivers/STM32F1xx_HAL_Driver/Inc/stm32f1xx_ll_gpio.h **** /**
   2:Drivers/STM32F1xx_HAL_Driver/Inc/stm32f1xx_ll_gpio.h ****   ******************************************************************************
   3:Drivers/STM32F1xx_HAL_Driver/Inc/stm32f1xx_ll_gpio.h ****   * @file    stm32f1xx_ll_gpio.h
   4:Drivers/STM32F1xx_HAL_Driver/Inc/stm32f1xx_ll_gpio.h ****   * @author  MCD Application Team
   5:Drivers/STM32F1xx_HAL_Driver/Inc/stm32f1xx_ll_gpio.h ****   * @brief   Header file of GPIO LL module.
   6:Drivers/STM32F1xx_HAL_Driver/Inc/stm32f1xx_ll_gpio.h ****   ******************************************************************************
   7:Drivers/STM32F1xx_HAL_Driver/Inc/stm32f1xx_ll_gpio.h ****   * @attention
   8:Drivers/STM32F1xx_HAL_Driver/Inc/stm32f1xx_ll_gpio.h ****   *
   9:Drivers/STM32F1xx_HAL_Driver/Inc/stm32f1xx_ll_gpio.h ****   * Copyright (c) 2016 STMicroelectronics.
  10:Drivers/STM32F1xx_HAL_Driver/Inc/stm32f1xx_ll_gpio.h ****   * All rights reserved.
  11:Drivers/STM32F1xx_HAL_Driver/Inc/stm32f1xx_ll_gpio.h ****   *
  12:Drivers/STM32F1xx_HAL_Driver/Inc/stm32f1xx_ll_gpio.h ****   * This software is licensed under terms that can be found in the LICENSE file
  13:Drivers/STM32F1xx_HAL_Driver/Inc/stm32f1xx_ll_gpio.h ****   * in the root directory of this software component.
  14:Drivers/STM32F1xx_HAL_Driver/Inc/stm32f1xx_ll_gpio.h ****   * If no LICENSE file comes with this software, it is provided AS-IS.
  15:Drivers/STM32F1xx_HAL_Driver/Inc/stm32f1xx_ll_gpio.h ****   *
  16:Drivers/STM32F1xx_HAL_Driver/Inc/stm32f1xx_ll_gpio.h ****   ******************************************************************************
  17:Drivers/STM32F1xx_HAL_Driver/Inc/stm32f1xx_ll_gpio.h ****   */
  18:Drivers/STM32F1xx_HAL_Driver/Inc/stm32f1xx_ll_gpio.h **** 
  19:Drivers/STM32F1xx_HAL_Driver/Inc/stm32f1xx_ll_gpio.h **** /* Define to prevent recursive inclusion -------------------------------------*/
  20:Drivers/STM32F1xx_HAL_Driver/Inc/stm32f1xx_ll_gpio.h **** #ifndef STM32F1xx_LL_GPIO_H
  21:Drivers/STM32F1xx_HAL_Driver/Inc/stm32f1xx_ll_gpio.h **** #define STM32F1xx_LL_GPIO_H
  22:Drivers/STM32F1xx_HAL_Driver/Inc/stm32f1xx_ll_gpio.h **** 
  23:Drivers/STM32F1xx_HAL_Driver/Inc/stm32f1xx_ll_gpio.h **** #ifdef __cplusplus
  24:Drivers/STM32F1xx_HAL_Driver/Inc/stm32f1xx_ll_gpio.h **** extern "C" {
  25:Drivers/STM32F1xx_HAL_Driver/Inc/stm32f1xx_ll_gpio.h **** #endif
  26:Drivers/STM32F1xx_HAL_Driver/Inc/stm32f1xx_ll_gpio.h **** 
  27:Drivers/STM32F1xx_HAL_Driver/Inc/stm32f1xx_ll_gpio.h **** /* Includes ------------------------------------------------------------------*/
  28:Drivers/STM32F1xx_HAL_Driver/Inc/stm32f1xx_ll_gpio.h **** #include "stm32f1xx.h"
  29:Drivers/STM32F1xx_HAL_Driver/Inc/stm32f1xx_ll_gpio.h **** 
  30:Drivers/STM32F1xx_HAL_Driver/Inc/stm32f1xx_ll_gpio.h **** /** @addtogroup STM32F1xx_LL_Driver
  31:Drivers/STM32F1xx_HAL_Driver/Inc/stm32f1xx_ll_gpio.h ****   * @{
  32:Drivers/STM32F1xx_HAL_Driver/Inc/stm32f1xx_ll_gpio.h ****   */
  33:Drivers/STM32F1xx_HAL_Driver/Inc/stm32f1xx_ll_gpio.h **** 
  34:Drivers/STM32F1xx_HAL_Driver/Inc/stm32f1xx_ll_gpio.h **** #if defined (GPIOA) || defined (GPIOB) || defined (GPIOC) || defined (GPIOD) || defined (GPIOE) || 
  35:Drivers/STM32F1xx_HAL_Driver/Inc/stm32f1xx_ll_gpio.h **** 
  36:Drivers/STM32F1xx_HAL_Driver/Inc/stm32f1xx_ll_gpio.h **** /** @defgroup GPIO_LL GPIO
  37:Drivers/STM32F1xx_HAL_Driver/Inc/stm32f1xx_ll_gpio.h ****   * @{
  38:Drivers/STM32F1xx_HAL_Driver/Inc/stm32f1xx_ll_gpio.h ****   */
  39:Drivers/STM32F1xx_HAL_Driver/Inc/stm32f1xx_ll_gpio.h **** 
  40:Drivers/STM32F1xx_HAL_Driver/Inc/stm32f1xx_ll_gpio.h **** /* Private types -------------------------------------------------------------*/
  41:Drivers/STM32F1xx_HAL_Driver/Inc/stm32f1xx_ll_gpio.h **** /* Private variables ---------------------------------------------------------*/
  42:Drivers/STM32F1xx_HAL_Driver/Inc/stm32f1xx_ll_gpio.h **** /* Private constants ---------------------------------------------------------*/
  43:Drivers/STM32F1xx_HAL_Driver/Inc/stm32f1xx_ll_gpio.h **** 
  44:Drivers/STM32F1xx_HAL_Driver/Inc/stm32f1xx_ll_gpio.h **** /** @defgroup GPIO_LL_Private_Constants GPIO Private Constants
  45:Drivers/STM32F1xx_HAL_Driver/Inc/stm32f1xx_ll_gpio.h ****   * @{
  46:Drivers/STM32F1xx_HAL_Driver/Inc/stm32f1xx_ll_gpio.h ****   */
  47:Drivers/STM32F1xx_HAL_Driver/Inc/stm32f1xx_ll_gpio.h **** /* Defines used for Pin Mask Initialization */
  48:Drivers/STM32F1xx_HAL_Driver/Inc/stm32f1xx_ll_gpio.h **** #define GPIO_PIN_MASK_POS   8U
  49:Drivers/STM32F1xx_HAL_Driver/Inc/stm32f1xx_ll_gpio.h **** #define GPIO_PIN_NB         16U
  50:Drivers/STM32F1xx_HAL_Driver/Inc/stm32f1xx_ll_gpio.h **** /**
  51:Drivers/STM32F1xx_HAL_Driver/Inc/stm32f1xx_ll_gpio.h ****   * @}
  52:Drivers/STM32F1xx_HAL_Driver/Inc/stm32f1xx_ll_gpio.h ****   */
  53:Drivers/STM32F1xx_HAL_Driver/Inc/stm32f1xx_ll_gpio.h **** 
ARM GAS  /tmp/ccI0AsY7.s 			page 32


  54:Drivers/STM32F1xx_HAL_Driver/Inc/stm32f1xx_ll_gpio.h **** /* Private macros ------------------------------------------------------------*/
  55:Drivers/STM32F1xx_HAL_Driver/Inc/stm32f1xx_ll_gpio.h **** #if defined(USE_FULL_LL_DRIVER)
  56:Drivers/STM32F1xx_HAL_Driver/Inc/stm32f1xx_ll_gpio.h **** /** @defgroup GPIO_LL_Private_Macros GPIO Private Macros
  57:Drivers/STM32F1xx_HAL_Driver/Inc/stm32f1xx_ll_gpio.h ****   * @{
  58:Drivers/STM32F1xx_HAL_Driver/Inc/stm32f1xx_ll_gpio.h ****   */
  59:Drivers/STM32F1xx_HAL_Driver/Inc/stm32f1xx_ll_gpio.h **** 
  60:Drivers/STM32F1xx_HAL_Driver/Inc/stm32f1xx_ll_gpio.h **** /**
  61:Drivers/STM32F1xx_HAL_Driver/Inc/stm32f1xx_ll_gpio.h ****   * @}
  62:Drivers/STM32F1xx_HAL_Driver/Inc/stm32f1xx_ll_gpio.h ****   */
  63:Drivers/STM32F1xx_HAL_Driver/Inc/stm32f1xx_ll_gpio.h **** #endif /*USE_FULL_LL_DRIVER*/
  64:Drivers/STM32F1xx_HAL_Driver/Inc/stm32f1xx_ll_gpio.h **** 
  65:Drivers/STM32F1xx_HAL_Driver/Inc/stm32f1xx_ll_gpio.h **** /* Exported types ------------------------------------------------------------*/
  66:Drivers/STM32F1xx_HAL_Driver/Inc/stm32f1xx_ll_gpio.h **** #if defined(USE_FULL_LL_DRIVER)
  67:Drivers/STM32F1xx_HAL_Driver/Inc/stm32f1xx_ll_gpio.h **** /** @defgroup GPIO_LL_ES_INIT GPIO Exported Init structures
  68:Drivers/STM32F1xx_HAL_Driver/Inc/stm32f1xx_ll_gpio.h ****   * @{
  69:Drivers/STM32F1xx_HAL_Driver/Inc/stm32f1xx_ll_gpio.h ****   */
  70:Drivers/STM32F1xx_HAL_Driver/Inc/stm32f1xx_ll_gpio.h **** 
  71:Drivers/STM32F1xx_HAL_Driver/Inc/stm32f1xx_ll_gpio.h **** /**
  72:Drivers/STM32F1xx_HAL_Driver/Inc/stm32f1xx_ll_gpio.h ****   * @brief LL GPIO Init Structure definition
  73:Drivers/STM32F1xx_HAL_Driver/Inc/stm32f1xx_ll_gpio.h ****   */
  74:Drivers/STM32F1xx_HAL_Driver/Inc/stm32f1xx_ll_gpio.h **** typedef struct
  75:Drivers/STM32F1xx_HAL_Driver/Inc/stm32f1xx_ll_gpio.h **** {
  76:Drivers/STM32F1xx_HAL_Driver/Inc/stm32f1xx_ll_gpio.h ****   uint32_t Pin;          /*!< Specifies the GPIO pins to be configured.
  77:Drivers/STM32F1xx_HAL_Driver/Inc/stm32f1xx_ll_gpio.h ****                               This parameter can be any value of @ref GPIO_LL_EC_PIN */
  78:Drivers/STM32F1xx_HAL_Driver/Inc/stm32f1xx_ll_gpio.h **** 
  79:Drivers/STM32F1xx_HAL_Driver/Inc/stm32f1xx_ll_gpio.h ****   uint32_t Mode;         /*!< Specifies the operating mode for the selected pins.
  80:Drivers/STM32F1xx_HAL_Driver/Inc/stm32f1xx_ll_gpio.h ****                               This parameter can be a value of @ref GPIO_LL_EC_MODE.
  81:Drivers/STM32F1xx_HAL_Driver/Inc/stm32f1xx_ll_gpio.h **** 
  82:Drivers/STM32F1xx_HAL_Driver/Inc/stm32f1xx_ll_gpio.h ****                               GPIO HW configuration can be modified afterwards using unitary functi
  83:Drivers/STM32F1xx_HAL_Driver/Inc/stm32f1xx_ll_gpio.h **** 
  84:Drivers/STM32F1xx_HAL_Driver/Inc/stm32f1xx_ll_gpio.h ****   uint32_t Speed;        /*!< Specifies the speed for the selected pins.
  85:Drivers/STM32F1xx_HAL_Driver/Inc/stm32f1xx_ll_gpio.h ****                               This parameter can be a value of @ref GPIO_LL_EC_SPEED.
  86:Drivers/STM32F1xx_HAL_Driver/Inc/stm32f1xx_ll_gpio.h **** 
  87:Drivers/STM32F1xx_HAL_Driver/Inc/stm32f1xx_ll_gpio.h ****                               GPIO HW configuration can be modified afterwards using unitary functi
  88:Drivers/STM32F1xx_HAL_Driver/Inc/stm32f1xx_ll_gpio.h **** 
  89:Drivers/STM32F1xx_HAL_Driver/Inc/stm32f1xx_ll_gpio.h ****   uint32_t OutputType;   /*!< Specifies the operating output type for the selected pins.
  90:Drivers/STM32F1xx_HAL_Driver/Inc/stm32f1xx_ll_gpio.h ****                               This parameter can be a value of @ref GPIO_LL_EC_OUTPUT.
  91:Drivers/STM32F1xx_HAL_Driver/Inc/stm32f1xx_ll_gpio.h **** 
  92:Drivers/STM32F1xx_HAL_Driver/Inc/stm32f1xx_ll_gpio.h ****                               GPIO HW configuration can be modified afterwards using unitary functi
  93:Drivers/STM32F1xx_HAL_Driver/Inc/stm32f1xx_ll_gpio.h **** 
  94:Drivers/STM32F1xx_HAL_Driver/Inc/stm32f1xx_ll_gpio.h ****   uint32_t Pull;         /*!< Specifies the operating Pull-up/Pull down for the selected pins.
  95:Drivers/STM32F1xx_HAL_Driver/Inc/stm32f1xx_ll_gpio.h ****                               This parameter can be a value of @ref GPIO_LL_EC_PULL.
  96:Drivers/STM32F1xx_HAL_Driver/Inc/stm32f1xx_ll_gpio.h **** 
  97:Drivers/STM32F1xx_HAL_Driver/Inc/stm32f1xx_ll_gpio.h ****                               GPIO HW configuration can be modified afterwards using unitary functi
  98:Drivers/STM32F1xx_HAL_Driver/Inc/stm32f1xx_ll_gpio.h **** } LL_GPIO_InitTypeDef;
  99:Drivers/STM32F1xx_HAL_Driver/Inc/stm32f1xx_ll_gpio.h **** 
 100:Drivers/STM32F1xx_HAL_Driver/Inc/stm32f1xx_ll_gpio.h **** /**
 101:Drivers/STM32F1xx_HAL_Driver/Inc/stm32f1xx_ll_gpio.h ****   * @}
 102:Drivers/STM32F1xx_HAL_Driver/Inc/stm32f1xx_ll_gpio.h ****   */
 103:Drivers/STM32F1xx_HAL_Driver/Inc/stm32f1xx_ll_gpio.h **** #endif /* USE_FULL_LL_DRIVER */
 104:Drivers/STM32F1xx_HAL_Driver/Inc/stm32f1xx_ll_gpio.h **** 
 105:Drivers/STM32F1xx_HAL_Driver/Inc/stm32f1xx_ll_gpio.h **** /* Exported constants --------------------------------------------------------*/
 106:Drivers/STM32F1xx_HAL_Driver/Inc/stm32f1xx_ll_gpio.h **** /** @defgroup GPIO_LL_Exported_Constants GPIO Exported Constants
 107:Drivers/STM32F1xx_HAL_Driver/Inc/stm32f1xx_ll_gpio.h ****   * @{
 108:Drivers/STM32F1xx_HAL_Driver/Inc/stm32f1xx_ll_gpio.h ****   */
 109:Drivers/STM32F1xx_HAL_Driver/Inc/stm32f1xx_ll_gpio.h **** 
 110:Drivers/STM32F1xx_HAL_Driver/Inc/stm32f1xx_ll_gpio.h **** /** @defgroup GPIO_LL_EC_PIN PIN
ARM GAS  /tmp/ccI0AsY7.s 			page 33


 111:Drivers/STM32F1xx_HAL_Driver/Inc/stm32f1xx_ll_gpio.h ****   * @{
 112:Drivers/STM32F1xx_HAL_Driver/Inc/stm32f1xx_ll_gpio.h ****   */
 113:Drivers/STM32F1xx_HAL_Driver/Inc/stm32f1xx_ll_gpio.h **** #define LL_GPIO_PIN_0                    ((GPIO_BSRR_BS0  << GPIO_PIN_MASK_POS) | 0x00000001U)  /*!
 114:Drivers/STM32F1xx_HAL_Driver/Inc/stm32f1xx_ll_gpio.h **** #define LL_GPIO_PIN_1                    ((GPIO_BSRR_BS1  << GPIO_PIN_MASK_POS) | 0x00000002U)  /*!
 115:Drivers/STM32F1xx_HAL_Driver/Inc/stm32f1xx_ll_gpio.h **** #define LL_GPIO_PIN_2                    ((GPIO_BSRR_BS2  << GPIO_PIN_MASK_POS) | 0x00000004U)  /*!
 116:Drivers/STM32F1xx_HAL_Driver/Inc/stm32f1xx_ll_gpio.h **** #define LL_GPIO_PIN_3                    ((GPIO_BSRR_BS3  << GPIO_PIN_MASK_POS) | 0x00000008U)  /*!
 117:Drivers/STM32F1xx_HAL_Driver/Inc/stm32f1xx_ll_gpio.h **** #define LL_GPIO_PIN_4                    ((GPIO_BSRR_BS4  << GPIO_PIN_MASK_POS) | 0x00000010U)  /*!
 118:Drivers/STM32F1xx_HAL_Driver/Inc/stm32f1xx_ll_gpio.h **** #define LL_GPIO_PIN_5                    ((GPIO_BSRR_BS5  << GPIO_PIN_MASK_POS) | 0x00000020U)  /*!
 119:Drivers/STM32F1xx_HAL_Driver/Inc/stm32f1xx_ll_gpio.h **** #define LL_GPIO_PIN_6                    ((GPIO_BSRR_BS6  << GPIO_PIN_MASK_POS) | 0x00000040U)  /*!
 120:Drivers/STM32F1xx_HAL_Driver/Inc/stm32f1xx_ll_gpio.h **** #define LL_GPIO_PIN_7                    ((GPIO_BSRR_BS7  << GPIO_PIN_MASK_POS) | 0x00000080U)  /*!
 121:Drivers/STM32F1xx_HAL_Driver/Inc/stm32f1xx_ll_gpio.h **** #define LL_GPIO_PIN_8                    ((GPIO_BSRR_BS8  << GPIO_PIN_MASK_POS) | 0x04000001U)  /*!
 122:Drivers/STM32F1xx_HAL_Driver/Inc/stm32f1xx_ll_gpio.h **** #define LL_GPIO_PIN_9                    ((GPIO_BSRR_BS9  << GPIO_PIN_MASK_POS) | 0x04000002U)  /*!
 123:Drivers/STM32F1xx_HAL_Driver/Inc/stm32f1xx_ll_gpio.h **** #define LL_GPIO_PIN_10                   ((GPIO_BSRR_BS10 << GPIO_PIN_MASK_POS) | 0x04000004U)  /*!
 124:Drivers/STM32F1xx_HAL_Driver/Inc/stm32f1xx_ll_gpio.h **** #define LL_GPIO_PIN_11                   ((GPIO_BSRR_BS11 << GPIO_PIN_MASK_POS) | 0x04000008U)  /*!
 125:Drivers/STM32F1xx_HAL_Driver/Inc/stm32f1xx_ll_gpio.h **** #define LL_GPIO_PIN_12                   ((GPIO_BSRR_BS12 << GPIO_PIN_MASK_POS) | 0x04000010U)  /*!
 126:Drivers/STM32F1xx_HAL_Driver/Inc/stm32f1xx_ll_gpio.h **** #define LL_GPIO_PIN_13                   ((GPIO_BSRR_BS13 << GPIO_PIN_MASK_POS) | 0x04000020U)  /*!
 127:Drivers/STM32F1xx_HAL_Driver/Inc/stm32f1xx_ll_gpio.h **** #define LL_GPIO_PIN_14                   ((GPIO_BSRR_BS14 << GPIO_PIN_MASK_POS) | 0x04000040U)  /*!
 128:Drivers/STM32F1xx_HAL_Driver/Inc/stm32f1xx_ll_gpio.h **** #define LL_GPIO_PIN_15                   ((GPIO_BSRR_BS15 << GPIO_PIN_MASK_POS) | 0x04000080U)  /*!
 129:Drivers/STM32F1xx_HAL_Driver/Inc/stm32f1xx_ll_gpio.h **** #define LL_GPIO_PIN_ALL                  (LL_GPIO_PIN_0  | LL_GPIO_PIN_1  | LL_GPIO_PIN_2  | \
 130:Drivers/STM32F1xx_HAL_Driver/Inc/stm32f1xx_ll_gpio.h ****                                           LL_GPIO_PIN_3  | LL_GPIO_PIN_4  | LL_GPIO_PIN_5  | \
 131:Drivers/STM32F1xx_HAL_Driver/Inc/stm32f1xx_ll_gpio.h ****                                           LL_GPIO_PIN_6  | LL_GPIO_PIN_7  | LL_GPIO_PIN_8  | \
 132:Drivers/STM32F1xx_HAL_Driver/Inc/stm32f1xx_ll_gpio.h ****                                           LL_GPIO_PIN_9  | LL_GPIO_PIN_10 | LL_GPIO_PIN_11 | \
 133:Drivers/STM32F1xx_HAL_Driver/Inc/stm32f1xx_ll_gpio.h ****                                           LL_GPIO_PIN_12 | LL_GPIO_PIN_13 | LL_GPIO_PIN_14 | \
 134:Drivers/STM32F1xx_HAL_Driver/Inc/stm32f1xx_ll_gpio.h ****                                           LL_GPIO_PIN_15)                                      /*!<
 135:Drivers/STM32F1xx_HAL_Driver/Inc/stm32f1xx_ll_gpio.h **** /**
 136:Drivers/STM32F1xx_HAL_Driver/Inc/stm32f1xx_ll_gpio.h ****   * @}
 137:Drivers/STM32F1xx_HAL_Driver/Inc/stm32f1xx_ll_gpio.h ****   */
 138:Drivers/STM32F1xx_HAL_Driver/Inc/stm32f1xx_ll_gpio.h **** 
 139:Drivers/STM32F1xx_HAL_Driver/Inc/stm32f1xx_ll_gpio.h **** /** @defgroup GPIO_LL_EC_MODE Mode
 140:Drivers/STM32F1xx_HAL_Driver/Inc/stm32f1xx_ll_gpio.h ****   * @{
 141:Drivers/STM32F1xx_HAL_Driver/Inc/stm32f1xx_ll_gpio.h ****   */
 142:Drivers/STM32F1xx_HAL_Driver/Inc/stm32f1xx_ll_gpio.h **** #define LL_GPIO_MODE_ANALOG              0x00000000U       /*!< Select analog mode */
 143:Drivers/STM32F1xx_HAL_Driver/Inc/stm32f1xx_ll_gpio.h **** #define LL_GPIO_MODE_FLOATING            GPIO_CRL_CNF0_0   /*!< Select floating mode */
 144:Drivers/STM32F1xx_HAL_Driver/Inc/stm32f1xx_ll_gpio.h **** #define LL_GPIO_MODE_INPUT               GPIO_CRL_CNF0_1   /*!< Select input mode */
 145:Drivers/STM32F1xx_HAL_Driver/Inc/stm32f1xx_ll_gpio.h **** #define LL_GPIO_MODE_OUTPUT              GPIO_CRL_MODE0_0  /*!< Select general purpose output mode 
 146:Drivers/STM32F1xx_HAL_Driver/Inc/stm32f1xx_ll_gpio.h **** #define LL_GPIO_MODE_ALTERNATE           (GPIO_CRL_CNF0_1 | GPIO_CRL_MODE0_0) /*!< Select alternate
 147:Drivers/STM32F1xx_HAL_Driver/Inc/stm32f1xx_ll_gpio.h **** /**
 148:Drivers/STM32F1xx_HAL_Driver/Inc/stm32f1xx_ll_gpio.h ****   * @}
 149:Drivers/STM32F1xx_HAL_Driver/Inc/stm32f1xx_ll_gpio.h ****   */
 150:Drivers/STM32F1xx_HAL_Driver/Inc/stm32f1xx_ll_gpio.h **** 
 151:Drivers/STM32F1xx_HAL_Driver/Inc/stm32f1xx_ll_gpio.h **** /** @defgroup GPIO_LL_EC_OUTPUT Output Type
 152:Drivers/STM32F1xx_HAL_Driver/Inc/stm32f1xx_ll_gpio.h ****   * @{
 153:Drivers/STM32F1xx_HAL_Driver/Inc/stm32f1xx_ll_gpio.h ****   */
 154:Drivers/STM32F1xx_HAL_Driver/Inc/stm32f1xx_ll_gpio.h **** #define LL_GPIO_OUTPUT_PUSHPULL          0x00000000U                /*!< Select push-pull as output
 155:Drivers/STM32F1xx_HAL_Driver/Inc/stm32f1xx_ll_gpio.h **** #define LL_GPIO_OUTPUT_OPENDRAIN         GPIO_CRL_CNF0_0            /*!< Select open-drain as outpu
 156:Drivers/STM32F1xx_HAL_Driver/Inc/stm32f1xx_ll_gpio.h **** /**
 157:Drivers/STM32F1xx_HAL_Driver/Inc/stm32f1xx_ll_gpio.h ****   * @}
 158:Drivers/STM32F1xx_HAL_Driver/Inc/stm32f1xx_ll_gpio.h ****   */
 159:Drivers/STM32F1xx_HAL_Driver/Inc/stm32f1xx_ll_gpio.h **** 
 160:Drivers/STM32F1xx_HAL_Driver/Inc/stm32f1xx_ll_gpio.h **** /** @defgroup GPIO_LL_EC_SPEED Output Speed
 161:Drivers/STM32F1xx_HAL_Driver/Inc/stm32f1xx_ll_gpio.h ****   * @{
 162:Drivers/STM32F1xx_HAL_Driver/Inc/stm32f1xx_ll_gpio.h ****   */
 163:Drivers/STM32F1xx_HAL_Driver/Inc/stm32f1xx_ll_gpio.h **** #define LL_GPIO_MODE_OUTPUT_10MHz        GPIO_CRL_MODE0_0            /*!< Select Output mode, max s
 164:Drivers/STM32F1xx_HAL_Driver/Inc/stm32f1xx_ll_gpio.h **** #define LL_GPIO_MODE_OUTPUT_2MHz         GPIO_CRL_MODE0_1            /*!< Select Output mode, max s
 165:Drivers/STM32F1xx_HAL_Driver/Inc/stm32f1xx_ll_gpio.h **** #define LL_GPIO_MODE_OUTPUT_50MHz        GPIO_CRL_MODE0              /*!< Select Output mode, max s
 166:Drivers/STM32F1xx_HAL_Driver/Inc/stm32f1xx_ll_gpio.h **** /**
 167:Drivers/STM32F1xx_HAL_Driver/Inc/stm32f1xx_ll_gpio.h ****   * @}
ARM GAS  /tmp/ccI0AsY7.s 			page 34


 168:Drivers/STM32F1xx_HAL_Driver/Inc/stm32f1xx_ll_gpio.h ****   */
 169:Drivers/STM32F1xx_HAL_Driver/Inc/stm32f1xx_ll_gpio.h **** 
 170:Drivers/STM32F1xx_HAL_Driver/Inc/stm32f1xx_ll_gpio.h **** #define LL_GPIO_SPEED_FREQ_LOW           LL_GPIO_MODE_OUTPUT_2MHz    /*!< Select I/O low output spe
 171:Drivers/STM32F1xx_HAL_Driver/Inc/stm32f1xx_ll_gpio.h **** #define LL_GPIO_SPEED_FREQ_MEDIUM        LL_GPIO_MODE_OUTPUT_10MHz   /*!< Select I/O medium output 
 172:Drivers/STM32F1xx_HAL_Driver/Inc/stm32f1xx_ll_gpio.h **** #define LL_GPIO_SPEED_FREQ_HIGH          LL_GPIO_MODE_OUTPUT_50MHz   /*!< Select I/O high output sp
 173:Drivers/STM32F1xx_HAL_Driver/Inc/stm32f1xx_ll_gpio.h **** 
 174:Drivers/STM32F1xx_HAL_Driver/Inc/stm32f1xx_ll_gpio.h **** /** @defgroup GPIO_LL_EC_PULL Pull Up Pull Down
 175:Drivers/STM32F1xx_HAL_Driver/Inc/stm32f1xx_ll_gpio.h ****   * @{
 176:Drivers/STM32F1xx_HAL_Driver/Inc/stm32f1xx_ll_gpio.h ****   */
 177:Drivers/STM32F1xx_HAL_Driver/Inc/stm32f1xx_ll_gpio.h **** #define LL_GPIO_PULL_DOWN                0x00000000U    /*!< Select I/O pull down */
 178:Drivers/STM32F1xx_HAL_Driver/Inc/stm32f1xx_ll_gpio.h **** #define LL_GPIO_PULL_UP                  GPIO_ODR_ODR0  /*!< Select I/O pull up */
 179:Drivers/STM32F1xx_HAL_Driver/Inc/stm32f1xx_ll_gpio.h **** 
 180:Drivers/STM32F1xx_HAL_Driver/Inc/stm32f1xx_ll_gpio.h **** /**
 181:Drivers/STM32F1xx_HAL_Driver/Inc/stm32f1xx_ll_gpio.h ****   * @}
 182:Drivers/STM32F1xx_HAL_Driver/Inc/stm32f1xx_ll_gpio.h ****   */
 183:Drivers/STM32F1xx_HAL_Driver/Inc/stm32f1xx_ll_gpio.h **** 
 184:Drivers/STM32F1xx_HAL_Driver/Inc/stm32f1xx_ll_gpio.h **** /** @defgroup GPIO_LL_EVENTOUT_PIN EVENTOUT Pin
 185:Drivers/STM32F1xx_HAL_Driver/Inc/stm32f1xx_ll_gpio.h ****   * @{
 186:Drivers/STM32F1xx_HAL_Driver/Inc/stm32f1xx_ll_gpio.h ****   */
 187:Drivers/STM32F1xx_HAL_Driver/Inc/stm32f1xx_ll_gpio.h **** 
 188:Drivers/STM32F1xx_HAL_Driver/Inc/stm32f1xx_ll_gpio.h **** #define LL_GPIO_AF_EVENTOUT_PIN_0        AFIO_EVCR_PIN_PX0   /*!< EVENTOUT on pin 0 */
 189:Drivers/STM32F1xx_HAL_Driver/Inc/stm32f1xx_ll_gpio.h **** #define LL_GPIO_AF_EVENTOUT_PIN_1        AFIO_EVCR_PIN_PX1   /*!< EVENTOUT on pin 1 */
 190:Drivers/STM32F1xx_HAL_Driver/Inc/stm32f1xx_ll_gpio.h **** #define LL_GPIO_AF_EVENTOUT_PIN_2        AFIO_EVCR_PIN_PX2   /*!< EVENTOUT on pin 2 */
 191:Drivers/STM32F1xx_HAL_Driver/Inc/stm32f1xx_ll_gpio.h **** #define LL_GPIO_AF_EVENTOUT_PIN_3        AFIO_EVCR_PIN_PX3   /*!< EVENTOUT on pin 3 */
 192:Drivers/STM32F1xx_HAL_Driver/Inc/stm32f1xx_ll_gpio.h **** #define LL_GPIO_AF_EVENTOUT_PIN_4        AFIO_EVCR_PIN_PX4   /*!< EVENTOUT on pin 4 */
 193:Drivers/STM32F1xx_HAL_Driver/Inc/stm32f1xx_ll_gpio.h **** #define LL_GPIO_AF_EVENTOUT_PIN_5        AFIO_EVCR_PIN_PX5   /*!< EVENTOUT on pin 5 */
 194:Drivers/STM32F1xx_HAL_Driver/Inc/stm32f1xx_ll_gpio.h **** #define LL_GPIO_AF_EVENTOUT_PIN_6        AFIO_EVCR_PIN_PX6   /*!< EVENTOUT on pin 6 */
 195:Drivers/STM32F1xx_HAL_Driver/Inc/stm32f1xx_ll_gpio.h **** #define LL_GPIO_AF_EVENTOUT_PIN_7        AFIO_EVCR_PIN_PX7   /*!< EVENTOUT on pin 7 */
 196:Drivers/STM32F1xx_HAL_Driver/Inc/stm32f1xx_ll_gpio.h **** #define LL_GPIO_AF_EVENTOUT_PIN_8        AFIO_EVCR_PIN_PX8   /*!< EVENTOUT on pin 8 */
 197:Drivers/STM32F1xx_HAL_Driver/Inc/stm32f1xx_ll_gpio.h **** #define LL_GPIO_AF_EVENTOUT_PIN_9        AFIO_EVCR_PIN_PX9   /*!< EVENTOUT on pin 9 */
 198:Drivers/STM32F1xx_HAL_Driver/Inc/stm32f1xx_ll_gpio.h **** #define LL_GPIO_AF_EVENTOUT_PIN_10       AFIO_EVCR_PIN_PX10  /*!< EVENTOUT on pin 10 */
 199:Drivers/STM32F1xx_HAL_Driver/Inc/stm32f1xx_ll_gpio.h **** #define LL_GPIO_AF_EVENTOUT_PIN_11       AFIO_EVCR_PIN_PX11  /*!< EVENTOUT on pin 11 */
 200:Drivers/STM32F1xx_HAL_Driver/Inc/stm32f1xx_ll_gpio.h **** #define LL_GPIO_AF_EVENTOUT_PIN_12       AFIO_EVCR_PIN_PX12  /*!< EVENTOUT on pin 12 */
 201:Drivers/STM32F1xx_HAL_Driver/Inc/stm32f1xx_ll_gpio.h **** #define LL_GPIO_AF_EVENTOUT_PIN_13       AFIO_EVCR_PIN_PX13  /*!< EVENTOUT on pin 13 */
 202:Drivers/STM32F1xx_HAL_Driver/Inc/stm32f1xx_ll_gpio.h **** #define LL_GPIO_AF_EVENTOUT_PIN_14       AFIO_EVCR_PIN_PX14  /*!< EVENTOUT on pin 14 */
 203:Drivers/STM32F1xx_HAL_Driver/Inc/stm32f1xx_ll_gpio.h **** #define LL_GPIO_AF_EVENTOUT_PIN_15       AFIO_EVCR_PIN_PX15  /*!< EVENTOUT on pin 15 */
 204:Drivers/STM32F1xx_HAL_Driver/Inc/stm32f1xx_ll_gpio.h **** 
 205:Drivers/STM32F1xx_HAL_Driver/Inc/stm32f1xx_ll_gpio.h **** /**
 206:Drivers/STM32F1xx_HAL_Driver/Inc/stm32f1xx_ll_gpio.h ****   * @}
 207:Drivers/STM32F1xx_HAL_Driver/Inc/stm32f1xx_ll_gpio.h ****   */
 208:Drivers/STM32F1xx_HAL_Driver/Inc/stm32f1xx_ll_gpio.h **** 
 209:Drivers/STM32F1xx_HAL_Driver/Inc/stm32f1xx_ll_gpio.h **** /** @defgroup GPIO_LL_EVENTOUT_PORT EVENTOUT Port
 210:Drivers/STM32F1xx_HAL_Driver/Inc/stm32f1xx_ll_gpio.h ****   * @{
 211:Drivers/STM32F1xx_HAL_Driver/Inc/stm32f1xx_ll_gpio.h ****   */
 212:Drivers/STM32F1xx_HAL_Driver/Inc/stm32f1xx_ll_gpio.h **** 
 213:Drivers/STM32F1xx_HAL_Driver/Inc/stm32f1xx_ll_gpio.h **** #define LL_GPIO_AF_EVENTOUT_PORT_A       AFIO_EVCR_PORT_PA  /*!< EVENTOUT on port A */
 214:Drivers/STM32F1xx_HAL_Driver/Inc/stm32f1xx_ll_gpio.h **** #define LL_GPIO_AF_EVENTOUT_PORT_B       AFIO_EVCR_PORT_PB  /*!< EVENTOUT on port B */
 215:Drivers/STM32F1xx_HAL_Driver/Inc/stm32f1xx_ll_gpio.h **** #define LL_GPIO_AF_EVENTOUT_PORT_C       AFIO_EVCR_PORT_PC  /*!< EVENTOUT on port C */
 216:Drivers/STM32F1xx_HAL_Driver/Inc/stm32f1xx_ll_gpio.h **** #define LL_GPIO_AF_EVENTOUT_PORT_D       AFIO_EVCR_PORT_PD  /*!< EVENTOUT on port D */
 217:Drivers/STM32F1xx_HAL_Driver/Inc/stm32f1xx_ll_gpio.h **** #define LL_GPIO_AF_EVENTOUT_PORT_E       AFIO_EVCR_PORT_PE  /*!< EVENTOUT on port E */
 218:Drivers/STM32F1xx_HAL_Driver/Inc/stm32f1xx_ll_gpio.h **** 
 219:Drivers/STM32F1xx_HAL_Driver/Inc/stm32f1xx_ll_gpio.h **** /**
 220:Drivers/STM32F1xx_HAL_Driver/Inc/stm32f1xx_ll_gpio.h ****   * @}
 221:Drivers/STM32F1xx_HAL_Driver/Inc/stm32f1xx_ll_gpio.h ****   */
 222:Drivers/STM32F1xx_HAL_Driver/Inc/stm32f1xx_ll_gpio.h **** 
 223:Drivers/STM32F1xx_HAL_Driver/Inc/stm32f1xx_ll_gpio.h **** /** @defgroup GPIO_LL_EC_EXTI_PORT GPIO EXTI PORT
 224:Drivers/STM32F1xx_HAL_Driver/Inc/stm32f1xx_ll_gpio.h ****   * @{
ARM GAS  /tmp/ccI0AsY7.s 			page 35


 225:Drivers/STM32F1xx_HAL_Driver/Inc/stm32f1xx_ll_gpio.h ****   */
 226:Drivers/STM32F1xx_HAL_Driver/Inc/stm32f1xx_ll_gpio.h **** #define LL_GPIO_AF_EXTI_PORTA            0U   /*!< EXTI PORT A */
 227:Drivers/STM32F1xx_HAL_Driver/Inc/stm32f1xx_ll_gpio.h **** #define LL_GPIO_AF_EXTI_PORTB            1U   /*!< EXTI PORT B */
 228:Drivers/STM32F1xx_HAL_Driver/Inc/stm32f1xx_ll_gpio.h **** #define LL_GPIO_AF_EXTI_PORTC            2U   /*!< EXTI PORT C */
 229:Drivers/STM32F1xx_HAL_Driver/Inc/stm32f1xx_ll_gpio.h **** #define LL_GPIO_AF_EXTI_PORTD            3U   /*!< EXTI PORT D */
 230:Drivers/STM32F1xx_HAL_Driver/Inc/stm32f1xx_ll_gpio.h **** #define LL_GPIO_AF_EXTI_PORTE            4U   /*!< EXTI PORT E */
 231:Drivers/STM32F1xx_HAL_Driver/Inc/stm32f1xx_ll_gpio.h **** #define LL_GPIO_AF_EXTI_PORTF            5U   /*!< EXTI PORT F */
 232:Drivers/STM32F1xx_HAL_Driver/Inc/stm32f1xx_ll_gpio.h **** #define LL_GPIO_AF_EXTI_PORTG            6U   /*!< EXTI PORT G */
 233:Drivers/STM32F1xx_HAL_Driver/Inc/stm32f1xx_ll_gpio.h **** /**
 234:Drivers/STM32F1xx_HAL_Driver/Inc/stm32f1xx_ll_gpio.h ****   * @}
 235:Drivers/STM32F1xx_HAL_Driver/Inc/stm32f1xx_ll_gpio.h ****   */
 236:Drivers/STM32F1xx_HAL_Driver/Inc/stm32f1xx_ll_gpio.h **** 
 237:Drivers/STM32F1xx_HAL_Driver/Inc/stm32f1xx_ll_gpio.h **** /** @defgroup GPIO_LL_EC_EXTI_LINE GPIO EXTI LINE
 238:Drivers/STM32F1xx_HAL_Driver/Inc/stm32f1xx_ll_gpio.h ****   * @{
 239:Drivers/STM32F1xx_HAL_Driver/Inc/stm32f1xx_ll_gpio.h ****   */
 240:Drivers/STM32F1xx_HAL_Driver/Inc/stm32f1xx_ll_gpio.h **** #define LL_GPIO_AF_EXTI_LINE0            (0x000FU << 16U | 0U)  /*!< EXTI_POSITION_0  | EXTICR[0] *
 241:Drivers/STM32F1xx_HAL_Driver/Inc/stm32f1xx_ll_gpio.h **** #define LL_GPIO_AF_EXTI_LINE1            (0x00F0U << 16U | 0U)  /*!< EXTI_POSITION_4  | EXTICR[0] *
 242:Drivers/STM32F1xx_HAL_Driver/Inc/stm32f1xx_ll_gpio.h **** #define LL_GPIO_AF_EXTI_LINE2            (0x0F00U << 16U | 0U)  /*!< EXTI_POSITION_8  | EXTICR[0] *
 243:Drivers/STM32F1xx_HAL_Driver/Inc/stm32f1xx_ll_gpio.h **** #define LL_GPIO_AF_EXTI_LINE3            (0xF000U << 16U | 0U)  /*!< EXTI_POSITION_12 | EXTICR[0] *
 244:Drivers/STM32F1xx_HAL_Driver/Inc/stm32f1xx_ll_gpio.h **** #define LL_GPIO_AF_EXTI_LINE4            (0x000FU << 16U | 1U)  /*!< EXTI_POSITION_0  | EXTICR[1] *
 245:Drivers/STM32F1xx_HAL_Driver/Inc/stm32f1xx_ll_gpio.h **** #define LL_GPIO_AF_EXTI_LINE5            (0x00F0U << 16U | 1U)  /*!< EXTI_POSITION_4  | EXTICR[1] *
 246:Drivers/STM32F1xx_HAL_Driver/Inc/stm32f1xx_ll_gpio.h **** #define LL_GPIO_AF_EXTI_LINE6            (0x0F00U << 16U | 1U)  /*!< EXTI_POSITION_8  | EXTICR[1] *
 247:Drivers/STM32F1xx_HAL_Driver/Inc/stm32f1xx_ll_gpio.h **** #define LL_GPIO_AF_EXTI_LINE7            (0xF000U << 16U | 1U)  /*!< EXTI_POSITION_12 | EXTICR[1] *
 248:Drivers/STM32F1xx_HAL_Driver/Inc/stm32f1xx_ll_gpio.h **** #define LL_GPIO_AF_EXTI_LINE8            (0x000FU << 16U | 2U)  /*!< EXTI_POSITION_0  | EXTICR[2] *
 249:Drivers/STM32F1xx_HAL_Driver/Inc/stm32f1xx_ll_gpio.h **** #define LL_GPIO_AF_EXTI_LINE9            (0x00F0U << 16U | 2U)  /*!< EXTI_POSITION_4  | EXTICR[2] *
 250:Drivers/STM32F1xx_HAL_Driver/Inc/stm32f1xx_ll_gpio.h **** #define LL_GPIO_AF_EXTI_LINE10           (0x0F00U << 16U | 2U)  /*!< EXTI_POSITION_8  | EXTICR[2] *
 251:Drivers/STM32F1xx_HAL_Driver/Inc/stm32f1xx_ll_gpio.h **** #define LL_GPIO_AF_EXTI_LINE11           (0xF000U << 16U | 2U)  /*!< EXTI_POSITION_12 | EXTICR[2] *
 252:Drivers/STM32F1xx_HAL_Driver/Inc/stm32f1xx_ll_gpio.h **** #define LL_GPIO_AF_EXTI_LINE12           (0x000FU << 16U | 3U)  /*!< EXTI_POSITION_0  | EXTICR[3] *
 253:Drivers/STM32F1xx_HAL_Driver/Inc/stm32f1xx_ll_gpio.h **** #define LL_GPIO_AF_EXTI_LINE13           (0x00F0U << 16U | 3U)  /*!< EXTI_POSITION_4  | EXTICR[3] *
 254:Drivers/STM32F1xx_HAL_Driver/Inc/stm32f1xx_ll_gpio.h **** #define LL_GPIO_AF_EXTI_LINE14           (0x0F00U << 16U | 3U)  /*!< EXTI_POSITION_8  | EXTICR[3] *
 255:Drivers/STM32F1xx_HAL_Driver/Inc/stm32f1xx_ll_gpio.h **** #define LL_GPIO_AF_EXTI_LINE15           (0xF000U << 16U | 3U)  /*!< EXTI_POSITION_12 | EXTICR[3] *
 256:Drivers/STM32F1xx_HAL_Driver/Inc/stm32f1xx_ll_gpio.h **** /**
 257:Drivers/STM32F1xx_HAL_Driver/Inc/stm32f1xx_ll_gpio.h ****   * @}
 258:Drivers/STM32F1xx_HAL_Driver/Inc/stm32f1xx_ll_gpio.h ****   */
 259:Drivers/STM32F1xx_HAL_Driver/Inc/stm32f1xx_ll_gpio.h **** 
 260:Drivers/STM32F1xx_HAL_Driver/Inc/stm32f1xx_ll_gpio.h **** /**
 261:Drivers/STM32F1xx_HAL_Driver/Inc/stm32f1xx_ll_gpio.h ****   * @}
 262:Drivers/STM32F1xx_HAL_Driver/Inc/stm32f1xx_ll_gpio.h ****   */
 263:Drivers/STM32F1xx_HAL_Driver/Inc/stm32f1xx_ll_gpio.h **** 
 264:Drivers/STM32F1xx_HAL_Driver/Inc/stm32f1xx_ll_gpio.h **** /* Exported macro ------------------------------------------------------------*/
 265:Drivers/STM32F1xx_HAL_Driver/Inc/stm32f1xx_ll_gpio.h **** /** @defgroup GPIO_LL_Exported_Macros GPIO Exported Macros
 266:Drivers/STM32F1xx_HAL_Driver/Inc/stm32f1xx_ll_gpio.h ****   * @{
 267:Drivers/STM32F1xx_HAL_Driver/Inc/stm32f1xx_ll_gpio.h ****   */
 268:Drivers/STM32F1xx_HAL_Driver/Inc/stm32f1xx_ll_gpio.h **** 
 269:Drivers/STM32F1xx_HAL_Driver/Inc/stm32f1xx_ll_gpio.h **** /** @defgroup GPIO_LL_EM_WRITE_READ Common Write and read registers Macros
 270:Drivers/STM32F1xx_HAL_Driver/Inc/stm32f1xx_ll_gpio.h ****   * @{
 271:Drivers/STM32F1xx_HAL_Driver/Inc/stm32f1xx_ll_gpio.h ****   */
 272:Drivers/STM32F1xx_HAL_Driver/Inc/stm32f1xx_ll_gpio.h **** 
 273:Drivers/STM32F1xx_HAL_Driver/Inc/stm32f1xx_ll_gpio.h **** /**
 274:Drivers/STM32F1xx_HAL_Driver/Inc/stm32f1xx_ll_gpio.h ****   * @brief  Write a value in GPIO register
 275:Drivers/STM32F1xx_HAL_Driver/Inc/stm32f1xx_ll_gpio.h ****   * @param  __INSTANCE__ GPIO Instance
 276:Drivers/STM32F1xx_HAL_Driver/Inc/stm32f1xx_ll_gpio.h ****   * @param  __REG__ Register to be written
 277:Drivers/STM32F1xx_HAL_Driver/Inc/stm32f1xx_ll_gpio.h ****   * @param  __VALUE__ Value to be written in the register
 278:Drivers/STM32F1xx_HAL_Driver/Inc/stm32f1xx_ll_gpio.h ****   * @retval None
 279:Drivers/STM32F1xx_HAL_Driver/Inc/stm32f1xx_ll_gpio.h ****   */
 280:Drivers/STM32F1xx_HAL_Driver/Inc/stm32f1xx_ll_gpio.h **** #define LL_GPIO_WriteReg(__INSTANCE__, __REG__, __VALUE__) WRITE_REG(__INSTANCE__->__REG__, (__VALU
 281:Drivers/STM32F1xx_HAL_Driver/Inc/stm32f1xx_ll_gpio.h **** 
ARM GAS  /tmp/ccI0AsY7.s 			page 36


 282:Drivers/STM32F1xx_HAL_Driver/Inc/stm32f1xx_ll_gpio.h **** /**
 283:Drivers/STM32F1xx_HAL_Driver/Inc/stm32f1xx_ll_gpio.h ****   * @brief  Read a value in GPIO register
 284:Drivers/STM32F1xx_HAL_Driver/Inc/stm32f1xx_ll_gpio.h ****   * @param  __INSTANCE__ GPIO Instance
 285:Drivers/STM32F1xx_HAL_Driver/Inc/stm32f1xx_ll_gpio.h ****   * @param  __REG__ Register to be read
 286:Drivers/STM32F1xx_HAL_Driver/Inc/stm32f1xx_ll_gpio.h ****   * @retval Register value
 287:Drivers/STM32F1xx_HAL_Driver/Inc/stm32f1xx_ll_gpio.h ****   */
 288:Drivers/STM32F1xx_HAL_Driver/Inc/stm32f1xx_ll_gpio.h **** #define LL_GPIO_ReadReg(__INSTANCE__, __REG__) READ_REG(__INSTANCE__->__REG__)
 289:Drivers/STM32F1xx_HAL_Driver/Inc/stm32f1xx_ll_gpio.h **** /**
 290:Drivers/STM32F1xx_HAL_Driver/Inc/stm32f1xx_ll_gpio.h ****   * @}
 291:Drivers/STM32F1xx_HAL_Driver/Inc/stm32f1xx_ll_gpio.h ****   */
 292:Drivers/STM32F1xx_HAL_Driver/Inc/stm32f1xx_ll_gpio.h **** 
 293:Drivers/STM32F1xx_HAL_Driver/Inc/stm32f1xx_ll_gpio.h **** /**
 294:Drivers/STM32F1xx_HAL_Driver/Inc/stm32f1xx_ll_gpio.h ****   * @}
 295:Drivers/STM32F1xx_HAL_Driver/Inc/stm32f1xx_ll_gpio.h ****   */
 296:Drivers/STM32F1xx_HAL_Driver/Inc/stm32f1xx_ll_gpio.h **** 
 297:Drivers/STM32F1xx_HAL_Driver/Inc/stm32f1xx_ll_gpio.h **** /* Exported functions --------------------------------------------------------*/
 298:Drivers/STM32F1xx_HAL_Driver/Inc/stm32f1xx_ll_gpio.h **** /** @defgroup GPIO_LL_Exported_Functions GPIO Exported Functions
 299:Drivers/STM32F1xx_HAL_Driver/Inc/stm32f1xx_ll_gpio.h ****   * @{
 300:Drivers/STM32F1xx_HAL_Driver/Inc/stm32f1xx_ll_gpio.h ****   */
 301:Drivers/STM32F1xx_HAL_Driver/Inc/stm32f1xx_ll_gpio.h **** 
 302:Drivers/STM32F1xx_HAL_Driver/Inc/stm32f1xx_ll_gpio.h **** /** @defgroup GPIO_LL_EF_Port_Configuration Port Configuration
 303:Drivers/STM32F1xx_HAL_Driver/Inc/stm32f1xx_ll_gpio.h ****   * @{
 304:Drivers/STM32F1xx_HAL_Driver/Inc/stm32f1xx_ll_gpio.h ****   */
 305:Drivers/STM32F1xx_HAL_Driver/Inc/stm32f1xx_ll_gpio.h **** 
 306:Drivers/STM32F1xx_HAL_Driver/Inc/stm32f1xx_ll_gpio.h **** /**
 307:Drivers/STM32F1xx_HAL_Driver/Inc/stm32f1xx_ll_gpio.h ****   * @brief  Configure gpio mode for a dedicated pin on dedicated port.
 308:Drivers/STM32F1xx_HAL_Driver/Inc/stm32f1xx_ll_gpio.h ****   * @note   I/O mode can be Analog, Floating input, Input with pull-up/pull-down, General purpose O
 309:Drivers/STM32F1xx_HAL_Driver/Inc/stm32f1xx_ll_gpio.h ****   *         Alternate function Output.
 310:Drivers/STM32F1xx_HAL_Driver/Inc/stm32f1xx_ll_gpio.h ****   * @note   Warning: only one pin can be passed as parameter.
 311:Drivers/STM32F1xx_HAL_Driver/Inc/stm32f1xx_ll_gpio.h ****   * @rmtoll CRL        CNFy         LL_GPIO_SetPinMode
 312:Drivers/STM32F1xx_HAL_Driver/Inc/stm32f1xx_ll_gpio.h ****   * @rmtoll CRL        MODEy        LL_GPIO_SetPinMode
 313:Drivers/STM32F1xx_HAL_Driver/Inc/stm32f1xx_ll_gpio.h ****   * @rmtoll CRH        CNFy         LL_GPIO_SetPinMode
 314:Drivers/STM32F1xx_HAL_Driver/Inc/stm32f1xx_ll_gpio.h ****   * @rmtoll CRH        MODEy        LL_GPIO_SetPinMode
 315:Drivers/STM32F1xx_HAL_Driver/Inc/stm32f1xx_ll_gpio.h ****   * @param  GPIOx GPIO Port
 316:Drivers/STM32F1xx_HAL_Driver/Inc/stm32f1xx_ll_gpio.h ****   * @param  Pin This parameter can be one of the following values:
 317:Drivers/STM32F1xx_HAL_Driver/Inc/stm32f1xx_ll_gpio.h ****   *         @arg @ref LL_GPIO_PIN_0
 318:Drivers/STM32F1xx_HAL_Driver/Inc/stm32f1xx_ll_gpio.h ****   *         @arg @ref LL_GPIO_PIN_1
 319:Drivers/STM32F1xx_HAL_Driver/Inc/stm32f1xx_ll_gpio.h ****   *         @arg @ref LL_GPIO_PIN_2
 320:Drivers/STM32F1xx_HAL_Driver/Inc/stm32f1xx_ll_gpio.h ****   *         @arg @ref LL_GPIO_PIN_3
 321:Drivers/STM32F1xx_HAL_Driver/Inc/stm32f1xx_ll_gpio.h ****   *         @arg @ref LL_GPIO_PIN_4
 322:Drivers/STM32F1xx_HAL_Driver/Inc/stm32f1xx_ll_gpio.h ****   *         @arg @ref LL_GPIO_PIN_5
 323:Drivers/STM32F1xx_HAL_Driver/Inc/stm32f1xx_ll_gpio.h ****   *         @arg @ref LL_GPIO_PIN_6
 324:Drivers/STM32F1xx_HAL_Driver/Inc/stm32f1xx_ll_gpio.h ****   *         @arg @ref LL_GPIO_PIN_7
 325:Drivers/STM32F1xx_HAL_Driver/Inc/stm32f1xx_ll_gpio.h ****   *         @arg @ref LL_GPIO_PIN_8
 326:Drivers/STM32F1xx_HAL_Driver/Inc/stm32f1xx_ll_gpio.h ****   *         @arg @ref LL_GPIO_PIN_9
 327:Drivers/STM32F1xx_HAL_Driver/Inc/stm32f1xx_ll_gpio.h ****   *         @arg @ref LL_GPIO_PIN_10
 328:Drivers/STM32F1xx_HAL_Driver/Inc/stm32f1xx_ll_gpio.h ****   *         @arg @ref LL_GPIO_PIN_11
 329:Drivers/STM32F1xx_HAL_Driver/Inc/stm32f1xx_ll_gpio.h ****   *         @arg @ref LL_GPIO_PIN_12
 330:Drivers/STM32F1xx_HAL_Driver/Inc/stm32f1xx_ll_gpio.h ****   *         @arg @ref LL_GPIO_PIN_13
 331:Drivers/STM32F1xx_HAL_Driver/Inc/stm32f1xx_ll_gpio.h ****   *         @arg @ref LL_GPIO_PIN_14
 332:Drivers/STM32F1xx_HAL_Driver/Inc/stm32f1xx_ll_gpio.h ****   *         @arg @ref LL_GPIO_PIN_15
 333:Drivers/STM32F1xx_HAL_Driver/Inc/stm32f1xx_ll_gpio.h ****   * @param  Mode This parameter can be one of the following values:
 334:Drivers/STM32F1xx_HAL_Driver/Inc/stm32f1xx_ll_gpio.h ****   *         @arg @ref LL_GPIO_MODE_ANALOG
 335:Drivers/STM32F1xx_HAL_Driver/Inc/stm32f1xx_ll_gpio.h ****   *         @arg @ref LL_GPIO_MODE_FLOATING
 336:Drivers/STM32F1xx_HAL_Driver/Inc/stm32f1xx_ll_gpio.h ****   *         @arg @ref LL_GPIO_MODE_INPUT
 337:Drivers/STM32F1xx_HAL_Driver/Inc/stm32f1xx_ll_gpio.h ****   *         @arg @ref LL_GPIO_MODE_OUTPUT
 338:Drivers/STM32F1xx_HAL_Driver/Inc/stm32f1xx_ll_gpio.h ****   *         @arg @ref LL_GPIO_MODE_ALTERNATE
ARM GAS  /tmp/ccI0AsY7.s 			page 37


 339:Drivers/STM32F1xx_HAL_Driver/Inc/stm32f1xx_ll_gpio.h ****   * @retval None
 340:Drivers/STM32F1xx_HAL_Driver/Inc/stm32f1xx_ll_gpio.h ****   */
 341:Drivers/STM32F1xx_HAL_Driver/Inc/stm32f1xx_ll_gpio.h **** __STATIC_INLINE void LL_GPIO_SetPinMode(GPIO_TypeDef *GPIOx, uint32_t Pin, uint32_t Mode)
 342:Drivers/STM32F1xx_HAL_Driver/Inc/stm32f1xx_ll_gpio.h **** {
 343:Drivers/STM32F1xx_HAL_Driver/Inc/stm32f1xx_ll_gpio.h ****   register uint32_t *pReg = (uint32_t *)((uint32_t)((uint32_t)(&GPIOx->CRL) + (Pin >> 24)));
 344:Drivers/STM32F1xx_HAL_Driver/Inc/stm32f1xx_ll_gpio.h ****   MODIFY_REG(*pReg, ((GPIO_CRL_CNF0 | GPIO_CRL_MODE0) << (POSITION_VAL(Pin) * 4U)), (Mode << (POSIT
 345:Drivers/STM32F1xx_HAL_Driver/Inc/stm32f1xx_ll_gpio.h **** }
 346:Drivers/STM32F1xx_HAL_Driver/Inc/stm32f1xx_ll_gpio.h **** 
 347:Drivers/STM32F1xx_HAL_Driver/Inc/stm32f1xx_ll_gpio.h **** /**
 348:Drivers/STM32F1xx_HAL_Driver/Inc/stm32f1xx_ll_gpio.h ****   * @brief  Return gpio mode for a dedicated pin on dedicated port.
 349:Drivers/STM32F1xx_HAL_Driver/Inc/stm32f1xx_ll_gpio.h ****   * @note   I/O mode can be Analog, Floating input, Input with pull-up/pull-down, General purpose O
 350:Drivers/STM32F1xx_HAL_Driver/Inc/stm32f1xx_ll_gpio.h ****   *         Alternate function Output.
 351:Drivers/STM32F1xx_HAL_Driver/Inc/stm32f1xx_ll_gpio.h ****   * @note   Warning: only one pin can be passed as parameter.
 352:Drivers/STM32F1xx_HAL_Driver/Inc/stm32f1xx_ll_gpio.h ****   * @rmtoll CRL        CNFy         LL_GPIO_GetPinMode
 353:Drivers/STM32F1xx_HAL_Driver/Inc/stm32f1xx_ll_gpio.h ****   * @rmtoll CRL        MODEy        LL_GPIO_GetPinMode
 354:Drivers/STM32F1xx_HAL_Driver/Inc/stm32f1xx_ll_gpio.h ****   * @rmtoll CRH        CNFy         LL_GPIO_GetPinMode
 355:Drivers/STM32F1xx_HAL_Driver/Inc/stm32f1xx_ll_gpio.h ****   * @rmtoll CRH        MODEy        LL_GPIO_GetPinMode
 356:Drivers/STM32F1xx_HAL_Driver/Inc/stm32f1xx_ll_gpio.h ****   * @param  GPIOx GPIO Port
 357:Drivers/STM32F1xx_HAL_Driver/Inc/stm32f1xx_ll_gpio.h ****   * @param  Pin This parameter can be one of the following values:
 358:Drivers/STM32F1xx_HAL_Driver/Inc/stm32f1xx_ll_gpio.h ****   *         @arg @ref LL_GPIO_PIN_0
 359:Drivers/STM32F1xx_HAL_Driver/Inc/stm32f1xx_ll_gpio.h ****   *         @arg @ref LL_GPIO_PIN_1
 360:Drivers/STM32F1xx_HAL_Driver/Inc/stm32f1xx_ll_gpio.h ****   *         @arg @ref LL_GPIO_PIN_2
 361:Drivers/STM32F1xx_HAL_Driver/Inc/stm32f1xx_ll_gpio.h ****   *         @arg @ref LL_GPIO_PIN_3
 362:Drivers/STM32F1xx_HAL_Driver/Inc/stm32f1xx_ll_gpio.h ****   *         @arg @ref LL_GPIO_PIN_4
 363:Drivers/STM32F1xx_HAL_Driver/Inc/stm32f1xx_ll_gpio.h ****   *         @arg @ref LL_GPIO_PIN_5
 364:Drivers/STM32F1xx_HAL_Driver/Inc/stm32f1xx_ll_gpio.h ****   *         @arg @ref LL_GPIO_PIN_6
 365:Drivers/STM32F1xx_HAL_Driver/Inc/stm32f1xx_ll_gpio.h ****   *         @arg @ref LL_GPIO_PIN_7
 366:Drivers/STM32F1xx_HAL_Driver/Inc/stm32f1xx_ll_gpio.h ****   *         @arg @ref LL_GPIO_PIN_8
 367:Drivers/STM32F1xx_HAL_Driver/Inc/stm32f1xx_ll_gpio.h ****   *         @arg @ref LL_GPIO_PIN_9
 368:Drivers/STM32F1xx_HAL_Driver/Inc/stm32f1xx_ll_gpio.h ****   *         @arg @ref LL_GPIO_PIN_10
 369:Drivers/STM32F1xx_HAL_Driver/Inc/stm32f1xx_ll_gpio.h ****   *         @arg @ref LL_GPIO_PIN_11
 370:Drivers/STM32F1xx_HAL_Driver/Inc/stm32f1xx_ll_gpio.h ****   *         @arg @ref LL_GPIO_PIN_12
 371:Drivers/STM32F1xx_HAL_Driver/Inc/stm32f1xx_ll_gpio.h ****   *         @arg @ref LL_GPIO_PIN_13
 372:Drivers/STM32F1xx_HAL_Driver/Inc/stm32f1xx_ll_gpio.h ****   *         @arg @ref LL_GPIO_PIN_14
 373:Drivers/STM32F1xx_HAL_Driver/Inc/stm32f1xx_ll_gpio.h ****   *         @arg @ref LL_GPIO_PIN_15
 374:Drivers/STM32F1xx_HAL_Driver/Inc/stm32f1xx_ll_gpio.h ****   * @retval Returned value can be one of the following values:
 375:Drivers/STM32F1xx_HAL_Driver/Inc/stm32f1xx_ll_gpio.h ****   *         @arg @ref LL_GPIO_MODE_ANALOG
 376:Drivers/STM32F1xx_HAL_Driver/Inc/stm32f1xx_ll_gpio.h ****   *         @arg @ref LL_GPIO_MODE_FLOATING
 377:Drivers/STM32F1xx_HAL_Driver/Inc/stm32f1xx_ll_gpio.h ****   *         @arg @ref LL_GPIO_MODE_INPUT
 378:Drivers/STM32F1xx_HAL_Driver/Inc/stm32f1xx_ll_gpio.h ****   *         @arg @ref LL_GPIO_MODE_OUTPUT
 379:Drivers/STM32F1xx_HAL_Driver/Inc/stm32f1xx_ll_gpio.h ****   *         @arg @ref LL_GPIO_MODE_ALTERNATE
 380:Drivers/STM32F1xx_HAL_Driver/Inc/stm32f1xx_ll_gpio.h ****   */
 381:Drivers/STM32F1xx_HAL_Driver/Inc/stm32f1xx_ll_gpio.h **** __STATIC_INLINE uint32_t LL_GPIO_GetPinMode(GPIO_TypeDef *GPIOx, uint32_t Pin)
 382:Drivers/STM32F1xx_HAL_Driver/Inc/stm32f1xx_ll_gpio.h **** {
 383:Drivers/STM32F1xx_HAL_Driver/Inc/stm32f1xx_ll_gpio.h ****   register uint32_t *pReg = (uint32_t *)((uint32_t)((uint32_t)(&GPIOx->CRL) + (Pin >> 24)));
 384:Drivers/STM32F1xx_HAL_Driver/Inc/stm32f1xx_ll_gpio.h ****   return (READ_BIT(*pReg, ((GPIO_CRL_CNF0 | GPIO_CRL_MODE0) << (POSITION_VAL(Pin) * 4U))) >> (POSIT
 385:Drivers/STM32F1xx_HAL_Driver/Inc/stm32f1xx_ll_gpio.h **** }
 386:Drivers/STM32F1xx_HAL_Driver/Inc/stm32f1xx_ll_gpio.h **** 
 387:Drivers/STM32F1xx_HAL_Driver/Inc/stm32f1xx_ll_gpio.h **** /**
 388:Drivers/STM32F1xx_HAL_Driver/Inc/stm32f1xx_ll_gpio.h ****   * @brief  Configure gpio speed for a dedicated pin on dedicated port.
 389:Drivers/STM32F1xx_HAL_Driver/Inc/stm32f1xx_ll_gpio.h ****   * @note   I/O speed can be Low, Medium or Fast speed.
 390:Drivers/STM32F1xx_HAL_Driver/Inc/stm32f1xx_ll_gpio.h ****   * @note   Warning: only one pin can be passed as parameter.
 391:Drivers/STM32F1xx_HAL_Driver/Inc/stm32f1xx_ll_gpio.h ****   * @note   Refer to datasheet for frequency specifications and the power
 392:Drivers/STM32F1xx_HAL_Driver/Inc/stm32f1xx_ll_gpio.h ****   *         supply and load conditions for each speed.
 393:Drivers/STM32F1xx_HAL_Driver/Inc/stm32f1xx_ll_gpio.h ****   * @rmtoll CRL      MODEy       LL_GPIO_SetPinSpeed
 394:Drivers/STM32F1xx_HAL_Driver/Inc/stm32f1xx_ll_gpio.h ****   * @rmtoll CRH      MODEy       LL_GPIO_SetPinSpeed
 395:Drivers/STM32F1xx_HAL_Driver/Inc/stm32f1xx_ll_gpio.h ****   * @param  GPIOx GPIO Port
ARM GAS  /tmp/ccI0AsY7.s 			page 38


 396:Drivers/STM32F1xx_HAL_Driver/Inc/stm32f1xx_ll_gpio.h ****   * @param  Pin This parameter can be one of the following values:
 397:Drivers/STM32F1xx_HAL_Driver/Inc/stm32f1xx_ll_gpio.h ****   *         @arg @ref LL_GPIO_PIN_0
 398:Drivers/STM32F1xx_HAL_Driver/Inc/stm32f1xx_ll_gpio.h ****   *         @arg @ref LL_GPIO_PIN_1
 399:Drivers/STM32F1xx_HAL_Driver/Inc/stm32f1xx_ll_gpio.h ****   *         @arg @ref LL_GPIO_PIN_2
 400:Drivers/STM32F1xx_HAL_Driver/Inc/stm32f1xx_ll_gpio.h ****   *         @arg @ref LL_GPIO_PIN_3
 401:Drivers/STM32F1xx_HAL_Driver/Inc/stm32f1xx_ll_gpio.h ****   *         @arg @ref LL_GPIO_PIN_4
 402:Drivers/STM32F1xx_HAL_Driver/Inc/stm32f1xx_ll_gpio.h ****   *         @arg @ref LL_GPIO_PIN_5
 403:Drivers/STM32F1xx_HAL_Driver/Inc/stm32f1xx_ll_gpio.h ****   *         @arg @ref LL_GPIO_PIN_6
 404:Drivers/STM32F1xx_HAL_Driver/Inc/stm32f1xx_ll_gpio.h ****   *         @arg @ref LL_GPIO_PIN_7
 405:Drivers/STM32F1xx_HAL_Driver/Inc/stm32f1xx_ll_gpio.h ****   *         @arg @ref LL_GPIO_PIN_8
 406:Drivers/STM32F1xx_HAL_Driver/Inc/stm32f1xx_ll_gpio.h ****   *         @arg @ref LL_GPIO_PIN_9
 407:Drivers/STM32F1xx_HAL_Driver/Inc/stm32f1xx_ll_gpio.h ****   *         @arg @ref LL_GPIO_PIN_10
 408:Drivers/STM32F1xx_HAL_Driver/Inc/stm32f1xx_ll_gpio.h ****   *         @arg @ref LL_GPIO_PIN_11
 409:Drivers/STM32F1xx_HAL_Driver/Inc/stm32f1xx_ll_gpio.h ****   *         @arg @ref LL_GPIO_PIN_12
 410:Drivers/STM32F1xx_HAL_Driver/Inc/stm32f1xx_ll_gpio.h ****   *         @arg @ref LL_GPIO_PIN_13
 411:Drivers/STM32F1xx_HAL_Driver/Inc/stm32f1xx_ll_gpio.h ****   *         @arg @ref LL_GPIO_PIN_14
 412:Drivers/STM32F1xx_HAL_Driver/Inc/stm32f1xx_ll_gpio.h ****   *         @arg @ref LL_GPIO_PIN_15
 413:Drivers/STM32F1xx_HAL_Driver/Inc/stm32f1xx_ll_gpio.h ****   * @param  Speed This parameter can be one of the following values:
 414:Drivers/STM32F1xx_HAL_Driver/Inc/stm32f1xx_ll_gpio.h ****   *         @arg @ref LL_GPIO_SPEED_FREQ_LOW
 415:Drivers/STM32F1xx_HAL_Driver/Inc/stm32f1xx_ll_gpio.h ****   *         @arg @ref LL_GPIO_SPEED_FREQ_MEDIUM
 416:Drivers/STM32F1xx_HAL_Driver/Inc/stm32f1xx_ll_gpio.h ****   *         @arg @ref LL_GPIO_SPEED_FREQ_HIGH
 417:Drivers/STM32F1xx_HAL_Driver/Inc/stm32f1xx_ll_gpio.h ****   * @retval None
 418:Drivers/STM32F1xx_HAL_Driver/Inc/stm32f1xx_ll_gpio.h ****   */
 419:Drivers/STM32F1xx_HAL_Driver/Inc/stm32f1xx_ll_gpio.h **** __STATIC_INLINE void LL_GPIO_SetPinSpeed(GPIO_TypeDef *GPIOx, uint32_t Pin, uint32_t  Speed)
 420:Drivers/STM32F1xx_HAL_Driver/Inc/stm32f1xx_ll_gpio.h **** {
 421:Drivers/STM32F1xx_HAL_Driver/Inc/stm32f1xx_ll_gpio.h ****   register uint32_t *pReg = (uint32_t *)((uint32_t)((uint32_t)(&GPIOx->CRL) + (Pin >> 24)));
 422:Drivers/STM32F1xx_HAL_Driver/Inc/stm32f1xx_ll_gpio.h ****   MODIFY_REG(*pReg, (GPIO_CRL_MODE0 << (POSITION_VAL(Pin) * 4U)),
 423:Drivers/STM32F1xx_HAL_Driver/Inc/stm32f1xx_ll_gpio.h ****              (Speed << (POSITION_VAL(Pin) * 4U)));
 424:Drivers/STM32F1xx_HAL_Driver/Inc/stm32f1xx_ll_gpio.h **** }
 425:Drivers/STM32F1xx_HAL_Driver/Inc/stm32f1xx_ll_gpio.h **** 
 426:Drivers/STM32F1xx_HAL_Driver/Inc/stm32f1xx_ll_gpio.h **** /**
 427:Drivers/STM32F1xx_HAL_Driver/Inc/stm32f1xx_ll_gpio.h ****   * @brief  Return gpio speed for a dedicated pin on dedicated port.
 428:Drivers/STM32F1xx_HAL_Driver/Inc/stm32f1xx_ll_gpio.h ****   * @note   I/O speed can be Low, Medium, Fast or High speed.
 429:Drivers/STM32F1xx_HAL_Driver/Inc/stm32f1xx_ll_gpio.h ****   * @note   Warning: only one pin can be passed as parameter.
 430:Drivers/STM32F1xx_HAL_Driver/Inc/stm32f1xx_ll_gpio.h ****   * @note   Refer to datasheet for frequency specifications and the power
 431:Drivers/STM32F1xx_HAL_Driver/Inc/stm32f1xx_ll_gpio.h ****   *         supply and load conditions for each speed.
 432:Drivers/STM32F1xx_HAL_Driver/Inc/stm32f1xx_ll_gpio.h ****   * @rmtoll CRL      MODEy       LL_GPIO_GetPinSpeed
 433:Drivers/STM32F1xx_HAL_Driver/Inc/stm32f1xx_ll_gpio.h ****   * @rmtoll CRH      MODEy       LL_GPIO_GetPinSpeed
 434:Drivers/STM32F1xx_HAL_Driver/Inc/stm32f1xx_ll_gpio.h ****   * @param  GPIOx GPIO Port
 435:Drivers/STM32F1xx_HAL_Driver/Inc/stm32f1xx_ll_gpio.h ****   * @param  Pin This parameter can be one of the following values:
 436:Drivers/STM32F1xx_HAL_Driver/Inc/stm32f1xx_ll_gpio.h ****   *         @arg @ref LL_GPIO_PIN_0
 437:Drivers/STM32F1xx_HAL_Driver/Inc/stm32f1xx_ll_gpio.h ****   *         @arg @ref LL_GPIO_PIN_1
 438:Drivers/STM32F1xx_HAL_Driver/Inc/stm32f1xx_ll_gpio.h ****   *         @arg @ref LL_GPIO_PIN_2
 439:Drivers/STM32F1xx_HAL_Driver/Inc/stm32f1xx_ll_gpio.h ****   *         @arg @ref LL_GPIO_PIN_3
 440:Drivers/STM32F1xx_HAL_Driver/Inc/stm32f1xx_ll_gpio.h ****   *         @arg @ref LL_GPIO_PIN_4
 441:Drivers/STM32F1xx_HAL_Driver/Inc/stm32f1xx_ll_gpio.h ****   *         @arg @ref LL_GPIO_PIN_5
 442:Drivers/STM32F1xx_HAL_Driver/Inc/stm32f1xx_ll_gpio.h ****   *         @arg @ref LL_GPIO_PIN_6
 443:Drivers/STM32F1xx_HAL_Driver/Inc/stm32f1xx_ll_gpio.h ****   *         @arg @ref LL_GPIO_PIN_7
 444:Drivers/STM32F1xx_HAL_Driver/Inc/stm32f1xx_ll_gpio.h ****   *         @arg @ref LL_GPIO_PIN_8
 445:Drivers/STM32F1xx_HAL_Driver/Inc/stm32f1xx_ll_gpio.h ****   *         @arg @ref LL_GPIO_PIN_9
 446:Drivers/STM32F1xx_HAL_Driver/Inc/stm32f1xx_ll_gpio.h ****   *         @arg @ref LL_GPIO_PIN_10
 447:Drivers/STM32F1xx_HAL_Driver/Inc/stm32f1xx_ll_gpio.h ****   *         @arg @ref LL_GPIO_PIN_11
 448:Drivers/STM32F1xx_HAL_Driver/Inc/stm32f1xx_ll_gpio.h ****   *         @arg @ref LL_GPIO_PIN_12
 449:Drivers/STM32F1xx_HAL_Driver/Inc/stm32f1xx_ll_gpio.h ****   *         @arg @ref LL_GPIO_PIN_13
 450:Drivers/STM32F1xx_HAL_Driver/Inc/stm32f1xx_ll_gpio.h ****   *         @arg @ref LL_GPIO_PIN_14
 451:Drivers/STM32F1xx_HAL_Driver/Inc/stm32f1xx_ll_gpio.h ****   *         @arg @ref LL_GPIO_PIN_15
 452:Drivers/STM32F1xx_HAL_Driver/Inc/stm32f1xx_ll_gpio.h ****   * @retval Returned value can be one of the following values:
ARM GAS  /tmp/ccI0AsY7.s 			page 39


 453:Drivers/STM32F1xx_HAL_Driver/Inc/stm32f1xx_ll_gpio.h ****   *         @arg @ref LL_GPIO_SPEED_FREQ_LOW
 454:Drivers/STM32F1xx_HAL_Driver/Inc/stm32f1xx_ll_gpio.h ****   *         @arg @ref LL_GPIO_SPEED_FREQ_MEDIUM
 455:Drivers/STM32F1xx_HAL_Driver/Inc/stm32f1xx_ll_gpio.h ****   *         @arg @ref LL_GPIO_SPEED_FREQ_HIGH
 456:Drivers/STM32F1xx_HAL_Driver/Inc/stm32f1xx_ll_gpio.h ****   */
 457:Drivers/STM32F1xx_HAL_Driver/Inc/stm32f1xx_ll_gpio.h **** __STATIC_INLINE uint32_t LL_GPIO_GetPinSpeed(GPIO_TypeDef *GPIOx, uint32_t Pin)
 458:Drivers/STM32F1xx_HAL_Driver/Inc/stm32f1xx_ll_gpio.h **** {
 459:Drivers/STM32F1xx_HAL_Driver/Inc/stm32f1xx_ll_gpio.h ****   register uint32_t *pReg = (uint32_t *)((uint32_t)((uint32_t)(&GPIOx->CRL) + (Pin >> 24)));
 460:Drivers/STM32F1xx_HAL_Driver/Inc/stm32f1xx_ll_gpio.h ****   return (READ_BIT(*pReg, (GPIO_CRL_MODE0 << (POSITION_VAL(Pin) * 4U))) >> (POSITION_VAL(Pin) * 4U)
 461:Drivers/STM32F1xx_HAL_Driver/Inc/stm32f1xx_ll_gpio.h **** }
 462:Drivers/STM32F1xx_HAL_Driver/Inc/stm32f1xx_ll_gpio.h **** 
 463:Drivers/STM32F1xx_HAL_Driver/Inc/stm32f1xx_ll_gpio.h **** /**
 464:Drivers/STM32F1xx_HAL_Driver/Inc/stm32f1xx_ll_gpio.h ****   * @brief  Configure gpio output type for several pins on dedicated port.
 465:Drivers/STM32F1xx_HAL_Driver/Inc/stm32f1xx_ll_gpio.h ****   * @note   Output type as to be set when gpio pin is in output or
 466:Drivers/STM32F1xx_HAL_Driver/Inc/stm32f1xx_ll_gpio.h ****   *         alternate modes. Possible type are Push-pull or Open-drain.
 467:Drivers/STM32F1xx_HAL_Driver/Inc/stm32f1xx_ll_gpio.h ****   * @rmtoll CRL       MODEy           LL_GPIO_SetPinOutputType
 468:Drivers/STM32F1xx_HAL_Driver/Inc/stm32f1xx_ll_gpio.h ****   * @rmtoll CRH       MODEy           LL_GPIO_SetPinOutputType
 469:Drivers/STM32F1xx_HAL_Driver/Inc/stm32f1xx_ll_gpio.h ****   * @param  GPIOx GPIO Port
 470:Drivers/STM32F1xx_HAL_Driver/Inc/stm32f1xx_ll_gpio.h ****   * @param  Pin This parameter can be a combination of the following values:
 471:Drivers/STM32F1xx_HAL_Driver/Inc/stm32f1xx_ll_gpio.h ****   *         @arg @ref LL_GPIO_PIN_0
 472:Drivers/STM32F1xx_HAL_Driver/Inc/stm32f1xx_ll_gpio.h ****   *         @arg @ref LL_GPIO_PIN_1
 473:Drivers/STM32F1xx_HAL_Driver/Inc/stm32f1xx_ll_gpio.h ****   *         @arg @ref LL_GPIO_PIN_2
 474:Drivers/STM32F1xx_HAL_Driver/Inc/stm32f1xx_ll_gpio.h ****   *         @arg @ref LL_GPIO_PIN_3
 475:Drivers/STM32F1xx_HAL_Driver/Inc/stm32f1xx_ll_gpio.h ****   *         @arg @ref LL_GPIO_PIN_4
 476:Drivers/STM32F1xx_HAL_Driver/Inc/stm32f1xx_ll_gpio.h ****   *         @arg @ref LL_GPIO_PIN_5
 477:Drivers/STM32F1xx_HAL_Driver/Inc/stm32f1xx_ll_gpio.h ****   *         @arg @ref LL_GPIO_PIN_6
 478:Drivers/STM32F1xx_HAL_Driver/Inc/stm32f1xx_ll_gpio.h ****   *         @arg @ref LL_GPIO_PIN_7
 479:Drivers/STM32F1xx_HAL_Driver/Inc/stm32f1xx_ll_gpio.h ****   *         @arg @ref LL_GPIO_PIN_8
 480:Drivers/STM32F1xx_HAL_Driver/Inc/stm32f1xx_ll_gpio.h ****   *         @arg @ref LL_GPIO_PIN_9
 481:Drivers/STM32F1xx_HAL_Driver/Inc/stm32f1xx_ll_gpio.h ****   *         @arg @ref LL_GPIO_PIN_10
 482:Drivers/STM32F1xx_HAL_Driver/Inc/stm32f1xx_ll_gpio.h ****   *         @arg @ref LL_GPIO_PIN_11
 483:Drivers/STM32F1xx_HAL_Driver/Inc/stm32f1xx_ll_gpio.h ****   *         @arg @ref LL_GPIO_PIN_12
 484:Drivers/STM32F1xx_HAL_Driver/Inc/stm32f1xx_ll_gpio.h ****   *         @arg @ref LL_GPIO_PIN_13
 485:Drivers/STM32F1xx_HAL_Driver/Inc/stm32f1xx_ll_gpio.h ****   *         @arg @ref LL_GPIO_PIN_14
 486:Drivers/STM32F1xx_HAL_Driver/Inc/stm32f1xx_ll_gpio.h ****   *         @arg @ref LL_GPIO_PIN_15
 487:Drivers/STM32F1xx_HAL_Driver/Inc/stm32f1xx_ll_gpio.h ****   *         @arg @ref LL_GPIO_PIN_ALL
 488:Drivers/STM32F1xx_HAL_Driver/Inc/stm32f1xx_ll_gpio.h ****   * @param  OutputType This parameter can be one of the following values:
 489:Drivers/STM32F1xx_HAL_Driver/Inc/stm32f1xx_ll_gpio.h ****   *         @arg @ref LL_GPIO_OUTPUT_PUSHPULL
 490:Drivers/STM32F1xx_HAL_Driver/Inc/stm32f1xx_ll_gpio.h ****   *         @arg @ref LL_GPIO_OUTPUT_OPENDRAIN
 491:Drivers/STM32F1xx_HAL_Driver/Inc/stm32f1xx_ll_gpio.h ****   * @retval None
 492:Drivers/STM32F1xx_HAL_Driver/Inc/stm32f1xx_ll_gpio.h ****   */
 493:Drivers/STM32F1xx_HAL_Driver/Inc/stm32f1xx_ll_gpio.h **** __STATIC_INLINE void LL_GPIO_SetPinOutputType(GPIO_TypeDef *GPIOx, uint32_t Pin, uint32_t OutputTyp
 494:Drivers/STM32F1xx_HAL_Driver/Inc/stm32f1xx_ll_gpio.h **** {
 495:Drivers/STM32F1xx_HAL_Driver/Inc/stm32f1xx_ll_gpio.h ****   register uint32_t *pReg = (uint32_t *)((uint32_t)((uint32_t)(&GPIOx->CRL) + (Pin >> 24)));
 496:Drivers/STM32F1xx_HAL_Driver/Inc/stm32f1xx_ll_gpio.h ****   MODIFY_REG(*pReg, (GPIO_CRL_CNF0_0 << (POSITION_VAL(Pin) * 4U)),
 497:Drivers/STM32F1xx_HAL_Driver/Inc/stm32f1xx_ll_gpio.h ****              (OutputType << (POSITION_VAL(Pin) * 4U)));
 498:Drivers/STM32F1xx_HAL_Driver/Inc/stm32f1xx_ll_gpio.h **** }
 499:Drivers/STM32F1xx_HAL_Driver/Inc/stm32f1xx_ll_gpio.h **** 
 500:Drivers/STM32F1xx_HAL_Driver/Inc/stm32f1xx_ll_gpio.h **** /**
 501:Drivers/STM32F1xx_HAL_Driver/Inc/stm32f1xx_ll_gpio.h ****   * @brief  Return gpio output type for several pins on dedicated port.
 502:Drivers/STM32F1xx_HAL_Driver/Inc/stm32f1xx_ll_gpio.h ****   * @note   Output type as to be set when gpio pin is in output or
 503:Drivers/STM32F1xx_HAL_Driver/Inc/stm32f1xx_ll_gpio.h ****   *         alternate modes. Possible type are Push-pull or Open-drain.
 504:Drivers/STM32F1xx_HAL_Driver/Inc/stm32f1xx_ll_gpio.h ****   * @note   Warning: only one pin can be passed as parameter.
 505:Drivers/STM32F1xx_HAL_Driver/Inc/stm32f1xx_ll_gpio.h ****   * @rmtoll CRL       MODEy       LL_GPIO_GetPinOutputType
 506:Drivers/STM32F1xx_HAL_Driver/Inc/stm32f1xx_ll_gpio.h ****   * @rmtoll CRH       MODEy       LL_GPIO_GetPinOutputType
 507:Drivers/STM32F1xx_HAL_Driver/Inc/stm32f1xx_ll_gpio.h ****   * @param  GPIOx GPIO Port
 508:Drivers/STM32F1xx_HAL_Driver/Inc/stm32f1xx_ll_gpio.h ****   * @param  Pin This parameter can be one of the following values:
 509:Drivers/STM32F1xx_HAL_Driver/Inc/stm32f1xx_ll_gpio.h ****   *         @arg @ref LL_GPIO_PIN_0
ARM GAS  /tmp/ccI0AsY7.s 			page 40


 510:Drivers/STM32F1xx_HAL_Driver/Inc/stm32f1xx_ll_gpio.h ****   *         @arg @ref LL_GPIO_PIN_1
 511:Drivers/STM32F1xx_HAL_Driver/Inc/stm32f1xx_ll_gpio.h ****   *         @arg @ref LL_GPIO_PIN_2
 512:Drivers/STM32F1xx_HAL_Driver/Inc/stm32f1xx_ll_gpio.h ****   *         @arg @ref LL_GPIO_PIN_3
 513:Drivers/STM32F1xx_HAL_Driver/Inc/stm32f1xx_ll_gpio.h ****   *         @arg @ref LL_GPIO_PIN_4
 514:Drivers/STM32F1xx_HAL_Driver/Inc/stm32f1xx_ll_gpio.h ****   *         @arg @ref LL_GPIO_PIN_5
 515:Drivers/STM32F1xx_HAL_Driver/Inc/stm32f1xx_ll_gpio.h ****   *         @arg @ref LL_GPIO_PIN_6
 516:Drivers/STM32F1xx_HAL_Driver/Inc/stm32f1xx_ll_gpio.h ****   *         @arg @ref LL_GPIO_PIN_7
 517:Drivers/STM32F1xx_HAL_Driver/Inc/stm32f1xx_ll_gpio.h ****   *         @arg @ref LL_GPIO_PIN_8
 518:Drivers/STM32F1xx_HAL_Driver/Inc/stm32f1xx_ll_gpio.h ****   *         @arg @ref LL_GPIO_PIN_9
 519:Drivers/STM32F1xx_HAL_Driver/Inc/stm32f1xx_ll_gpio.h ****   *         @arg @ref LL_GPIO_PIN_10
 520:Drivers/STM32F1xx_HAL_Driver/Inc/stm32f1xx_ll_gpio.h ****   *         @arg @ref LL_GPIO_PIN_11
 521:Drivers/STM32F1xx_HAL_Driver/Inc/stm32f1xx_ll_gpio.h ****   *         @arg @ref LL_GPIO_PIN_12
 522:Drivers/STM32F1xx_HAL_Driver/Inc/stm32f1xx_ll_gpio.h ****   *         @arg @ref LL_GPIO_PIN_13
 523:Drivers/STM32F1xx_HAL_Driver/Inc/stm32f1xx_ll_gpio.h ****   *         @arg @ref LL_GPIO_PIN_14
 524:Drivers/STM32F1xx_HAL_Driver/Inc/stm32f1xx_ll_gpio.h ****   *         @arg @ref LL_GPIO_PIN_15
 525:Drivers/STM32F1xx_HAL_Driver/Inc/stm32f1xx_ll_gpio.h ****   *         @arg @ref LL_GPIO_PIN_ALL
 526:Drivers/STM32F1xx_HAL_Driver/Inc/stm32f1xx_ll_gpio.h ****   * @retval Returned value can be one of the following values:
 527:Drivers/STM32F1xx_HAL_Driver/Inc/stm32f1xx_ll_gpio.h ****   *         @arg @ref LL_GPIO_OUTPUT_PUSHPULL
 528:Drivers/STM32F1xx_HAL_Driver/Inc/stm32f1xx_ll_gpio.h ****   *         @arg @ref LL_GPIO_OUTPUT_OPENDRAIN
 529:Drivers/STM32F1xx_HAL_Driver/Inc/stm32f1xx_ll_gpio.h ****   */
 530:Drivers/STM32F1xx_HAL_Driver/Inc/stm32f1xx_ll_gpio.h **** __STATIC_INLINE uint32_t LL_GPIO_GetPinOutputType(GPIO_TypeDef *GPIOx, uint32_t Pin)
 531:Drivers/STM32F1xx_HAL_Driver/Inc/stm32f1xx_ll_gpio.h **** {
 532:Drivers/STM32F1xx_HAL_Driver/Inc/stm32f1xx_ll_gpio.h ****   register uint32_t *pReg = (uint32_t *)((uint32_t)((uint32_t)(&GPIOx->CRL) + (Pin >> 24)));
 533:Drivers/STM32F1xx_HAL_Driver/Inc/stm32f1xx_ll_gpio.h ****   return (READ_BIT(*pReg, (GPIO_CRL_CNF0_0 << (POSITION_VAL(Pin) * 4U))) >> (POSITION_VAL(Pin) * 4U
 534:Drivers/STM32F1xx_HAL_Driver/Inc/stm32f1xx_ll_gpio.h **** 
 535:Drivers/STM32F1xx_HAL_Driver/Inc/stm32f1xx_ll_gpio.h **** }
 536:Drivers/STM32F1xx_HAL_Driver/Inc/stm32f1xx_ll_gpio.h **** 
 537:Drivers/STM32F1xx_HAL_Driver/Inc/stm32f1xx_ll_gpio.h **** /**
 538:Drivers/STM32F1xx_HAL_Driver/Inc/stm32f1xx_ll_gpio.h ****   * @brief  Configure gpio pull-up or pull-down for a dedicated pin on a dedicated port.
 539:Drivers/STM32F1xx_HAL_Driver/Inc/stm32f1xx_ll_gpio.h ****   * @note   Warning: only one pin can be passed as parameter.
 540:Drivers/STM32F1xx_HAL_Driver/Inc/stm32f1xx_ll_gpio.h ****   * @rmtoll ODR        ODR         LL_GPIO_SetPinPull
 541:Drivers/STM32F1xx_HAL_Driver/Inc/stm32f1xx_ll_gpio.h ****   * @param  GPIOx GPIO Port
 542:Drivers/STM32F1xx_HAL_Driver/Inc/stm32f1xx_ll_gpio.h ****   * @param  Pin This parameter can be one of the following values:
 543:Drivers/STM32F1xx_HAL_Driver/Inc/stm32f1xx_ll_gpio.h ****   *         @arg @ref LL_GPIO_PIN_0
 544:Drivers/STM32F1xx_HAL_Driver/Inc/stm32f1xx_ll_gpio.h ****   *         @arg @ref LL_GPIO_PIN_1
 545:Drivers/STM32F1xx_HAL_Driver/Inc/stm32f1xx_ll_gpio.h ****   *         @arg @ref LL_GPIO_PIN_2
 546:Drivers/STM32F1xx_HAL_Driver/Inc/stm32f1xx_ll_gpio.h ****   *         @arg @ref LL_GPIO_PIN_3
 547:Drivers/STM32F1xx_HAL_Driver/Inc/stm32f1xx_ll_gpio.h ****   *         @arg @ref LL_GPIO_PIN_4
 548:Drivers/STM32F1xx_HAL_Driver/Inc/stm32f1xx_ll_gpio.h ****   *         @arg @ref LL_GPIO_PIN_5
 549:Drivers/STM32F1xx_HAL_Driver/Inc/stm32f1xx_ll_gpio.h ****   *         @arg @ref LL_GPIO_PIN_6
 550:Drivers/STM32F1xx_HAL_Driver/Inc/stm32f1xx_ll_gpio.h ****   *         @arg @ref LL_GPIO_PIN_7
 551:Drivers/STM32F1xx_HAL_Driver/Inc/stm32f1xx_ll_gpio.h ****   *         @arg @ref LL_GPIO_PIN_8
 552:Drivers/STM32F1xx_HAL_Driver/Inc/stm32f1xx_ll_gpio.h ****   *         @arg @ref LL_GPIO_PIN_9
 553:Drivers/STM32F1xx_HAL_Driver/Inc/stm32f1xx_ll_gpio.h ****   *         @arg @ref LL_GPIO_PIN_10
 554:Drivers/STM32F1xx_HAL_Driver/Inc/stm32f1xx_ll_gpio.h ****   *         @arg @ref LL_GPIO_PIN_11
 555:Drivers/STM32F1xx_HAL_Driver/Inc/stm32f1xx_ll_gpio.h ****   *         @arg @ref LL_GPIO_PIN_12
 556:Drivers/STM32F1xx_HAL_Driver/Inc/stm32f1xx_ll_gpio.h ****   *         @arg @ref LL_GPIO_PIN_13
 557:Drivers/STM32F1xx_HAL_Driver/Inc/stm32f1xx_ll_gpio.h ****   *         @arg @ref LL_GPIO_PIN_14
 558:Drivers/STM32F1xx_HAL_Driver/Inc/stm32f1xx_ll_gpio.h ****   *         @arg @ref LL_GPIO_PIN_15
 559:Drivers/STM32F1xx_HAL_Driver/Inc/stm32f1xx_ll_gpio.h ****   * @param  Pull This parameter can be one of the following values:
 560:Drivers/STM32F1xx_HAL_Driver/Inc/stm32f1xx_ll_gpio.h ****   *         @arg @ref LL_GPIO_PULL_DOWN
 561:Drivers/STM32F1xx_HAL_Driver/Inc/stm32f1xx_ll_gpio.h ****   *         @arg @ref LL_GPIO_PULL_UP
 562:Drivers/STM32F1xx_HAL_Driver/Inc/stm32f1xx_ll_gpio.h ****   * @retval None
 563:Drivers/STM32F1xx_HAL_Driver/Inc/stm32f1xx_ll_gpio.h ****   */
 564:Drivers/STM32F1xx_HAL_Driver/Inc/stm32f1xx_ll_gpio.h **** __STATIC_INLINE void LL_GPIO_SetPinPull(GPIO_TypeDef *GPIOx, uint32_t Pin, uint32_t Pull)
 565:Drivers/STM32F1xx_HAL_Driver/Inc/stm32f1xx_ll_gpio.h **** {
 566:Drivers/STM32F1xx_HAL_Driver/Inc/stm32f1xx_ll_gpio.h ****   MODIFY_REG(GPIOx->ODR, (Pin >> GPIO_PIN_MASK_POS), Pull << (POSITION_VAL(Pin >> GPIO_PIN_MASK_POS
ARM GAS  /tmp/ccI0AsY7.s 			page 41


 567:Drivers/STM32F1xx_HAL_Driver/Inc/stm32f1xx_ll_gpio.h **** }
 568:Drivers/STM32F1xx_HAL_Driver/Inc/stm32f1xx_ll_gpio.h **** 
 569:Drivers/STM32F1xx_HAL_Driver/Inc/stm32f1xx_ll_gpio.h **** /**
 570:Drivers/STM32F1xx_HAL_Driver/Inc/stm32f1xx_ll_gpio.h ****   * @brief  Return gpio pull-up or pull-down for a dedicated pin on a dedicated port
 571:Drivers/STM32F1xx_HAL_Driver/Inc/stm32f1xx_ll_gpio.h ****   * @note   Warning: only one pin can be passed as parameter.
 572:Drivers/STM32F1xx_HAL_Driver/Inc/stm32f1xx_ll_gpio.h ****   * @rmtoll ODR        ODR         LL_GPIO_GetPinPull
 573:Drivers/STM32F1xx_HAL_Driver/Inc/stm32f1xx_ll_gpio.h ****   * @param  GPIOx GPIO Port
 574:Drivers/STM32F1xx_HAL_Driver/Inc/stm32f1xx_ll_gpio.h ****   * @param  Pin This parameter can be one of the following values:
 575:Drivers/STM32F1xx_HAL_Driver/Inc/stm32f1xx_ll_gpio.h ****   *         @arg @ref LL_GPIO_PIN_0
 576:Drivers/STM32F1xx_HAL_Driver/Inc/stm32f1xx_ll_gpio.h ****   *         @arg @ref LL_GPIO_PIN_1
 577:Drivers/STM32F1xx_HAL_Driver/Inc/stm32f1xx_ll_gpio.h ****   *         @arg @ref LL_GPIO_PIN_2
 578:Drivers/STM32F1xx_HAL_Driver/Inc/stm32f1xx_ll_gpio.h ****   *         @arg @ref LL_GPIO_PIN_3
 579:Drivers/STM32F1xx_HAL_Driver/Inc/stm32f1xx_ll_gpio.h ****   *         @arg @ref LL_GPIO_PIN_4
 580:Drivers/STM32F1xx_HAL_Driver/Inc/stm32f1xx_ll_gpio.h ****   *         @arg @ref LL_GPIO_PIN_5
 581:Drivers/STM32F1xx_HAL_Driver/Inc/stm32f1xx_ll_gpio.h ****   *         @arg @ref LL_GPIO_PIN_6
 582:Drivers/STM32F1xx_HAL_Driver/Inc/stm32f1xx_ll_gpio.h ****   *         @arg @ref LL_GPIO_PIN_7
 583:Drivers/STM32F1xx_HAL_Driver/Inc/stm32f1xx_ll_gpio.h ****   *         @arg @ref LL_GPIO_PIN_8
 584:Drivers/STM32F1xx_HAL_Driver/Inc/stm32f1xx_ll_gpio.h ****   *         @arg @ref LL_GPIO_PIN_9
 585:Drivers/STM32F1xx_HAL_Driver/Inc/stm32f1xx_ll_gpio.h ****   *         @arg @ref LL_GPIO_PIN_10
 586:Drivers/STM32F1xx_HAL_Driver/Inc/stm32f1xx_ll_gpio.h ****   *         @arg @ref LL_GPIO_PIN_11
 587:Drivers/STM32F1xx_HAL_Driver/Inc/stm32f1xx_ll_gpio.h ****   *         @arg @ref LL_GPIO_PIN_12
 588:Drivers/STM32F1xx_HAL_Driver/Inc/stm32f1xx_ll_gpio.h ****   *         @arg @ref LL_GPIO_PIN_13
 589:Drivers/STM32F1xx_HAL_Driver/Inc/stm32f1xx_ll_gpio.h ****   *         @arg @ref LL_GPIO_PIN_14
 590:Drivers/STM32F1xx_HAL_Driver/Inc/stm32f1xx_ll_gpio.h ****   *         @arg @ref LL_GPIO_PIN_15
 591:Drivers/STM32F1xx_HAL_Driver/Inc/stm32f1xx_ll_gpio.h ****   * @retval Returned value can be one of the following values:
 592:Drivers/STM32F1xx_HAL_Driver/Inc/stm32f1xx_ll_gpio.h ****   *         @arg @ref LL_GPIO_PULL_DOWN
 593:Drivers/STM32F1xx_HAL_Driver/Inc/stm32f1xx_ll_gpio.h ****   *         @arg @ref LL_GPIO_PULL_UP
 594:Drivers/STM32F1xx_HAL_Driver/Inc/stm32f1xx_ll_gpio.h ****   */
 595:Drivers/STM32F1xx_HAL_Driver/Inc/stm32f1xx_ll_gpio.h **** __STATIC_INLINE uint32_t LL_GPIO_GetPinPull(GPIO_TypeDef *GPIOx, uint32_t Pin)
 596:Drivers/STM32F1xx_HAL_Driver/Inc/stm32f1xx_ll_gpio.h **** {
 597:Drivers/STM32F1xx_HAL_Driver/Inc/stm32f1xx_ll_gpio.h ****   return (READ_BIT(GPIOx->ODR, (GPIO_ODR_ODR0 << (POSITION_VAL(Pin >> GPIO_PIN_MASK_POS)))) >> (POS
 598:Drivers/STM32F1xx_HAL_Driver/Inc/stm32f1xx_ll_gpio.h **** }
 599:Drivers/STM32F1xx_HAL_Driver/Inc/stm32f1xx_ll_gpio.h **** 
 600:Drivers/STM32F1xx_HAL_Driver/Inc/stm32f1xx_ll_gpio.h **** /**
 601:Drivers/STM32F1xx_HAL_Driver/Inc/stm32f1xx_ll_gpio.h ****   * @brief  Lock configuration of several pins for a dedicated port.
 602:Drivers/STM32F1xx_HAL_Driver/Inc/stm32f1xx_ll_gpio.h ****   * @note   When the lock sequence has been applied on a port bit, the
 603:Drivers/STM32F1xx_HAL_Driver/Inc/stm32f1xx_ll_gpio.h ****   *         value of this port bit can no longer be modified until the
 604:Drivers/STM32F1xx_HAL_Driver/Inc/stm32f1xx_ll_gpio.h ****   *         next reset.
 605:Drivers/STM32F1xx_HAL_Driver/Inc/stm32f1xx_ll_gpio.h ****   * @note   Each lock bit freezes a specific configuration register
 606:Drivers/STM32F1xx_HAL_Driver/Inc/stm32f1xx_ll_gpio.h ****   *         (control and alternate function registers).
 607:Drivers/STM32F1xx_HAL_Driver/Inc/stm32f1xx_ll_gpio.h ****   * @rmtoll LCKR         LCKK          LL_GPIO_LockPin
 608:Drivers/STM32F1xx_HAL_Driver/Inc/stm32f1xx_ll_gpio.h ****   * @param  GPIOx GPIO Port
 609:Drivers/STM32F1xx_HAL_Driver/Inc/stm32f1xx_ll_gpio.h ****   * @param  PinMask This parameter can be a combination of the following values:
 610:Drivers/STM32F1xx_HAL_Driver/Inc/stm32f1xx_ll_gpio.h ****   *         @arg @ref LL_GPIO_PIN_0
 611:Drivers/STM32F1xx_HAL_Driver/Inc/stm32f1xx_ll_gpio.h ****   *         @arg @ref LL_GPIO_PIN_1
 612:Drivers/STM32F1xx_HAL_Driver/Inc/stm32f1xx_ll_gpio.h ****   *         @arg @ref LL_GPIO_PIN_2
 613:Drivers/STM32F1xx_HAL_Driver/Inc/stm32f1xx_ll_gpio.h ****   *         @arg @ref LL_GPIO_PIN_3
 614:Drivers/STM32F1xx_HAL_Driver/Inc/stm32f1xx_ll_gpio.h ****   *         @arg @ref LL_GPIO_PIN_4
 615:Drivers/STM32F1xx_HAL_Driver/Inc/stm32f1xx_ll_gpio.h ****   *         @arg @ref LL_GPIO_PIN_5
 616:Drivers/STM32F1xx_HAL_Driver/Inc/stm32f1xx_ll_gpio.h ****   *         @arg @ref LL_GPIO_PIN_6
 617:Drivers/STM32F1xx_HAL_Driver/Inc/stm32f1xx_ll_gpio.h ****   *         @arg @ref LL_GPIO_PIN_7
 618:Drivers/STM32F1xx_HAL_Driver/Inc/stm32f1xx_ll_gpio.h ****   *         @arg @ref LL_GPIO_PIN_8
 619:Drivers/STM32F1xx_HAL_Driver/Inc/stm32f1xx_ll_gpio.h ****   *         @arg @ref LL_GPIO_PIN_9
 620:Drivers/STM32F1xx_HAL_Driver/Inc/stm32f1xx_ll_gpio.h ****   *         @arg @ref LL_GPIO_PIN_10
 621:Drivers/STM32F1xx_HAL_Driver/Inc/stm32f1xx_ll_gpio.h ****   *         @arg @ref LL_GPIO_PIN_11
 622:Drivers/STM32F1xx_HAL_Driver/Inc/stm32f1xx_ll_gpio.h ****   *         @arg @ref LL_GPIO_PIN_12
 623:Drivers/STM32F1xx_HAL_Driver/Inc/stm32f1xx_ll_gpio.h ****   *         @arg @ref LL_GPIO_PIN_13
ARM GAS  /tmp/ccI0AsY7.s 			page 42


 624:Drivers/STM32F1xx_HAL_Driver/Inc/stm32f1xx_ll_gpio.h ****   *         @arg @ref LL_GPIO_PIN_14
 625:Drivers/STM32F1xx_HAL_Driver/Inc/stm32f1xx_ll_gpio.h ****   *         @arg @ref LL_GPIO_PIN_15
 626:Drivers/STM32F1xx_HAL_Driver/Inc/stm32f1xx_ll_gpio.h ****   *         @arg @ref LL_GPIO_PIN_ALL
 627:Drivers/STM32F1xx_HAL_Driver/Inc/stm32f1xx_ll_gpio.h ****   * @retval None
 628:Drivers/STM32F1xx_HAL_Driver/Inc/stm32f1xx_ll_gpio.h ****   */
 629:Drivers/STM32F1xx_HAL_Driver/Inc/stm32f1xx_ll_gpio.h **** __STATIC_INLINE void LL_GPIO_LockPin(GPIO_TypeDef *GPIOx, uint32_t PinMask)
 630:Drivers/STM32F1xx_HAL_Driver/Inc/stm32f1xx_ll_gpio.h **** {
 631:Drivers/STM32F1xx_HAL_Driver/Inc/stm32f1xx_ll_gpio.h ****   __IO uint32_t temp;
 632:Drivers/STM32F1xx_HAL_Driver/Inc/stm32f1xx_ll_gpio.h ****   WRITE_REG(GPIOx->LCKR, GPIO_LCKR_LCKK | ((PinMask >> GPIO_PIN_MASK_POS) & 0x0000FFFFU));
 633:Drivers/STM32F1xx_HAL_Driver/Inc/stm32f1xx_ll_gpio.h ****   WRITE_REG(GPIOx->LCKR, ((PinMask >> GPIO_PIN_MASK_POS) & 0x0000FFFFU));
 634:Drivers/STM32F1xx_HAL_Driver/Inc/stm32f1xx_ll_gpio.h ****   WRITE_REG(GPIOx->LCKR, GPIO_LCKR_LCKK | ((PinMask >> GPIO_PIN_MASK_POS) & 0x0000FFFFU));
 635:Drivers/STM32F1xx_HAL_Driver/Inc/stm32f1xx_ll_gpio.h ****   temp = READ_REG(GPIOx->LCKR);
 636:Drivers/STM32F1xx_HAL_Driver/Inc/stm32f1xx_ll_gpio.h ****   (void) temp;
 637:Drivers/STM32F1xx_HAL_Driver/Inc/stm32f1xx_ll_gpio.h **** }
 638:Drivers/STM32F1xx_HAL_Driver/Inc/stm32f1xx_ll_gpio.h **** 
 639:Drivers/STM32F1xx_HAL_Driver/Inc/stm32f1xx_ll_gpio.h **** /**
 640:Drivers/STM32F1xx_HAL_Driver/Inc/stm32f1xx_ll_gpio.h ****   * @brief  Return 1 if all pins passed as parameter, of a dedicated port, are locked. else Return 
 641:Drivers/STM32F1xx_HAL_Driver/Inc/stm32f1xx_ll_gpio.h ****   * @rmtoll LCKR         LCKy          LL_GPIO_IsPinLocked
 642:Drivers/STM32F1xx_HAL_Driver/Inc/stm32f1xx_ll_gpio.h ****   * @param  GPIOx GPIO Port
 643:Drivers/STM32F1xx_HAL_Driver/Inc/stm32f1xx_ll_gpio.h ****   * @param  PinMask This parameter can be a combination of the following values:
 644:Drivers/STM32F1xx_HAL_Driver/Inc/stm32f1xx_ll_gpio.h ****   *         @arg @ref LL_GPIO_PIN_0
 645:Drivers/STM32F1xx_HAL_Driver/Inc/stm32f1xx_ll_gpio.h ****   *         @arg @ref LL_GPIO_PIN_1
 646:Drivers/STM32F1xx_HAL_Driver/Inc/stm32f1xx_ll_gpio.h ****   *         @arg @ref LL_GPIO_PIN_2
 647:Drivers/STM32F1xx_HAL_Driver/Inc/stm32f1xx_ll_gpio.h ****   *         @arg @ref LL_GPIO_PIN_3
 648:Drivers/STM32F1xx_HAL_Driver/Inc/stm32f1xx_ll_gpio.h ****   *         @arg @ref LL_GPIO_PIN_4
 649:Drivers/STM32F1xx_HAL_Driver/Inc/stm32f1xx_ll_gpio.h ****   *         @arg @ref LL_GPIO_PIN_5
 650:Drivers/STM32F1xx_HAL_Driver/Inc/stm32f1xx_ll_gpio.h ****   *         @arg @ref LL_GPIO_PIN_6
 651:Drivers/STM32F1xx_HAL_Driver/Inc/stm32f1xx_ll_gpio.h ****   *         @arg @ref LL_GPIO_PIN_7
 652:Drivers/STM32F1xx_HAL_Driver/Inc/stm32f1xx_ll_gpio.h ****   *         @arg @ref LL_GPIO_PIN_8
 653:Drivers/STM32F1xx_HAL_Driver/Inc/stm32f1xx_ll_gpio.h ****   *         @arg @ref LL_GPIO_PIN_9
 654:Drivers/STM32F1xx_HAL_Driver/Inc/stm32f1xx_ll_gpio.h ****   *         @arg @ref LL_GPIO_PIN_10
 655:Drivers/STM32F1xx_HAL_Driver/Inc/stm32f1xx_ll_gpio.h ****   *         @arg @ref LL_GPIO_PIN_11
 656:Drivers/STM32F1xx_HAL_Driver/Inc/stm32f1xx_ll_gpio.h ****   *         @arg @ref LL_GPIO_PIN_12
 657:Drivers/STM32F1xx_HAL_Driver/Inc/stm32f1xx_ll_gpio.h ****   *         @arg @ref LL_GPIO_PIN_13
 658:Drivers/STM32F1xx_HAL_Driver/Inc/stm32f1xx_ll_gpio.h ****   *         @arg @ref LL_GPIO_PIN_14
 659:Drivers/STM32F1xx_HAL_Driver/Inc/stm32f1xx_ll_gpio.h ****   *         @arg @ref LL_GPIO_PIN_15
 660:Drivers/STM32F1xx_HAL_Driver/Inc/stm32f1xx_ll_gpio.h ****   *         @arg @ref LL_GPIO_PIN_ALL
 661:Drivers/STM32F1xx_HAL_Driver/Inc/stm32f1xx_ll_gpio.h ****   * @retval State of bit (1 or 0).
 662:Drivers/STM32F1xx_HAL_Driver/Inc/stm32f1xx_ll_gpio.h ****   */
 663:Drivers/STM32F1xx_HAL_Driver/Inc/stm32f1xx_ll_gpio.h **** __STATIC_INLINE uint32_t LL_GPIO_IsPinLocked(GPIO_TypeDef *GPIOx, uint32_t PinMask)
 664:Drivers/STM32F1xx_HAL_Driver/Inc/stm32f1xx_ll_gpio.h **** {
 665:Drivers/STM32F1xx_HAL_Driver/Inc/stm32f1xx_ll_gpio.h ****   return (READ_BIT(GPIOx->LCKR, ((PinMask >> GPIO_PIN_MASK_POS) & 0x0000FFFFU)) == ((PinMask >> GPI
 666:Drivers/STM32F1xx_HAL_Driver/Inc/stm32f1xx_ll_gpio.h **** }
 667:Drivers/STM32F1xx_HAL_Driver/Inc/stm32f1xx_ll_gpio.h **** 
 668:Drivers/STM32F1xx_HAL_Driver/Inc/stm32f1xx_ll_gpio.h **** /**
 669:Drivers/STM32F1xx_HAL_Driver/Inc/stm32f1xx_ll_gpio.h ****   * @brief  Return 1 if one of the pin of a dedicated port is locked. else return 0.
 670:Drivers/STM32F1xx_HAL_Driver/Inc/stm32f1xx_ll_gpio.h ****   * @rmtoll LCKR         LCKK          LL_GPIO_IsAnyPinLocked
 671:Drivers/STM32F1xx_HAL_Driver/Inc/stm32f1xx_ll_gpio.h ****   * @param  GPIOx GPIO Port
 672:Drivers/STM32F1xx_HAL_Driver/Inc/stm32f1xx_ll_gpio.h ****   * @retval State of bit (1 or 0).
 673:Drivers/STM32F1xx_HAL_Driver/Inc/stm32f1xx_ll_gpio.h ****   */
 674:Drivers/STM32F1xx_HAL_Driver/Inc/stm32f1xx_ll_gpio.h **** __STATIC_INLINE uint32_t LL_GPIO_IsAnyPinLocked(GPIO_TypeDef *GPIOx)
 675:Drivers/STM32F1xx_HAL_Driver/Inc/stm32f1xx_ll_gpio.h **** {
 676:Drivers/STM32F1xx_HAL_Driver/Inc/stm32f1xx_ll_gpio.h ****   return (READ_BIT(GPIOx->LCKR, GPIO_LCKR_LCKK) == (GPIO_LCKR_LCKK));
 677:Drivers/STM32F1xx_HAL_Driver/Inc/stm32f1xx_ll_gpio.h **** }
 678:Drivers/STM32F1xx_HAL_Driver/Inc/stm32f1xx_ll_gpio.h **** 
 679:Drivers/STM32F1xx_HAL_Driver/Inc/stm32f1xx_ll_gpio.h **** /**
 680:Drivers/STM32F1xx_HAL_Driver/Inc/stm32f1xx_ll_gpio.h ****   * @}
ARM GAS  /tmp/ccI0AsY7.s 			page 43


 681:Drivers/STM32F1xx_HAL_Driver/Inc/stm32f1xx_ll_gpio.h ****   */
 682:Drivers/STM32F1xx_HAL_Driver/Inc/stm32f1xx_ll_gpio.h **** 
 683:Drivers/STM32F1xx_HAL_Driver/Inc/stm32f1xx_ll_gpio.h **** /** @defgroup GPIO_LL_EF_Data_Access Data Access
 684:Drivers/STM32F1xx_HAL_Driver/Inc/stm32f1xx_ll_gpio.h ****   * @{
 685:Drivers/STM32F1xx_HAL_Driver/Inc/stm32f1xx_ll_gpio.h ****   */
 686:Drivers/STM32F1xx_HAL_Driver/Inc/stm32f1xx_ll_gpio.h **** 
 687:Drivers/STM32F1xx_HAL_Driver/Inc/stm32f1xx_ll_gpio.h **** /**
 688:Drivers/STM32F1xx_HAL_Driver/Inc/stm32f1xx_ll_gpio.h ****   * @brief  Return full input data register value for a dedicated port.
 689:Drivers/STM32F1xx_HAL_Driver/Inc/stm32f1xx_ll_gpio.h ****   * @rmtoll IDR          IDy           LL_GPIO_ReadInputPort
 690:Drivers/STM32F1xx_HAL_Driver/Inc/stm32f1xx_ll_gpio.h ****   * @param  GPIOx GPIO Port
 691:Drivers/STM32F1xx_HAL_Driver/Inc/stm32f1xx_ll_gpio.h ****   * @retval Input data register value of port
 692:Drivers/STM32F1xx_HAL_Driver/Inc/stm32f1xx_ll_gpio.h ****   */
 693:Drivers/STM32F1xx_HAL_Driver/Inc/stm32f1xx_ll_gpio.h **** __STATIC_INLINE uint32_t LL_GPIO_ReadInputPort(GPIO_TypeDef *GPIOx)
 694:Drivers/STM32F1xx_HAL_Driver/Inc/stm32f1xx_ll_gpio.h **** {
 695:Drivers/STM32F1xx_HAL_Driver/Inc/stm32f1xx_ll_gpio.h ****   return (READ_REG(GPIOx->IDR));
 696:Drivers/STM32F1xx_HAL_Driver/Inc/stm32f1xx_ll_gpio.h **** }
 697:Drivers/STM32F1xx_HAL_Driver/Inc/stm32f1xx_ll_gpio.h **** 
 698:Drivers/STM32F1xx_HAL_Driver/Inc/stm32f1xx_ll_gpio.h **** /**
 699:Drivers/STM32F1xx_HAL_Driver/Inc/stm32f1xx_ll_gpio.h ****   * @brief  Return if input data level for several pins of dedicated port is high or low.
 700:Drivers/STM32F1xx_HAL_Driver/Inc/stm32f1xx_ll_gpio.h ****   * @rmtoll IDR          IDy           LL_GPIO_IsInputPinSet
 701:Drivers/STM32F1xx_HAL_Driver/Inc/stm32f1xx_ll_gpio.h ****   * @param  GPIOx GPIO Port
 702:Drivers/STM32F1xx_HAL_Driver/Inc/stm32f1xx_ll_gpio.h ****   * @param  PinMask This parameter can be a combination of the following values:
 703:Drivers/STM32F1xx_HAL_Driver/Inc/stm32f1xx_ll_gpio.h ****   *         @arg @ref LL_GPIO_PIN_0
 704:Drivers/STM32F1xx_HAL_Driver/Inc/stm32f1xx_ll_gpio.h ****   *         @arg @ref LL_GPIO_PIN_1
 705:Drivers/STM32F1xx_HAL_Driver/Inc/stm32f1xx_ll_gpio.h ****   *         @arg @ref LL_GPIO_PIN_2
 706:Drivers/STM32F1xx_HAL_Driver/Inc/stm32f1xx_ll_gpio.h ****   *         @arg @ref LL_GPIO_PIN_3
 707:Drivers/STM32F1xx_HAL_Driver/Inc/stm32f1xx_ll_gpio.h ****   *         @arg @ref LL_GPIO_PIN_4
 708:Drivers/STM32F1xx_HAL_Driver/Inc/stm32f1xx_ll_gpio.h ****   *         @arg @ref LL_GPIO_PIN_5
 709:Drivers/STM32F1xx_HAL_Driver/Inc/stm32f1xx_ll_gpio.h ****   *         @arg @ref LL_GPIO_PIN_6
 710:Drivers/STM32F1xx_HAL_Driver/Inc/stm32f1xx_ll_gpio.h ****   *         @arg @ref LL_GPIO_PIN_7
 711:Drivers/STM32F1xx_HAL_Driver/Inc/stm32f1xx_ll_gpio.h ****   *         @arg @ref LL_GPIO_PIN_8
 712:Drivers/STM32F1xx_HAL_Driver/Inc/stm32f1xx_ll_gpio.h ****   *         @arg @ref LL_GPIO_PIN_9
 713:Drivers/STM32F1xx_HAL_Driver/Inc/stm32f1xx_ll_gpio.h ****   *         @arg @ref LL_GPIO_PIN_10
 714:Drivers/STM32F1xx_HAL_Driver/Inc/stm32f1xx_ll_gpio.h ****   *         @arg @ref LL_GPIO_PIN_11
 715:Drivers/STM32F1xx_HAL_Driver/Inc/stm32f1xx_ll_gpio.h ****   *         @arg @ref LL_GPIO_PIN_12
 716:Drivers/STM32F1xx_HAL_Driver/Inc/stm32f1xx_ll_gpio.h ****   *         @arg @ref LL_GPIO_PIN_13
 717:Drivers/STM32F1xx_HAL_Driver/Inc/stm32f1xx_ll_gpio.h ****   *         @arg @ref LL_GPIO_PIN_14
 718:Drivers/STM32F1xx_HAL_Driver/Inc/stm32f1xx_ll_gpio.h ****   *         @arg @ref LL_GPIO_PIN_15
 719:Drivers/STM32F1xx_HAL_Driver/Inc/stm32f1xx_ll_gpio.h ****   *         @arg @ref LL_GPIO_PIN_ALL
 720:Drivers/STM32F1xx_HAL_Driver/Inc/stm32f1xx_ll_gpio.h ****   * @retval State of bit (1 or 0).
 721:Drivers/STM32F1xx_HAL_Driver/Inc/stm32f1xx_ll_gpio.h ****   */
 722:Drivers/STM32F1xx_HAL_Driver/Inc/stm32f1xx_ll_gpio.h **** __STATIC_INLINE uint32_t LL_GPIO_IsInputPinSet(GPIO_TypeDef *GPIOx, uint32_t PinMask)
 723:Drivers/STM32F1xx_HAL_Driver/Inc/stm32f1xx_ll_gpio.h **** {
 724:Drivers/STM32F1xx_HAL_Driver/Inc/stm32f1xx_ll_gpio.h ****   return (READ_BIT(GPIOx->IDR, (PinMask >> GPIO_PIN_MASK_POS) & 0x0000FFFFU) == ((PinMask >> GPIO_P
 725:Drivers/STM32F1xx_HAL_Driver/Inc/stm32f1xx_ll_gpio.h **** }
 726:Drivers/STM32F1xx_HAL_Driver/Inc/stm32f1xx_ll_gpio.h **** 
 727:Drivers/STM32F1xx_HAL_Driver/Inc/stm32f1xx_ll_gpio.h **** /**
 728:Drivers/STM32F1xx_HAL_Driver/Inc/stm32f1xx_ll_gpio.h ****   * @brief  Write output data register for the port.
 729:Drivers/STM32F1xx_HAL_Driver/Inc/stm32f1xx_ll_gpio.h ****   * @rmtoll ODR          ODy           LL_GPIO_WriteOutputPort
 730:Drivers/STM32F1xx_HAL_Driver/Inc/stm32f1xx_ll_gpio.h ****   * @param  GPIOx GPIO Port
 731:Drivers/STM32F1xx_HAL_Driver/Inc/stm32f1xx_ll_gpio.h ****   * @param  PortValue Level value for each pin of the port
 732:Drivers/STM32F1xx_HAL_Driver/Inc/stm32f1xx_ll_gpio.h ****   * @retval None
 733:Drivers/STM32F1xx_HAL_Driver/Inc/stm32f1xx_ll_gpio.h ****   */
 734:Drivers/STM32F1xx_HAL_Driver/Inc/stm32f1xx_ll_gpio.h **** __STATIC_INLINE void LL_GPIO_WriteOutputPort(GPIO_TypeDef *GPIOx, uint32_t PortValue)
 735:Drivers/STM32F1xx_HAL_Driver/Inc/stm32f1xx_ll_gpio.h **** {
 736:Drivers/STM32F1xx_HAL_Driver/Inc/stm32f1xx_ll_gpio.h ****   WRITE_REG(GPIOx->ODR, PortValue);
 737:Drivers/STM32F1xx_HAL_Driver/Inc/stm32f1xx_ll_gpio.h **** }
ARM GAS  /tmp/ccI0AsY7.s 			page 44


 738:Drivers/STM32F1xx_HAL_Driver/Inc/stm32f1xx_ll_gpio.h **** 
 739:Drivers/STM32F1xx_HAL_Driver/Inc/stm32f1xx_ll_gpio.h **** /**
 740:Drivers/STM32F1xx_HAL_Driver/Inc/stm32f1xx_ll_gpio.h ****   * @brief  Return full output data register value for a dedicated port.
 741:Drivers/STM32F1xx_HAL_Driver/Inc/stm32f1xx_ll_gpio.h ****   * @rmtoll ODR          ODy           LL_GPIO_ReadOutputPort
 742:Drivers/STM32F1xx_HAL_Driver/Inc/stm32f1xx_ll_gpio.h ****   * @param  GPIOx GPIO Port
 743:Drivers/STM32F1xx_HAL_Driver/Inc/stm32f1xx_ll_gpio.h ****   * @retval Output data register value of port
 744:Drivers/STM32F1xx_HAL_Driver/Inc/stm32f1xx_ll_gpio.h ****   */
 745:Drivers/STM32F1xx_HAL_Driver/Inc/stm32f1xx_ll_gpio.h **** __STATIC_INLINE uint32_t LL_GPIO_ReadOutputPort(GPIO_TypeDef *GPIOx)
 746:Drivers/STM32F1xx_HAL_Driver/Inc/stm32f1xx_ll_gpio.h **** {
 747:Drivers/STM32F1xx_HAL_Driver/Inc/stm32f1xx_ll_gpio.h ****   return (uint32_t)(READ_REG(GPIOx->ODR));
 748:Drivers/STM32F1xx_HAL_Driver/Inc/stm32f1xx_ll_gpio.h **** }
 749:Drivers/STM32F1xx_HAL_Driver/Inc/stm32f1xx_ll_gpio.h **** 
 750:Drivers/STM32F1xx_HAL_Driver/Inc/stm32f1xx_ll_gpio.h **** /**
 751:Drivers/STM32F1xx_HAL_Driver/Inc/stm32f1xx_ll_gpio.h ****   * @brief  Return if input data level for several pins of dedicated port is high or low.
 752:Drivers/STM32F1xx_HAL_Driver/Inc/stm32f1xx_ll_gpio.h ****   * @rmtoll ODR          ODy           LL_GPIO_IsOutputPinSet
 753:Drivers/STM32F1xx_HAL_Driver/Inc/stm32f1xx_ll_gpio.h ****   * @param  GPIOx GPIO Port
 754:Drivers/STM32F1xx_HAL_Driver/Inc/stm32f1xx_ll_gpio.h ****   * @param  PinMask This parameter can be a combination of the following values:
 755:Drivers/STM32F1xx_HAL_Driver/Inc/stm32f1xx_ll_gpio.h ****   *         @arg @ref LL_GPIO_PIN_0
 756:Drivers/STM32F1xx_HAL_Driver/Inc/stm32f1xx_ll_gpio.h ****   *         @arg @ref LL_GPIO_PIN_1
 757:Drivers/STM32F1xx_HAL_Driver/Inc/stm32f1xx_ll_gpio.h ****   *         @arg @ref LL_GPIO_PIN_2
 758:Drivers/STM32F1xx_HAL_Driver/Inc/stm32f1xx_ll_gpio.h ****   *         @arg @ref LL_GPIO_PIN_3
 759:Drivers/STM32F1xx_HAL_Driver/Inc/stm32f1xx_ll_gpio.h ****   *         @arg @ref LL_GPIO_PIN_4
 760:Drivers/STM32F1xx_HAL_Driver/Inc/stm32f1xx_ll_gpio.h ****   *         @arg @ref LL_GPIO_PIN_5
 761:Drivers/STM32F1xx_HAL_Driver/Inc/stm32f1xx_ll_gpio.h ****   *         @arg @ref LL_GPIO_PIN_6
 762:Drivers/STM32F1xx_HAL_Driver/Inc/stm32f1xx_ll_gpio.h ****   *         @arg @ref LL_GPIO_PIN_7
 763:Drivers/STM32F1xx_HAL_Driver/Inc/stm32f1xx_ll_gpio.h ****   *         @arg @ref LL_GPIO_PIN_8
 764:Drivers/STM32F1xx_HAL_Driver/Inc/stm32f1xx_ll_gpio.h ****   *         @arg @ref LL_GPIO_PIN_9
 765:Drivers/STM32F1xx_HAL_Driver/Inc/stm32f1xx_ll_gpio.h ****   *         @arg @ref LL_GPIO_PIN_10
 766:Drivers/STM32F1xx_HAL_Driver/Inc/stm32f1xx_ll_gpio.h ****   *         @arg @ref LL_GPIO_PIN_11
 767:Drivers/STM32F1xx_HAL_Driver/Inc/stm32f1xx_ll_gpio.h ****   *         @arg @ref LL_GPIO_PIN_12
 768:Drivers/STM32F1xx_HAL_Driver/Inc/stm32f1xx_ll_gpio.h ****   *         @arg @ref LL_GPIO_PIN_13
 769:Drivers/STM32F1xx_HAL_Driver/Inc/stm32f1xx_ll_gpio.h ****   *         @arg @ref LL_GPIO_PIN_14
 770:Drivers/STM32F1xx_HAL_Driver/Inc/stm32f1xx_ll_gpio.h ****   *         @arg @ref LL_GPIO_PIN_15
 771:Drivers/STM32F1xx_HAL_Driver/Inc/stm32f1xx_ll_gpio.h ****   *         @arg @ref LL_GPIO_PIN_ALL
 772:Drivers/STM32F1xx_HAL_Driver/Inc/stm32f1xx_ll_gpio.h ****   * @retval State of bit (1 or 0).
 773:Drivers/STM32F1xx_HAL_Driver/Inc/stm32f1xx_ll_gpio.h ****   */
 774:Drivers/STM32F1xx_HAL_Driver/Inc/stm32f1xx_ll_gpio.h **** __STATIC_INLINE uint32_t LL_GPIO_IsOutputPinSet(GPIO_TypeDef *GPIOx, uint32_t PinMask)
 775:Drivers/STM32F1xx_HAL_Driver/Inc/stm32f1xx_ll_gpio.h **** {
 776:Drivers/STM32F1xx_HAL_Driver/Inc/stm32f1xx_ll_gpio.h ****   return (READ_BIT(GPIOx->ODR, (PinMask >> GPIO_PIN_MASK_POS) & 0x0000FFFFU) == ((PinMask >> GPIO_P
 777:Drivers/STM32F1xx_HAL_Driver/Inc/stm32f1xx_ll_gpio.h **** }
 778:Drivers/STM32F1xx_HAL_Driver/Inc/stm32f1xx_ll_gpio.h **** 
 779:Drivers/STM32F1xx_HAL_Driver/Inc/stm32f1xx_ll_gpio.h **** /**
 780:Drivers/STM32F1xx_HAL_Driver/Inc/stm32f1xx_ll_gpio.h ****   * @brief  Set several pins to high level on dedicated gpio port.
 781:Drivers/STM32F1xx_HAL_Driver/Inc/stm32f1xx_ll_gpio.h ****   * @rmtoll BSRR         BSy           LL_GPIO_SetOutputPin
 782:Drivers/STM32F1xx_HAL_Driver/Inc/stm32f1xx_ll_gpio.h ****   * @param  GPIOx GPIO Port
 783:Drivers/STM32F1xx_HAL_Driver/Inc/stm32f1xx_ll_gpio.h ****   * @param  PinMask This parameter can be a combination of the following values:
 784:Drivers/STM32F1xx_HAL_Driver/Inc/stm32f1xx_ll_gpio.h ****   *         @arg @ref LL_GPIO_PIN_0
 785:Drivers/STM32F1xx_HAL_Driver/Inc/stm32f1xx_ll_gpio.h ****   *         @arg @ref LL_GPIO_PIN_1
 786:Drivers/STM32F1xx_HAL_Driver/Inc/stm32f1xx_ll_gpio.h ****   *         @arg @ref LL_GPIO_PIN_2
 787:Drivers/STM32F1xx_HAL_Driver/Inc/stm32f1xx_ll_gpio.h ****   *         @arg @ref LL_GPIO_PIN_3
 788:Drivers/STM32F1xx_HAL_Driver/Inc/stm32f1xx_ll_gpio.h ****   *         @arg @ref LL_GPIO_PIN_4
 789:Drivers/STM32F1xx_HAL_Driver/Inc/stm32f1xx_ll_gpio.h ****   *         @arg @ref LL_GPIO_PIN_5
 790:Drivers/STM32F1xx_HAL_Driver/Inc/stm32f1xx_ll_gpio.h ****   *         @arg @ref LL_GPIO_PIN_6
 791:Drivers/STM32F1xx_HAL_Driver/Inc/stm32f1xx_ll_gpio.h ****   *         @arg @ref LL_GPIO_PIN_7
 792:Drivers/STM32F1xx_HAL_Driver/Inc/stm32f1xx_ll_gpio.h ****   *         @arg @ref LL_GPIO_PIN_8
 793:Drivers/STM32F1xx_HAL_Driver/Inc/stm32f1xx_ll_gpio.h ****   *         @arg @ref LL_GPIO_PIN_9
 794:Drivers/STM32F1xx_HAL_Driver/Inc/stm32f1xx_ll_gpio.h ****   *         @arg @ref LL_GPIO_PIN_10
ARM GAS  /tmp/ccI0AsY7.s 			page 45


 795:Drivers/STM32F1xx_HAL_Driver/Inc/stm32f1xx_ll_gpio.h ****   *         @arg @ref LL_GPIO_PIN_11
 796:Drivers/STM32F1xx_HAL_Driver/Inc/stm32f1xx_ll_gpio.h ****   *         @arg @ref LL_GPIO_PIN_12
 797:Drivers/STM32F1xx_HAL_Driver/Inc/stm32f1xx_ll_gpio.h ****   *         @arg @ref LL_GPIO_PIN_13
 798:Drivers/STM32F1xx_HAL_Driver/Inc/stm32f1xx_ll_gpio.h ****   *         @arg @ref LL_GPIO_PIN_14
 799:Drivers/STM32F1xx_HAL_Driver/Inc/stm32f1xx_ll_gpio.h ****   *         @arg @ref LL_GPIO_PIN_15
 800:Drivers/STM32F1xx_HAL_Driver/Inc/stm32f1xx_ll_gpio.h ****   *         @arg @ref LL_GPIO_PIN_ALL
 801:Drivers/STM32F1xx_HAL_Driver/Inc/stm32f1xx_ll_gpio.h ****   * @retval None
 802:Drivers/STM32F1xx_HAL_Driver/Inc/stm32f1xx_ll_gpio.h ****   */
 803:Drivers/STM32F1xx_HAL_Driver/Inc/stm32f1xx_ll_gpio.h **** __STATIC_INLINE void LL_GPIO_SetOutputPin(GPIO_TypeDef *GPIOx, uint32_t PinMask)
 804:Drivers/STM32F1xx_HAL_Driver/Inc/stm32f1xx_ll_gpio.h **** {
 805:Drivers/STM32F1xx_HAL_Driver/Inc/stm32f1xx_ll_gpio.h ****   WRITE_REG(GPIOx->BSRR, (PinMask >> GPIO_PIN_MASK_POS) & 0x0000FFFFU);
 806:Drivers/STM32F1xx_HAL_Driver/Inc/stm32f1xx_ll_gpio.h **** }
 807:Drivers/STM32F1xx_HAL_Driver/Inc/stm32f1xx_ll_gpio.h **** 
 808:Drivers/STM32F1xx_HAL_Driver/Inc/stm32f1xx_ll_gpio.h **** /**
 809:Drivers/STM32F1xx_HAL_Driver/Inc/stm32f1xx_ll_gpio.h ****   * @brief  Set several pins to low level on dedicated gpio port.
 810:Drivers/STM32F1xx_HAL_Driver/Inc/stm32f1xx_ll_gpio.h ****   * @rmtoll BRR          BRy           LL_GPIO_ResetOutputPin
 811:Drivers/STM32F1xx_HAL_Driver/Inc/stm32f1xx_ll_gpio.h ****   * @param  GPIOx GPIO Port
 812:Drivers/STM32F1xx_HAL_Driver/Inc/stm32f1xx_ll_gpio.h ****   * @param  PinMask This parameter can be a combination of the following values:
 813:Drivers/STM32F1xx_HAL_Driver/Inc/stm32f1xx_ll_gpio.h ****   *         @arg @ref LL_GPIO_PIN_0
 814:Drivers/STM32F1xx_HAL_Driver/Inc/stm32f1xx_ll_gpio.h ****   *         @arg @ref LL_GPIO_PIN_1
 815:Drivers/STM32F1xx_HAL_Driver/Inc/stm32f1xx_ll_gpio.h ****   *         @arg @ref LL_GPIO_PIN_2
 816:Drivers/STM32F1xx_HAL_Driver/Inc/stm32f1xx_ll_gpio.h ****   *         @arg @ref LL_GPIO_PIN_3
 817:Drivers/STM32F1xx_HAL_Driver/Inc/stm32f1xx_ll_gpio.h ****   *         @arg @ref LL_GPIO_PIN_4
 818:Drivers/STM32F1xx_HAL_Driver/Inc/stm32f1xx_ll_gpio.h ****   *         @arg @ref LL_GPIO_PIN_5
 819:Drivers/STM32F1xx_HAL_Driver/Inc/stm32f1xx_ll_gpio.h ****   *         @arg @ref LL_GPIO_PIN_6
 820:Drivers/STM32F1xx_HAL_Driver/Inc/stm32f1xx_ll_gpio.h ****   *         @arg @ref LL_GPIO_PIN_7
 821:Drivers/STM32F1xx_HAL_Driver/Inc/stm32f1xx_ll_gpio.h ****   *         @arg @ref LL_GPIO_PIN_8
 822:Drivers/STM32F1xx_HAL_Driver/Inc/stm32f1xx_ll_gpio.h ****   *         @arg @ref LL_GPIO_PIN_9
 823:Drivers/STM32F1xx_HAL_Driver/Inc/stm32f1xx_ll_gpio.h ****   *         @arg @ref LL_GPIO_PIN_10
 824:Drivers/STM32F1xx_HAL_Driver/Inc/stm32f1xx_ll_gpio.h ****   *         @arg @ref LL_GPIO_PIN_11
 825:Drivers/STM32F1xx_HAL_Driver/Inc/stm32f1xx_ll_gpio.h ****   *         @arg @ref LL_GPIO_PIN_12
 826:Drivers/STM32F1xx_HAL_Driver/Inc/stm32f1xx_ll_gpio.h ****   *         @arg @ref LL_GPIO_PIN_13
 827:Drivers/STM32F1xx_HAL_Driver/Inc/stm32f1xx_ll_gpio.h ****   *         @arg @ref LL_GPIO_PIN_14
 828:Drivers/STM32F1xx_HAL_Driver/Inc/stm32f1xx_ll_gpio.h ****   *         @arg @ref LL_GPIO_PIN_15
 829:Drivers/STM32F1xx_HAL_Driver/Inc/stm32f1xx_ll_gpio.h ****   *         @arg @ref LL_GPIO_PIN_ALL
 830:Drivers/STM32F1xx_HAL_Driver/Inc/stm32f1xx_ll_gpio.h ****   * @retval None
 831:Drivers/STM32F1xx_HAL_Driver/Inc/stm32f1xx_ll_gpio.h ****   */
 832:Drivers/STM32F1xx_HAL_Driver/Inc/stm32f1xx_ll_gpio.h **** __STATIC_INLINE void LL_GPIO_ResetOutputPin(GPIO_TypeDef *GPIOx, uint32_t PinMask)
 955              		.loc 2 832 22 view .LVU203
 956              	.LBB13:
 833:Drivers/STM32F1xx_HAL_Driver/Inc/stm32f1xx_ll_gpio.h **** {
 834:Drivers/STM32F1xx_HAL_Driver/Inc/stm32f1xx_ll_gpio.h ****   WRITE_REG(GPIOx->BRR, (PinMask >> GPIO_PIN_MASK_POS) & 0x0000FFFFU);
 957              		.loc 2 834 3 view .LVU204
 958 0002 074B     		ldr	r3, .L75
 959 0004 0422     		movs	r2, #4
 960 0006 5A61     		str	r2, [r3, #20]
 961              	.LVL69:
 962              		.loc 2 834 3 is_stmt 0 view .LVU205
 963              	.LBE13:
 964              	.LBE12:
 202:display/ssd1306.c **** 		SSD1306_WRITECOMMAND(0x00); //–£—Å—Ç–∞–Ω–∞–≤–∫–∞ –º–ª–∞–¥—à–µ–≥–æ –Ω–∏–±–±–ª–∞ —Ä–µ–≥–∏—Å—Ç—Ä–∞ –
 965              		.loc 1 202 3 is_stmt 1 view .LVU206
 966 0008 5038     		subs	r0, r0, #80
 967              	.LVL70:
 202:display/ssd1306.c **** 		SSD1306_WRITECOMMAND(0x00); //–£—Å—Ç–∞–Ω–∞–≤–∫–∞ –º–ª–∞–¥—à–µ–≥–æ –Ω–∏–±–±–ª–∞ —Ä–µ–≥–∏—Å—Ç—Ä–∞ –
 968              		.loc 1 202 3 is_stmt 0 view .LVU207
 969 000a C0B2     		uxtb	r0, r0
ARM GAS  /tmp/ccI0AsY7.s 			page 46


 970 000c FFF7FEFF 		bl	ssd1306_SendCommand
 971              	.LVL71:
 203:display/ssd1306.c **** 		SSD1306_WRITECOMMAND(0x10); //–£—Å—Ç–∞–Ω–∞–≤–∫–∞ —Å—Ç–∞—Ä—à–µ–≥–æ –Ω–∏–±–±–ª–∞ —Ä–µ–≥–∏—Å—Ç—Ä–∞ –
 972              		.loc 1 203 3 is_stmt 1 view .LVU208
 973 0010 0020     		movs	r0, #0
 974 0012 FFF7FEFF 		bl	ssd1306_SendCommand
 975              	.LVL72:
 204:display/ssd1306.c **** 	//  CS(OFF);
 976              		.loc 1 204 3 view .LVU209
 977 0016 1020     		movs	r0, #16
 978 0018 FFF7FEFF 		bl	ssd1306_SendCommand
 979              	.LVL73:
 206:display/ssd1306.c **** 
 980              		.loc 1 206 1 is_stmt 0 view .LVU210
 981 001c 08BD     		pop	{r3, pc}
 982              	.L76:
 983 001e 00BF     		.align	2
 984              	.L75:
 985 0020 000C0140 		.word	1073810432
 986              		.cfi_endproc
 987              	.LFE961:
 989              		.section	.text.SSD1306_ToggleInvert,"ax",%progbits
 990              		.align	1
 991              		.global	SSD1306_ToggleInvert
 992              		.syntax unified
 993              		.thumb
 994              		.thumb_func
 996              	SSD1306_ToggleInvert:
 997              	.LFB963:
 216:display/ssd1306.c **** 	uint16_t i;
 998              		.loc 1 216 1 is_stmt 1 view -0
 999              		.cfi_startproc
 1000              		@ args = 0, pretend = 0, frame = 0
 1001              		@ frame_needed = 0, uses_anonymous_args = 0
 1002              		@ link register save eliminated.
 217:display/ssd1306.c **** 	
 1003              		.loc 1 217 2 view .LVU212
 219:display/ssd1306.c **** 
 1004              		.loc 1 219 2 view .LVU213
 219:display/ssd1306.c **** 
 1005              		.loc 1 219 29 is_stmt 0 view .LVU214
 1006 0000 084A     		ldr	r2, .L80
 1007 0002 1379     		ldrb	r3, [r2, #4]	@ zero_extendqisi2
 219:display/ssd1306.c **** 
 1008              		.loc 1 219 21 view .LVU215
 1009 0004 B3FA83F3 		clz	r3, r3
 1010 0008 5B09     		lsrs	r3, r3, #5
 219:display/ssd1306.c **** 
 1011              		.loc 1 219 19 view .LVU216
 1012 000a 1371     		strb	r3, [r2, #4]
 221:display/ssd1306.c **** 	{	SSD1306_Buffer[i] = ~SSD1306_Buffer[i];	}
 1013              		.loc 1 221 2 is_stmt 1 view .LVU217
 1014              	.LVL74:
 221:display/ssd1306.c **** 	{	SSD1306_Buffer[i] = ~SSD1306_Buffer[i];	}
 1015              		.loc 1 221 9 is_stmt 0 view .LVU218
 1016 000c 0023     		movs	r3, #0
 221:display/ssd1306.c **** 	{	SSD1306_Buffer[i] = ~SSD1306_Buffer[i];	}
ARM GAS  /tmp/ccI0AsY7.s 			page 47


 1017              		.loc 1 221 2 view .LVU219
 1018 000e 05E0     		b	.L78
 1019              	.LVL75:
 1020              	.L79:
 222:display/ssd1306.c **** }
 1021              		.loc 1 222 4 is_stmt 1 discriminator 3 view .LVU220
 222:display/ssd1306.c **** }
 1022              		.loc 1 222 39 is_stmt 0 discriminator 3 view .LVU221
 1023 0010 0549     		ldr	r1, .L80+4
 1024 0012 CA5C     		ldrb	r2, [r1, r3]	@ zero_extendqisi2
 222:display/ssd1306.c **** }
 1025              		.loc 1 222 22 discriminator 3 view .LVU222
 1026 0014 D243     		mvns	r2, r2
 1027 0016 CA54     		strb	r2, [r1, r3]
 221:display/ssd1306.c **** 	{	SSD1306_Buffer[i] = ~SSD1306_Buffer[i];	}
 1028              		.loc 1 221 42 is_stmt 1 discriminator 3 view .LVU223
 221:display/ssd1306.c **** 	{	SSD1306_Buffer[i] = ~SSD1306_Buffer[i];	}
 1029              		.loc 1 221 43 is_stmt 0 discriminator 3 view .LVU224
 1030 0018 0133     		adds	r3, r3, #1
 1031              	.LVL76:
 221:display/ssd1306.c **** 	{	SSD1306_Buffer[i] = ~SSD1306_Buffer[i];	}
 1032              		.loc 1 221 43 discriminator 3 view .LVU225
 1033 001a 9BB2     		uxth	r3, r3
 1034              	.LVL77:
 1035              	.L78:
 221:display/ssd1306.c **** 	{	SSD1306_Buffer[i] = ~SSD1306_Buffer[i];	}
 1036              		.loc 1 221 14 is_stmt 1 discriminator 1 view .LVU226
 221:display/ssd1306.c **** 	{	SSD1306_Buffer[i] = ~SSD1306_Buffer[i];	}
 1037              		.loc 1 221 2 is_stmt 0 discriminator 1 view .LVU227
 1038 001c B3F5047F 		cmp	r3, #528
 1039 0020 F6D3     		bcc	.L79
 223:display/ssd1306.c **** 
 1040              		.loc 1 223 1 view .LVU228
 1041 0022 7047     		bx	lr
 1042              	.L81:
 1043              		.align	2
 1044              	.L80:
 1045 0024 00000000 		.word	.LANCHOR0
 1046 0028 00000000 		.word	.LANCHOR1
 1047              		.cfi_endproc
 1048              	.LFE963:
 1050              		.section	.text.SSD1306_Fill,"ax",%progbits
 1051              		.align	1
 1052              		.global	SSD1306_Fill
 1053              		.syntax unified
 1054              		.thumb
 1055              		.thumb_func
 1057              	SSD1306_Fill:
 1058              	.LVL78:
 1059              	.LFB964:
 227:display/ssd1306.c **** 	if (SSD1306.Inverted) 
 1060              		.loc 1 227 1 is_stmt 1 view -0
 1061              		.cfi_startproc
 1062              		@ args = 0, pretend = 0, frame = 0
 1063              		@ frame_needed = 0, uses_anonymous_args = 0
 227:display/ssd1306.c **** 	if (SSD1306.Inverted) 
 1064              		.loc 1 227 1 is_stmt 0 view .LVU230
ARM GAS  /tmp/ccI0AsY7.s 			page 48


 1065 0000 08B5     		push	{r3, lr}
 1066              	.LCFI10:
 1067              		.cfi_def_cfa_offset 8
 1068              		.cfi_offset 3, -8
 1069              		.cfi_offset 14, -4
 228:display/ssd1306.c **** 	{	memset(SSD1306_Buffer, (color == SSD1306_COLOR_WHITE) ? 0x00 : 0xFF, SSD1306_BUFFER_SIZE);	}
 1070              		.loc 1 228 2 is_stmt 1 view .LVU231
 228:display/ssd1306.c **** 	{	memset(SSD1306_Buffer, (color == SSD1306_COLOR_WHITE) ? 0x00 : 0xFF, SSD1306_BUFFER_SIZE);	}
 1071              		.loc 1 228 13 is_stmt 0 view .LVU232
 1072 0002 0C4B     		ldr	r3, .L91
 1073 0004 1B79     		ldrb	r3, [r3, #4]	@ zero_extendqisi2
 228:display/ssd1306.c **** 	{	memset(SSD1306_Buffer, (color == SSD1306_COLOR_WHITE) ? 0x00 : 0xFF, SSD1306_BUFFER_SIZE);	}
 1074              		.loc 1 228 5 view .LVU233
 1075 0006 53B1     		cbz	r3, .L83
 229:display/ssd1306.c **** 	else 
 1076              		.loc 1 229 4 is_stmt 1 view .LVU234
 1077 0008 0128     		cmp	r0, #1
 1078 000a 06D0     		beq	.L90
 1079 000c FF21     		movs	r1, #255
 1080              	.L84:
 229:display/ssd1306.c **** 	else 
 1081              		.loc 1 229 4 is_stmt 0 discriminator 4 view .LVU235
 1082 000e 4FF40472 		mov	r2, #528
 1083 0012 0948     		ldr	r0, .L91+4
 1084              	.LVL79:
 229:display/ssd1306.c **** 	else 
 1085              		.loc 1 229 4 discriminator 4 view .LVU236
 1086 0014 FFF7FEFF 		bl	memset
 1087              	.LVL80:
 1088              	.L82:
 232:display/ssd1306.c **** 
 1089              		.loc 1 232 1 view .LVU237
 1090 0018 08BD     		pop	{r3, pc}
 1091              	.LVL81:
 1092              	.L90:
 229:display/ssd1306.c **** 	else 
 1093              		.loc 1 229 4 view .LVU238
 1094 001a 0021     		movs	r1, #0
 1095 001c F7E7     		b	.L84
 1096              	.L83:
 231:display/ssd1306.c **** }
 1097              		.loc 1 231 4 is_stmt 1 view .LVU239
 1098 001e 30B9     		cbnz	r0, .L88
 1099 0020 0021     		movs	r1, #0
 1100              	.L86:
 231:display/ssd1306.c **** }
 1101              		.loc 1 231 4 is_stmt 0 discriminator 4 view .LVU240
 1102 0022 4FF40472 		mov	r2, #528
 1103 0026 0448     		ldr	r0, .L91+4
 1104              	.LVL82:
 231:display/ssd1306.c **** }
 1105              		.loc 1 231 4 discriminator 4 view .LVU241
 1106 0028 FFF7FEFF 		bl	memset
 1107              	.LVL83:
 232:display/ssd1306.c **** 
 1108              		.loc 1 232 1 discriminator 4 view .LVU242
 1109 002c F4E7     		b	.L82
ARM GAS  /tmp/ccI0AsY7.s 			page 49


 1110              	.LVL84:
 1111              	.L88:
 231:display/ssd1306.c **** }
 1112              		.loc 1 231 4 view .LVU243
 1113 002e FF21     		movs	r1, #255
 1114 0030 F7E7     		b	.L86
 1115              	.L92:
 1116 0032 00BF     		.align	2
 1117              	.L91:
 1118 0034 00000000 		.word	.LANCHOR0
 1119 0038 00000000 		.word	.LANCHOR1
 1120              		.cfi_endproc
 1121              	.LFE964:
 1123              		.section	.text.SSD1306_Clear_Screen,"ax",%progbits
 1124              		.align	1
 1125              		.global	SSD1306_Clear_Screen
 1126              		.syntax unified
 1127              		.thumb
 1128              		.thumb_func
 1130              	SSD1306_Clear_Screen:
 1131              	.LFB962:
 210:display/ssd1306.c **** 	SSD1306_Fill(SSD1306_COLOR_BLACK); 
 1132              		.loc 1 210 1 is_stmt 1 view -0
 1133              		.cfi_startproc
 1134              		@ args = 0, pretend = 0, frame = 0
 1135              		@ frame_needed = 0, uses_anonymous_args = 0
 1136 0000 08B5     		push	{r3, lr}
 1137              	.LCFI11:
 1138              		.cfi_def_cfa_offset 8
 1139              		.cfi_offset 3, -8
 1140              		.cfi_offset 14, -4
 211:display/ssd1306.c **** }
 1141              		.loc 1 211 2 view .LVU245
 1142 0002 0020     		movs	r0, #0
 1143 0004 FFF7FEFF 		bl	SSD1306_Fill
 1144              	.LVL85:
 212:display/ssd1306.c **** 
 1145              		.loc 1 212 1 is_stmt 0 view .LVU246
 1146 0008 08BD     		pop	{r3, pc}
 1147              		.cfi_endproc
 1148              	.LFE962:
 1150              		.section	.text.ssd1306_Init,"ax",%progbits
 1151              		.align	1
 1152              		.global	ssd1306_Init
 1153              		.syntax unified
 1154              		.thumb
 1155              		.thumb_func
 1157              	ssd1306_Init:
 1158              	.LFB953:
  35:display/ssd1306.c **** 	LCD_RESET(OFF);
 1159              		.loc 1 35 1 is_stmt 1 view -0
 1160              		.cfi_startproc
 1161              		@ args = 0, pretend = 0, frame = 0
 1162              		@ frame_needed = 0, uses_anonymous_args = 0
 1163 0000 70B5     		push	{r4, r5, r6, lr}
 1164              	.LCFI12:
 1165              		.cfi_def_cfa_offset 16
ARM GAS  /tmp/ccI0AsY7.s 			page 50


 1166              		.cfi_offset 4, -16
 1167              		.cfi_offset 5, -12
 1168              		.cfi_offset 6, -8
 1169              		.cfi_offset 14, -4
  36:display/ssd1306.c **** 	delay_us(3000);	
 1170              		.loc 1 36 2 view .LVU248
 1171              	.LVL86:
 1172              	.LBB14:
 1173              	.LBI14:
 832:Drivers/STM32F1xx_HAL_Driver/Inc/stm32f1xx_ll_gpio.h **** {
 1174              		.loc 2 832 22 view .LVU249
 1175              	.LBB15:
 1176              		.loc 2 834 3 view .LVU250
 1177 0002 324C     		ldr	r4, .L97
 1178 0004 0125     		movs	r5, #1
 1179 0006 6561     		str	r5, [r4, #20]
 1180              	.LVL87:
 1181              		.loc 2 834 3 is_stmt 0 view .LVU251
 1182              	.LBE15:
 1183              	.LBE14:
  37:display/ssd1306.c ****   	LCD_RESET(ON);
 1184              		.loc 1 37 2 is_stmt 1 view .LVU252
 1185 0008 40F6B830 		movw	r0, #3000
 1186 000c FFF7FEFF 		bl	delay_us
 1187              	.LVL88:
  38:display/ssd1306.c **** 	delay_us(3000);	
 1188              		.loc 1 38 4 view .LVU253
 1189              	.LBB16:
 1190              	.LBI16:
 803:Drivers/STM32F1xx_HAL_Driver/Inc/stm32f1xx_ll_gpio.h **** {
 1191              		.loc 2 803 22 view .LVU254
 1192              	.LBB17:
 805:Drivers/STM32F1xx_HAL_Driver/Inc/stm32f1xx_ll_gpio.h **** }
 1193              		.loc 2 805 3 view .LVU255
 1194 0010 2561     		str	r5, [r4, #16]
 1195              	.LVL89:
 805:Drivers/STM32F1xx_HAL_Driver/Inc/stm32f1xx_ll_gpio.h **** }
 1196              		.loc 2 805 3 is_stmt 0 view .LVU256
 1197              	.LBE17:
 1198              	.LBE16:
  39:display/ssd1306.c **** 	
 1199              		.loc 1 39 2 is_stmt 1 view .LVU257
 1200 0012 40F6B830 		movw	r0, #3000
 1201 0016 FFF7FEFF 		bl	delay_us
 1202              	.LVL90:
  41:display/ssd1306.c **** 	ssd1306_SendCommand(DISPLAYOFF); 		//display off
 1203              		.loc 1 41 2 view .LVU258
 1204              	.LBB18:
 1205              	.LBI18:
 832:Drivers/STM32F1xx_HAL_Driver/Inc/stm32f1xx_ll_gpio.h **** {
 1206              		.loc 2 832 22 view .LVU259
 1207              	.LBB19:
 1208              		.loc 2 834 3 view .LVU260
 1209 001a 0426     		movs	r6, #4
 1210 001c 6661     		str	r6, [r4, #20]
 1211              	.LVL91:
 1212              		.loc 2 834 3 is_stmt 0 view .LVU261
ARM GAS  /tmp/ccI0AsY7.s 			page 51


 1213              	.LBE19:
 1214              	.LBE18:
  42:display/ssd1306.c **** 	ssd1306_SendCommand(SETCONTRAST); //set contrast control register
 1215              		.loc 1 42 2 is_stmt 1 view .LVU262
 1216 001e AE20     		movs	r0, #174
 1217 0020 FFF7FEFF 		bl	ssd1306_SendCommand
 1218              	.LVL92:
  43:display/ssd1306.c **** 	ssd1306_SendCommand(0xFF);
 1219              		.loc 1 43 2 view .LVU263
 1220 0024 8120     		movs	r0, #129
 1221 0026 FFF7FEFF 		bl	ssd1306_SendCommand
 1222              	.LVL93:
  44:display/ssd1306.c **** 	ssd1306_SendCommand(NORMALDISPLAY); //set normal display
 1223              		.loc 1 44 2 view .LVU264
 1224 002a FF20     		movs	r0, #255
 1225 002c FFF7FEFF 		bl	ssd1306_SendCommand
 1226              	.LVL94:
  45:display/ssd1306.c **** 	ssd1306_SendCommand(DISPLAYALLON_RESUME); //0xA4-–≤–æ–∑–æ–±–Ω–æ–≤–∏—Ç—å –æ—Ç–æ–±—Ä–∞–∂–µ–Ω–∏–µ —Å–
 1227              		.loc 1 45 2 view .LVU265
 1228 0030 A620     		movs	r0, #166
 1229 0032 FFF7FEFF 		bl	ssd1306_SendCommand
 1230              	.LVL95:
  46:display/ssd1306.c **** 	
 1231              		.loc 1 46 2 view .LVU266
 1232 0036 A420     		movs	r0, #164
 1233 0038 FFF7FEFF 		bl	ssd1306_SendCommand
 1234              	.LVL96:
  48:display/ssd1306.c **** 	ssd1306_SendCommand(PAGEMODE); //00,Horizontal Addressing Mode;01,Vertical Addressing Mode;10,Page
 1235              		.loc 1 48 2 view .LVU267
 1236 003c 2020     		movs	r0, #32
 1237 003e FFF7FEFF 		bl	ssd1306_SendCommand
 1238              	.LVL97:
  49:display/ssd1306.c **** 	ssd1306_SendCommand(STARTPAGEADDR); //Set Page Start Address for Page Addressing Mode,0xB0-0xB7 (—
 1239              		.loc 1 49 2 view .LVU268
 1240 0042 0220     		movs	r0, #2
 1241 0044 FFF7FEFF 		bl	ssd1306_SendCommand
 1242              	.LVL98:
  50:display/ssd1306.c **** 	ssd1306_SendCommand(SETLOWCOLUMN); //set low column address, 0x00 (—ç—Ç–∞ –∫–æ–º–∞–Ω–¥–∞ –ø—Ä–∏–º–
 1243              		.loc 1 50 2 view .LVU269
 1244 0048 B020     		movs	r0, #176
 1245 004a FFF7FEFF 		bl	ssd1306_SendCommand
 1246              	.LVL99:
  51:display/ssd1306.c **** 	ssd1306_SendCommand(SETHIGHCOLUMN); //set high column address, 0x10 (—ç—Ç–∞ –∫–æ–º–∞–Ω–¥–∞ –ø—Ä–∏–
 1247              		.loc 1 51 2 view .LVU270
 1248 004e 0020     		movs	r0, #0
 1249 0050 FFF7FEFF 		bl	ssd1306_SendCommand
 1250              	.LVL100:
  52:display/ssd1306.c **** 	
 1251              		.loc 1 52 2 view .LVU271
 1252 0054 1020     		movs	r0, #16
 1253 0056 FFF7FEFF 		bl	ssd1306_SendCommand
 1254              	.LVL101:
  54:display/ssd1306.c **** 	ssd1306_SendCommand(SETSEGREMAP+0x01); //--set segment re-map 0 to 127 	
 1255              		.loc 1 54 2 view .LVU272
 1256 005a 4020     		movs	r0, #64
 1257 005c FFF7FEFF 		bl	ssd1306_SendCommand
 1258              	.LVL102:
ARM GAS  /tmp/ccI0AsY7.s 			page 52


  55:display/ssd1306.c **** 	ssd1306_SendCommand(SETMULTIPLEX); //–£—Å—Ç–∞–Ω–æ–≤–∫–∞ –∫–æ—ç—Ñ—Ñ–∏—Ü–∏–µ–Ω—Ç–∞ –º—É–ª—å—Ç–∏–ø–ª–
 1259              		.loc 1 55 2 view .LVU273
 1260 0060 A120     		movs	r0, #161
 1261 0062 FFF7FEFF 		bl	ssd1306_SendCommand
 1262              	.LVL103:
  56:display/ssd1306.c **** 	ssd1306_SendCommand(0x1F); //32 (128x32)
 1263              		.loc 1 56 2 view .LVU274
 1264 0066 A820     		movs	r0, #168
 1265 0068 FFF7FEFF 		bl	ssd1306_SendCommand
 1266              	.LVL104:
  57:display/ssd1306.c **** 	ssd1306_SendCommand(COMSCANDEC); //Set COM Output Scan Direction. 0xC8: remapped mode, —Å–∫–∞–Ω–∏—
 1267              		.loc 1 57 2 view .LVU275
 1268 006c 1F20     		movs	r0, #31
 1269 006e FFF7FEFF 		bl	ssd1306_SendCommand
 1270              	.LVL105:
  58:display/ssd1306.c **** 	ssd1306_SendCommand(SETDISPLAYOFFSET); //-set display offset
 1271              		.loc 1 58 2 view .LVU276
 1272 0072 C820     		movs	r0, #200
 1273 0074 FFF7FEFF 		bl	ssd1306_SendCommand
 1274              	.LVL106:
  59:display/ssd1306.c **** 	ssd1306_SendCommand(0x00); //-not offset
 1275              		.loc 1 59 2 view .LVU277
 1276 0078 D320     		movs	r0, #211
 1277 007a FFF7FEFF 		bl	ssd1306_SendCommand
 1278              	.LVL107:
  60:display/ssd1306.c **** 	ssd1306_SendCommand(SETCOMPINS); //set com pins hardware configuration
 1279              		.loc 1 60 2 view .LVU278
 1280 007e 0020     		movs	r0, #0
 1281 0080 FFF7FEFF 		bl	ssd1306_SendCommand
 1282              	.LVL108:
  61:display/ssd1306.c **** 	ssd1306_SendCommand(0x12); //–∞–ª—å—Ç–µ—Ä–Ω–∞—Ç–∏–≤–Ω–∞—è –∫–æ–Ω—Ñ–∏–≥—É—Ä–∞—Ü–∏—è –≤—ã–≤–æ–¥–æ–≤ 
 1283              		.loc 1 61 2 view .LVU279
 1284 0084 DA20     		movs	r0, #218
 1285 0086 FFF7FEFF 		bl	ssd1306_SendCommand
 1286              	.LVL109:
  62:display/ssd1306.c **** 
 1287              		.loc 1 62 2 view .LVU280
 1288 008a 1220     		movs	r0, #18
 1289 008c FFF7FEFF 		bl	ssd1306_SendCommand
 1290              	.LVL110:
  64:display/ssd1306.c **** 	//7:4] —É—Å—Ç–∞–Ω–æ–≤–∫–∞ —á–∞—Å—Ç–æ—Ç—ã –≥–µ–Ω–µ—Ä–∞—Ç–æ—Ä–∞ FOSC. –ß–µ–º –±–æ–ª—å—à–µ –∑–Ω–∞—á–µ
 1291              		.loc 1 64 2 view .LVU281
 1292 0090 D520     		movs	r0, #213
 1293 0092 FFF7FEFF 		bl	ssd1306_SendCommand
 1294              	.LVL111:
  66:display/ssd1306.c **** 	//ssd1306_SendCommand(SETPRECHARGE); //—É—Å—Ç–∞–Ω–æ–≤–∫–∞ –ø–µ—Ä–∏–æ–¥–∞ Phase 1 –∏ Phase 2
 1295              		.loc 1 66 2 view .LVU282
 1296 0096 F020     		movs	r0, #240
 1297 0098 FFF7FEFF 		bl	ssd1306_SendCommand
 1298              	.LVL112:
  69:display/ssd1306.c **** 	ssd1306_SendCommand(0x20); 		//~ 0.77¬∑VCC
 1299              		.loc 1 69 2 view .LVU283
 1300 009c DB20     		movs	r0, #219
 1301 009e FFF7FEFF 		bl	ssd1306_SendCommand
 1302              	.LVL113:
  70:display/ssd1306.c **** 
 1303              		.loc 1 70 2 view .LVU284
ARM GAS  /tmp/ccI0AsY7.s 			page 53


 1304 00a2 2020     		movs	r0, #32
 1305 00a4 FFF7FEFF 		bl	ssd1306_SendCommand
 1306              	.LVL114:
  72:display/ssd1306.c **** 	
 1307              		.loc 1 72 2 view .LVU285
 1308 00a8 AF20     		movs	r0, #175
 1309 00aa FFF7FEFF 		bl	ssd1306_SendCommand
 1310              	.LVL115:
  74:display/ssd1306.c **** 	
 1311              		.loc 1 74 2 view .LVU286
 1312 00ae 41F28830 		movw	r0, #5000
 1313 00b2 FFF7FEFF 		bl	delay_us
 1314              	.LVL116:
  76:display/ssd1306.c **** 	SSD1306_UpdateScreen(); 	// Update screen 
 1315              		.loc 1 76 2 view .LVU287
 1316 00b6 FFF7FEFF 		bl	SSD1306_Clear_Screen
 1317              	.LVL117:
  77:display/ssd1306.c **** 	
 1318              		.loc 1 77 2 view .LVU288
 1319 00ba FFF7FEFF 		bl	SSD1306_UpdateScreen
 1320              	.LVL118:
  79:display/ssd1306.c **** 	SSD1306.CurrentY = 0;
 1321              		.loc 1 79 2 view .LVU289
  79:display/ssd1306.c **** 	SSD1306.CurrentY = 0;
 1322              		.loc 1 79 19 is_stmt 0 view .LVU290
 1323 00be 044B     		ldr	r3, .L97+4
 1324 00c0 0022     		movs	r2, #0
 1325 00c2 1A80     		strh	r2, [r3]	@ movhi
  80:display/ssd1306.c **** 	
 1326              		.loc 1 80 2 is_stmt 1 view .LVU291
  80:display/ssd1306.c **** 	
 1327              		.loc 1 80 19 is_stmt 0 view .LVU292
 1328 00c4 5A80     		strh	r2, [r3, #2]	@ movhi
  82:display/ssd1306.c **** 	CS(OFF);
 1329              		.loc 1 82 2 is_stmt 1 view .LVU293
  82:display/ssd1306.c **** 	CS(OFF);
 1330              		.loc 1 82 22 is_stmt 0 view .LVU294
 1331 00c6 5D71     		strb	r5, [r3, #5]
  83:display/ssd1306.c **** }
 1332              		.loc 1 83 2 is_stmt 1 view .LVU295
 1333              	.LVL119:
 1334              	.LBB20:
 1335              	.LBI20:
 803:Drivers/STM32F1xx_HAL_Driver/Inc/stm32f1xx_ll_gpio.h **** {
 1336              		.loc 2 803 22 view .LVU296
 1337              	.LBB21:
 805:Drivers/STM32F1xx_HAL_Driver/Inc/stm32f1xx_ll_gpio.h **** }
 1338              		.loc 2 805 3 view .LVU297
 1339 00c8 2661     		str	r6, [r4, #16]
 1340              	.LVL120:
 805:Drivers/STM32F1xx_HAL_Driver/Inc/stm32f1xx_ll_gpio.h **** }
 1341              		.loc 2 805 3 is_stmt 0 view .LVU298
 1342              	.LBE21:
 1343              	.LBE20:
  84:display/ssd1306.c **** 
 1344              		.loc 1 84 1 view .LVU299
 1345 00ca 70BD     		pop	{r4, r5, r6, pc}
ARM GAS  /tmp/ccI0AsY7.s 			page 54


 1346              	.L98:
 1347              		.align	2
 1348              	.L97:
 1349 00cc 000C0140 		.word	1073810432
 1350 00d0 00000000 		.word	.LANCHOR0
 1351              		.cfi_endproc
 1352              	.LFE953:
 1354              		.section	.text.clear_buffer_screen,"ax",%progbits
 1355              		.align	1
 1356              		.syntax unified
 1357              		.thumb
 1358              		.thumb_func
 1360              	clear_buffer_screen:
 1361              	.LFB973:
 519:display/ssd1306.c **** 	SSD1306_GotoXY(LCD_DEFAULT_X_SIZE, LCD_DEFAULT_Y_SIZE);
 1362              		.loc 1 519 1 is_stmt 1 view -0
 1363              		.cfi_startproc
 1364              		@ args = 0, pretend = 0, frame = 0
 1365              		@ frame_needed = 0, uses_anonymous_args = 0
 1366 0000 08B5     		push	{r3, lr}
 1367              	.LCFI13:
 1368              		.cfi_def_cfa_offset 8
 1369              		.cfi_offset 3, -8
 1370              		.cfi_offset 14, -4
 520:display/ssd1306.c **** 	SSD1306_Clear_Screen ();
 1371              		.loc 1 520 2 view .LVU301
 1372 0002 0121     		movs	r1, #1
 1373 0004 0020     		movs	r0, #0
 1374 0006 FFF7FEFF 		bl	SSD1306_GotoXY
 1375              	.LVL121:
 521:display/ssd1306.c **** }
 1376              		.loc 1 521 2 view .LVU302
 1377 000a FFF7FEFF 		bl	SSD1306_Clear_Screen
 1378              	.LVL122:
 522:display/ssd1306.c **** 
 1379              		.loc 1 522 1 is_stmt 0 view .LVU303
 1380 000e 08BD     		pop	{r3, pc}
 1381              		.cfi_endproc
 1382              	.LFE973:
 1384              		.section	.text.SSD1306_DrawLine,"ax",%progbits
 1385              		.align	1
 1386              		.global	SSD1306_DrawLine
 1387              		.syntax unified
 1388              		.thumb
 1389              		.thumb_func
 1391              	SSD1306_DrawLine:
 1392              	.LVL123:
 1393              	.LFB965:
 236:display/ssd1306.c **** 	int16_t dx, dy, sx, sy, err, e2, i, tmp; 
 1394              		.loc 1 236 1 is_stmt 1 view -0
 1395              		.cfi_startproc
 1396              		@ args = 4, pretend = 0, frame = 8
 1397              		@ frame_needed = 0, uses_anonymous_args = 0
 236:display/ssd1306.c **** 	int16_t dx, dy, sx, sy, err, e2, i, tmp; 
 1398              		.loc 1 236 1 is_stmt 0 view .LVU305
 1399 0000 2DE9F04F 		push	{r4, r5, r6, r7, r8, r9, r10, fp, lr}
 1400              	.LCFI14:
ARM GAS  /tmp/ccI0AsY7.s 			page 55


 1401              		.cfi_def_cfa_offset 36
 1402              		.cfi_offset 4, -36
 1403              		.cfi_offset 5, -32
 1404              		.cfi_offset 6, -28
 1405              		.cfi_offset 7, -24
 1406              		.cfi_offset 8, -20
 1407              		.cfi_offset 9, -16
 1408              		.cfi_offset 10, -12
 1409              		.cfi_offset 11, -8
 1410              		.cfi_offset 14, -4
 1411 0004 83B0     		sub	sp, sp, #12
 1412              	.LCFI15:
 1413              		.cfi_def_cfa_offset 48
 1414 0006 0446     		mov	r4, r0
 1415 0008 0E46     		mov	r6, r1
 1416 000a 1746     		mov	r7, r2
 1417 000c 9846     		mov	r8, r3
 1418 000e 9DF830B0 		ldrb	fp, [sp, #48]	@ zero_extendqisi2
 237:display/ssd1306.c **** 	
 1419              		.loc 1 237 2 is_stmt 1 view .LVU306
 239:display/ssd1306.c **** 	{	x0 = SSD1306_X_SIZE - 1;	}
 1420              		.loc 1 239 2 view .LVU307
 239:display/ssd1306.c **** 	{	x0 = SSD1306_X_SIZE - 1;	}
 1421              		.loc 1 239 5 is_stmt 0 view .LVU308
 1422 0012 8328     		cmp	r0, #131
 1423 0014 00D9     		bls	.L102
 240:display/ssd1306.c **** 	
 1424              		.loc 1 240 7 view .LVU309
 1425 0016 8324     		movs	r4, #131
 1426              	.L102:
 1427              	.LVL124:
 242:display/ssd1306.c **** 	{	x1 = SSD1306_X_SIZE - 1;	}
 1428              		.loc 1 242 2 is_stmt 1 view .LVU310
 242:display/ssd1306.c **** 	{	x1 = SSD1306_X_SIZE - 1;	}
 1429              		.loc 1 242 5 is_stmt 0 view .LVU311
 1430 0018 832F     		cmp	r7, #131
 1431 001a 00D9     		bls	.L103
 243:display/ssd1306.c **** 	
 1432              		.loc 1 243 7 view .LVU312
 1433 001c 8327     		movs	r7, #131
 1434              	.L103:
 1435              	.LVL125:
 245:display/ssd1306.c **** 	{	y0 = SSD1306_Y_SIZE - 1;	}
 1436              		.loc 1 245 2 is_stmt 1 view .LVU313
 245:display/ssd1306.c **** 	{	y0 = SSD1306_Y_SIZE - 1;	}
 1437              		.loc 1 245 5 is_stmt 0 view .LVU314
 1438 001e 1F2E     		cmp	r6, #31
 1439 0020 00D9     		bls	.L104
 246:display/ssd1306.c **** 	
 1440              		.loc 1 246 7 view .LVU315
 1441 0022 1F26     		movs	r6, #31
 1442              	.L104:
 1443              	.LVL126:
 248:display/ssd1306.c **** 	{	y1 = SSD1306_Y_SIZE - 1;	}
 1444              		.loc 1 248 2 is_stmt 1 view .LVU316
 248:display/ssd1306.c **** 	{	y1 = SSD1306_Y_SIZE - 1;	}
 1445              		.loc 1 248 5 is_stmt 0 view .LVU317
ARM GAS  /tmp/ccI0AsY7.s 			page 56


 1446 0024 B8F11F0F 		cmp	r8, #31
 1447 0028 01D9     		bls	.L105
 249:display/ssd1306.c **** 	
 1448              		.loc 1 249 7 view .LVU318
 1449 002a 4FF01F08 		mov	r8, #31
 1450              	.L105:
 1451              	.LVL127:
 251:display/ssd1306.c **** 	dy = (y0 < y1) ? (y1 - y0) : (y0 - y1); 
 1452              		.loc 1 251 2 is_stmt 1 view .LVU319
 251:display/ssd1306.c **** 	dy = (y0 < y1) ? (y1 - y0) : (y0 - y1); 
 1453              		.loc 1 251 5 is_stmt 0 view .LVU320
 1454 002e BC42     		cmp	r4, r7
 1455 0030 20D2     		bcs	.L106
 251:display/ssd1306.c **** 	dy = (y0 < y1) ? (y1 - y0) : (y0 - y1); 
 1456              		.loc 1 251 23 discriminator 1 view .LVU321
 1457 0032 A7EB0409 		sub	r9, r7, r4
 251:display/ssd1306.c **** 	dy = (y0 < y1) ? (y1 - y0) : (y0 - y1); 
 1458              		.loc 1 251 5 discriminator 1 view .LVU322
 1459 0036 0FFA89F9 		sxth	r9, r9
 1460              	.L107:
 1461              	.LVL128:
 252:display/ssd1306.c **** 	sx = (x0 < x1) ? 1 : -1; 
 1462              		.loc 1 252 2 is_stmt 1 discriminator 4 view .LVU323
 252:display/ssd1306.c **** 	sx = (x0 < x1) ? 1 : -1; 
 1463              		.loc 1 252 5 is_stmt 0 discriminator 4 view .LVU324
 1464 003a 4645     		cmp	r6, r8
 1465 003c 1FD2     		bcs	.L108
 252:display/ssd1306.c **** 	sx = (x0 < x1) ? 1 : -1; 
 1466              		.loc 1 252 23 discriminator 1 view .LVU325
 1467 003e A8EB060A 		sub	r10, r8, r6
 252:display/ssd1306.c **** 	sx = (x0 < x1) ? 1 : -1; 
 1468              		.loc 1 252 5 discriminator 1 view .LVU326
 1469 0042 0FFA8AFA 		sxth	r10, r10
 1470              	.L109:
 1471              	.LVL129:
 253:display/ssd1306.c **** 	sy = (y0 < y1) ? 1 : -1; 
 1472              		.loc 1 253 2 is_stmt 1 discriminator 4 view .LVU327
 253:display/ssd1306.c **** 	sy = (y0 < y1) ? 1 : -1; 
 1473              		.loc 1 253 5 is_stmt 0 discriminator 4 view .LVU328
 1474 0046 BC42     		cmp	r4, r7
 1475 0048 1ED2     		bcs	.L132
 253:display/ssd1306.c **** 	sy = (y0 < y1) ? 1 : -1; 
 1476              		.loc 1 253 5 view .LVU329
 1477 004a 0123     		movs	r3, #1
 1478 004c 1A46     		mov	r2, r3
 1479              	.L110:
 1480              	.LVL130:
 254:display/ssd1306.c **** 	err = ((dx > dy) ? dx : -dy) / 2; 
 1481              		.loc 1 254 2 is_stmt 1 discriminator 4 view .LVU330
 254:display/ssd1306.c **** 	err = ((dx > dy) ? dx : -dy) / 2; 
 1482              		.loc 1 254 5 is_stmt 0 discriminator 4 view .LVU331
 1483 004e 4645     		cmp	r6, r8
 1484 0050 1ED2     		bcs	.L133
 254:display/ssd1306.c **** 	err = ((dx > dy) ? dx : -dy) / 2; 
 1485              		.loc 1 254 5 view .LVU332
 1486 0052 0123     		movs	r3, #1
 1487 0054 0093     		str	r3, [sp]
ARM GAS  /tmp/ccI0AsY7.s 			page 57


 1488              	.L111:
 1489              	.LVL131:
 255:display/ssd1306.c **** 
 1490              		.loc 1 255 2 is_stmt 1 discriminator 4 view .LVU333
 255:display/ssd1306.c **** 
 1491              		.loc 1 255 6 is_stmt 0 discriminator 4 view .LVU334
 1492 0056 D145     		cmp	r9, r10
 1493 0058 1EDD     		ble	.L112
 255:display/ssd1306.c **** 
 1494              		.loc 1 255 6 discriminator 1 view .LVU335
 1495 005a 09EBD975 		add	r5, r9, r9, lsr #31
 1496 005e 6D10     		asrs	r5, r5, #1
 1497              	.L113:
 1498              	.LVL132:
 257:display/ssd1306.c **** 	{
 1499              		.loc 1 257 2 is_stmt 1 discriminator 4 view .LVU336
 257:display/ssd1306.c **** 	{
 1500              		.loc 1 257 5 is_stmt 0 discriminator 4 view .LVU337
 1501 0060 B9F1000F 		cmp	r9, #0
 1502 0064 1ED0     		beq	.L137
 279:display/ssd1306.c **** 	{
 1503              		.loc 1 279 2 is_stmt 1 view .LVU338
 279:display/ssd1306.c **** 	{
 1504              		.loc 1 279 5 is_stmt 0 view .LVU339
 1505 0066 BAF1000F 		cmp	r10, #0
 1506 006a 34D0     		beq	.L138
 1507 006c CDF80480 		str	r8, [sp, #4]
 1508 0070 9046     		mov	r8, r2
 1509              	.LVL133:
 279:display/ssd1306.c **** 	{
 1510              		.loc 1 279 5 view .LVU340
 1511 0072 54E0     		b	.L120
 1512              	.LVL134:
 1513              	.L106:
 251:display/ssd1306.c **** 	dy = (y0 < y1) ? (y1 - y0) : (y0 - y1); 
 1514              		.loc 1 251 35 discriminator 2 view .LVU341
 1515 0074 A4EB0709 		sub	r9, r4, r7
 251:display/ssd1306.c **** 	dy = (y0 < y1) ? (y1 - y0) : (y0 - y1); 
 1516              		.loc 1 251 5 discriminator 2 view .LVU342
 1517 0078 0FFA89F9 		sxth	r9, r9
 1518 007c DDE7     		b	.L107
 1519              	.LVL135:
 1520              	.L108:
 252:display/ssd1306.c **** 	sx = (x0 < x1) ? 1 : -1; 
 1521              		.loc 1 252 35 discriminator 2 view .LVU343
 1522 007e A6EB080A 		sub	r10, r6, r8
 252:display/ssd1306.c **** 	sx = (x0 < x1) ? 1 : -1; 
 1523              		.loc 1 252 5 discriminator 2 view .LVU344
 1524 0082 0FFA8AFA 		sxth	r10, r10
 1525 0086 DEE7     		b	.L109
 1526              	.LVL136:
 1527              	.L132:
 253:display/ssd1306.c **** 	sy = (y0 < y1) ? 1 : -1; 
 1528              		.loc 1 253 5 view .LVU345
 1529 0088 4FF0FF33 		mov	r3, #-1
 1530 008c 1A46     		mov	r2, r3
 1531 008e DEE7     		b	.L110
ARM GAS  /tmp/ccI0AsY7.s 			page 58


 1532              	.LVL137:
 1533              	.L133:
 254:display/ssd1306.c **** 	err = ((dx > dy) ? dx : -dy) / 2; 
 1534              		.loc 1 254 5 view .LVU346
 1535 0090 4FF0FF33 		mov	r3, #-1
 1536 0094 0093     		str	r3, [sp]
 1537 0096 DEE7     		b	.L111
 1538              	.LVL138:
 1539              	.L112:
 255:display/ssd1306.c **** 
 1540              		.loc 1 255 6 discriminator 2 view .LVU347
 1541 0098 0AEBDA75 		add	r5, r10, r10, lsr #31
 1542 009c 6D10     		asrs	r5, r5, #1
 1543 009e 6D42     		rsbs	r5, r5, #0
 1544 00a0 2DB2     		sxth	r5, r5
 1545 00a2 DDE7     		b	.L113
 1546              	.LVL139:
 1547              	.L137:
 259:display/ssd1306.c **** 		{
 1548              		.loc 1 259 3 is_stmt 1 view .LVU348
 259:display/ssd1306.c **** 		{
 1549              		.loc 1 259 6 is_stmt 0 view .LVU349
 1550 00a4 4645     		cmp	r6, r8
 1551 00a6 02D8     		bhi	.L115
 1552 00a8 4346     		mov	r3, r8
 1553 00aa B046     		mov	r8, r6
 1554              	.LVL140:
 259:display/ssd1306.c **** 		{
 1555              		.loc 1 259 6 view .LVU350
 1556 00ac 1E46     		mov	r6, r3
 1557              	.LVL141:
 1558              	.L115:
 266:display/ssd1306.c **** 		{
 1559              		.loc 1 266 3 is_stmt 1 view .LVU351
 266:display/ssd1306.c **** 		{
 1560              		.loc 1 266 6 is_stmt 0 view .LVU352
 1561 00ae BC42     		cmp	r4, r7
 1562 00b0 00D8     		bhi	.L116
 1563 00b2 2746     		mov	r7, r4
 1564              	.LVL142:
 1565              	.L116:
 273:display/ssd1306.c **** 		{	SSD1306_DrawPixel(x0, i, c);	} // Vertical line 
 1566              		.loc 1 273 3 is_stmt 1 view .LVU353
 273:display/ssd1306.c **** 		{	SSD1306_DrawPixel(x0, i, c);	} // Vertical line 
 1567              		.loc 1 273 10 is_stmt 0 view .LVU354
 1568 00b4 0FFA88F8 		sxth	r8, r8
 1569              	.LVL143:
 273:display/ssd1306.c **** 		{	SSD1306_DrawPixel(x0, i, c);	} // Vertical line 
 1570              		.loc 1 273 3 view .LVU355
 1571 00b8 0AE0     		b	.L117
 1572              	.LVL144:
 1573              	.L118:
 274:display/ssd1306.c **** 		
 1574              		.loc 1 274 5 is_stmt 1 discriminator 3 view .LVU356
 1575 00ba 1FFA88F8 		uxth	r8, r8
 274:display/ssd1306.c **** 		
 1576              		.loc 1 274 5 is_stmt 0 discriminator 3 view .LVU357
ARM GAS  /tmp/ccI0AsY7.s 			page 59


 1577 00be 5A46     		mov	r2, fp
 1578 00c0 4146     		mov	r1, r8
 1579 00c2 3846     		mov	r0, r7
 1580 00c4 FFF7FEFF 		bl	SSD1306_DrawPixel
 1581              	.LVL145:
 273:display/ssd1306.c **** 		{	SSD1306_DrawPixel(x0, i, c);	} // Vertical line 
 1582              		.loc 1 273 25 is_stmt 1 discriminator 3 view .LVU358
 273:display/ssd1306.c **** 		{	SSD1306_DrawPixel(x0, i, c);	} // Vertical line 
 1583              		.loc 1 273 26 is_stmt 0 discriminator 3 view .LVU359
 1584 00c8 08F10108 		add	r8, r8, #1
 1585              	.LVL146:
 273:display/ssd1306.c **** 		{	SSD1306_DrawPixel(x0, i, c);	} // Vertical line 
 1586              		.loc 1 273 26 discriminator 3 view .LVU360
 1587 00cc 0FFA88F8 		sxth	r8, r8
 1588              	.LVL147:
 1589              	.L117:
 273:display/ssd1306.c **** 		{	SSD1306_DrawPixel(x0, i, c);	} // Vertical line 
 1590              		.loc 1 273 16 is_stmt 1 discriminator 1 view .LVU361
 273:display/ssd1306.c **** 		{	SSD1306_DrawPixel(x0, i, c);	} // Vertical line 
 1591              		.loc 1 273 3 is_stmt 0 discriminator 1 view .LVU362
 1592 00d0 B045     		cmp	r8, r6
 1593 00d2 F2DD     		ble	.L118
 273:display/ssd1306.c **** 		{	SSD1306_DrawPixel(x0, i, c);	} // Vertical line 
 1594              		.loc 1 273 3 discriminator 1 view .LVU363
 1595 00d4 17E0     		b	.L101
 1596              	.LVL148:
 1597              	.L138:
 281:display/ssd1306.c **** 		{
 1598              		.loc 1 281 3 is_stmt 1 view .LVU364
 281:display/ssd1306.c **** 		{
 1599              		.loc 1 281 6 is_stmt 0 view .LVU365
 1600 00d6 4645     		cmp	r6, r8
 1601 00d8 00D8     		bhi	.L121
 1602 00da B046     		mov	r8, r6
 1603              	.LVL149:
 1604              	.L121:
 288:display/ssd1306.c **** 		{
 1605              		.loc 1 288 3 is_stmt 1 view .LVU366
 288:display/ssd1306.c **** 		{
 1606              		.loc 1 288 6 is_stmt 0 view .LVU367
 1607 00dc BC42     		cmp	r4, r7
 1608 00de 02D8     		bhi	.L122
 1609 00e0 3B46     		mov	r3, r7
 1610 00e2 2746     		mov	r7, r4
 1611              	.LVL150:
 288:display/ssd1306.c **** 		{
 1612              		.loc 1 288 6 view .LVU368
 1613 00e4 1C46     		mov	r4, r3
 1614              	.LVL151:
 1615              	.L122:
 295:display/ssd1306.c **** 		{	SSD1306_DrawPixel(i, y0, c);	} // Horizontal line 
 1616              		.loc 1 295 3 is_stmt 1 view .LVU369
 295:display/ssd1306.c **** 		{	SSD1306_DrawPixel(i, y0, c);	} // Horizontal line 
 1617              		.loc 1 295 10 is_stmt 0 view .LVU370
 1618 00e6 3FB2     		sxth	r7, r7
 1619              	.LVL152:
 295:display/ssd1306.c **** 		{	SSD1306_DrawPixel(i, y0, c);	} // Horizontal line 
ARM GAS  /tmp/ccI0AsY7.s 			page 60


 1620              		.loc 1 295 3 view .LVU371
 1621 00e8 07E0     		b	.L123
 1622              	.LVL153:
 1623              	.L124:
 296:display/ssd1306.c **** 		return; 	// Return from function 
 1624              		.loc 1 296 5 is_stmt 1 discriminator 3 view .LVU372
 1625 00ea BFB2     		uxth	r7, r7
 296:display/ssd1306.c **** 		return; 	// Return from function 
 1626              		.loc 1 296 5 is_stmt 0 discriminator 3 view .LVU373
 1627 00ec 5A46     		mov	r2, fp
 1628 00ee 4146     		mov	r1, r8
 1629 00f0 3846     		mov	r0, r7
 1630 00f2 FFF7FEFF 		bl	SSD1306_DrawPixel
 1631              	.LVL154:
 295:display/ssd1306.c **** 		{	SSD1306_DrawPixel(i, y0, c);	} // Horizontal line 
 1632              		.loc 1 295 25 is_stmt 1 discriminator 3 view .LVU374
 295:display/ssd1306.c **** 		{	SSD1306_DrawPixel(i, y0, c);	} // Horizontal line 
 1633              		.loc 1 295 26 is_stmt 0 discriminator 3 view .LVU375
 1634 00f6 0137     		adds	r7, r7, #1
 1635              	.LVL155:
 295:display/ssd1306.c **** 		{	SSD1306_DrawPixel(i, y0, c);	} // Horizontal line 
 1636              		.loc 1 295 26 discriminator 3 view .LVU376
 1637 00f8 3FB2     		sxth	r7, r7
 1638              	.LVL156:
 1639              	.L123:
 295:display/ssd1306.c **** 		{	SSD1306_DrawPixel(i, y0, c);	} // Horizontal line 
 1640              		.loc 1 295 16 is_stmt 1 discriminator 1 view .LVU377
 295:display/ssd1306.c **** 		{	SSD1306_DrawPixel(i, y0, c);	} // Horizontal line 
 1641              		.loc 1 295 3 is_stmt 0 discriminator 1 view .LVU378
 1642 00fa A742     		cmp	r7, r4
 1643 00fc F5DD     		ble	.L124
 295:display/ssd1306.c **** 		{	SSD1306_DrawPixel(i, y0, c);	} // Horizontal line 
 1644              		.loc 1 295 3 discriminator 1 view .LVU379
 1645 00fe 02E0     		b	.L101
 1646              	.LVL157:
 1647              	.L139:
 303:display/ssd1306.c **** 		{	break;	}
 1648              		.loc 1 303 16 discriminator 1 view .LVU380
 1649 0100 019B     		ldr	r3, [sp, #4]
 1650 0102 9E42     		cmp	r6, r3
 1651 0104 12D1     		bne	.L125
 1652              	.LVL158:
 1653              	.L101:
 317:display/ssd1306.c **** 
 1654              		.loc 1 317 1 view .LVU381
 1655 0106 03B0     		add	sp, sp, #12
 1656              	.LCFI16:
 1657              		.cfi_remember_state
 1658              		.cfi_def_cfa_offset 36
 1659              	.LVL159:
 317:display/ssd1306.c **** 
 1660              		.loc 1 317 1 view .LVU382
 1661              		@ sp needed
 1662 0108 BDE8F08F 		pop	{r4, r5, r6, r7, r8, r9, r10, fp, pc}
 1663              	.LVL160:
 1664              	.L134:
 1665              	.LCFI17:
ARM GAS  /tmp/ccI0AsY7.s 			page 61


 1666              		.cfi_restore_state
 317:display/ssd1306.c **** 
 1667              		.loc 1 317 1 view .LVU383
 1668 010c 2B46     		mov	r3, r5
 1669              	.LVL161:
 1670              	.L126:
 311:display/ssd1306.c **** 		{
 1671              		.loc 1 311 3 is_stmt 1 view .LVU384
 311:display/ssd1306.c **** 		{
 1672              		.loc 1 311 6 is_stmt 0 view .LVU385
 1673 010e 5545     		cmp	r5, r10
 1674 0110 04DA     		bge	.L127
 313:display/ssd1306.c **** 			y0 += sy;
 1675              		.loc 1 313 4 is_stmt 1 view .LVU386
 313:display/ssd1306.c **** 			y0 += sy;
 1676              		.loc 1 313 8 is_stmt 0 view .LVU387
 1677 0112 4B44     		add	r3, r3, r9
 1678              	.LVL162:
 313:display/ssd1306.c **** 			y0 += sy;
 1679              		.loc 1 313 8 view .LVU388
 1680 0114 1BB2     		sxth	r3, r3
 1681              	.LVL163:
 314:display/ssd1306.c **** 		} 
 1682              		.loc 1 314 4 is_stmt 1 view .LVU389
 314:display/ssd1306.c **** 		} 
 1683              		.loc 1 314 7 is_stmt 0 view .LVU390
 1684 0116 009A     		ldr	r2, [sp]
 1685 0118 1644     		add	r6, r6, r2
 1686              	.LVL164:
 314:display/ssd1306.c **** 		} 
 1687              		.loc 1 314 7 view .LVU391
 1688 011a B6B2     		uxth	r6, r6
 1689              	.LVL165:
 1690              	.L127:
 288:display/ssd1306.c **** 		{
 1691              		.loc 1 288 6 view .LVU392
 1692 011c 1D46     		mov	r5, r3
 1693              	.LVL166:
 1694              	.L120:
 300:display/ssd1306.c **** 	{
 1695              		.loc 1 300 2 is_stmt 1 view .LVU393
 302:display/ssd1306.c **** 		if (x0 == x1 && y0 == y1) 
 1696              		.loc 1 302 3 view .LVU394
 1697 011e 5A46     		mov	r2, fp
 1698 0120 3146     		mov	r1, r6
 1699 0122 2046     		mov	r0, r4
 1700 0124 FFF7FEFF 		bl	SSD1306_DrawPixel
 1701              	.LVL167:
 303:display/ssd1306.c **** 		{	break;	}
 1702              		.loc 1 303 3 view .LVU395
 303:display/ssd1306.c **** 		{	break;	}
 1703              		.loc 1 303 6 is_stmt 0 view .LVU396
 1704 0128 BC42     		cmp	r4, r7
 1705 012a E9D0     		beq	.L139
 1706              	.L125:
 305:display/ssd1306.c **** 		if (e2 > -dx) 
 1707              		.loc 1 305 3 is_stmt 1 view .LVU397
ARM GAS  /tmp/ccI0AsY7.s 			page 62


 1708              	.LVL168:
 306:display/ssd1306.c **** 		{
 1709              		.loc 1 306 3 view .LVU398
 306:display/ssd1306.c **** 		{
 1710              		.loc 1 306 12 is_stmt 0 view .LVU399
 1711 012c C9F10003 		rsb	r3, r9, #0
 306:display/ssd1306.c **** 		{
 1712              		.loc 1 306 6 view .LVU400
 1713 0130 9D42     		cmp	r5, r3
 1714 0132 EBDD     		ble	.L134
 308:display/ssd1306.c **** 			x0 += sx;
 1715              		.loc 1 308 4 is_stmt 1 view .LVU401
 308:display/ssd1306.c **** 			x0 += sx;
 1716              		.loc 1 308 8 is_stmt 0 view .LVU402
 1717 0134 A5EB0A03 		sub	r3, r5, r10
 1718 0138 1BB2     		sxth	r3, r3
 1719              	.LVL169:
 309:display/ssd1306.c **** 		} 
 1720              		.loc 1 309 4 is_stmt 1 view .LVU403
 309:display/ssd1306.c **** 		} 
 1721              		.loc 1 309 7 is_stmt 0 view .LVU404
 1722 013a 4444     		add	r4, r4, r8
 1723              	.LVL170:
 309:display/ssd1306.c **** 		} 
 1724              		.loc 1 309 7 view .LVU405
 1725 013c A4B2     		uxth	r4, r4
 1726              	.LVL171:
 309:display/ssd1306.c **** 		} 
 1727              		.loc 1 309 7 view .LVU406
 1728 013e E6E7     		b	.L126
 1729              		.cfi_endproc
 1730              	.LFE965:
 1732              		.section	.text.SSD1306_DrawRectangle,"ax",%progbits
 1733              		.align	1
 1734              		.global	SSD1306_DrawRectangle
 1735              		.syntax unified
 1736              		.thumb
 1737              		.thumb_func
 1739              	SSD1306_DrawRectangle:
 1740              	.LVL172:
 1741              	.LFB966:
 321:display/ssd1306.c **** 	
 1742              		.loc 1 321 1 is_stmt 1 view -0
 1743              		.cfi_startproc
 1744              		@ args = 4, pretend = 0, frame = 0
 1745              		@ frame_needed = 0, uses_anonymous_args = 0
 321:display/ssd1306.c **** 	
 1746              		.loc 1 321 1 is_stmt 0 view .LVU408
 1747 0000 2DE9F041 		push	{r4, r5, r6, r7, r8, lr}
 1748              	.LCFI18:
 1749              		.cfi_def_cfa_offset 24
 1750              		.cfi_offset 4, -24
 1751              		.cfi_offset 5, -20
 1752              		.cfi_offset 6, -16
 1753              		.cfi_offset 7, -12
 1754              		.cfi_offset 8, -8
 1755              		.cfi_offset 14, -4
ARM GAS  /tmp/ccI0AsY7.s 			page 63


 1756 0004 82B0     		sub	sp, sp, #8
 1757              	.LCFI19:
 1758              		.cfi_def_cfa_offset 32
 1759 0006 9DF82080 		ldrb	r8, [sp, #32]	@ zero_extendqisi2
 323:display/ssd1306.c **** 	{	return; }// Return error 
 1760              		.loc 1 323 2 is_stmt 1 view .LVU409
 323:display/ssd1306.c **** 	{	return; }// Return error 
 1761              		.loc 1 323 5 is_stmt 0 view .LVU410
 1762 000a 8328     		cmp	r0, #131
 1763 000c 34D8     		bhi	.L140
 1764 000e 0646     		mov	r6, r0
 1765 0010 0F46     		mov	r7, r1
 1766 0012 1D46     		mov	r5, r3
 323:display/ssd1306.c **** 	{	return; }// Return error 
 1767              		.loc 1 323 26 discriminator 1 view .LVU411
 1768 0014 1F29     		cmp	r1, #31
 1769 0016 2FD8     		bhi	.L140
 326:display/ssd1306.c **** 	{	w = SSD1306_X_SIZE - x;	}
 1770              		.loc 1 326 2 is_stmt 1 view .LVU412
 326:display/ssd1306.c **** 	{	w = SSD1306_X_SIZE - x;	}
 1771              		.loc 1 326 9 is_stmt 0 view .LVU413
 1772 0018 8318     		adds	r3, r0, r2
 1773              	.LVL173:
 326:display/ssd1306.c **** 	{	w = SSD1306_X_SIZE - x;	}
 1774              		.loc 1 326 5 view .LVU414
 1775 001a 832B     		cmp	r3, #131
 1776 001c 02DD     		ble	.L142
 327:display/ssd1306.c **** 	
 1777              		.loc 1 327 4 is_stmt 1 view .LVU415
 327:display/ssd1306.c **** 	
 1778              		.loc 1 327 6 is_stmt 0 view .LVU416
 1779 001e C0F18402 		rsb	r2, r0, #132
 1780              	.LVL174:
 327:display/ssd1306.c **** 	
 1781              		.loc 1 327 6 view .LVU417
 1782 0022 92B2     		uxth	r2, r2
 1783              	.LVL175:
 1784              	.L142:
 329:display/ssd1306.c **** 	{	h = SSD1306_Y_SIZE - y;	}
 1785              		.loc 1 329 2 is_stmt 1 view .LVU418
 329:display/ssd1306.c **** 	{	h = SSD1306_Y_SIZE - y;	}
 1786              		.loc 1 329 9 is_stmt 0 view .LVU419
 1787 0024 7B19     		adds	r3, r7, r5
 329:display/ssd1306.c **** 	{	h = SSD1306_Y_SIZE - y;	}
 1788              		.loc 1 329 5 view .LVU420
 1789 0026 1F2B     		cmp	r3, #31
 1790 0028 02DD     		ble	.L143
 330:display/ssd1306.c **** 	
 1791              		.loc 1 330 4 is_stmt 1 view .LVU421
 330:display/ssd1306.c **** 	
 1792              		.loc 1 330 6 is_stmt 0 view .LVU422
 1793 002a C7F12005 		rsb	r5, r7, #32
 1794 002e ADB2     		uxth	r5, r5
 1795              	.LVL176:
 1796              	.L143:
 333:display/ssd1306.c **** 	SSD1306_DrawLine(x, y + h, x + w, y + h, c); // Bottom line 
 1797              		.loc 1 333 2 is_stmt 1 view .LVU423
ARM GAS  /tmp/ccI0AsY7.s 			page 64


 1798 0030 9419     		adds	r4, r2, r6
 1799 0032 A4B2     		uxth	r4, r4
 1800 0034 CDF80080 		str	r8, [sp]
 1801 0038 3B46     		mov	r3, r7
 1802 003a 2246     		mov	r2, r4
 1803              	.LVL177:
 333:display/ssd1306.c **** 	SSD1306_DrawLine(x, y + h, x + w, y + h, c); // Bottom line 
 1804              		.loc 1 333 2 is_stmt 0 view .LVU424
 1805 003c 3946     		mov	r1, r7
 1806              	.LVL178:
 333:display/ssd1306.c **** 	SSD1306_DrawLine(x, y + h, x + w, y + h, c); // Bottom line 
 1807              		.loc 1 333 2 view .LVU425
 1808 003e 3046     		mov	r0, r6
 1809              	.LVL179:
 333:display/ssd1306.c **** 	SSD1306_DrawLine(x, y + h, x + w, y + h, c); // Bottom line 
 1810              		.loc 1 333 2 view .LVU426
 1811 0040 FFF7FEFF 		bl	SSD1306_DrawLine
 1812              	.LVL180:
 334:display/ssd1306.c **** 	SSD1306_DrawLine(x, y, x, y + h, c);         // Left line 
 1813              		.loc 1 334 2 is_stmt 1 view .LVU427
 1814 0044 3D44     		add	r5, r5, r7
 1815              	.LVL181:
 334:display/ssd1306.c **** 	SSD1306_DrawLine(x, y, x, y + h, c);         // Left line 
 1816              		.loc 1 334 2 is_stmt 0 view .LVU428
 1817 0046 ADB2     		uxth	r5, r5
 1818 0048 CDF80080 		str	r8, [sp]
 1819 004c 2B46     		mov	r3, r5
 1820 004e 2246     		mov	r2, r4
 1821 0050 2946     		mov	r1, r5
 1822 0052 3046     		mov	r0, r6
 1823 0054 FFF7FEFF 		bl	SSD1306_DrawLine
 1824              	.LVL182:
 335:display/ssd1306.c **** 	SSD1306_DrawLine(x + w, y, x + w, y + h, c); // Right line 
 1825              		.loc 1 335 2 is_stmt 1 view .LVU429
 1826 0058 CDF80080 		str	r8, [sp]
 1827 005c 2B46     		mov	r3, r5
 1828 005e 3246     		mov	r2, r6
 1829 0060 3946     		mov	r1, r7
 1830 0062 3046     		mov	r0, r6
 1831 0064 FFF7FEFF 		bl	SSD1306_DrawLine
 1832              	.LVL183:
 336:display/ssd1306.c **** }
 1833              		.loc 1 336 2 view .LVU430
 1834 0068 CDF80080 		str	r8, [sp]
 1835 006c 2B46     		mov	r3, r5
 1836 006e 2246     		mov	r2, r4
 1837 0070 3946     		mov	r1, r7
 1838 0072 2046     		mov	r0, r4
 1839 0074 FFF7FEFF 		bl	SSD1306_DrawLine
 1840              	.LVL184:
 1841              	.L140:
 337:display/ssd1306.c **** 
 1842              		.loc 1 337 1 is_stmt 0 view .LVU431
 1843 0078 02B0     		add	sp, sp, #8
 1844              	.LCFI20:
 1845              		.cfi_def_cfa_offset 24
 1846              		@ sp needed
ARM GAS  /tmp/ccI0AsY7.s 			page 65


 1847 007a BDE8F081 		pop	{r4, r5, r6, r7, r8, pc}
 337:display/ssd1306.c **** 
 1848              		.loc 1 337 1 view .LVU432
 1849              		.cfi_endproc
 1850              	.LFE966:
 1852              		.section	.text.SSD1306_DrawFilledRectangle,"ax",%progbits
 1853              		.align	1
 1854              		.global	SSD1306_DrawFilledRectangle
 1855              		.syntax unified
 1856              		.thumb
 1857              		.thumb_func
 1859              	SSD1306_DrawFilledRectangle:
 1860              	.LVL185:
 1861              	.LFB967:
 341:display/ssd1306.c **** 	uint8_t i;
 1862              		.loc 1 341 1 is_stmt 1 view -0
 1863              		.cfi_startproc
 1864              		@ args = 4, pretend = 0, frame = 0
 1865              		@ frame_needed = 0, uses_anonymous_args = 0
 341:display/ssd1306.c **** 	uint8_t i;
 1866              		.loc 1 341 1 is_stmt 0 view .LVU434
 1867 0000 2DE9F043 		push	{r4, r5, r6, r7, r8, r9, lr}
 1868              	.LCFI21:
 1869              		.cfi_def_cfa_offset 28
 1870              		.cfi_offset 4, -28
 1871              		.cfi_offset 5, -24
 1872              		.cfi_offset 6, -20
 1873              		.cfi_offset 7, -16
 1874              		.cfi_offset 8, -12
 1875              		.cfi_offset 9, -8
 1876              		.cfi_offset 14, -4
 1877 0004 83B0     		sub	sp, sp, #12
 1878              	.LCFI22:
 1879              		.cfi_def_cfa_offset 40
 1880 0006 9DF82890 		ldrb	r9, [sp, #40]	@ zero_extendqisi2
 342:display/ssd1306.c **** 	
 1881              		.loc 1 342 2 is_stmt 1 view .LVU435
 344:display/ssd1306.c **** 	{	return; }																				// Return error 
 1882              		.loc 1 344 2 view .LVU436
 344:display/ssd1306.c **** 	{	return; }																				// Return error 
 1883              		.loc 1 344 5 is_stmt 0 view .LVU437
 1884 000a 8328     		cmp	r0, #131
 1885 000c 26D8     		bhi	.L145
 1886 000e 0546     		mov	r5, r0
 1887 0010 0F46     		mov	r7, r1
 1888 0012 9046     		mov	r8, r2
 1889 0014 1E46     		mov	r6, r3
 344:display/ssd1306.c **** 	{	return; }																				// Return error 
 1890              		.loc 1 344 26 discriminator 1 view .LVU438
 1891 0016 1F29     		cmp	r1, #31
 1892 0018 20D8     		bhi	.L145
 347:display/ssd1306.c **** 	{	w = SSD1306_X_SIZE - x;	}
 1893              		.loc 1 347 2 is_stmt 1 view .LVU439
 347:display/ssd1306.c **** 	{	w = SSD1306_X_SIZE - x;	}
 1894              		.loc 1 347 9 is_stmt 0 view .LVU440
 1895 001a 8318     		adds	r3, r0, r2
 1896              	.LVL186:
ARM GAS  /tmp/ccI0AsY7.s 			page 66


 347:display/ssd1306.c **** 	{	w = SSD1306_X_SIZE - x;	}
 1897              		.loc 1 347 5 view .LVU441
 1898 001c 832B     		cmp	r3, #131
 1899 001e 03DD     		ble	.L147
 348:display/ssd1306.c **** 	
 1900              		.loc 1 348 4 is_stmt 1 view .LVU442
 348:display/ssd1306.c **** 	
 1901              		.loc 1 348 6 is_stmt 0 view .LVU443
 1902 0020 C0F18408 		rsb	r8, r0, #132
 1903 0024 1FFA88F8 		uxth	r8, r8
 1904              	.LVL187:
 1905              	.L147:
 350:display/ssd1306.c **** 	{	h = SSD1306_Y_SIZE - y;	}
 1906              		.loc 1 350 2 is_stmt 1 view .LVU444
 350:display/ssd1306.c **** 	{	h = SSD1306_Y_SIZE - y;	}
 1907              		.loc 1 350 9 is_stmt 0 view .LVU445
 1908 0028 BB19     		adds	r3, r7, r6
 350:display/ssd1306.c **** 	{	h = SSD1306_Y_SIZE - y;	}
 1909              		.loc 1 350 5 view .LVU446
 1910 002a 1F2B     		cmp	r3, #31
 1911 002c 02DD     		ble	.L148
 351:display/ssd1306.c **** 	
 1912              		.loc 1 351 4 is_stmt 1 view .LVU447
 351:display/ssd1306.c **** 	
 1913              		.loc 1 351 6 is_stmt 0 view .LVU448
 1914 002e C7F12006 		rsb	r6, r7, #32
 1915 0032 B6B2     		uxth	r6, r6
 1916              	.LVL188:
 1917              	.L148:
 353:display/ssd1306.c **** 	{	SSD1306_DrawLine(x, y + i, x + w, y + i, c); 	}	// Draw lines 
 1918              		.loc 1 353 2 is_stmt 1 view .LVU449
 353:display/ssd1306.c **** 	{	SSD1306_DrawLine(x, y + i, x + w, y + i, c); 	}	// Draw lines 
 1919              		.loc 1 353 9 is_stmt 0 view .LVU450
 1920 0034 0024     		movs	r4, #0
 353:display/ssd1306.c **** 	{	SSD1306_DrawLine(x, y + i, x + w, y + i, c); 	}	// Draw lines 
 1921              		.loc 1 353 2 view .LVU451
 1922 0036 0DE0     		b	.L149
 1923              	.LVL189:
 1924              	.L150:
 354:display/ssd1306.c **** }
 1925              		.loc 1 354 4 is_stmt 1 discriminator 3 view .LVU452
 1926 0038 0CEB0701 		add	r1, ip, r7
 1927 003c 89B2     		uxth	r1, r1
 1928 003e 08EB0502 		add	r2, r8, r5
 1929 0042 CDF80090 		str	r9, [sp]
 1930 0046 0B46     		mov	r3, r1
 1931 0048 92B2     		uxth	r2, r2
 1932 004a 2846     		mov	r0, r5
 1933 004c FFF7FEFF 		bl	SSD1306_DrawLine
 1934              	.LVL190:
 353:display/ssd1306.c **** 	{	SSD1306_DrawLine(x, y + i, x + w, y + i, c); 	}	// Draw lines 
 1935              		.loc 1 353 22 discriminator 3 view .LVU453
 353:display/ssd1306.c **** 	{	SSD1306_DrawLine(x, y + i, x + w, y + i, c); 	}	// Draw lines 
 1936              		.loc 1 353 23 is_stmt 0 discriminator 3 view .LVU454
 1937 0050 0134     		adds	r4, r4, #1
 1938              	.LVL191:
 353:display/ssd1306.c **** 	{	SSD1306_DrawLine(x, y + i, x + w, y + i, c); 	}	// Draw lines 
ARM GAS  /tmp/ccI0AsY7.s 			page 67


 1939              		.loc 1 353 23 discriminator 3 view .LVU455
 1940 0052 E4B2     		uxtb	r4, r4
 1941              	.LVL192:
 1942              	.L149:
 353:display/ssd1306.c **** 	{	SSD1306_DrawLine(x, y + i, x + w, y + i, c); 	}	// Draw lines 
 1943              		.loc 1 353 14 is_stmt 1 discriminator 1 view .LVU456
 353:display/ssd1306.c **** 	{	SSD1306_DrawLine(x, y + i, x + w, y + i, c); 	}	// Draw lines 
 1944              		.loc 1 353 16 is_stmt 0 discriminator 1 view .LVU457
 1945 0054 1FFA84FC 		uxth	ip, r4
 353:display/ssd1306.c **** 	{	SSD1306_DrawLine(x, y + i, x + w, y + i, c); 	}	// Draw lines 
 1946              		.loc 1 353 2 discriminator 1 view .LVU458
 1947 0058 B445     		cmp	ip, r6
 1948 005a EDD9     		bls	.L150
 1949              	.LVL193:
 1950              	.L145:
 355:display/ssd1306.c **** 
 1951              		.loc 1 355 1 view .LVU459
 1952 005c 03B0     		add	sp, sp, #12
 1953              	.LCFI23:
 1954              		.cfi_def_cfa_offset 28
 1955              		@ sp needed
 1956 005e BDE8F083 		pop	{r4, r5, r6, r7, r8, r9, pc}
 355:display/ssd1306.c **** 
 1957              		.loc 1 355 1 view .LVU460
 1958              		.cfi_endproc
 1959              	.LFE967:
 1961              		.section	.text.SSD1306_DrawTriangle,"ax",%progbits
 1962              		.align	1
 1963              		.global	SSD1306_DrawTriangle
 1964              		.syntax unified
 1965              		.thumb
 1966              		.thumb_func
 1968              	SSD1306_DrawTriangle:
 1969              	.LVL194:
 1970              	.LFB968:
 360:display/ssd1306.c **** 	
 1971              		.loc 1 360 1 is_stmt 1 view -0
 1972              		.cfi_startproc
 1973              		@ args = 12, pretend = 0, frame = 0
 1974              		@ frame_needed = 0, uses_anonymous_args = 0
 360:display/ssd1306.c **** 	
 1975              		.loc 1 360 1 is_stmt 0 view .LVU462
 1976 0000 2DE9F047 		push	{r4, r5, r6, r7, r8, r9, r10, lr}
 1977              	.LCFI24:
 1978              		.cfi_def_cfa_offset 32
 1979              		.cfi_offset 4, -32
 1980              		.cfi_offset 5, -28
 1981              		.cfi_offset 6, -24
 1982              		.cfi_offset 7, -20
 1983              		.cfi_offset 8, -16
 1984              		.cfi_offset 9, -12
 1985              		.cfi_offset 10, -8
 1986              		.cfi_offset 14, -4
 1987 0004 82B0     		sub	sp, sp, #8
 1988              	.LCFI25:
 1989              		.cfi_def_cfa_offset 40
 1990 0006 0446     		mov	r4, r0
ARM GAS  /tmp/ccI0AsY7.s 			page 68


 1991 0008 0D46     		mov	r5, r1
 1992 000a 1746     		mov	r7, r2
 1993 000c 9846     		mov	r8, r3
 1994 000e BDF82890 		ldrh	r9, [sp, #40]
 1995 0012 BDF82CA0 		ldrh	r10, [sp, #44]
 1996 0016 9DF83060 		ldrb	r6, [sp, #48]	@ zero_extendqisi2
 362:display/ssd1306.c **** 	SSD1306_DrawLine(x2, y2, x3, y3, color);
 1997              		.loc 1 362 2 is_stmt 1 view .LVU463
 1998 001a 0096     		str	r6, [sp]
 1999 001c FFF7FEFF 		bl	SSD1306_DrawLine
 2000              	.LVL195:
 363:display/ssd1306.c **** 	SSD1306_DrawLine(x3, y3, x1, y1, color);
 2001              		.loc 1 363 2 view .LVU464
 2002 0020 0096     		str	r6, [sp]
 2003 0022 5346     		mov	r3, r10
 2004 0024 4A46     		mov	r2, r9
 2005 0026 4146     		mov	r1, r8
 2006 0028 3846     		mov	r0, r7
 2007 002a FFF7FEFF 		bl	SSD1306_DrawLine
 2008              	.LVL196:
 364:display/ssd1306.c **** }
 2009              		.loc 1 364 2 view .LVU465
 2010 002e 0096     		str	r6, [sp]
 2011 0030 2B46     		mov	r3, r5
 2012 0032 2246     		mov	r2, r4
 2013 0034 5146     		mov	r1, r10
 2014 0036 4846     		mov	r0, r9
 2015 0038 FFF7FEFF 		bl	SSD1306_DrawLine
 2016              	.LVL197:
 365:display/ssd1306.c **** 
 2017              		.loc 1 365 1 is_stmt 0 view .LVU466
 2018 003c 02B0     		add	sp, sp, #8
 2019              	.LCFI26:
 2020              		.cfi_def_cfa_offset 32
 2021              		@ sp needed
 2022 003e BDE8F087 		pop	{r4, r5, r6, r7, r8, r9, r10, pc}
 365:display/ssd1306.c **** 
 2023              		.loc 1 365 1 view .LVU467
 2024              		.cfi_endproc
 2025              	.LFE968:
 2027              		.section	.text.SSD1306_DrawFilledTriangle,"ax",%progbits
 2028              		.align	1
 2029              		.global	SSD1306_DrawFilledTriangle
 2030              		.syntax unified
 2031              		.thumb
 2032              		.thumb_func
 2034              	SSD1306_DrawFilledTriangle:
 2035              	.LVL198:
 2036              	.LFB969:
 370:display/ssd1306.c **** 	int16_t deltax = 0, deltay = 0, x = 0, y = 0, xinc1 = 0, xinc2 = 0, 
 2037              		.loc 1 370 1 is_stmt 1 view -0
 2038              		.cfi_startproc
 2039              		@ args = 12, pretend = 0, frame = 32
 2040              		@ frame_needed = 0, uses_anonymous_args = 0
 370:display/ssd1306.c **** 	int16_t deltax = 0, deltay = 0, x = 0, y = 0, xinc1 = 0, xinc2 = 0, 
 2041              		.loc 1 370 1 is_stmt 0 view .LVU469
 2042 0000 2DE9F04F 		push	{r4, r5, r6, r7, r8, r9, r10, fp, lr}
ARM GAS  /tmp/ccI0AsY7.s 			page 69


 2043              	.LCFI27:
 2044              		.cfi_def_cfa_offset 36
 2045              		.cfi_offset 4, -36
 2046              		.cfi_offset 5, -32
 2047              		.cfi_offset 6, -28
 2048              		.cfi_offset 7, -24
 2049              		.cfi_offset 8, -20
 2050              		.cfi_offset 9, -16
 2051              		.cfi_offset 10, -12
 2052              		.cfi_offset 11, -8
 2053              		.cfi_offset 14, -4
 2054 0004 8BB0     		sub	sp, sp, #44
 2055              	.LCFI28:
 2056              		.cfi_def_cfa_offset 80
 2057 0006 BDF85040 		ldrh	r4, [sp, #80]
 2058 000a 0594     		str	r4, [sp, #20]
 2059 000c BDF85440 		ldrh	r4, [sp, #84]
 2060 0010 0694     		str	r4, [sp, #24]
 2061 0012 9DF85840 		ldrb	r4, [sp, #88]	@ zero_extendqisi2
 2062 0016 0794     		str	r4, [sp, #28]
 371:display/ssd1306.c **** 	yinc1 = 0, yinc2 = 0, den = 0, num = 0, numadd = 0, numpixels = 0, 
 2063              		.loc 1 371 2 is_stmt 1 view .LVU470
 2064              	.LVL199:
 375:display/ssd1306.c **** 	deltay = ABS(y2 - y1);
 2065              		.loc 1 375 2 view .LVU471
 375:display/ssd1306.c **** 	deltay = ABS(y2 - y1);
 2066              		.loc 1 375 11 is_stmt 0 view .LVU472
 2067 0018 A2EB000A 		sub	r10, r2, r0
 2068 001c BAF1000F 		cmp	r10, #0
 2069 0020 B8BF     		it	lt
 2070 0022 CAF1000A 		rsblt	r10, r10, #0
 375:display/ssd1306.c **** 	deltay = ABS(y2 - y1);
 2071              		.loc 1 375 9 view .LVU473
 2072 0026 0FFA8AFA 		sxth	r10, r10
 2073              	.LVL200:
 376:display/ssd1306.c **** 	x = x1;
 2074              		.loc 1 376 2 is_stmt 1 view .LVU474
 376:display/ssd1306.c **** 	x = x1;
 2075              		.loc 1 376 11 is_stmt 0 view .LVU475
 2076 002a A3EB010B 		sub	fp, r3, r1
 2077 002e BBF1000F 		cmp	fp, #0
 2078 0032 B8BF     		it	lt
 2079 0034 CBF1000B 		rsblt	fp, fp, #0
 376:display/ssd1306.c **** 	x = x1;
 2080              		.loc 1 376 9 view .LVU476
 2081 0038 0FFA8BFB 		sxth	fp, fp
 2082              	.LVL201:
 377:display/ssd1306.c **** 	y = y1;
 2083              		.loc 1 377 2 is_stmt 1 view .LVU477
 377:display/ssd1306.c **** 	y = y1;
 2084              		.loc 1 377 4 is_stmt 0 view .LVU478
 2085 003c 04B2     		sxth	r4, r0
 2086              	.LVL202:
 378:display/ssd1306.c **** 
 2087              		.loc 1 378 2 is_stmt 1 view .LVU479
 378:display/ssd1306.c **** 
 2088              		.loc 1 378 4 is_stmt 0 view .LVU480
ARM GAS  /tmp/ccI0AsY7.s 			page 70


 2089 003e 0EB2     		sxth	r6, r1
 2090              	.LVL203:
 380:display/ssd1306.c **** 	{
 2091              		.loc 1 380 2 is_stmt 1 view .LVU481
 380:display/ssd1306.c **** 	{
 2092              		.loc 1 380 5 is_stmt 0 view .LVU482
 2093 0040 8242     		cmp	r2, r0
 2094 0042 13D3     		bcc	.L162
 382:display/ssd1306.c **** 		xinc2 = 1;
 2095              		.loc 1 382 9 view .LVU483
 2096 0044 0122     		movs	r2, #1
 2097              	.LVL204:
 382:display/ssd1306.c **** 		xinc2 = 1;
 2098              		.loc 1 382 9 view .LVU484
 2099 0046 0892     		str	r2, [sp, #32]
 2100              	.L155:
 2101              	.LVL205:
 391:display/ssd1306.c **** 	{
 2102              		.loc 1 391 2 is_stmt 1 view .LVU485
 391:display/ssd1306.c **** 	{
 2103              		.loc 1 391 5 is_stmt 0 view .LVU486
 2104 0048 8B42     		cmp	r3, r1
 2105 004a 13D3     		bcc	.L163
 393:display/ssd1306.c **** 		yinc2 = 1;
 2106              		.loc 1 393 9 view .LVU487
 2107 004c 0123     		movs	r3, #1
 2108              	.LVL206:
 393:display/ssd1306.c **** 		yinc2 = 1;
 2109              		.loc 1 393 9 view .LVU488
 2110 004e 0993     		str	r3, [sp, #36]
 2111              	.L156:
 2112              	.LVL207:
 402:display/ssd1306.c **** 	{
 2113              		.loc 1 402 2 is_stmt 1 view .LVU489
 402:display/ssd1306.c **** 	{
 2114              		.loc 1 402 5 is_stmt 0 view .LVU490
 2115 0050 DA45     		cmp	r10, fp
 2116 0052 13DB     		blt	.L157
 404:display/ssd1306.c **** 		yinc2 = 0;
 2117              		.loc 1 404 3 is_stmt 1 view .LVU491
 2118              	.LVL208:
 405:display/ssd1306.c **** 		den = deltax;
 2119              		.loc 1 405 3 view .LVU492
 406:display/ssd1306.c **** 		num = deltax / 2;
 2120              		.loc 1 406 3 view .LVU493
 407:display/ssd1306.c **** 		numadd = deltay;
 2121              		.loc 1 407 3 view .LVU494
 407:display/ssd1306.c **** 		numadd = deltay;
 2122              		.loc 1 407 7 is_stmt 0 view .LVU495
 2123 0054 0AEBDA78 		add	r8, r10, r10, lsr #31
 2124 0058 48F34F08 		sbfx	r8, r8, #1, #16
 2125              	.LVL209:
 408:display/ssd1306.c **** 		numpixels = deltax;
 2126              		.loc 1 408 3 is_stmt 1 view .LVU496
 409:display/ssd1306.c **** 	} 
 2127              		.loc 1 409 3 view .LVU497
 409:display/ssd1306.c **** 	} 
ARM GAS  /tmp/ccI0AsY7.s 			page 71


 2128              		.loc 1 409 3 is_stmt 0 view .LVU498
 2129 005c 089B     		ldr	r3, [sp, #32]
 2130 005e 0393     		str	r3, [sp, #12]
 405:display/ssd1306.c **** 		den = deltax;
 2131              		.loc 1 405 9 view .LVU499
 2132 0060 0023     		movs	r3, #0
 2133 0062 0893     		str	r3, [sp, #32]
 2134              	.LVL210:
 404:display/ssd1306.c **** 		yinc2 = 0;
 2135              		.loc 1 404 9 view .LVU500
 2136 0064 0493     		str	r3, [sp, #16]
 2137              	.LVL211:
 2138              	.L158:
 421:display/ssd1306.c **** 	{
 2139              		.loc 1 421 2 is_stmt 1 view .LVU501
 421:display/ssd1306.c **** 	{
 2140              		.loc 1 421 16 is_stmt 0 view .LVU502
 2141 0066 4FF00009 		mov	r9, #0
 421:display/ssd1306.c **** 	{
 2142              		.loc 1 421 2 view .LVU503
 2143 006a 1EE0     		b	.L159
 2144              	.LVL212:
 2145              	.L162:
 387:display/ssd1306.c **** 		xinc2 = -1;
 2146              		.loc 1 387 9 view .LVU504
 2147 006c 4FF0FF32 		mov	r2, #-1
 2148              	.LVL213:
 387:display/ssd1306.c **** 		xinc2 = -1;
 2149              		.loc 1 387 9 view .LVU505
 2150 0070 0892     		str	r2, [sp, #32]
 2151 0072 E9E7     		b	.L155
 2152              	.LVL214:
 2153              	.L163:
 398:display/ssd1306.c **** 		yinc2 = -1;
 2154              		.loc 1 398 9 view .LVU506
 2155 0074 4FF0FF33 		mov	r3, #-1
 2156              	.LVL215:
 398:display/ssd1306.c **** 		yinc2 = -1;
 2157              		.loc 1 398 9 view .LVU507
 2158 0078 0993     		str	r3, [sp, #36]
 2159 007a E9E7     		b	.L156
 2160              	.LVL216:
 2161              	.L157:
 413:display/ssd1306.c **** 		yinc1 = 0;
 2162              		.loc 1 413 3 is_stmt 1 view .LVU508
 414:display/ssd1306.c **** 		den = deltay;
 2163              		.loc 1 414 3 view .LVU509
 415:display/ssd1306.c **** 		num = deltay / 2;
 2164              		.loc 1 415 3 view .LVU510
 416:display/ssd1306.c **** 		numadd = deltax;
 2165              		.loc 1 416 3 view .LVU511
 416:display/ssd1306.c **** 		numadd = deltax;
 2166              		.loc 1 416 7 is_stmt 0 view .LVU512
 2167 007c 0BEBDB78 		add	r8, fp, fp, lsr #31
 2168 0080 48F34F08 		sbfx	r8, r8, #1, #16
 2169              	.LVL217:
 417:display/ssd1306.c **** 		numpixels = deltay;
ARM GAS  /tmp/ccI0AsY7.s 			page 72


 2170              		.loc 1 417 3 is_stmt 1 view .LVU513
 418:display/ssd1306.c **** 	}
 2171              		.loc 1 418 3 view .LVU514
 416:display/ssd1306.c **** 		numadd = deltax;
 2172              		.loc 1 416 7 is_stmt 0 view .LVU515
 2173 0084 5346     		mov	r3, r10
 415:display/ssd1306.c **** 		num = deltay / 2;
 2174              		.loc 1 415 7 view .LVU516
 2175 0086 DA46     		mov	r10, fp
 2176              	.LVL218:
 417:display/ssd1306.c **** 		numpixels = deltay;
 2177              		.loc 1 417 10 view .LVU517
 2178 0088 9B46     		mov	fp, r3
 2179              	.LVL219:
 416:display/ssd1306.c **** 		numadd = deltax;
 2180              		.loc 1 416 7 view .LVU518
 2181 008a 099B     		ldr	r3, [sp, #36]
 2182              	.LVL220:
 416:display/ssd1306.c **** 		numadd = deltax;
 2183              		.loc 1 416 7 view .LVU519
 2184 008c 0493     		str	r3, [sp, #16]
 414:display/ssd1306.c **** 		den = deltay;
 2185              		.loc 1 414 9 view .LVU520
 2186 008e 0023     		movs	r3, #0
 2187 0090 0993     		str	r3, [sp, #36]
 2188              	.LVL221:
 413:display/ssd1306.c **** 		yinc1 = 0;
 2189              		.loc 1 413 9 view .LVU521
 2190 0092 0393     		str	r3, [sp, #12]
 2191 0094 E7E7     		b	.L158
 2192              	.LVL222:
 2193              	.L160:
 432:display/ssd1306.c **** 		y += yinc2;
 2194              		.loc 1 432 3 is_stmt 1 discriminator 2 view .LVU522
 432:display/ssd1306.c **** 		y += yinc2;
 2195              		.loc 1 432 5 is_stmt 0 discriminator 2 view .LVU523
 2196 0096 039B     		ldr	r3, [sp, #12]
 2197 0098 1C44     		add	r4, r4, r3
 2198              	.LVL223:
 432:display/ssd1306.c **** 		y += yinc2;
 2199              		.loc 1 432 5 discriminator 2 view .LVU524
 2200 009a 24B2     		sxth	r4, r4
 2201              	.LVL224:
 433:display/ssd1306.c **** 	}
 2202              		.loc 1 433 3 is_stmt 1 discriminator 2 view .LVU525
 433:display/ssd1306.c **** 	}
 2203              		.loc 1 433 5 is_stmt 0 discriminator 2 view .LVU526
 2204 009c 049B     		ldr	r3, [sp, #16]
 2205 009e 1E44     		add	r6, r6, r3
 2206              	.LVL225:
 433:display/ssd1306.c **** 	}
 2207              		.loc 1 433 5 discriminator 2 view .LVU527
 2208 00a0 36B2     		sxth	r6, r6
 2209              	.LVL226:
 421:display/ssd1306.c **** 	{
 2210              		.loc 1 421 44 is_stmt 1 discriminator 2 view .LVU528
 421:display/ssd1306.c **** 	{
ARM GAS  /tmp/ccI0AsY7.s 			page 73


 2211              		.loc 1 421 52 is_stmt 0 discriminator 2 view .LVU529
 2212 00a2 09F10109 		add	r9, r9, #1
 2213              	.LVL227:
 421:display/ssd1306.c **** 	{
 2214              		.loc 1 421 52 discriminator 2 view .LVU530
 2215 00a6 0FFA89F9 		sxth	r9, r9
 2216              	.LVL228:
 2217              	.L159:
 421:display/ssd1306.c **** 	{
 2218              		.loc 1 421 21 is_stmt 1 discriminator 1 view .LVU531
 421:display/ssd1306.c **** 	{
 2219              		.loc 1 421 2 is_stmt 0 discriminator 1 view .LVU532
 2220 00aa CA45     		cmp	r10, r9
 2221 00ac 1BDB     		blt	.L165
 423:display/ssd1306.c **** 
 2222              		.loc 1 423 3 is_stmt 1 view .LVU533
 2223 00ae A7B2     		uxth	r7, r4
 2224 00b0 B5B2     		uxth	r5, r6
 2225 00b2 079B     		ldr	r3, [sp, #28]
 2226 00b4 0093     		str	r3, [sp]
 2227 00b6 069B     		ldr	r3, [sp, #24]
 2228 00b8 059A     		ldr	r2, [sp, #20]
 2229 00ba 2946     		mov	r1, r5
 2230 00bc 3846     		mov	r0, r7
 2231 00be FFF7FEFF 		bl	SSD1306_DrawLine
 2232              	.LVL229:
 425:display/ssd1306.c **** 		if (num >= den) 
 2233              		.loc 1 425 3 view .LVU534
 425:display/ssd1306.c **** 		if (num >= den) 
 2234              		.loc 1 425 7 is_stmt 0 view .LVU535
 2235 00c2 D844     		add	r8, r8, fp
 2236              	.LVL230:
 425:display/ssd1306.c **** 		if (num >= den) 
 2237              		.loc 1 425 7 view .LVU536
 2238 00c4 1FFA88F3 		uxth	r3, r8
 2239 00c8 0FFA88F8 		sxth	r8, r8
 2240              	.LVL231:
 426:display/ssd1306.c **** 		{
 2241              		.loc 1 426 3 is_stmt 1 view .LVU537
 426:display/ssd1306.c **** 		{
 2242              		.loc 1 426 6 is_stmt 0 view .LVU538
 2243 00cc C245     		cmp	r10, r8
 2244 00ce E2DC     		bgt	.L160
 428:display/ssd1306.c **** 			x += xinc1;
 2245              		.loc 1 428 4 is_stmt 1 view .LVU539
 428:display/ssd1306.c **** 			x += xinc1;
 2246              		.loc 1 428 8 is_stmt 0 view .LVU540
 2247 00d0 A3EB0A03 		sub	r3, r3, r10
 2248 00d4 0FFA83F8 		sxth	r8, r3
 2249              	.LVL232:
 429:display/ssd1306.c **** 			y += yinc1;
 2250              		.loc 1 429 4 is_stmt 1 view .LVU541
 429:display/ssd1306.c **** 			y += yinc1;
 2251              		.loc 1 429 6 is_stmt 0 view .LVU542
 2252 00d8 089B     		ldr	r3, [sp, #32]
 2253 00da FC18     		adds	r4, r7, r3
 2254              	.LVL233:
ARM GAS  /tmp/ccI0AsY7.s 			page 74


 429:display/ssd1306.c **** 			y += yinc1;
 2255              		.loc 1 429 6 view .LVU543
 2256 00dc 24B2     		sxth	r4, r4
 2257              	.LVL234:
 430:display/ssd1306.c **** 		}
 2258              		.loc 1 430 4 is_stmt 1 view .LVU544
 430:display/ssd1306.c **** 		}
 2259              		.loc 1 430 6 is_stmt 0 view .LVU545
 2260 00de 099B     		ldr	r3, [sp, #36]
 2261 00e0 1D44     		add	r5, r5, r3
 2262 00e2 2EB2     		sxth	r6, r5
 2263              	.LVL235:
 430:display/ssd1306.c **** 		}
 2264              		.loc 1 430 6 view .LVU546
 2265 00e4 D7E7     		b	.L160
 2266              	.L165:
 435:display/ssd1306.c **** 
 2267              		.loc 1 435 1 view .LVU547
 2268 00e6 0BB0     		add	sp, sp, #44
 2269              	.LCFI29:
 2270              		.cfi_def_cfa_offset 36
 2271              		@ sp needed
 2272 00e8 BDE8F08F 		pop	{r4, r5, r6, r7, r8, r9, r10, fp, pc}
 435:display/ssd1306.c **** 
 2273              		.loc 1 435 1 view .LVU548
 2274              		.cfi_endproc
 2275              	.LFE969:
 2277              		.section	.text.SSD1306_DrawCircle,"ax",%progbits
 2278              		.align	1
 2279              		.global	SSD1306_DrawCircle
 2280              		.syntax unified
 2281              		.thumb
 2282              		.thumb_func
 2284              	SSD1306_DrawCircle:
 2285              	.LVL236:
 2286              	.LFB970:
 439:display/ssd1306.c **** 	int16_t f = 1 - r;
 2287              		.loc 1 439 1 is_stmt 1 view -0
 2288              		.cfi_startproc
 2289              		@ args = 0, pretend = 0, frame = 24
 2290              		@ frame_needed = 0, uses_anonymous_args = 0
 439:display/ssd1306.c **** 	int16_t f = 1 - r;
 2291              		.loc 1 439 1 is_stmt 0 view .LVU550
 2292 0000 2DE9F04F 		push	{r4, r5, r6, r7, r8, r9, r10, fp, lr}
 2293              	.LCFI30:
 2294              		.cfi_def_cfa_offset 36
 2295              		.cfi_offset 4, -36
 2296              		.cfi_offset 5, -32
 2297              		.cfi_offset 6, -28
 2298              		.cfi_offset 7, -24
 2299              		.cfi_offset 8, -20
 2300              		.cfi_offset 9, -16
 2301              		.cfi_offset 10, -12
 2302              		.cfi_offset 11, -8
 2303              		.cfi_offset 14, -4
 2304 0004 87B0     		sub	sp, sp, #28
 2305              	.LCFI31:
ARM GAS  /tmp/ccI0AsY7.s 			page 75


 2306              		.cfi_def_cfa_offset 64
 2307 0006 0192     		str	r2, [sp, #4]
 2308 0008 1E46     		mov	r6, r3
 440:display/ssd1306.c **** 	int16_t ddF_x = 1;
 2309              		.loc 1 440 2 is_stmt 1 view .LVU551
 440:display/ssd1306.c **** 	int16_t ddF_x = 1;
 2310              		.loc 1 440 16 is_stmt 0 view .LVU552
 2311 000a 94B2     		uxth	r4, r2
 2312 000c C4F10103 		rsb	r3, r4, #1
 2313              	.LVL237:
 440:display/ssd1306.c **** 	int16_t ddF_x = 1;
 2314              		.loc 1 440 10 view .LVU553
 2315 0010 0FFA83F9 		sxth	r9, r3
 2316              	.LVL238:
 441:display/ssd1306.c **** 	int16_t ddF_y = -2 * r;
 2317              		.loc 1 441 2 is_stmt 1 view .LVU554
 442:display/ssd1306.c **** 	int16_t x = 0;
 2318              		.loc 1 442 2 view .LVU555
 442:display/ssd1306.c **** 	int16_t x = 0;
 2319              		.loc 1 442 21 is_stmt 0 view .LVU556
 2320 0014 C4EBC433 		rsb	r3, r4, r4, lsl #15
 2321 0018 5B00     		lsls	r3, r3, #1
 442:display/ssd1306.c **** 	int16_t x = 0;
 2322              		.loc 1 442 10 view .LVU557
 2323 001a 1BB2     		sxth	r3, r3
 2324 001c 0593     		str	r3, [sp, #20]
 2325              	.LVL239:
 443:display/ssd1306.c **** 	int16_t y = r;
 2326              		.loc 1 443 2 is_stmt 1 view .LVU558
 444:display/ssd1306.c **** 
 2327              		.loc 1 444 2 view .LVU559
 446:display/ssd1306.c ****   SSD1306_DrawPixel(x0, y0 - r, c);
 2328              		.loc 1 446 3 view .LVU560
 2329 001e 1FFA80FB 		uxth	fp, r0
 2330 0022 1FFA81FA 		uxth	r10, r1
 2331 0026 04EB0A01 		add	r1, r4, r10
 2332              	.LVL240:
 446:display/ssd1306.c ****   SSD1306_DrawPixel(x0, y0 - r, c);
 2333              		.loc 1 446 3 is_stmt 0 view .LVU561
 2334 002a 3246     		mov	r2, r6
 2335              	.LVL241:
 446:display/ssd1306.c ****   SSD1306_DrawPixel(x0, y0 - r, c);
 2336              		.loc 1 446 3 view .LVU562
 2337 002c 89B2     		uxth	r1, r1
 2338 002e 5846     		mov	r0, fp
 446:display/ssd1306.c ****   SSD1306_DrawPixel(x0, y0 - r, c);
 2339              		.loc 1 446 3 view .LVU563
 2340 0030 FFF7FEFF 		bl	SSD1306_DrawPixel
 2341              	.LVL242:
 447:display/ssd1306.c ****   SSD1306_DrawPixel(x0 + r, y0, c);
 2342              		.loc 1 447 3 is_stmt 1 view .LVU564
 2343 0034 AAEB0401 		sub	r1, r10, r4
 2344 0038 3246     		mov	r2, r6
 2345 003a 89B2     		uxth	r1, r1
 2346 003c 5846     		mov	r0, fp
 2347 003e FFF7FEFF 		bl	SSD1306_DrawPixel
 2348              	.LVL243:
ARM GAS  /tmp/ccI0AsY7.s 			page 76


 448:display/ssd1306.c ****   SSD1306_DrawPixel(x0 - r, y0, c);
 2349              		.loc 1 448 3 view .LVU565
 2350 0042 04EB0B00 		add	r0, r4, fp
 2351 0046 3246     		mov	r2, r6
 2352 0048 5146     		mov	r1, r10
 2353 004a 80B2     		uxth	r0, r0
 2354 004c FFF7FEFF 		bl	SSD1306_DrawPixel
 2355              	.LVL244:
 449:display/ssd1306.c **** 
 2356              		.loc 1 449 3 view .LVU566
 2357 0050 ABEB0400 		sub	r0, fp, r4
 2358 0054 3246     		mov	r2, r6
 2359 0056 5146     		mov	r1, r10
 2360 0058 80B2     		uxth	r0, r0
 2361 005a FFF7FEFF 		bl	SSD1306_DrawPixel
 2362              	.LVL245:
 451:display/ssd1306.c **** 	{
 2363              		.loc 1 451 3 view .LVU567
 443:display/ssd1306.c **** 	int16_t y = r;
 2364              		.loc 1 443 10 is_stmt 0 view .LVU568
 2365 005e 0023     		movs	r3, #0
 2366 0060 0293     		str	r3, [sp, #8]
 441:display/ssd1306.c **** 	int16_t ddF_y = -2 * r;
 2367              		.loc 1 441 10 view .LVU569
 2368 0062 0123     		movs	r3, #1
 2369 0064 0393     		str	r3, [sp, #12]
 451:display/ssd1306.c **** 	{
 2370              		.loc 1 451 9 view .LVU570
 2371 0066 5EE0     		b	.L167
 2372              	.LVL246:
 2373              	.L172:
 455:display/ssd1306.c **** 			ddF_y += 2;
 2374              		.loc 1 455 4 is_stmt 1 view .LVU571
 455:display/ssd1306.c **** 			ddF_y += 2;
 2375              		.loc 1 455 5 is_stmt 0 view .LVU572
 2376 0068 019B     		ldr	r3, [sp, #4]
 2377 006a 013B     		subs	r3, r3, #1
 2378 006c 1BB2     		sxth	r3, r3
 2379 006e 0193     		str	r3, [sp, #4]
 2380              	.LVL247:
 456:display/ssd1306.c **** 			f += ddF_y;
 2381              		.loc 1 456 4 is_stmt 1 view .LVU573
 456:display/ssd1306.c **** 			f += ddF_y;
 2382              		.loc 1 456 10 is_stmt 0 view .LVU574
 2383 0070 059A     		ldr	r2, [sp, #20]
 2384 0072 0232     		adds	r2, r2, #2
 2385 0074 93B2     		uxth	r3, r2
 2386 0076 12B2     		sxth	r2, r2
 2387 0078 0592     		str	r2, [sp, #20]
 2388              	.LVL248:
 457:display/ssd1306.c **** 		}
 2389              		.loc 1 457 4 is_stmt 1 view .LVU575
 457:display/ssd1306.c **** 		}
 2390              		.loc 1 457 6 is_stmt 0 view .LVU576
 2391 007a 9944     		add	r9, r9, r3
 2392              	.LVL249:
 457:display/ssd1306.c **** 		}
ARM GAS  /tmp/ccI0AsY7.s 			page 77


 2393              		.loc 1 457 6 view .LVU577
 2394 007c 0FFA89F9 		sxth	r9, r9
 2395              	.LVL250:
 2396              	.L168:
 459:display/ssd1306.c ****     ddF_x += 2;
 2397              		.loc 1 459 5 is_stmt 1 view .LVU578
 459:display/ssd1306.c ****     ddF_x += 2;
 2398              		.loc 1 459 6 is_stmt 0 view .LVU579
 2399 0080 029B     		ldr	r3, [sp, #8]
 2400 0082 0133     		adds	r3, r3, #1
 2401 0084 9DB2     		uxth	r5, r3
 2402 0086 1BB2     		sxth	r3, r3
 2403 0088 0293     		str	r3, [sp, #8]
 2404              	.LVL251:
 460:display/ssd1306.c ****     f += ddF_x;
 2405              		.loc 1 460 5 is_stmt 1 view .LVU580
 460:display/ssd1306.c ****     f += ddF_x;
 2406              		.loc 1 460 11 is_stmt 0 view .LVU581
 2407 008a 039A     		ldr	r2, [sp, #12]
 2408 008c 0232     		adds	r2, r2, #2
 2409 008e 93B2     		uxth	r3, r2
 2410 0090 12B2     		sxth	r2, r2
 2411 0092 0392     		str	r2, [sp, #12]
 2412              	.LVL252:
 461:display/ssd1306.c **** 
 2413              		.loc 1 461 5 is_stmt 1 view .LVU582
 461:display/ssd1306.c **** 
 2414              		.loc 1 461 7 is_stmt 0 view .LVU583
 2415 0094 9944     		add	r9, r9, r3
 2416              	.LVL253:
 461:display/ssd1306.c **** 
 2417              		.loc 1 461 7 view .LVU584
 2418 0096 0FFA89F9 		sxth	r9, r9
 2419              	.LVL254:
 463:display/ssd1306.c ****     SSD1306_DrawPixel(x0 - x, y0 + y, c);
 2420              		.loc 1 463 5 is_stmt 1 view .LVU585
 2421 009a 0BEB0503 		add	r3, fp, r5
 2422 009e 9BB2     		uxth	r3, r3
 2423 00a0 BDF80440 		ldrh	r4, [sp, #4]
 2424 00a4 0AEB0408 		add	r8, r10, r4
 2425 00a8 1FFA88F8 		uxth	r8, r8
 2426 00ac 3246     		mov	r2, r6
 2427 00ae 4146     		mov	r1, r8
 2428 00b0 0493     		str	r3, [sp, #16]
 2429 00b2 1846     		mov	r0, r3
 2430 00b4 FFF7FEFF 		bl	SSD1306_DrawPixel
 2431              	.LVL255:
 464:display/ssd1306.c ****     SSD1306_DrawPixel(x0 + x, y0 - y, c);
 2432              		.loc 1 464 5 view .LVU586
 2433 00b8 ABEB0507 		sub	r7, fp, r5
 2434 00bc BFB2     		uxth	r7, r7
 2435 00be 3246     		mov	r2, r6
 2436 00c0 4146     		mov	r1, r8
 2437 00c2 3846     		mov	r0, r7
 2438 00c4 FFF7FEFF 		bl	SSD1306_DrawPixel
 2439              	.LVL256:
 465:display/ssd1306.c ****     SSD1306_DrawPixel(x0 - x, y0 - y, c);
ARM GAS  /tmp/ccI0AsY7.s 			page 78


 2440              		.loc 1 465 5 view .LVU587
 2441 00c8 AAEB0408 		sub	r8, r10, r4
 2442 00cc 1FFA88F8 		uxth	r8, r8
 2443 00d0 3246     		mov	r2, r6
 2444 00d2 4146     		mov	r1, r8
