ARM GAS  /tmp/ccLXhlQB.s 			page 1


   1              		.cpu cortex-m3
   2              		.arch armv7-m
   3              		.fpu softvfp
   4              		.eabi_attribute 20, 1
   5              		.eabi_attribute 21, 1
   6              		.eabi_attribute 23, 3
   7              		.eabi_attribute 24, 1
   8              		.eabi_attribute 25, 1
   9              		.eabi_attribute 26, 1
  10              		.eabi_attribute 30, 1
  11              		.eabi_attribute 34, 1
  12              		.eabi_attribute 18, 4
  13              		.file	"stm32f1xx_ll_utils.c"
  14              		.text
  15              	.Ltext0:
  16              		.cfi_sections	.debug_frame
  17              		.section	.text.UTILS_GetPLLOutputFrequency,"ax",%progbits
  18              		.align	1
  19              		.syntax unified
  20              		.thumb
  21              		.thumb_func
  23              	UTILS_GetPLLOutputFrequency:
  24              	.LVL0:
  25              	.LFB204:
  26              		.file 1 "Drivers/STM32F1xx_HAL_Driver/Src/stm32f1xx_ll_utils.c"
   1:Drivers/STM32F1xx_HAL_Driver/Src/stm32f1xx_ll_utils.c **** /**
   2:Drivers/STM32F1xx_HAL_Driver/Src/stm32f1xx_ll_utils.c ****   ******************************************************************************
   3:Drivers/STM32F1xx_HAL_Driver/Src/stm32f1xx_ll_utils.c ****   * @file    stm32f1xx_ll_utils.c
   4:Drivers/STM32F1xx_HAL_Driver/Src/stm32f1xx_ll_utils.c ****   * @author  MCD Application Team
   5:Drivers/STM32F1xx_HAL_Driver/Src/stm32f1xx_ll_utils.c ****   * @brief   UTILS LL module driver.
   6:Drivers/STM32F1xx_HAL_Driver/Src/stm32f1xx_ll_utils.c ****   ******************************************************************************
   7:Drivers/STM32F1xx_HAL_Driver/Src/stm32f1xx_ll_utils.c ****   * @attention
   8:Drivers/STM32F1xx_HAL_Driver/Src/stm32f1xx_ll_utils.c ****   *
   9:Drivers/STM32F1xx_HAL_Driver/Src/stm32f1xx_ll_utils.c ****   * Copyright (c) 2016 STMicroelectronics.
  10:Drivers/STM32F1xx_HAL_Driver/Src/stm32f1xx_ll_utils.c ****   * All rights reserved.
  11:Drivers/STM32F1xx_HAL_Driver/Src/stm32f1xx_ll_utils.c ****   *
  12:Drivers/STM32F1xx_HAL_Driver/Src/stm32f1xx_ll_utils.c ****   * This software is licensed under terms that can be found in the LICENSE file
  13:Drivers/STM32F1xx_HAL_Driver/Src/stm32f1xx_ll_utils.c ****   * in the root directory of this software component.
  14:Drivers/STM32F1xx_HAL_Driver/Src/stm32f1xx_ll_utils.c ****   * If no LICENSE file comes with this software, it is provided AS-IS.
  15:Drivers/STM32F1xx_HAL_Driver/Src/stm32f1xx_ll_utils.c ****   *
  16:Drivers/STM32F1xx_HAL_Driver/Src/stm32f1xx_ll_utils.c ****   ******************************************************************************
  17:Drivers/STM32F1xx_HAL_Driver/Src/stm32f1xx_ll_utils.c ****   */
  18:Drivers/STM32F1xx_HAL_Driver/Src/stm32f1xx_ll_utils.c **** 
  19:Drivers/STM32F1xx_HAL_Driver/Src/stm32f1xx_ll_utils.c **** /* Includes ------------------------------------------------------------------*/
  20:Drivers/STM32F1xx_HAL_Driver/Src/stm32f1xx_ll_utils.c **** #include "stm32f1xx_ll_rcc.h"
  21:Drivers/STM32F1xx_HAL_Driver/Src/stm32f1xx_ll_utils.c **** #include "stm32f1xx_ll_utils.h"
  22:Drivers/STM32F1xx_HAL_Driver/Src/stm32f1xx_ll_utils.c **** #include "stm32f1xx_ll_system.h"
  23:Drivers/STM32F1xx_HAL_Driver/Src/stm32f1xx_ll_utils.c **** #ifdef  USE_FULL_ASSERT
  24:Drivers/STM32F1xx_HAL_Driver/Src/stm32f1xx_ll_utils.c **** #include "stm32_assert.h"
  25:Drivers/STM32F1xx_HAL_Driver/Src/stm32f1xx_ll_utils.c **** #else
  26:Drivers/STM32F1xx_HAL_Driver/Src/stm32f1xx_ll_utils.c **** #define assert_param(expr) ((void)0U)
  27:Drivers/STM32F1xx_HAL_Driver/Src/stm32f1xx_ll_utils.c **** #endif
  28:Drivers/STM32F1xx_HAL_Driver/Src/stm32f1xx_ll_utils.c **** 
  29:Drivers/STM32F1xx_HAL_Driver/Src/stm32f1xx_ll_utils.c **** /** @addtogroup STM32F1xx_LL_Driver
  30:Drivers/STM32F1xx_HAL_Driver/Src/stm32f1xx_ll_utils.c ****   * @{
  31:Drivers/STM32F1xx_HAL_Driver/Src/stm32f1xx_ll_utils.c ****   */
  32:Drivers/STM32F1xx_HAL_Driver/Src/stm32f1xx_ll_utils.c **** 
ARM GAS  /tmp/ccLXhlQB.s 			page 2


  33:Drivers/STM32F1xx_HAL_Driver/Src/stm32f1xx_ll_utils.c **** /** @addtogroup UTILS_LL
  34:Drivers/STM32F1xx_HAL_Driver/Src/stm32f1xx_ll_utils.c ****   * @{
  35:Drivers/STM32F1xx_HAL_Driver/Src/stm32f1xx_ll_utils.c ****   */
  36:Drivers/STM32F1xx_HAL_Driver/Src/stm32f1xx_ll_utils.c **** 
  37:Drivers/STM32F1xx_HAL_Driver/Src/stm32f1xx_ll_utils.c **** /* Private types -------------------------------------------------------------*/
  38:Drivers/STM32F1xx_HAL_Driver/Src/stm32f1xx_ll_utils.c **** /* Private variables ---------------------------------------------------------*/
  39:Drivers/STM32F1xx_HAL_Driver/Src/stm32f1xx_ll_utils.c **** /* Private constants ---------------------------------------------------------*/
  40:Drivers/STM32F1xx_HAL_Driver/Src/stm32f1xx_ll_utils.c **** /** @addtogroup UTILS_LL_Private_Constants
  41:Drivers/STM32F1xx_HAL_Driver/Src/stm32f1xx_ll_utils.c ****   * @{
  42:Drivers/STM32F1xx_HAL_Driver/Src/stm32f1xx_ll_utils.c ****   */
  43:Drivers/STM32F1xx_HAL_Driver/Src/stm32f1xx_ll_utils.c **** 
  44:Drivers/STM32F1xx_HAL_Driver/Src/stm32f1xx_ll_utils.c **** /* Defines used for PLL range */
  45:Drivers/STM32F1xx_HAL_Driver/Src/stm32f1xx_ll_utils.c **** #define UTILS_PLL_OUTPUT_MAX        RCC_MAX_FREQUENCY    /*!< Frequency max for PLL output, in Hz  
  46:Drivers/STM32F1xx_HAL_Driver/Src/stm32f1xx_ll_utils.c **** #define UTILS_PLL2_OUTPUT_MAX       RCC_MAX_FREQUENCY    /*!< Frequency max for PLL2 output, in Hz 
  47:Drivers/STM32F1xx_HAL_Driver/Src/stm32f1xx_ll_utils.c **** 
  48:Drivers/STM32F1xx_HAL_Driver/Src/stm32f1xx_ll_utils.c **** /* Defines used for HSE range */
  49:Drivers/STM32F1xx_HAL_Driver/Src/stm32f1xx_ll_utils.c **** #define UTILS_HSE_FREQUENCY_MIN     RCC_HSE_MIN       /*!< Frequency min for HSE frequency, in Hz  
  50:Drivers/STM32F1xx_HAL_Driver/Src/stm32f1xx_ll_utils.c **** #define UTILS_HSE_FREQUENCY_MAX     RCC_HSE_MAX       /*!< Frequency max for HSE frequency, in Hz  
  51:Drivers/STM32F1xx_HAL_Driver/Src/stm32f1xx_ll_utils.c **** 
  52:Drivers/STM32F1xx_HAL_Driver/Src/stm32f1xx_ll_utils.c **** /* Defines used for FLASH latency according to HCLK Frequency */
  53:Drivers/STM32F1xx_HAL_Driver/Src/stm32f1xx_ll_utils.c **** #if defined(FLASH_ACR_LATENCY)
  54:Drivers/STM32F1xx_HAL_Driver/Src/stm32f1xx_ll_utils.c **** #define UTILS_LATENCY1_FREQ         24000000U        /*!< SYSCLK frequency to set FLASH latency 1 *
  55:Drivers/STM32F1xx_HAL_Driver/Src/stm32f1xx_ll_utils.c **** #define UTILS_LATENCY2_FREQ         48000000U        /*!< SYSCLK frequency to set FLASH latency 2 *
  56:Drivers/STM32F1xx_HAL_Driver/Src/stm32f1xx_ll_utils.c **** #else
  57:Drivers/STM32F1xx_HAL_Driver/Src/stm32f1xx_ll_utils.c **** /*!< No Latency Configuration in this device */
  58:Drivers/STM32F1xx_HAL_Driver/Src/stm32f1xx_ll_utils.c **** #endif
  59:Drivers/STM32F1xx_HAL_Driver/Src/stm32f1xx_ll_utils.c **** /**
  60:Drivers/STM32F1xx_HAL_Driver/Src/stm32f1xx_ll_utils.c ****   * @}
  61:Drivers/STM32F1xx_HAL_Driver/Src/stm32f1xx_ll_utils.c ****   */
  62:Drivers/STM32F1xx_HAL_Driver/Src/stm32f1xx_ll_utils.c **** /* Private macros ------------------------------------------------------------*/
  63:Drivers/STM32F1xx_HAL_Driver/Src/stm32f1xx_ll_utils.c **** /** @addtogroup UTILS_LL_Private_Macros
  64:Drivers/STM32F1xx_HAL_Driver/Src/stm32f1xx_ll_utils.c ****   * @{
  65:Drivers/STM32F1xx_HAL_Driver/Src/stm32f1xx_ll_utils.c ****   */
  66:Drivers/STM32F1xx_HAL_Driver/Src/stm32f1xx_ll_utils.c **** #define IS_LL_UTILS_SYSCLK_DIV(__VALUE__) (((__VALUE__) == LL_RCC_SYSCLK_DIV_1)   \
  67:Drivers/STM32F1xx_HAL_Driver/Src/stm32f1xx_ll_utils.c ****                                         || ((__VALUE__) == LL_RCC_SYSCLK_DIV_2)   \
  68:Drivers/STM32F1xx_HAL_Driver/Src/stm32f1xx_ll_utils.c ****                                         || ((__VALUE__) == LL_RCC_SYSCLK_DIV_4)   \
  69:Drivers/STM32F1xx_HAL_Driver/Src/stm32f1xx_ll_utils.c ****                                         || ((__VALUE__) == LL_RCC_SYSCLK_DIV_8)   \
  70:Drivers/STM32F1xx_HAL_Driver/Src/stm32f1xx_ll_utils.c ****                                         || ((__VALUE__) == LL_RCC_SYSCLK_DIV_16)  \
  71:Drivers/STM32F1xx_HAL_Driver/Src/stm32f1xx_ll_utils.c ****                                         || ((__VALUE__) == LL_RCC_SYSCLK_DIV_64)  \
  72:Drivers/STM32F1xx_HAL_Driver/Src/stm32f1xx_ll_utils.c ****                                         || ((__VALUE__) == LL_RCC_SYSCLK_DIV_128) \
  73:Drivers/STM32F1xx_HAL_Driver/Src/stm32f1xx_ll_utils.c ****                                         || ((__VALUE__) == LL_RCC_SYSCLK_DIV_256) \
  74:Drivers/STM32F1xx_HAL_Driver/Src/stm32f1xx_ll_utils.c ****                                         || ((__VALUE__) == LL_RCC_SYSCLK_DIV_512))
  75:Drivers/STM32F1xx_HAL_Driver/Src/stm32f1xx_ll_utils.c **** 
  76:Drivers/STM32F1xx_HAL_Driver/Src/stm32f1xx_ll_utils.c **** #define IS_LL_UTILS_APB1_DIV(__VALUE__) (((__VALUE__) == LL_RCC_APB1_DIV_1) \
  77:Drivers/STM32F1xx_HAL_Driver/Src/stm32f1xx_ll_utils.c ****                                       || ((__VALUE__) == LL_RCC_APB1_DIV_2) \
  78:Drivers/STM32F1xx_HAL_Driver/Src/stm32f1xx_ll_utils.c ****                                       || ((__VALUE__) == LL_RCC_APB1_DIV_4) \
  79:Drivers/STM32F1xx_HAL_Driver/Src/stm32f1xx_ll_utils.c ****                                       || ((__VALUE__) == LL_RCC_APB1_DIV_8) \
  80:Drivers/STM32F1xx_HAL_Driver/Src/stm32f1xx_ll_utils.c ****                                       || ((__VALUE__) == LL_RCC_APB1_DIV_16))
  81:Drivers/STM32F1xx_HAL_Driver/Src/stm32f1xx_ll_utils.c **** 
  82:Drivers/STM32F1xx_HAL_Driver/Src/stm32f1xx_ll_utils.c **** #define IS_LL_UTILS_APB2_DIV(__VALUE__) (((__VALUE__) == LL_RCC_APB2_DIV_1) \
  83:Drivers/STM32F1xx_HAL_Driver/Src/stm32f1xx_ll_utils.c ****                                       || ((__VALUE__) == LL_RCC_APB2_DIV_2) \
  84:Drivers/STM32F1xx_HAL_Driver/Src/stm32f1xx_ll_utils.c ****                                       || ((__VALUE__) == LL_RCC_APB2_DIV_4) \
  85:Drivers/STM32F1xx_HAL_Driver/Src/stm32f1xx_ll_utils.c ****                                       || ((__VALUE__) == LL_RCC_APB2_DIV_8) \
  86:Drivers/STM32F1xx_HAL_Driver/Src/stm32f1xx_ll_utils.c ****                                       || ((__VALUE__) == LL_RCC_APB2_DIV_16))
  87:Drivers/STM32F1xx_HAL_Driver/Src/stm32f1xx_ll_utils.c **** 
  88:Drivers/STM32F1xx_HAL_Driver/Src/stm32f1xx_ll_utils.c **** #if defined(RCC_CFGR_PLLMULL6_5)
  89:Drivers/STM32F1xx_HAL_Driver/Src/stm32f1xx_ll_utils.c **** #define IS_LL_UTILS_PLLMUL_VALUE(__VALUE__) (((__VALUE__) == LL_RCC_PLL_MUL_4) \
ARM GAS  /tmp/ccLXhlQB.s 			page 3


  90:Drivers/STM32F1xx_HAL_Driver/Src/stm32f1xx_ll_utils.c ****                                           || ((__VALUE__) == LL_RCC_PLL_MUL_5) \
  91:Drivers/STM32F1xx_HAL_Driver/Src/stm32f1xx_ll_utils.c ****                                           || ((__VALUE__) == LL_RCC_PLL_MUL_6) \
  92:Drivers/STM32F1xx_HAL_Driver/Src/stm32f1xx_ll_utils.c ****                                           || ((__VALUE__) == LL_RCC_PLL_MUL_7) \
  93:Drivers/STM32F1xx_HAL_Driver/Src/stm32f1xx_ll_utils.c ****                                           || ((__VALUE__) == LL_RCC_PLL_MUL_8) \
  94:Drivers/STM32F1xx_HAL_Driver/Src/stm32f1xx_ll_utils.c ****                                           || ((__VALUE__) == LL_RCC_PLL_MUL_9) \
  95:Drivers/STM32F1xx_HAL_Driver/Src/stm32f1xx_ll_utils.c ****                                           || ((__VALUE__) == LL_RCC_PLL_MUL_6_5))
  96:Drivers/STM32F1xx_HAL_Driver/Src/stm32f1xx_ll_utils.c **** #else
  97:Drivers/STM32F1xx_HAL_Driver/Src/stm32f1xx_ll_utils.c **** #define IS_LL_UTILS_PLLMUL_VALUE(__VALUE__) (((__VALUE__) == LL_RCC_PLL_MUL_2) \
  98:Drivers/STM32F1xx_HAL_Driver/Src/stm32f1xx_ll_utils.c ****                                           || ((__VALUE__) == LL_RCC_PLL_MUL_3) \
  99:Drivers/STM32F1xx_HAL_Driver/Src/stm32f1xx_ll_utils.c ****                                           || ((__VALUE__) == LL_RCC_PLL_MUL_4) \
 100:Drivers/STM32F1xx_HAL_Driver/Src/stm32f1xx_ll_utils.c ****                                           || ((__VALUE__) == LL_RCC_PLL_MUL_5) \
 101:Drivers/STM32F1xx_HAL_Driver/Src/stm32f1xx_ll_utils.c ****                                           || ((__VALUE__) == LL_RCC_PLL_MUL_6) \
 102:Drivers/STM32F1xx_HAL_Driver/Src/stm32f1xx_ll_utils.c ****                                           || ((__VALUE__) == LL_RCC_PLL_MUL_7) \
 103:Drivers/STM32F1xx_HAL_Driver/Src/stm32f1xx_ll_utils.c ****                                           || ((__VALUE__) == LL_RCC_PLL_MUL_8) \
 104:Drivers/STM32F1xx_HAL_Driver/Src/stm32f1xx_ll_utils.c ****                                           || ((__VALUE__) == LL_RCC_PLL_MUL_9) \
 105:Drivers/STM32F1xx_HAL_Driver/Src/stm32f1xx_ll_utils.c ****                                           || ((__VALUE__) == LL_RCC_PLL_MUL_10) \
 106:Drivers/STM32F1xx_HAL_Driver/Src/stm32f1xx_ll_utils.c ****                                           || ((__VALUE__) == LL_RCC_PLL_MUL_11) \
 107:Drivers/STM32F1xx_HAL_Driver/Src/stm32f1xx_ll_utils.c ****                                           || ((__VALUE__) == LL_RCC_PLL_MUL_12) \
 108:Drivers/STM32F1xx_HAL_Driver/Src/stm32f1xx_ll_utils.c ****                                           || ((__VALUE__) == LL_RCC_PLL_MUL_13) \
 109:Drivers/STM32F1xx_HAL_Driver/Src/stm32f1xx_ll_utils.c ****                                           || ((__VALUE__) == LL_RCC_PLL_MUL_14) \
 110:Drivers/STM32F1xx_HAL_Driver/Src/stm32f1xx_ll_utils.c ****                                           || ((__VALUE__) == LL_RCC_PLL_MUL_15) \
 111:Drivers/STM32F1xx_HAL_Driver/Src/stm32f1xx_ll_utils.c ****                                           || ((__VALUE__) == LL_RCC_PLL_MUL_16))
 112:Drivers/STM32F1xx_HAL_Driver/Src/stm32f1xx_ll_utils.c **** #endif /* RCC_CFGR_PLLMULL6_5 */
 113:Drivers/STM32F1xx_HAL_Driver/Src/stm32f1xx_ll_utils.c **** 
 114:Drivers/STM32F1xx_HAL_Driver/Src/stm32f1xx_ll_utils.c **** #if defined(RCC_CFGR2_PREDIV1)
 115:Drivers/STM32F1xx_HAL_Driver/Src/stm32f1xx_ll_utils.c **** #define IS_LL_UTILS_PREDIV_VALUE(__VALUE__) (((__VALUE__) == LL_RCC_PREDIV_DIV_1)  || ((__VALUE__) 
 116:Drivers/STM32F1xx_HAL_Driver/Src/stm32f1xx_ll_utils.c ****                                              ((__VALUE__) == LL_RCC_PREDIV_DIV_3)  || ((__VALUE__) 
 117:Drivers/STM32F1xx_HAL_Driver/Src/stm32f1xx_ll_utils.c ****                                              ((__VALUE__) == LL_RCC_PREDIV_DIV_5)  || ((__VALUE__) 
 118:Drivers/STM32F1xx_HAL_Driver/Src/stm32f1xx_ll_utils.c ****                                              ((__VALUE__) == LL_RCC_PREDIV_DIV_7)  || ((__VALUE__) 
 119:Drivers/STM32F1xx_HAL_Driver/Src/stm32f1xx_ll_utils.c ****                                              ((__VALUE__) == LL_RCC_PREDIV_DIV_9)  || ((__VALUE__) 
 120:Drivers/STM32F1xx_HAL_Driver/Src/stm32f1xx_ll_utils.c ****                                              ((__VALUE__) == LL_RCC_PREDIV_DIV_11) || ((__VALUE__) 
 121:Drivers/STM32F1xx_HAL_Driver/Src/stm32f1xx_ll_utils.c ****                                              ((__VALUE__) == LL_RCC_PREDIV_DIV_13) || ((__VALUE__) 
 122:Drivers/STM32F1xx_HAL_Driver/Src/stm32f1xx_ll_utils.c ****                                              ((__VALUE__) == LL_RCC_PREDIV_DIV_15) || ((__VALUE__) 
 123:Drivers/STM32F1xx_HAL_Driver/Src/stm32f1xx_ll_utils.c **** #else
 124:Drivers/STM32F1xx_HAL_Driver/Src/stm32f1xx_ll_utils.c **** #define IS_LL_UTILS_PREDIV_VALUE(__VALUE__) (((__VALUE__) == LL_RCC_PREDIV_DIV_1)  || ((__VALUE__) 
 125:Drivers/STM32F1xx_HAL_Driver/Src/stm32f1xx_ll_utils.c **** #endif /*RCC_PREDIV1_DIV_2_16_SUPPORT*/
 126:Drivers/STM32F1xx_HAL_Driver/Src/stm32f1xx_ll_utils.c **** 
 127:Drivers/STM32F1xx_HAL_Driver/Src/stm32f1xx_ll_utils.c **** #define IS_LL_UTILS_PLL_FREQUENCY(__VALUE__) ((__VALUE__) <= UTILS_PLL_OUTPUT_MAX)
 128:Drivers/STM32F1xx_HAL_Driver/Src/stm32f1xx_ll_utils.c **** 
 129:Drivers/STM32F1xx_HAL_Driver/Src/stm32f1xx_ll_utils.c **** #if defined(RCC_PLL2_SUPPORT)
 130:Drivers/STM32F1xx_HAL_Driver/Src/stm32f1xx_ll_utils.c **** #define IS_LL_UTILS_PLL2MUL_VALUE(__VALUE__) (((__VALUE__) == LL_RCC_PLL2_MUL_8) \
 131:Drivers/STM32F1xx_HAL_Driver/Src/stm32f1xx_ll_utils.c ****                                            || ((__VALUE__) == LL_RCC_PLL2_MUL_9) \
 132:Drivers/STM32F1xx_HAL_Driver/Src/stm32f1xx_ll_utils.c ****                                            || ((__VALUE__) == LL_RCC_PLL2_MUL_10) \
 133:Drivers/STM32F1xx_HAL_Driver/Src/stm32f1xx_ll_utils.c ****                                            || ((__VALUE__) == LL_RCC_PLL2_MUL_11) \
 134:Drivers/STM32F1xx_HAL_Driver/Src/stm32f1xx_ll_utils.c ****                                            || ((__VALUE__) == LL_RCC_PLL2_MUL_12) \
 135:Drivers/STM32F1xx_HAL_Driver/Src/stm32f1xx_ll_utils.c ****                                            || ((__VALUE__) == LL_RCC_PLL2_MUL_13) \
 136:Drivers/STM32F1xx_HAL_Driver/Src/stm32f1xx_ll_utils.c ****                                            || ((__VALUE__) == LL_RCC_PLL2_MUL_14) \
 137:Drivers/STM32F1xx_HAL_Driver/Src/stm32f1xx_ll_utils.c ****                                            || ((__VALUE__) == LL_RCC_PLL2_MUL_16) \
 138:Drivers/STM32F1xx_HAL_Driver/Src/stm32f1xx_ll_utils.c ****                                            || ((__VALUE__) == LL_RCC_PLL2_MUL_20))
 139:Drivers/STM32F1xx_HAL_Driver/Src/stm32f1xx_ll_utils.c **** 
 140:Drivers/STM32F1xx_HAL_Driver/Src/stm32f1xx_ll_utils.c **** #define IS_LL_UTILS_PREDIV2_VALUE(__VALUE__) (((__VALUE__) == LL_RCC_HSE_PREDIV2_DIV_1)  || ((__VAL
 141:Drivers/STM32F1xx_HAL_Driver/Src/stm32f1xx_ll_utils.c ****                                               ((__VALUE__) == LL_RCC_HSE_PREDIV2_DIV_3)  || ((__VAL
 142:Drivers/STM32F1xx_HAL_Driver/Src/stm32f1xx_ll_utils.c ****                                               ((__VALUE__) == LL_RCC_HSE_PREDIV2_DIV_5)  || ((__VAL
 143:Drivers/STM32F1xx_HAL_Driver/Src/stm32f1xx_ll_utils.c ****                                               ((__VALUE__) == LL_RCC_HSE_PREDIV2_DIV_7)  || ((__VAL
 144:Drivers/STM32F1xx_HAL_Driver/Src/stm32f1xx_ll_utils.c ****                                               ((__VALUE__) == LL_RCC_HSE_PREDIV2_DIV_9)  || ((__VAL
 145:Drivers/STM32F1xx_HAL_Driver/Src/stm32f1xx_ll_utils.c ****                                               ((__VALUE__) == LL_RCC_HSE_PREDIV2_DIV_11) || ((__VAL
 146:Drivers/STM32F1xx_HAL_Driver/Src/stm32f1xx_ll_utils.c ****                                               ((__VALUE__) == LL_RCC_HSE_PREDIV2_DIV_13) || ((__VAL
ARM GAS  /tmp/ccLXhlQB.s 			page 4


 147:Drivers/STM32F1xx_HAL_Driver/Src/stm32f1xx_ll_utils.c ****                                               ((__VALUE__) == LL_RCC_HSE_PREDIV2_DIV_15) || ((__VAL
 148:Drivers/STM32F1xx_HAL_Driver/Src/stm32f1xx_ll_utils.c **** 
 149:Drivers/STM32F1xx_HAL_Driver/Src/stm32f1xx_ll_utils.c **** #define IS_LL_UTILS_PLL2_FREQUENCY(__VALUE__) ((__VALUE__) <= UTILS_PLL2_OUTPUT_MAX)
 150:Drivers/STM32F1xx_HAL_Driver/Src/stm32f1xx_ll_utils.c **** #endif /* RCC_PLL2_SUPPORT */
 151:Drivers/STM32F1xx_HAL_Driver/Src/stm32f1xx_ll_utils.c **** 
 152:Drivers/STM32F1xx_HAL_Driver/Src/stm32f1xx_ll_utils.c **** #define IS_LL_UTILS_HSE_BYPASS(__STATE__) (((__STATE__) == LL_UTILS_HSEBYPASS_ON) \
 153:Drivers/STM32F1xx_HAL_Driver/Src/stm32f1xx_ll_utils.c ****                                         || ((__STATE__) == LL_UTILS_HSEBYPASS_OFF))
 154:Drivers/STM32F1xx_HAL_Driver/Src/stm32f1xx_ll_utils.c **** 
 155:Drivers/STM32F1xx_HAL_Driver/Src/stm32f1xx_ll_utils.c **** #define IS_LL_UTILS_HSE_FREQUENCY(__FREQUENCY__) (((__FREQUENCY__) >= UTILS_HSE_FREQUENCY_MIN) && (
 156:Drivers/STM32F1xx_HAL_Driver/Src/stm32f1xx_ll_utils.c **** /**
 157:Drivers/STM32F1xx_HAL_Driver/Src/stm32f1xx_ll_utils.c ****   * @}
 158:Drivers/STM32F1xx_HAL_Driver/Src/stm32f1xx_ll_utils.c ****   */
 159:Drivers/STM32F1xx_HAL_Driver/Src/stm32f1xx_ll_utils.c **** /* Private function prototypes -----------------------------------------------*/
 160:Drivers/STM32F1xx_HAL_Driver/Src/stm32f1xx_ll_utils.c **** /** @defgroup UTILS_LL_Private_Functions UTILS Private functions
 161:Drivers/STM32F1xx_HAL_Driver/Src/stm32f1xx_ll_utils.c ****   * @{
 162:Drivers/STM32F1xx_HAL_Driver/Src/stm32f1xx_ll_utils.c ****   */
 163:Drivers/STM32F1xx_HAL_Driver/Src/stm32f1xx_ll_utils.c **** static uint32_t    UTILS_GetPLLOutputFrequency(uint32_t PLL_InputFrequency,
 164:Drivers/STM32F1xx_HAL_Driver/Src/stm32f1xx_ll_utils.c ****                                                LL_UTILS_PLLInitTypeDef *UTILS_PLLInitStruct);
 165:Drivers/STM32F1xx_HAL_Driver/Src/stm32f1xx_ll_utils.c **** static ErrorStatus UTILS_PLL_HSE_ConfigSystemClock(uint32_t PLL_InputFrequency, uint32_t HSEBypass,
 166:Drivers/STM32F1xx_HAL_Driver/Src/stm32f1xx_ll_utils.c ****                                                    LL_UTILS_PLLInitTypeDef *UTILS_PLLInitStruct,
 167:Drivers/STM32F1xx_HAL_Driver/Src/stm32f1xx_ll_utils.c ****                                                    LL_UTILS_ClkInitTypeDef *UTILS_ClkInitStruct);
 168:Drivers/STM32F1xx_HAL_Driver/Src/stm32f1xx_ll_utils.c **** #if defined(RCC_PLL2_SUPPORT)
 169:Drivers/STM32F1xx_HAL_Driver/Src/stm32f1xx_ll_utils.c **** static uint32_t    UTILS_GetPLL2OutputFrequency(uint32_t PLL2_InputFrequency,
 170:Drivers/STM32F1xx_HAL_Driver/Src/stm32f1xx_ll_utils.c ****                                                 LL_UTILS_PLLInitTypeDef *UTILS_PLL2InitStruct);
 171:Drivers/STM32F1xx_HAL_Driver/Src/stm32f1xx_ll_utils.c **** #endif /* RCC_PLL2_SUPPORT */
 172:Drivers/STM32F1xx_HAL_Driver/Src/stm32f1xx_ll_utils.c **** static ErrorStatus UTILS_EnablePLLAndSwitchSystem(uint32_t SYSCLK_Frequency, LL_UTILS_ClkInitTypeDe
 173:Drivers/STM32F1xx_HAL_Driver/Src/stm32f1xx_ll_utils.c **** static ErrorStatus UTILS_PLL_IsBusy(void);
 174:Drivers/STM32F1xx_HAL_Driver/Src/stm32f1xx_ll_utils.c **** /**
 175:Drivers/STM32F1xx_HAL_Driver/Src/stm32f1xx_ll_utils.c ****   * @}
 176:Drivers/STM32F1xx_HAL_Driver/Src/stm32f1xx_ll_utils.c ****   */
 177:Drivers/STM32F1xx_HAL_Driver/Src/stm32f1xx_ll_utils.c **** 
 178:Drivers/STM32F1xx_HAL_Driver/Src/stm32f1xx_ll_utils.c **** /* Exported functions --------------------------------------------------------*/
 179:Drivers/STM32F1xx_HAL_Driver/Src/stm32f1xx_ll_utils.c **** /** @addtogroup UTILS_LL_Exported_Functions
 180:Drivers/STM32F1xx_HAL_Driver/Src/stm32f1xx_ll_utils.c ****   * @{
 181:Drivers/STM32F1xx_HAL_Driver/Src/stm32f1xx_ll_utils.c ****   */
 182:Drivers/STM32F1xx_HAL_Driver/Src/stm32f1xx_ll_utils.c **** 
 183:Drivers/STM32F1xx_HAL_Driver/Src/stm32f1xx_ll_utils.c **** /** @addtogroup UTILS_LL_EF_DELAY
 184:Drivers/STM32F1xx_HAL_Driver/Src/stm32f1xx_ll_utils.c ****   * @{
 185:Drivers/STM32F1xx_HAL_Driver/Src/stm32f1xx_ll_utils.c ****   */
 186:Drivers/STM32F1xx_HAL_Driver/Src/stm32f1xx_ll_utils.c **** 
 187:Drivers/STM32F1xx_HAL_Driver/Src/stm32f1xx_ll_utils.c **** /**
 188:Drivers/STM32F1xx_HAL_Driver/Src/stm32f1xx_ll_utils.c ****   * @brief  This function configures the Cortex-M SysTick source to have 1ms time base.
 189:Drivers/STM32F1xx_HAL_Driver/Src/stm32f1xx_ll_utils.c ****   * @note   When a RTOS is used, it is recommended to avoid changing the Systick
 190:Drivers/STM32F1xx_HAL_Driver/Src/stm32f1xx_ll_utils.c ****   *         configuration by calling this function, for a delay use rather osDelay RTOS service.
 191:Drivers/STM32F1xx_HAL_Driver/Src/stm32f1xx_ll_utils.c ****   * @param  HCLKFrequency HCLK frequency in Hz
 192:Drivers/STM32F1xx_HAL_Driver/Src/stm32f1xx_ll_utils.c ****   * @note   HCLK frequency can be calculated thanks to RCC helper macro or function @ref LL_RCC_Get
 193:Drivers/STM32F1xx_HAL_Driver/Src/stm32f1xx_ll_utils.c ****   * @retval None
 194:Drivers/STM32F1xx_HAL_Driver/Src/stm32f1xx_ll_utils.c ****   */
 195:Drivers/STM32F1xx_HAL_Driver/Src/stm32f1xx_ll_utils.c **** void LL_Init1msTick(uint32_t HCLKFrequency)
 196:Drivers/STM32F1xx_HAL_Driver/Src/stm32f1xx_ll_utils.c **** {
 197:Drivers/STM32F1xx_HAL_Driver/Src/stm32f1xx_ll_utils.c ****   /* Use frequency provided in argument */
 198:Drivers/STM32F1xx_HAL_Driver/Src/stm32f1xx_ll_utils.c ****   LL_InitTick(HCLKFrequency, 1000U);
 199:Drivers/STM32F1xx_HAL_Driver/Src/stm32f1xx_ll_utils.c **** }
 200:Drivers/STM32F1xx_HAL_Driver/Src/stm32f1xx_ll_utils.c **** 
 201:Drivers/STM32F1xx_HAL_Driver/Src/stm32f1xx_ll_utils.c **** /**
 202:Drivers/STM32F1xx_HAL_Driver/Src/stm32f1xx_ll_utils.c ****   * @brief  This function provides accurate delay (in milliseconds) based
 203:Drivers/STM32F1xx_HAL_Driver/Src/stm32f1xx_ll_utils.c ****   *         on SysTick counter flag
ARM GAS  /tmp/ccLXhlQB.s 			page 5


 204:Drivers/STM32F1xx_HAL_Driver/Src/stm32f1xx_ll_utils.c ****   * @note   When a RTOS is used, it is recommended to avoid using blocking delay
 205:Drivers/STM32F1xx_HAL_Driver/Src/stm32f1xx_ll_utils.c ****   *         and use rather osDelay service.
 206:Drivers/STM32F1xx_HAL_Driver/Src/stm32f1xx_ll_utils.c ****   * @note   To respect 1ms timebase, user should call @ref LL_Init1msTick function which
 207:Drivers/STM32F1xx_HAL_Driver/Src/stm32f1xx_ll_utils.c ****   *         will configure Systick to 1ms
 208:Drivers/STM32F1xx_HAL_Driver/Src/stm32f1xx_ll_utils.c ****   * @param  Delay specifies the delay time length, in milliseconds.
 209:Drivers/STM32F1xx_HAL_Driver/Src/stm32f1xx_ll_utils.c ****   * @retval None
 210:Drivers/STM32F1xx_HAL_Driver/Src/stm32f1xx_ll_utils.c ****   */
 211:Drivers/STM32F1xx_HAL_Driver/Src/stm32f1xx_ll_utils.c **** void LL_mDelay(uint32_t Delay)
 212:Drivers/STM32F1xx_HAL_Driver/Src/stm32f1xx_ll_utils.c **** {
 213:Drivers/STM32F1xx_HAL_Driver/Src/stm32f1xx_ll_utils.c ****   __IO uint32_t  tmp = SysTick->CTRL;  /* Clear the COUNTFLAG first */
 214:Drivers/STM32F1xx_HAL_Driver/Src/stm32f1xx_ll_utils.c ****   /* Add this code to indicate that local variable is not used */
 215:Drivers/STM32F1xx_HAL_Driver/Src/stm32f1xx_ll_utils.c ****   ((void)tmp);
 216:Drivers/STM32F1xx_HAL_Driver/Src/stm32f1xx_ll_utils.c **** 
 217:Drivers/STM32F1xx_HAL_Driver/Src/stm32f1xx_ll_utils.c ****   /* Add a period to guaranty minimum wait */
 218:Drivers/STM32F1xx_HAL_Driver/Src/stm32f1xx_ll_utils.c ****   if (Delay < LL_MAX_DELAY)
 219:Drivers/STM32F1xx_HAL_Driver/Src/stm32f1xx_ll_utils.c ****   {
 220:Drivers/STM32F1xx_HAL_Driver/Src/stm32f1xx_ll_utils.c ****     Delay++;
 221:Drivers/STM32F1xx_HAL_Driver/Src/stm32f1xx_ll_utils.c ****   }
 222:Drivers/STM32F1xx_HAL_Driver/Src/stm32f1xx_ll_utils.c **** 
 223:Drivers/STM32F1xx_HAL_Driver/Src/stm32f1xx_ll_utils.c ****   while (Delay)
 224:Drivers/STM32F1xx_HAL_Driver/Src/stm32f1xx_ll_utils.c ****   {
 225:Drivers/STM32F1xx_HAL_Driver/Src/stm32f1xx_ll_utils.c ****     if ((SysTick->CTRL & SysTick_CTRL_COUNTFLAG_Msk) != 0U)
 226:Drivers/STM32F1xx_HAL_Driver/Src/stm32f1xx_ll_utils.c ****     {
 227:Drivers/STM32F1xx_HAL_Driver/Src/stm32f1xx_ll_utils.c ****       Delay--;
 228:Drivers/STM32F1xx_HAL_Driver/Src/stm32f1xx_ll_utils.c ****     }
 229:Drivers/STM32F1xx_HAL_Driver/Src/stm32f1xx_ll_utils.c ****   }
 230:Drivers/STM32F1xx_HAL_Driver/Src/stm32f1xx_ll_utils.c **** }
 231:Drivers/STM32F1xx_HAL_Driver/Src/stm32f1xx_ll_utils.c **** 
 232:Drivers/STM32F1xx_HAL_Driver/Src/stm32f1xx_ll_utils.c **** /**
 233:Drivers/STM32F1xx_HAL_Driver/Src/stm32f1xx_ll_utils.c ****   * @}
 234:Drivers/STM32F1xx_HAL_Driver/Src/stm32f1xx_ll_utils.c ****   */
 235:Drivers/STM32F1xx_HAL_Driver/Src/stm32f1xx_ll_utils.c **** 
 236:Drivers/STM32F1xx_HAL_Driver/Src/stm32f1xx_ll_utils.c **** /** @addtogroup UTILS_EF_SYSTEM
 237:Drivers/STM32F1xx_HAL_Driver/Src/stm32f1xx_ll_utils.c ****   *  @brief    System Configuration functions
 238:Drivers/STM32F1xx_HAL_Driver/Src/stm32f1xx_ll_utils.c ****   *
 239:Drivers/STM32F1xx_HAL_Driver/Src/stm32f1xx_ll_utils.c ****   @verbatim
 240:Drivers/STM32F1xx_HAL_Driver/Src/stm32f1xx_ll_utils.c ****  ===============================================================================
 241:Drivers/STM32F1xx_HAL_Driver/Src/stm32f1xx_ll_utils.c ****            ##### System Configuration functions #####
 242:Drivers/STM32F1xx_HAL_Driver/Src/stm32f1xx_ll_utils.c ****  ===============================================================================
 243:Drivers/STM32F1xx_HAL_Driver/Src/stm32f1xx_ll_utils.c ****     [..]
 244:Drivers/STM32F1xx_HAL_Driver/Src/stm32f1xx_ll_utils.c ****          System, AHB and APB buses clocks configuration
 245:Drivers/STM32F1xx_HAL_Driver/Src/stm32f1xx_ll_utils.c **** 
 246:Drivers/STM32F1xx_HAL_Driver/Src/stm32f1xx_ll_utils.c ****          (+) The maximum frequency of the SYSCLK, HCLK, PCLK1 and PCLK2 is RCC_MAX_FREQUENCY Hz.
 247:Drivers/STM32F1xx_HAL_Driver/Src/stm32f1xx_ll_utils.c ****   @endverbatim
 248:Drivers/STM32F1xx_HAL_Driver/Src/stm32f1xx_ll_utils.c ****   @internal
 249:Drivers/STM32F1xx_HAL_Driver/Src/stm32f1xx_ll_utils.c ****              Depending on the SYSCLK frequency, the flash latency should be adapted accordingly:
 250:Drivers/STM32F1xx_HAL_Driver/Src/stm32f1xx_ll_utils.c ****              (++) +-----------------------------------------------+
 251:Drivers/STM32F1xx_HAL_Driver/Src/stm32f1xx_ll_utils.c ****              (++) | Latency       | SYSCLK clock frequency (MHz)  |
 252:Drivers/STM32F1xx_HAL_Driver/Src/stm32f1xx_ll_utils.c ****              (++) |---------------|-------------------------------|
 253:Drivers/STM32F1xx_HAL_Driver/Src/stm32f1xx_ll_utils.c ****              (++) |0WS(1CPU cycle)|       0 < SYSCLK <= 24        |
 254:Drivers/STM32F1xx_HAL_Driver/Src/stm32f1xx_ll_utils.c ****              (++) |---------------|-------------------------------|
 255:Drivers/STM32F1xx_HAL_Driver/Src/stm32f1xx_ll_utils.c ****              (++) |1WS(2CPU cycle)|      24 < SYSCLK <= 48        |
 256:Drivers/STM32F1xx_HAL_Driver/Src/stm32f1xx_ll_utils.c ****              (++) |---------------|-------------------------------|
 257:Drivers/STM32F1xx_HAL_Driver/Src/stm32f1xx_ll_utils.c ****              (++) |2WS(3CPU cycle)|      48 < SYSCLK <= 72        |
 258:Drivers/STM32F1xx_HAL_Driver/Src/stm32f1xx_ll_utils.c ****              (++) +-----------------------------------------------+
 259:Drivers/STM32F1xx_HAL_Driver/Src/stm32f1xx_ll_utils.c ****   @endinternal
 260:Drivers/STM32F1xx_HAL_Driver/Src/stm32f1xx_ll_utils.c ****   * @{
ARM GAS  /tmp/ccLXhlQB.s 			page 6


 261:Drivers/STM32F1xx_HAL_Driver/Src/stm32f1xx_ll_utils.c ****   */
 262:Drivers/STM32F1xx_HAL_Driver/Src/stm32f1xx_ll_utils.c **** 
 263:Drivers/STM32F1xx_HAL_Driver/Src/stm32f1xx_ll_utils.c **** /**
 264:Drivers/STM32F1xx_HAL_Driver/Src/stm32f1xx_ll_utils.c ****   * @brief  This function sets directly SystemCoreClock CMSIS variable.
 265:Drivers/STM32F1xx_HAL_Driver/Src/stm32f1xx_ll_utils.c ****   * @note   Variable can be calculated also through SystemCoreClockUpdate function.
 266:Drivers/STM32F1xx_HAL_Driver/Src/stm32f1xx_ll_utils.c ****   * @param  HCLKFrequency HCLK frequency in Hz (can be calculated thanks to RCC helper macro)
 267:Drivers/STM32F1xx_HAL_Driver/Src/stm32f1xx_ll_utils.c ****   * @retval None
 268:Drivers/STM32F1xx_HAL_Driver/Src/stm32f1xx_ll_utils.c ****   */
 269:Drivers/STM32F1xx_HAL_Driver/Src/stm32f1xx_ll_utils.c **** void LL_SetSystemCoreClock(uint32_t HCLKFrequency)
 270:Drivers/STM32F1xx_HAL_Driver/Src/stm32f1xx_ll_utils.c **** {
 271:Drivers/STM32F1xx_HAL_Driver/Src/stm32f1xx_ll_utils.c ****   /* HCLK clock frequency */
 272:Drivers/STM32F1xx_HAL_Driver/Src/stm32f1xx_ll_utils.c ****   SystemCoreClock = HCLKFrequency;
 273:Drivers/STM32F1xx_HAL_Driver/Src/stm32f1xx_ll_utils.c **** }
 274:Drivers/STM32F1xx_HAL_Driver/Src/stm32f1xx_ll_utils.c **** 
 275:Drivers/STM32F1xx_HAL_Driver/Src/stm32f1xx_ll_utils.c **** /**
 276:Drivers/STM32F1xx_HAL_Driver/Src/stm32f1xx_ll_utils.c ****   * @brief  Update number of Flash wait states in line with new frequency and current
 277:Drivers/STM32F1xx_HAL_Driver/Src/stm32f1xx_ll_utils.c ****             voltage range.
 278:Drivers/STM32F1xx_HAL_Driver/Src/stm32f1xx_ll_utils.c ****   * @param  Frequency  SYSCLK frequency
 279:Drivers/STM32F1xx_HAL_Driver/Src/stm32f1xx_ll_utils.c ****   * @retval An ErrorStatus enumeration value:
 280:Drivers/STM32F1xx_HAL_Driver/Src/stm32f1xx_ll_utils.c ****   *          - SUCCESS: Latency has been modified
 281:Drivers/STM32F1xx_HAL_Driver/Src/stm32f1xx_ll_utils.c ****   *          - ERROR: Latency cannot be modified
 282:Drivers/STM32F1xx_HAL_Driver/Src/stm32f1xx_ll_utils.c ****   */
 283:Drivers/STM32F1xx_HAL_Driver/Src/stm32f1xx_ll_utils.c **** #if defined(FLASH_ACR_LATENCY)
 284:Drivers/STM32F1xx_HAL_Driver/Src/stm32f1xx_ll_utils.c **** ErrorStatus LL_SetFlashLatency(uint32_t Frequency)
 285:Drivers/STM32F1xx_HAL_Driver/Src/stm32f1xx_ll_utils.c **** {
 286:Drivers/STM32F1xx_HAL_Driver/Src/stm32f1xx_ll_utils.c ****   uint32_t timeout;
 287:Drivers/STM32F1xx_HAL_Driver/Src/stm32f1xx_ll_utils.c ****   uint32_t getlatency;
 288:Drivers/STM32F1xx_HAL_Driver/Src/stm32f1xx_ll_utils.c ****   uint32_t latency = LL_FLASH_LATENCY_0; /* default value 0WS */
 289:Drivers/STM32F1xx_HAL_Driver/Src/stm32f1xx_ll_utils.c ****   ErrorStatus status = SUCCESS;
 290:Drivers/STM32F1xx_HAL_Driver/Src/stm32f1xx_ll_utils.c **** 
 291:Drivers/STM32F1xx_HAL_Driver/Src/stm32f1xx_ll_utils.c ****   /* Frequency cannot be equal to 0 */
 292:Drivers/STM32F1xx_HAL_Driver/Src/stm32f1xx_ll_utils.c ****   if (Frequency == 0U)
 293:Drivers/STM32F1xx_HAL_Driver/Src/stm32f1xx_ll_utils.c ****   {
 294:Drivers/STM32F1xx_HAL_Driver/Src/stm32f1xx_ll_utils.c ****     status = ERROR;
 295:Drivers/STM32F1xx_HAL_Driver/Src/stm32f1xx_ll_utils.c ****   }
 296:Drivers/STM32F1xx_HAL_Driver/Src/stm32f1xx_ll_utils.c ****   else
 297:Drivers/STM32F1xx_HAL_Driver/Src/stm32f1xx_ll_utils.c ****   {
 298:Drivers/STM32F1xx_HAL_Driver/Src/stm32f1xx_ll_utils.c ****     if (Frequency > UTILS_LATENCY2_FREQ)
 299:Drivers/STM32F1xx_HAL_Driver/Src/stm32f1xx_ll_utils.c ****     {
 300:Drivers/STM32F1xx_HAL_Driver/Src/stm32f1xx_ll_utils.c ****       /* 48 < SYSCLK <= 72 => 2WS (3 CPU cycles) */
 301:Drivers/STM32F1xx_HAL_Driver/Src/stm32f1xx_ll_utils.c ****       latency = LL_FLASH_LATENCY_2;
 302:Drivers/STM32F1xx_HAL_Driver/Src/stm32f1xx_ll_utils.c ****     }
 303:Drivers/STM32F1xx_HAL_Driver/Src/stm32f1xx_ll_utils.c ****     else
 304:Drivers/STM32F1xx_HAL_Driver/Src/stm32f1xx_ll_utils.c ****     {
 305:Drivers/STM32F1xx_HAL_Driver/Src/stm32f1xx_ll_utils.c ****       if (Frequency > UTILS_LATENCY1_FREQ)
 306:Drivers/STM32F1xx_HAL_Driver/Src/stm32f1xx_ll_utils.c ****       {
 307:Drivers/STM32F1xx_HAL_Driver/Src/stm32f1xx_ll_utils.c ****         /* 24 < SYSCLK <= 48 => 1WS (2 CPU cycles) */
 308:Drivers/STM32F1xx_HAL_Driver/Src/stm32f1xx_ll_utils.c ****         latency = LL_FLASH_LATENCY_1;
 309:Drivers/STM32F1xx_HAL_Driver/Src/stm32f1xx_ll_utils.c ****       }
 310:Drivers/STM32F1xx_HAL_Driver/Src/stm32f1xx_ll_utils.c ****       else
 311:Drivers/STM32F1xx_HAL_Driver/Src/stm32f1xx_ll_utils.c ****       {
 312:Drivers/STM32F1xx_HAL_Driver/Src/stm32f1xx_ll_utils.c ****         /* else SYSCLK < 24MHz default LL_FLASH_LATENCY_0 0WS */
 313:Drivers/STM32F1xx_HAL_Driver/Src/stm32f1xx_ll_utils.c ****         latency = LL_FLASH_LATENCY_0;
 314:Drivers/STM32F1xx_HAL_Driver/Src/stm32f1xx_ll_utils.c ****       }
 315:Drivers/STM32F1xx_HAL_Driver/Src/stm32f1xx_ll_utils.c ****     }
 316:Drivers/STM32F1xx_HAL_Driver/Src/stm32f1xx_ll_utils.c **** 
 317:Drivers/STM32F1xx_HAL_Driver/Src/stm32f1xx_ll_utils.c ****     if (status != ERROR)
ARM GAS  /tmp/ccLXhlQB.s 			page 7


 318:Drivers/STM32F1xx_HAL_Driver/Src/stm32f1xx_ll_utils.c ****     {
 319:Drivers/STM32F1xx_HAL_Driver/Src/stm32f1xx_ll_utils.c ****       LL_FLASH_SetLatency(latency);
 320:Drivers/STM32F1xx_HAL_Driver/Src/stm32f1xx_ll_utils.c **** 
 321:Drivers/STM32F1xx_HAL_Driver/Src/stm32f1xx_ll_utils.c ****       /* Check that the new number of wait states is taken into account to access the Flash
 322:Drivers/STM32F1xx_HAL_Driver/Src/stm32f1xx_ll_utils.c ****          memory by reading the FLASH_ACR register */
 323:Drivers/STM32F1xx_HAL_Driver/Src/stm32f1xx_ll_utils.c ****       timeout = 2;
 324:Drivers/STM32F1xx_HAL_Driver/Src/stm32f1xx_ll_utils.c ****       do
 325:Drivers/STM32F1xx_HAL_Driver/Src/stm32f1xx_ll_utils.c ****       {
 326:Drivers/STM32F1xx_HAL_Driver/Src/stm32f1xx_ll_utils.c ****         /* Wait for Flash latency to be updated */
 327:Drivers/STM32F1xx_HAL_Driver/Src/stm32f1xx_ll_utils.c ****         getlatency = LL_FLASH_GetLatency();
 328:Drivers/STM32F1xx_HAL_Driver/Src/stm32f1xx_ll_utils.c ****         timeout--;
 329:Drivers/STM32F1xx_HAL_Driver/Src/stm32f1xx_ll_utils.c ****       }
 330:Drivers/STM32F1xx_HAL_Driver/Src/stm32f1xx_ll_utils.c ****       while ((getlatency != latency) && (timeout > 0));
 331:Drivers/STM32F1xx_HAL_Driver/Src/stm32f1xx_ll_utils.c **** 
 332:Drivers/STM32F1xx_HAL_Driver/Src/stm32f1xx_ll_utils.c ****       if (getlatency != latency)
 333:Drivers/STM32F1xx_HAL_Driver/Src/stm32f1xx_ll_utils.c ****       {
 334:Drivers/STM32F1xx_HAL_Driver/Src/stm32f1xx_ll_utils.c ****         status = ERROR;
 335:Drivers/STM32F1xx_HAL_Driver/Src/stm32f1xx_ll_utils.c ****       }
 336:Drivers/STM32F1xx_HAL_Driver/Src/stm32f1xx_ll_utils.c ****       else
 337:Drivers/STM32F1xx_HAL_Driver/Src/stm32f1xx_ll_utils.c ****       {
 338:Drivers/STM32F1xx_HAL_Driver/Src/stm32f1xx_ll_utils.c ****         status = SUCCESS;
 339:Drivers/STM32F1xx_HAL_Driver/Src/stm32f1xx_ll_utils.c ****       }
 340:Drivers/STM32F1xx_HAL_Driver/Src/stm32f1xx_ll_utils.c ****     }
 341:Drivers/STM32F1xx_HAL_Driver/Src/stm32f1xx_ll_utils.c ****   }
 342:Drivers/STM32F1xx_HAL_Driver/Src/stm32f1xx_ll_utils.c **** 
 343:Drivers/STM32F1xx_HAL_Driver/Src/stm32f1xx_ll_utils.c ****   return status;
 344:Drivers/STM32F1xx_HAL_Driver/Src/stm32f1xx_ll_utils.c **** }
 345:Drivers/STM32F1xx_HAL_Driver/Src/stm32f1xx_ll_utils.c **** #endif /* FLASH_ACR_LATENCY */
 346:Drivers/STM32F1xx_HAL_Driver/Src/stm32f1xx_ll_utils.c **** 
 347:Drivers/STM32F1xx_HAL_Driver/Src/stm32f1xx_ll_utils.c **** /**
 348:Drivers/STM32F1xx_HAL_Driver/Src/stm32f1xx_ll_utils.c ****   * @brief  This function configures system clock with HSI as clock source of the PLL
 349:Drivers/STM32F1xx_HAL_Driver/Src/stm32f1xx_ll_utils.c ****   * @note   The application need to ensure that PLL is disabled.
 350:Drivers/STM32F1xx_HAL_Driver/Src/stm32f1xx_ll_utils.c ****   * @note   Function is based on the following formula:
 351:Drivers/STM32F1xx_HAL_Driver/Src/stm32f1xx_ll_utils.c ****   *         - PLL output frequency = ((HSI frequency / PREDIV) * PLLMUL)
 352:Drivers/STM32F1xx_HAL_Driver/Src/stm32f1xx_ll_utils.c ****   *         - PREDIV: Set to 2 for few devices
 353:Drivers/STM32F1xx_HAL_Driver/Src/stm32f1xx_ll_utils.c ****   *         - PLLMUL: The application software must set correctly the PLL multiplication factor to
 354:Drivers/STM32F1xx_HAL_Driver/Src/stm32f1xx_ll_utils.c ****   *                   not exceed 72MHz
 355:Drivers/STM32F1xx_HAL_Driver/Src/stm32f1xx_ll_utils.c ****   * @note   FLASH latency can be modified through this function.
 356:Drivers/STM32F1xx_HAL_Driver/Src/stm32f1xx_ll_utils.c ****   * @param  UTILS_PLLInitStruct pointer to a @ref LL_UTILS_PLLInitTypeDef structure that contains
 357:Drivers/STM32F1xx_HAL_Driver/Src/stm32f1xx_ll_utils.c ****   *                             the configuration information for the PLL.
 358:Drivers/STM32F1xx_HAL_Driver/Src/stm32f1xx_ll_utils.c ****   * @param  UTILS_ClkInitStruct pointer to a @ref LL_UTILS_ClkInitTypeDef structure that contains
 359:Drivers/STM32F1xx_HAL_Driver/Src/stm32f1xx_ll_utils.c ****   *                             the configuration information for the BUS prescalers.
 360:Drivers/STM32F1xx_HAL_Driver/Src/stm32f1xx_ll_utils.c ****   * @retval An ErrorStatus enumeration value:
 361:Drivers/STM32F1xx_HAL_Driver/Src/stm32f1xx_ll_utils.c ****   *          - SUCCESS: Max frequency configuration done
 362:Drivers/STM32F1xx_HAL_Driver/Src/stm32f1xx_ll_utils.c ****   *          - ERROR: Max frequency configuration not done
 363:Drivers/STM32F1xx_HAL_Driver/Src/stm32f1xx_ll_utils.c ****   */
 364:Drivers/STM32F1xx_HAL_Driver/Src/stm32f1xx_ll_utils.c **** ErrorStatus LL_PLL_ConfigSystemClock_HSI(LL_UTILS_PLLInitTypeDef *UTILS_PLLInitStruct,
 365:Drivers/STM32F1xx_HAL_Driver/Src/stm32f1xx_ll_utils.c ****                                          LL_UTILS_ClkInitTypeDef *UTILS_ClkInitStruct)
 366:Drivers/STM32F1xx_HAL_Driver/Src/stm32f1xx_ll_utils.c **** {
 367:Drivers/STM32F1xx_HAL_Driver/Src/stm32f1xx_ll_utils.c ****   ErrorStatus status = SUCCESS;
 368:Drivers/STM32F1xx_HAL_Driver/Src/stm32f1xx_ll_utils.c ****   uint32_t pllfreq = 0U;
 369:Drivers/STM32F1xx_HAL_Driver/Src/stm32f1xx_ll_utils.c **** 
 370:Drivers/STM32F1xx_HAL_Driver/Src/stm32f1xx_ll_utils.c ****   /* Check if one of the PLL is enabled */
 371:Drivers/STM32F1xx_HAL_Driver/Src/stm32f1xx_ll_utils.c ****   if (UTILS_PLL_IsBusy() == SUCCESS)
 372:Drivers/STM32F1xx_HAL_Driver/Src/stm32f1xx_ll_utils.c ****   {
 373:Drivers/STM32F1xx_HAL_Driver/Src/stm32f1xx_ll_utils.c **** #if defined(RCC_PLLSRC_PREDIV1_SUPPORT)
 374:Drivers/STM32F1xx_HAL_Driver/Src/stm32f1xx_ll_utils.c ****     /* Check PREDIV value */
ARM GAS  /tmp/ccLXhlQB.s 			page 8


 375:Drivers/STM32F1xx_HAL_Driver/Src/stm32f1xx_ll_utils.c ****     assert_param(IS_LL_UTILS_PREDIV_VALUE(UTILS_PLLInitStruct->PLLDiv));
 376:Drivers/STM32F1xx_HAL_Driver/Src/stm32f1xx_ll_utils.c **** #else
 377:Drivers/STM32F1xx_HAL_Driver/Src/stm32f1xx_ll_utils.c ****     /* Force PREDIV value to 2 */
 378:Drivers/STM32F1xx_HAL_Driver/Src/stm32f1xx_ll_utils.c ****     UTILS_PLLInitStruct->Prediv = LL_RCC_PREDIV_DIV_2;
 379:Drivers/STM32F1xx_HAL_Driver/Src/stm32f1xx_ll_utils.c **** #endif /*RCC_PLLSRC_PREDIV1_SUPPORT*/
 380:Drivers/STM32F1xx_HAL_Driver/Src/stm32f1xx_ll_utils.c ****     /* Calculate the new PLL output frequency */
 381:Drivers/STM32F1xx_HAL_Driver/Src/stm32f1xx_ll_utils.c ****     pllfreq = UTILS_GetPLLOutputFrequency(HSI_VALUE, UTILS_PLLInitStruct);
 382:Drivers/STM32F1xx_HAL_Driver/Src/stm32f1xx_ll_utils.c **** 
 383:Drivers/STM32F1xx_HAL_Driver/Src/stm32f1xx_ll_utils.c ****     /* Enable HSI if not enabled */
 384:Drivers/STM32F1xx_HAL_Driver/Src/stm32f1xx_ll_utils.c ****     if (LL_RCC_HSI_IsReady() != 1U)
 385:Drivers/STM32F1xx_HAL_Driver/Src/stm32f1xx_ll_utils.c ****     {
 386:Drivers/STM32F1xx_HAL_Driver/Src/stm32f1xx_ll_utils.c ****       LL_RCC_HSI_Enable();
 387:Drivers/STM32F1xx_HAL_Driver/Src/stm32f1xx_ll_utils.c ****       while (LL_RCC_HSI_IsReady() != 1U)
 388:Drivers/STM32F1xx_HAL_Driver/Src/stm32f1xx_ll_utils.c ****       {
 389:Drivers/STM32F1xx_HAL_Driver/Src/stm32f1xx_ll_utils.c ****         /* Wait for HSI ready */
 390:Drivers/STM32F1xx_HAL_Driver/Src/stm32f1xx_ll_utils.c ****       }
 391:Drivers/STM32F1xx_HAL_Driver/Src/stm32f1xx_ll_utils.c ****     }
 392:Drivers/STM32F1xx_HAL_Driver/Src/stm32f1xx_ll_utils.c **** 
 393:Drivers/STM32F1xx_HAL_Driver/Src/stm32f1xx_ll_utils.c ****     /* Configure PLL */
 394:Drivers/STM32F1xx_HAL_Driver/Src/stm32f1xx_ll_utils.c ****     LL_RCC_PLL_ConfigDomain_SYS(LL_RCC_PLLSOURCE_HSI_DIV_2, UTILS_PLLInitStruct->PLLMul);
 395:Drivers/STM32F1xx_HAL_Driver/Src/stm32f1xx_ll_utils.c **** 
 396:Drivers/STM32F1xx_HAL_Driver/Src/stm32f1xx_ll_utils.c ****     /* Enable PLL and switch system clock to PLL */
 397:Drivers/STM32F1xx_HAL_Driver/Src/stm32f1xx_ll_utils.c ****     status = UTILS_EnablePLLAndSwitchSystem(pllfreq, UTILS_ClkInitStruct);
 398:Drivers/STM32F1xx_HAL_Driver/Src/stm32f1xx_ll_utils.c ****   }
 399:Drivers/STM32F1xx_HAL_Driver/Src/stm32f1xx_ll_utils.c ****   else
 400:Drivers/STM32F1xx_HAL_Driver/Src/stm32f1xx_ll_utils.c ****   {
 401:Drivers/STM32F1xx_HAL_Driver/Src/stm32f1xx_ll_utils.c ****     /* Current PLL configuration cannot be modified */
 402:Drivers/STM32F1xx_HAL_Driver/Src/stm32f1xx_ll_utils.c ****     status = ERROR;
 403:Drivers/STM32F1xx_HAL_Driver/Src/stm32f1xx_ll_utils.c ****   }
 404:Drivers/STM32F1xx_HAL_Driver/Src/stm32f1xx_ll_utils.c **** 
 405:Drivers/STM32F1xx_HAL_Driver/Src/stm32f1xx_ll_utils.c ****   return status;
 406:Drivers/STM32F1xx_HAL_Driver/Src/stm32f1xx_ll_utils.c **** }
 407:Drivers/STM32F1xx_HAL_Driver/Src/stm32f1xx_ll_utils.c **** 
 408:Drivers/STM32F1xx_HAL_Driver/Src/stm32f1xx_ll_utils.c **** /**
 409:Drivers/STM32F1xx_HAL_Driver/Src/stm32f1xx_ll_utils.c ****   * @brief  This function configures system clock with HSE as clock source of the PLL
 410:Drivers/STM32F1xx_HAL_Driver/Src/stm32f1xx_ll_utils.c ****   * @note   The application need to ensure that PLL is disabled.
 411:Drivers/STM32F1xx_HAL_Driver/Src/stm32f1xx_ll_utils.c ****   * @note   Function is based on the following formula:
 412:Drivers/STM32F1xx_HAL_Driver/Src/stm32f1xx_ll_utils.c ****   *         - PLL output frequency = ((HSI frequency / PREDIV) * PLLMUL)
 413:Drivers/STM32F1xx_HAL_Driver/Src/stm32f1xx_ll_utils.c ****   *         - PREDIV: Set to 2 for few devices
 414:Drivers/STM32F1xx_HAL_Driver/Src/stm32f1xx_ll_utils.c ****   *         - PLLMUL: The application software must set correctly the PLL multiplication factor to
 415:Drivers/STM32F1xx_HAL_Driver/Src/stm32f1xx_ll_utils.c ****   *                   not exceed @ref UTILS_PLL_OUTPUT_MAX
 416:Drivers/STM32F1xx_HAL_Driver/Src/stm32f1xx_ll_utils.c ****   * @note   FLASH latency can be modified through this function.
 417:Drivers/STM32F1xx_HAL_Driver/Src/stm32f1xx_ll_utils.c ****   * @param  HSEFrequency Value between Min_Data = RCC_HSE_MIN and Max_Data = RCC_HSE_MAX
 418:Drivers/STM32F1xx_HAL_Driver/Src/stm32f1xx_ll_utils.c ****   * @param  HSEBypass This parameter can be one of the following values:
 419:Drivers/STM32F1xx_HAL_Driver/Src/stm32f1xx_ll_utils.c ****   *         @arg @ref LL_UTILS_HSEBYPASS_ON
 420:Drivers/STM32F1xx_HAL_Driver/Src/stm32f1xx_ll_utils.c ****   *         @arg @ref LL_UTILS_HSEBYPASS_OFF
 421:Drivers/STM32F1xx_HAL_Driver/Src/stm32f1xx_ll_utils.c ****   * @param  UTILS_PLLInitStruct pointer to a @ref LL_UTILS_PLLInitTypeDef structure that contains
 422:Drivers/STM32F1xx_HAL_Driver/Src/stm32f1xx_ll_utils.c ****   *                             the configuration information for the PLL.
 423:Drivers/STM32F1xx_HAL_Driver/Src/stm32f1xx_ll_utils.c ****   * @param  UTILS_ClkInitStruct pointer to a @ref LL_UTILS_ClkInitTypeDef structure that contains
 424:Drivers/STM32F1xx_HAL_Driver/Src/stm32f1xx_ll_utils.c ****   *                             the configuration information for the BUS prescalers.
 425:Drivers/STM32F1xx_HAL_Driver/Src/stm32f1xx_ll_utils.c ****   * @retval An ErrorStatus enumeration value:
 426:Drivers/STM32F1xx_HAL_Driver/Src/stm32f1xx_ll_utils.c ****   *          - SUCCESS: Max frequency configuration done
 427:Drivers/STM32F1xx_HAL_Driver/Src/stm32f1xx_ll_utils.c ****   *          - ERROR: Max frequency configuration not done
 428:Drivers/STM32F1xx_HAL_Driver/Src/stm32f1xx_ll_utils.c ****   */
 429:Drivers/STM32F1xx_HAL_Driver/Src/stm32f1xx_ll_utils.c **** ErrorStatus LL_PLL_ConfigSystemClock_HSE(uint32_t HSEFrequency, uint32_t HSEBypass,
 430:Drivers/STM32F1xx_HAL_Driver/Src/stm32f1xx_ll_utils.c ****                                          LL_UTILS_PLLInitTypeDef *UTILS_PLLInitStruct, LL_UTILS_Clk
 431:Drivers/STM32F1xx_HAL_Driver/Src/stm32f1xx_ll_utils.c **** {
ARM GAS  /tmp/ccLXhlQB.s 			page 9


 432:Drivers/STM32F1xx_HAL_Driver/Src/stm32f1xx_ll_utils.c ****   ErrorStatus status = SUCCESS;
 433:Drivers/STM32F1xx_HAL_Driver/Src/stm32f1xx_ll_utils.c ****   uint32_t pllfrequency = 0U;
 434:Drivers/STM32F1xx_HAL_Driver/Src/stm32f1xx_ll_utils.c **** 
 435:Drivers/STM32F1xx_HAL_Driver/Src/stm32f1xx_ll_utils.c ****   /* Check the parameters */
 436:Drivers/STM32F1xx_HAL_Driver/Src/stm32f1xx_ll_utils.c ****   assert_param(IS_LL_UTILS_HSE_FREQUENCY(HSEFrequency));
 437:Drivers/STM32F1xx_HAL_Driver/Src/stm32f1xx_ll_utils.c ****   assert_param(IS_LL_UTILS_HSE_BYPASS(HSEBypass));
 438:Drivers/STM32F1xx_HAL_Driver/Src/stm32f1xx_ll_utils.c ****   assert_param(IS_LL_UTILS_PREDIV_VALUE(UTILS_PLLInitStruct->Prediv));
 439:Drivers/STM32F1xx_HAL_Driver/Src/stm32f1xx_ll_utils.c **** 
 440:Drivers/STM32F1xx_HAL_Driver/Src/stm32f1xx_ll_utils.c ****   /* Calculate the new PLL output frequency */
 441:Drivers/STM32F1xx_HAL_Driver/Src/stm32f1xx_ll_utils.c ****   pllfrequency = UTILS_GetPLLOutputFrequency(HSEFrequency, UTILS_PLLInitStruct);
 442:Drivers/STM32F1xx_HAL_Driver/Src/stm32f1xx_ll_utils.c **** 
 443:Drivers/STM32F1xx_HAL_Driver/Src/stm32f1xx_ll_utils.c ****   /* Enable HSE if not enabled */
 444:Drivers/STM32F1xx_HAL_Driver/Src/stm32f1xx_ll_utils.c ****   status = UTILS_PLL_HSE_ConfigSystemClock(HSEFrequency, HSEBypass, UTILS_PLLInitStruct, UTILS_ClkI
 445:Drivers/STM32F1xx_HAL_Driver/Src/stm32f1xx_ll_utils.c **** 
 446:Drivers/STM32F1xx_HAL_Driver/Src/stm32f1xx_ll_utils.c ****   /* Check if HSE is not enabled*/
 447:Drivers/STM32F1xx_HAL_Driver/Src/stm32f1xx_ll_utils.c ****   if (status == SUCCESS)
 448:Drivers/STM32F1xx_HAL_Driver/Src/stm32f1xx_ll_utils.c ****   {
 449:Drivers/STM32F1xx_HAL_Driver/Src/stm32f1xx_ll_utils.c ****     /* Configure PLL */
 450:Drivers/STM32F1xx_HAL_Driver/Src/stm32f1xx_ll_utils.c ****     LL_RCC_PLL_ConfigDomain_SYS((LL_RCC_PLLSOURCE_HSE | UTILS_PLLInitStruct->Prediv), UTILS_PLLInit
 451:Drivers/STM32F1xx_HAL_Driver/Src/stm32f1xx_ll_utils.c **** 
 452:Drivers/STM32F1xx_HAL_Driver/Src/stm32f1xx_ll_utils.c ****     /* Enable PLL and switch system clock to PLL */
 453:Drivers/STM32F1xx_HAL_Driver/Src/stm32f1xx_ll_utils.c ****     status = UTILS_EnablePLLAndSwitchSystem(pllfrequency, UTILS_ClkInitStruct);
 454:Drivers/STM32F1xx_HAL_Driver/Src/stm32f1xx_ll_utils.c ****   }
 455:Drivers/STM32F1xx_HAL_Driver/Src/stm32f1xx_ll_utils.c **** 
 456:Drivers/STM32F1xx_HAL_Driver/Src/stm32f1xx_ll_utils.c ****   return status;
 457:Drivers/STM32F1xx_HAL_Driver/Src/stm32f1xx_ll_utils.c **** }
 458:Drivers/STM32F1xx_HAL_Driver/Src/stm32f1xx_ll_utils.c **** 
 459:Drivers/STM32F1xx_HAL_Driver/Src/stm32f1xx_ll_utils.c **** #if defined(RCC_PLL2_SUPPORT)
 460:Drivers/STM32F1xx_HAL_Driver/Src/stm32f1xx_ll_utils.c **** /**
 461:Drivers/STM32F1xx_HAL_Driver/Src/stm32f1xx_ll_utils.c ****   * @brief  This function configures system clock with HSE as clock source of the PLL, via PLL2
 462:Drivers/STM32F1xx_HAL_Driver/Src/stm32f1xx_ll_utils.c ****   * @note   The application need to ensure that PLL and PLL2 are disabled.
 463:Drivers/STM32F1xx_HAL_Driver/Src/stm32f1xx_ll_utils.c ****   * @note   Function is based on the following formula:
 464:Drivers/STM32F1xx_HAL_Driver/Src/stm32f1xx_ll_utils.c ****   *         - PLL output frequency = ((((HSE frequency / PREDIV2) * PLL2MUL) / PREDIV) * PLLMUL)
 465:Drivers/STM32F1xx_HAL_Driver/Src/stm32f1xx_ll_utils.c ****   *         - PREDIV, PLLMUL, PREDIV2, PLL2MUL: The application software must set correctly the
 466:Drivers/STM32F1xx_HAL_Driver/Src/stm32f1xx_ll_utils.c ****   *                   PLL multiplication factor to not exceed @ref UTILS_PLL_OUTPUT_MAX
 467:Drivers/STM32F1xx_HAL_Driver/Src/stm32f1xx_ll_utils.c ****   * @note   FLASH latency can be modified through this function.
 468:Drivers/STM32F1xx_HAL_Driver/Src/stm32f1xx_ll_utils.c ****   * @param  HSEFrequency Value between Min_Data = RCC_HSE_MIN and Max_Data = RCC_HSE_MAX
 469:Drivers/STM32F1xx_HAL_Driver/Src/stm32f1xx_ll_utils.c ****   * @param  HSEBypass This parameter can be one of the following values:
 470:Drivers/STM32F1xx_HAL_Driver/Src/stm32f1xx_ll_utils.c ****   *         @arg @ref LL_UTILS_HSEBYPASS_ON
 471:Drivers/STM32F1xx_HAL_Driver/Src/stm32f1xx_ll_utils.c ****   *         @arg @ref LL_UTILS_HSEBYPASS_OFF
 472:Drivers/STM32F1xx_HAL_Driver/Src/stm32f1xx_ll_utils.c ****   * @param  UTILS_PLLInitStruct  pointer to a @ref LL_UTILS_PLLInitTypeDef structure that contains
 473:Drivers/STM32F1xx_HAL_Driver/Src/stm32f1xx_ll_utils.c ****   *                              the configuration information for the PLL.
 474:Drivers/STM32F1xx_HAL_Driver/Src/stm32f1xx_ll_utils.c ****   * @param  UTILS_PLL2InitStruct pointer to a @ref LL_UTILS_PLLInitTypeDef structure that contains
 475:Drivers/STM32F1xx_HAL_Driver/Src/stm32f1xx_ll_utils.c ****   *                              the configuration information for the PLL2.
 476:Drivers/STM32F1xx_HAL_Driver/Src/stm32f1xx_ll_utils.c ****   * @param  UTILS_ClkInitStruct  pointer to a @ref LL_UTILS_ClkInitTypeDef structure that contains
 477:Drivers/STM32F1xx_HAL_Driver/Src/stm32f1xx_ll_utils.c ****   *                              the configuration information for the BUS prescalers.
 478:Drivers/STM32F1xx_HAL_Driver/Src/stm32f1xx_ll_utils.c ****   * @retval An ErrorStatus enumeration value:
 479:Drivers/STM32F1xx_HAL_Driver/Src/stm32f1xx_ll_utils.c ****   *          - SUCCESS: Max frequency configuration done
 480:Drivers/STM32F1xx_HAL_Driver/Src/stm32f1xx_ll_utils.c ****   *          - ERROR: Max frequency configuration not done
 481:Drivers/STM32F1xx_HAL_Driver/Src/stm32f1xx_ll_utils.c ****   */
 482:Drivers/STM32F1xx_HAL_Driver/Src/stm32f1xx_ll_utils.c **** ErrorStatus LL_PLL_ConfigSystemClock_PLL2(uint32_t HSEFrequency, uint32_t HSEBypass,
 483:Drivers/STM32F1xx_HAL_Driver/Src/stm32f1xx_ll_utils.c ****                                           LL_UTILS_PLLInitTypeDef *UTILS_PLLInitStruct,
 484:Drivers/STM32F1xx_HAL_Driver/Src/stm32f1xx_ll_utils.c ****                                           LL_UTILS_PLLInitTypeDef *UTILS_PLL2InitStruct,
 485:Drivers/STM32F1xx_HAL_Driver/Src/stm32f1xx_ll_utils.c ****                                           LL_UTILS_ClkInitTypeDef *UTILS_ClkInitStruct)
 486:Drivers/STM32F1xx_HAL_Driver/Src/stm32f1xx_ll_utils.c **** {
 487:Drivers/STM32F1xx_HAL_Driver/Src/stm32f1xx_ll_utils.c ****   ErrorStatus status = SUCCESS;
 488:Drivers/STM32F1xx_HAL_Driver/Src/stm32f1xx_ll_utils.c ****   uint32_t pllfrequency = 0U;
ARM GAS  /tmp/ccLXhlQB.s 			page 10


 489:Drivers/STM32F1xx_HAL_Driver/Src/stm32f1xx_ll_utils.c **** 
 490:Drivers/STM32F1xx_HAL_Driver/Src/stm32f1xx_ll_utils.c ****   /* Check the parameters */
 491:Drivers/STM32F1xx_HAL_Driver/Src/stm32f1xx_ll_utils.c ****   assert_param(IS_LL_UTILS_HSE_FREQUENCY(HSEFrequency));
 492:Drivers/STM32F1xx_HAL_Driver/Src/stm32f1xx_ll_utils.c ****   assert_param(IS_LL_UTILS_HSE_BYPASS(HSEBypass));
 493:Drivers/STM32F1xx_HAL_Driver/Src/stm32f1xx_ll_utils.c ****   assert_param(IS_LL_UTILS_PREDIV_VALUE(UTILS_PLLInitStruct->Prediv));
 494:Drivers/STM32F1xx_HAL_Driver/Src/stm32f1xx_ll_utils.c ****   assert_param(IS_LL_UTILS_PREDIV2_VALUE(UTILS_PLL2InitStruct->Prediv));
 495:Drivers/STM32F1xx_HAL_Driver/Src/stm32f1xx_ll_utils.c **** 
 496:Drivers/STM32F1xx_HAL_Driver/Src/stm32f1xx_ll_utils.c ****   /* Calculate the new PLL output frequency */
 497:Drivers/STM32F1xx_HAL_Driver/Src/stm32f1xx_ll_utils.c ****   pllfrequency = UTILS_GetPLLOutputFrequency(HSEFrequency, UTILS_PLLInitStruct);
 498:Drivers/STM32F1xx_HAL_Driver/Src/stm32f1xx_ll_utils.c **** 
 499:Drivers/STM32F1xx_HAL_Driver/Src/stm32f1xx_ll_utils.c ****   /* Enable HSE if not enabled */
 500:Drivers/STM32F1xx_HAL_Driver/Src/stm32f1xx_ll_utils.c ****   status = UTILS_PLL_HSE_ConfigSystemClock(HSEFrequency, HSEBypass, UTILS_PLLInitStruct, UTILS_ClkI
 501:Drivers/STM32F1xx_HAL_Driver/Src/stm32f1xx_ll_utils.c **** 
 502:Drivers/STM32F1xx_HAL_Driver/Src/stm32f1xx_ll_utils.c ****   /* Check if HSE is not enabled*/
 503:Drivers/STM32F1xx_HAL_Driver/Src/stm32f1xx_ll_utils.c ****   if (status == SUCCESS)
 504:Drivers/STM32F1xx_HAL_Driver/Src/stm32f1xx_ll_utils.c ****   {
 505:Drivers/STM32F1xx_HAL_Driver/Src/stm32f1xx_ll_utils.c ****     /* Configure PLL */
 506:Drivers/STM32F1xx_HAL_Driver/Src/stm32f1xx_ll_utils.c ****     LL_RCC_PLL_ConfigDomain_PLL2(UTILS_PLL2InitStruct->Prediv, UTILS_PLL2InitStruct->PLLMul);
 507:Drivers/STM32F1xx_HAL_Driver/Src/stm32f1xx_ll_utils.c ****     LL_RCC_PLL_ConfigDomain_SYS((LL_RCC_PLLSOURCE_PLL2 | UTILS_PLLInitStruct->Prediv), UTILS_PLLIni
 508:Drivers/STM32F1xx_HAL_Driver/Src/stm32f1xx_ll_utils.c **** 
 509:Drivers/STM32F1xx_HAL_Driver/Src/stm32f1xx_ll_utils.c ****     /* Calculate the new PLL output frequency */
 510:Drivers/STM32F1xx_HAL_Driver/Src/stm32f1xx_ll_utils.c ****     pllfrequency  = UTILS_GetPLL2OutputFrequency(pllfrequency, UTILS_PLL2InitStruct);
 511:Drivers/STM32F1xx_HAL_Driver/Src/stm32f1xx_ll_utils.c **** 
 512:Drivers/STM32F1xx_HAL_Driver/Src/stm32f1xx_ll_utils.c ****     /* Enable PLL and switch system clock to PLL */
 513:Drivers/STM32F1xx_HAL_Driver/Src/stm32f1xx_ll_utils.c ****     status = UTILS_EnablePLLAndSwitchSystem(pllfrequency, UTILS_ClkInitStruct);
 514:Drivers/STM32F1xx_HAL_Driver/Src/stm32f1xx_ll_utils.c ****   }
 515:Drivers/STM32F1xx_HAL_Driver/Src/stm32f1xx_ll_utils.c **** 
 516:Drivers/STM32F1xx_HAL_Driver/Src/stm32f1xx_ll_utils.c ****   return status;
 517:Drivers/STM32F1xx_HAL_Driver/Src/stm32f1xx_ll_utils.c **** }
 518:Drivers/STM32F1xx_HAL_Driver/Src/stm32f1xx_ll_utils.c **** #endif /* RCC_PLL2_SUPPORT */
 519:Drivers/STM32F1xx_HAL_Driver/Src/stm32f1xx_ll_utils.c **** 
 520:Drivers/STM32F1xx_HAL_Driver/Src/stm32f1xx_ll_utils.c **** /**
 521:Drivers/STM32F1xx_HAL_Driver/Src/stm32f1xx_ll_utils.c ****   * @}
 522:Drivers/STM32F1xx_HAL_Driver/Src/stm32f1xx_ll_utils.c ****   */
 523:Drivers/STM32F1xx_HAL_Driver/Src/stm32f1xx_ll_utils.c **** 
 524:Drivers/STM32F1xx_HAL_Driver/Src/stm32f1xx_ll_utils.c **** /**
 525:Drivers/STM32F1xx_HAL_Driver/Src/stm32f1xx_ll_utils.c ****   * @}
 526:Drivers/STM32F1xx_HAL_Driver/Src/stm32f1xx_ll_utils.c ****   */
 527:Drivers/STM32F1xx_HAL_Driver/Src/stm32f1xx_ll_utils.c **** 
 528:Drivers/STM32F1xx_HAL_Driver/Src/stm32f1xx_ll_utils.c **** /** @addtogroup UTILS_LL_Private_Functions
 529:Drivers/STM32F1xx_HAL_Driver/Src/stm32f1xx_ll_utils.c ****   * @{
 530:Drivers/STM32F1xx_HAL_Driver/Src/stm32f1xx_ll_utils.c ****   */
 531:Drivers/STM32F1xx_HAL_Driver/Src/stm32f1xx_ll_utils.c **** /**
 532:Drivers/STM32F1xx_HAL_Driver/Src/stm32f1xx_ll_utils.c ****   * @brief  Function to check that PLL can be modified
 533:Drivers/STM32F1xx_HAL_Driver/Src/stm32f1xx_ll_utils.c ****   * @param  PLL_InputFrequency  PLL input frequency (in Hz)
 534:Drivers/STM32F1xx_HAL_Driver/Src/stm32f1xx_ll_utils.c ****   * @param  UTILS_PLLInitStruct pointer to a @ref LL_UTILS_PLLInitTypeDef structure that contains
 535:Drivers/STM32F1xx_HAL_Driver/Src/stm32f1xx_ll_utils.c ****   *                             the configuration information for the PLL.
 536:Drivers/STM32F1xx_HAL_Driver/Src/stm32f1xx_ll_utils.c ****   * @retval PLL output frequency (in Hz)
 537:Drivers/STM32F1xx_HAL_Driver/Src/stm32f1xx_ll_utils.c ****   */
 538:Drivers/STM32F1xx_HAL_Driver/Src/stm32f1xx_ll_utils.c **** static uint32_t UTILS_GetPLLOutputFrequency(uint32_t PLL_InputFrequency, LL_UTILS_PLLInitTypeDef *U
 539:Drivers/STM32F1xx_HAL_Driver/Src/stm32f1xx_ll_utils.c **** {
  27              		.loc 1 539 1 view -0
  28              		.cfi_startproc
  29              		@ args = 0, pretend = 0, frame = 0
  30              		@ frame_needed = 0, uses_anonymous_args = 0
  31              		@ link register save eliminated.
 540:Drivers/STM32F1xx_HAL_Driver/Src/stm32f1xx_ll_utils.c ****   uint32_t pllfreq = 0U;
ARM GAS  /tmp/ccLXhlQB.s 			page 11


  32              		.loc 1 540 3 view .LVU1
 541:Drivers/STM32F1xx_HAL_Driver/Src/stm32f1xx_ll_utils.c **** 
 542:Drivers/STM32F1xx_HAL_Driver/Src/stm32f1xx_ll_utils.c ****   /* Check the parameters */
 543:Drivers/STM32F1xx_HAL_Driver/Src/stm32f1xx_ll_utils.c ****   assert_param(IS_LL_UTILS_PLLMUL_VALUE(UTILS_PLLInitStruct->PLLMul));
  33              		.loc 1 543 3 view .LVU2
 544:Drivers/STM32F1xx_HAL_Driver/Src/stm32f1xx_ll_utils.c **** 
 545:Drivers/STM32F1xx_HAL_Driver/Src/stm32f1xx_ll_utils.c ****   /* Check different PLL parameters according to RM                          */
 546:Drivers/STM32F1xx_HAL_Driver/Src/stm32f1xx_ll_utils.c **** #if defined (RCC_CFGR2_PREDIV1)
 547:Drivers/STM32F1xx_HAL_Driver/Src/stm32f1xx_ll_utils.c ****   pllfreq = __LL_RCC_CALC_PLLCLK_FREQ(PLL_InputFrequency / (UTILS_PLLInitStruct->Prediv + 1U), UTIL
  34              		.loc 1 547 3 view .LVU3
  35              		.loc 1 547 13 is_stmt 0 view .LVU4
  36 0000 0B68     		ldr	r3, [r1]
  37 0002 B3F5501F 		cmp	r3, #3407872
  38 0006 09D0     		beq	.L2
  39              		.loc 1 547 13 discriminator 1 view .LVU5
  40 0008 4A68     		ldr	r2, [r1, #4]
  41 000a 0132     		adds	r2, r2, #1
  42 000c B0FBF2F0 		udiv	r0, r0, r2
  43              	.LVL1:
  44              		.loc 1 547 13 discriminator 1 view .LVU6
  45 0010 C3F38343 		ubfx	r3, r3, #18, #4
  46 0014 0233     		adds	r3, r3, #2
  47 0016 03FB00F0 		mul	r0, r3, r0
  48 001a 7047     		bx	lr
  49              	.LVL2:
  50              	.L2:
  51              		.loc 1 547 13 discriminator 2 view .LVU7
  52 001c 4B68     		ldr	r3, [r1, #4]
  53 001e 0133     		adds	r3, r3, #1
  54 0020 B0FBF3F0 		udiv	r0, r0, r3
  55              	.LVL3:
  56              		.loc 1 547 13 discriminator 2 view .LVU8
  57 0024 00EB4003 		add	r3, r0, r0, lsl #1
  58 0028 00EB8300 		add	r0, r0, r3, lsl #2
  59 002c 4008     		lsrs	r0, r0, #1
  60              	.LVL4:
 548:Drivers/STM32F1xx_HAL_Driver/Src/stm32f1xx_ll_utils.c **** #else
 549:Drivers/STM32F1xx_HAL_Driver/Src/stm32f1xx_ll_utils.c ****   pllfreq = __LL_RCC_CALC_PLLCLK_FREQ(PLL_InputFrequency / ((UTILS_PLLInitStruct->Prediv >> RCC_CFG
 550:Drivers/STM32F1xx_HAL_Driver/Src/stm32f1xx_ll_utils.c **** #endif /*RCC_CFGR2_PREDIV1SRC*/
 551:Drivers/STM32F1xx_HAL_Driver/Src/stm32f1xx_ll_utils.c ****   assert_param(IS_LL_UTILS_PLL_FREQUENCY(pllfreq));
  61              		.loc 1 551 3 is_stmt 1 discriminator 2 view .LVU9
 552:Drivers/STM32F1xx_HAL_Driver/Src/stm32f1xx_ll_utils.c **** 
 553:Drivers/STM32F1xx_HAL_Driver/Src/stm32f1xx_ll_utils.c ****   return pllfreq;
  62              		.loc 1 553 3 discriminator 2 view .LVU10
 554:Drivers/STM32F1xx_HAL_Driver/Src/stm32f1xx_ll_utils.c **** }
  63              		.loc 1 554 1 is_stmt 0 discriminator 2 view .LVU11
  64 002e 7047     		bx	lr
  65              		.cfi_endproc
  66              	.LFE204:
  68              		.section	.text.UTILS_GetPLL2OutputFrequency,"ax",%progbits
  69              		.align	1
  70              		.syntax unified
  71              		.thumb
  72              		.thumb_func
  74              	UTILS_GetPLL2OutputFrequency:
  75              	.LVL5:
  76              	.LFB206:
ARM GAS  /tmp/ccLXhlQB.s 			page 12


 555:Drivers/STM32F1xx_HAL_Driver/Src/stm32f1xx_ll_utils.c **** 
 556:Drivers/STM32F1xx_HAL_Driver/Src/stm32f1xx_ll_utils.c **** /**
 557:Drivers/STM32F1xx_HAL_Driver/Src/stm32f1xx_ll_utils.c ****   * @brief  This function enable the HSE when it is used by PLL or PLL2
 558:Drivers/STM32F1xx_HAL_Driver/Src/stm32f1xx_ll_utils.c ****   * @note   The application need to ensure that PLL is disabled.
 559:Drivers/STM32F1xx_HAL_Driver/Src/stm32f1xx_ll_utils.c ****   * @param  HSEFrequency Value between Min_Data = RCC_HSE_MIN and Max_Data = RCC_HSE_MAX
 560:Drivers/STM32F1xx_HAL_Driver/Src/stm32f1xx_ll_utils.c ****   * @param  HSEBypass This parameter can be one of the following values:
 561:Drivers/STM32F1xx_HAL_Driver/Src/stm32f1xx_ll_utils.c ****   *         @arg @ref LL_UTILS_HSEBYPASS_ON
 562:Drivers/STM32F1xx_HAL_Driver/Src/stm32f1xx_ll_utils.c ****   *         @arg @ref LL_UTILS_HSEBYPASS_OFF
 563:Drivers/STM32F1xx_HAL_Driver/Src/stm32f1xx_ll_utils.c ****   * @param  UTILS_PLLInitStruct pointer to a @ref LL_UTILS_PLLInitTypeDef structure that contains
 564:Drivers/STM32F1xx_HAL_Driver/Src/stm32f1xx_ll_utils.c ****   *                             the configuration information for the PLL.
 565:Drivers/STM32F1xx_HAL_Driver/Src/stm32f1xx_ll_utils.c ****   * @param  UTILS_ClkInitStruct pointer to a @ref LL_UTILS_ClkInitTypeDef structure that contains
 566:Drivers/STM32F1xx_HAL_Driver/Src/stm32f1xx_ll_utils.c ****   *                             the configuration information for the BUS prescalers.
 567:Drivers/STM32F1xx_HAL_Driver/Src/stm32f1xx_ll_utils.c ****   * @retval An ErrorStatus enumeration value:
 568:Drivers/STM32F1xx_HAL_Driver/Src/stm32f1xx_ll_utils.c ****   *          - SUCCESS: HSE configuration done
 569:Drivers/STM32F1xx_HAL_Driver/Src/stm32f1xx_ll_utils.c ****   *          - ERROR: HSE configuration not done
 570:Drivers/STM32F1xx_HAL_Driver/Src/stm32f1xx_ll_utils.c ****   */
 571:Drivers/STM32F1xx_HAL_Driver/Src/stm32f1xx_ll_utils.c **** static ErrorStatus UTILS_PLL_HSE_ConfigSystemClock(uint32_t PLL_InputFrequency, uint32_t HSEBypass,
 572:Drivers/STM32F1xx_HAL_Driver/Src/stm32f1xx_ll_utils.c ****                                                    LL_UTILS_PLLInitTypeDef *UTILS_PLLInitStruct,
 573:Drivers/STM32F1xx_HAL_Driver/Src/stm32f1xx_ll_utils.c ****                                                    LL_UTILS_ClkInitTypeDef *UTILS_ClkInitStruct)
 574:Drivers/STM32F1xx_HAL_Driver/Src/stm32f1xx_ll_utils.c **** {
 575:Drivers/STM32F1xx_HAL_Driver/Src/stm32f1xx_ll_utils.c ****   ErrorStatus status = SUCCESS;
 576:Drivers/STM32F1xx_HAL_Driver/Src/stm32f1xx_ll_utils.c **** 
 577:Drivers/STM32F1xx_HAL_Driver/Src/stm32f1xx_ll_utils.c ****   /* Check if one of the PLL is enabled */
 578:Drivers/STM32F1xx_HAL_Driver/Src/stm32f1xx_ll_utils.c ****   if (UTILS_PLL_IsBusy() == SUCCESS)
 579:Drivers/STM32F1xx_HAL_Driver/Src/stm32f1xx_ll_utils.c ****   {
 580:Drivers/STM32F1xx_HAL_Driver/Src/stm32f1xx_ll_utils.c ****     /* Enable HSE if not enabled */
 581:Drivers/STM32F1xx_HAL_Driver/Src/stm32f1xx_ll_utils.c ****     if (LL_RCC_HSE_IsReady() != 1U)
 582:Drivers/STM32F1xx_HAL_Driver/Src/stm32f1xx_ll_utils.c ****     {
 583:Drivers/STM32F1xx_HAL_Driver/Src/stm32f1xx_ll_utils.c ****       /* Check if need to enable HSE bypass feature or not */
 584:Drivers/STM32F1xx_HAL_Driver/Src/stm32f1xx_ll_utils.c ****       if (HSEBypass == LL_UTILS_HSEBYPASS_ON)
 585:Drivers/STM32F1xx_HAL_Driver/Src/stm32f1xx_ll_utils.c ****       {
 586:Drivers/STM32F1xx_HAL_Driver/Src/stm32f1xx_ll_utils.c ****         LL_RCC_HSE_EnableBypass();
 587:Drivers/STM32F1xx_HAL_Driver/Src/stm32f1xx_ll_utils.c ****       }
 588:Drivers/STM32F1xx_HAL_Driver/Src/stm32f1xx_ll_utils.c ****       else
 589:Drivers/STM32F1xx_HAL_Driver/Src/stm32f1xx_ll_utils.c ****       {
 590:Drivers/STM32F1xx_HAL_Driver/Src/stm32f1xx_ll_utils.c ****         LL_RCC_HSE_DisableBypass();
 591:Drivers/STM32F1xx_HAL_Driver/Src/stm32f1xx_ll_utils.c ****       }
 592:Drivers/STM32F1xx_HAL_Driver/Src/stm32f1xx_ll_utils.c **** 
 593:Drivers/STM32F1xx_HAL_Driver/Src/stm32f1xx_ll_utils.c ****       /* Enable HSE */
 594:Drivers/STM32F1xx_HAL_Driver/Src/stm32f1xx_ll_utils.c ****       LL_RCC_HSE_Enable();
 595:Drivers/STM32F1xx_HAL_Driver/Src/stm32f1xx_ll_utils.c ****       while (LL_RCC_HSE_IsReady() != 1U)
 596:Drivers/STM32F1xx_HAL_Driver/Src/stm32f1xx_ll_utils.c ****       {
 597:Drivers/STM32F1xx_HAL_Driver/Src/stm32f1xx_ll_utils.c ****         /* Wait for HSE ready */
 598:Drivers/STM32F1xx_HAL_Driver/Src/stm32f1xx_ll_utils.c ****       }
 599:Drivers/STM32F1xx_HAL_Driver/Src/stm32f1xx_ll_utils.c ****     }
 600:Drivers/STM32F1xx_HAL_Driver/Src/stm32f1xx_ll_utils.c ****   }
 601:Drivers/STM32F1xx_HAL_Driver/Src/stm32f1xx_ll_utils.c ****   else
 602:Drivers/STM32F1xx_HAL_Driver/Src/stm32f1xx_ll_utils.c ****   {
 603:Drivers/STM32F1xx_HAL_Driver/Src/stm32f1xx_ll_utils.c ****     /* Current PLL configuration cannot be modified */
 604:Drivers/STM32F1xx_HAL_Driver/Src/stm32f1xx_ll_utils.c ****     status = ERROR;
 605:Drivers/STM32F1xx_HAL_Driver/Src/stm32f1xx_ll_utils.c ****   }
 606:Drivers/STM32F1xx_HAL_Driver/Src/stm32f1xx_ll_utils.c **** 
 607:Drivers/STM32F1xx_HAL_Driver/Src/stm32f1xx_ll_utils.c ****   return status;
 608:Drivers/STM32F1xx_HAL_Driver/Src/stm32f1xx_ll_utils.c **** }
 609:Drivers/STM32F1xx_HAL_Driver/Src/stm32f1xx_ll_utils.c **** 
 610:Drivers/STM32F1xx_HAL_Driver/Src/stm32f1xx_ll_utils.c **** #if defined(RCC_PLL2_SUPPORT)
 611:Drivers/STM32F1xx_HAL_Driver/Src/stm32f1xx_ll_utils.c **** /**
ARM GAS  /tmp/ccLXhlQB.s 			page 13


 612:Drivers/STM32F1xx_HAL_Driver/Src/stm32f1xx_ll_utils.c ****   * @brief  Function to check that PLL2 can be modified
 613:Drivers/STM32F1xx_HAL_Driver/Src/stm32f1xx_ll_utils.c ****   * @param  PLL2_InputFrequency  PLL2 input frequency (in Hz)
 614:Drivers/STM32F1xx_HAL_Driver/Src/stm32f1xx_ll_utils.c ****   * @param  UTILS_PLL2InitStruct pointer to a @ref LL_UTILS_PLLInitTypeDef structure that contains
 615:Drivers/STM32F1xx_HAL_Driver/Src/stm32f1xx_ll_utils.c ****   *                              the configuration information for the PLL.
 616:Drivers/STM32F1xx_HAL_Driver/Src/stm32f1xx_ll_utils.c ****   * @retval PLL2 output frequency (in Hz)
 617:Drivers/STM32F1xx_HAL_Driver/Src/stm32f1xx_ll_utils.c ****   */
 618:Drivers/STM32F1xx_HAL_Driver/Src/stm32f1xx_ll_utils.c **** static uint32_t UTILS_GetPLL2OutputFrequency(uint32_t PLL2_InputFrequency, LL_UTILS_PLLInitTypeDef 
 619:Drivers/STM32F1xx_HAL_Driver/Src/stm32f1xx_ll_utils.c **** {
  77              		.loc 1 619 1 is_stmt 1 view -0
  78              		.cfi_startproc
  79              		@ args = 0, pretend = 0, frame = 0
  80              		@ frame_needed = 0, uses_anonymous_args = 0
  81              		@ link register save eliminated.
 620:Drivers/STM32F1xx_HAL_Driver/Src/stm32f1xx_ll_utils.c ****   uint32_t pll2freq = 0U;
  82              		.loc 1 620 3 view .LVU13
 621:Drivers/STM32F1xx_HAL_Driver/Src/stm32f1xx_ll_utils.c **** 
 622:Drivers/STM32F1xx_HAL_Driver/Src/stm32f1xx_ll_utils.c ****   /* Check the parameters */
 623:Drivers/STM32F1xx_HAL_Driver/Src/stm32f1xx_ll_utils.c ****   assert_param(IS_LL_UTILS_PLL2MUL_VALUE(UTILS_PLL2InitStruct->PLLMul));
  83              		.loc 1 623 3 view .LVU14
 624:Drivers/STM32F1xx_HAL_Driver/Src/stm32f1xx_ll_utils.c ****   assert_param(IS_LL_UTILS_PREDIV2_VALUE(UTILS_PLL2InitStruct->Prediv));
  84              		.loc 1 624 3 view .LVU15
 625:Drivers/STM32F1xx_HAL_Driver/Src/stm32f1xx_ll_utils.c **** 
 626:Drivers/STM32F1xx_HAL_Driver/Src/stm32f1xx_ll_utils.c ****   /* Check different PLL2 parameters according to RM */
 627:Drivers/STM32F1xx_HAL_Driver/Src/stm32f1xx_ll_utils.c ****   pll2freq = __LL_RCC_CALC_PLL2CLK_FREQ(PLL2_InputFrequency, UTILS_PLL2InitStruct->PLLMul, UTILS_PL
  85              		.loc 1 627 3 view .LVU16
  86              		.loc 1 627 14 is_stmt 0 view .LVU17
  87 0000 0B68     		ldr	r3, [r1]
  88 0002 1B0A     		lsrs	r3, r3, #8
  89 0004 0233     		adds	r3, r3, #2
  90 0006 00FB03F3 		mul	r3, r0, r3
  91 000a 4868     		ldr	r0, [r1, #4]
  92              	.LVL6:
  93              		.loc 1 627 14 view .LVU18
  94 000c 0009     		lsrs	r0, r0, #4
  95 000e 0130     		adds	r0, r0, #1
  96              	.LVL7:
 628:Drivers/STM32F1xx_HAL_Driver/Src/stm32f1xx_ll_utils.c ****   assert_param(IS_LL_UTILS_PLL2_FREQUENCY(pll2freq));
  97              		.loc 1 628 3 is_stmt 1 view .LVU19
 629:Drivers/STM32F1xx_HAL_Driver/Src/stm32f1xx_ll_utils.c **** 
 630:Drivers/STM32F1xx_HAL_Driver/Src/stm32f1xx_ll_utils.c ****   return pll2freq;
  98              		.loc 1 630 3 view .LVU20
 631:Drivers/STM32F1xx_HAL_Driver/Src/stm32f1xx_ll_utils.c **** }
  99              		.loc 1 631 1 is_stmt 0 view .LVU21
 100 0010 B3FBF0F0 		udiv	r0, r3, r0
 101              	.LVL8:
 102              		.loc 1 631 1 view .LVU22
 103 0014 7047     		bx	lr
 104              		.cfi_endproc
 105              	.LFE206:
 107              		.section	.text.UTILS_PLL_IsBusy,"ax",%progbits
 108              		.align	1
 109              		.syntax unified
 110              		.thumb
 111              		.thumb_func
 113              	UTILS_PLL_IsBusy:
 114              	.LFB207:
 632:Drivers/STM32F1xx_HAL_Driver/Src/stm32f1xx_ll_utils.c **** #endif /* RCC_PLL2_SUPPORT */
ARM GAS  /tmp/ccLXhlQB.s 			page 14


 633:Drivers/STM32F1xx_HAL_Driver/Src/stm32f1xx_ll_utils.c **** 
 634:Drivers/STM32F1xx_HAL_Driver/Src/stm32f1xx_ll_utils.c **** /**
 635:Drivers/STM32F1xx_HAL_Driver/Src/stm32f1xx_ll_utils.c ****   * @brief  Function to check that PLL can be modified
 636:Drivers/STM32F1xx_HAL_Driver/Src/stm32f1xx_ll_utils.c ****   * @retval An ErrorStatus enumeration value:
 637:Drivers/STM32F1xx_HAL_Driver/Src/stm32f1xx_ll_utils.c ****   *          - SUCCESS: PLL modification can be done
 638:Drivers/STM32F1xx_HAL_Driver/Src/stm32f1xx_ll_utils.c ****   *          - ERROR: PLL is busy
 639:Drivers/STM32F1xx_HAL_Driver/Src/stm32f1xx_ll_utils.c ****   */
 640:Drivers/STM32F1xx_HAL_Driver/Src/stm32f1xx_ll_utils.c **** static ErrorStatus UTILS_PLL_IsBusy(void)
 641:Drivers/STM32F1xx_HAL_Driver/Src/stm32f1xx_ll_utils.c **** {
 115              		.loc 1 641 1 is_stmt 1 view -0
 116              		.cfi_startproc
 117              		@ args = 0, pretend = 0, frame = 0
 118              		@ frame_needed = 0, uses_anonymous_args = 0
 119              		@ link register save eliminated.
 642:Drivers/STM32F1xx_HAL_Driver/Src/stm32f1xx_ll_utils.c ****   ErrorStatus status = SUCCESS;
 120              		.loc 1 642 3 view .LVU24
 121              	.LVL9:
 643:Drivers/STM32F1xx_HAL_Driver/Src/stm32f1xx_ll_utils.c **** 
 644:Drivers/STM32F1xx_HAL_Driver/Src/stm32f1xx_ll_utils.c ****   /* Check if PLL is busy*/
 645:Drivers/STM32F1xx_HAL_Driver/Src/stm32f1xx_ll_utils.c ****   if (LL_RCC_PLL_IsReady() != 0U)
 122              		.loc 1 645 3 view .LVU25
 123              	.LBB56:
 124              	.LBI56:
 125              		.file 2 "Drivers/STM32F1xx_HAL_Driver/Inc/stm32f1xx_ll_rcc.h"
   1:Drivers/STM32F1xx_HAL_Driver/Inc/stm32f1xx_ll_rcc.h **** /**
   2:Drivers/STM32F1xx_HAL_Driver/Inc/stm32f1xx_ll_rcc.h ****   ******************************************************************************
   3:Drivers/STM32F1xx_HAL_Driver/Inc/stm32f1xx_ll_rcc.h ****   * @file    stm32f1xx_ll_rcc.h
   4:Drivers/STM32F1xx_HAL_Driver/Inc/stm32f1xx_ll_rcc.h ****   * @author  MCD Application Team
   5:Drivers/STM32F1xx_HAL_Driver/Inc/stm32f1xx_ll_rcc.h ****   * @brief   Header file of RCC LL module.
   6:Drivers/STM32F1xx_HAL_Driver/Inc/stm32f1xx_ll_rcc.h ****   ******************************************************************************
   7:Drivers/STM32F1xx_HAL_Driver/Inc/stm32f1xx_ll_rcc.h ****   * @attention
   8:Drivers/STM32F1xx_HAL_Driver/Inc/stm32f1xx_ll_rcc.h ****   *
   9:Drivers/STM32F1xx_HAL_Driver/Inc/stm32f1xx_ll_rcc.h ****   * Copyright (c) 2016 STMicroelectronics.
  10:Drivers/STM32F1xx_HAL_Driver/Inc/stm32f1xx_ll_rcc.h ****   * All rights reserved.
  11:Drivers/STM32F1xx_HAL_Driver/Inc/stm32f1xx_ll_rcc.h ****   *
  12:Drivers/STM32F1xx_HAL_Driver/Inc/stm32f1xx_ll_rcc.h ****   * This software is licensed under terms that can be found in the LICENSE file in
  13:Drivers/STM32F1xx_HAL_Driver/Inc/stm32f1xx_ll_rcc.h ****   * the root directory of this software component.
  14:Drivers/STM32F1xx_HAL_Driver/Inc/stm32f1xx_ll_rcc.h ****   * If no LICENSE file comes with this software, it is provided AS-IS.
  15:Drivers/STM32F1xx_HAL_Driver/Inc/stm32f1xx_ll_rcc.h ****   ******************************************************************************
  16:Drivers/STM32F1xx_HAL_Driver/Inc/stm32f1xx_ll_rcc.h ****   */
  17:Drivers/STM32F1xx_HAL_Driver/Inc/stm32f1xx_ll_rcc.h **** 
  18:Drivers/STM32F1xx_HAL_Driver/Inc/stm32f1xx_ll_rcc.h **** /* Define to prevent recursive inclusion -------------------------------------*/
  19:Drivers/STM32F1xx_HAL_Driver/Inc/stm32f1xx_ll_rcc.h **** #ifndef __STM32F1xx_LL_RCC_H
  20:Drivers/STM32F1xx_HAL_Driver/Inc/stm32f1xx_ll_rcc.h **** #define __STM32F1xx_LL_RCC_H
  21:Drivers/STM32F1xx_HAL_Driver/Inc/stm32f1xx_ll_rcc.h **** 
  22:Drivers/STM32F1xx_HAL_Driver/Inc/stm32f1xx_ll_rcc.h **** #ifdef __cplusplus
  23:Drivers/STM32F1xx_HAL_Driver/Inc/stm32f1xx_ll_rcc.h **** extern "C" {
  24:Drivers/STM32F1xx_HAL_Driver/Inc/stm32f1xx_ll_rcc.h **** #endif
  25:Drivers/STM32F1xx_HAL_Driver/Inc/stm32f1xx_ll_rcc.h **** 
  26:Drivers/STM32F1xx_HAL_Driver/Inc/stm32f1xx_ll_rcc.h **** /* Includes ------------------------------------------------------------------*/
  27:Drivers/STM32F1xx_HAL_Driver/Inc/stm32f1xx_ll_rcc.h **** #include "stm32f1xx.h"
  28:Drivers/STM32F1xx_HAL_Driver/Inc/stm32f1xx_ll_rcc.h **** 
  29:Drivers/STM32F1xx_HAL_Driver/Inc/stm32f1xx_ll_rcc.h **** /** @addtogroup STM32F1xx_LL_Driver
  30:Drivers/STM32F1xx_HAL_Driver/Inc/stm32f1xx_ll_rcc.h ****   * @{
  31:Drivers/STM32F1xx_HAL_Driver/Inc/stm32f1xx_ll_rcc.h ****   */
  32:Drivers/STM32F1xx_HAL_Driver/Inc/stm32f1xx_ll_rcc.h **** 
  33:Drivers/STM32F1xx_HAL_Driver/Inc/stm32f1xx_ll_rcc.h **** #if defined(RCC)
ARM GAS  /tmp/ccLXhlQB.s 			page 15


  34:Drivers/STM32F1xx_HAL_Driver/Inc/stm32f1xx_ll_rcc.h **** 
  35:Drivers/STM32F1xx_HAL_Driver/Inc/stm32f1xx_ll_rcc.h **** /** @defgroup RCC_LL RCC
  36:Drivers/STM32F1xx_HAL_Driver/Inc/stm32f1xx_ll_rcc.h ****   * @{
  37:Drivers/STM32F1xx_HAL_Driver/Inc/stm32f1xx_ll_rcc.h ****   */
  38:Drivers/STM32F1xx_HAL_Driver/Inc/stm32f1xx_ll_rcc.h **** 
  39:Drivers/STM32F1xx_HAL_Driver/Inc/stm32f1xx_ll_rcc.h **** /* Private types -------------------------------------------------------------*/
  40:Drivers/STM32F1xx_HAL_Driver/Inc/stm32f1xx_ll_rcc.h **** /* Private variables ---------------------------------------------------------*/
  41:Drivers/STM32F1xx_HAL_Driver/Inc/stm32f1xx_ll_rcc.h **** /* Private constants ---------------------------------------------------------*/
  42:Drivers/STM32F1xx_HAL_Driver/Inc/stm32f1xx_ll_rcc.h **** /* Private macros ------------------------------------------------------------*/
  43:Drivers/STM32F1xx_HAL_Driver/Inc/stm32f1xx_ll_rcc.h **** #if defined(USE_FULL_LL_DRIVER)
  44:Drivers/STM32F1xx_HAL_Driver/Inc/stm32f1xx_ll_rcc.h **** /** @defgroup RCC_LL_Private_Macros RCC Private Macros
  45:Drivers/STM32F1xx_HAL_Driver/Inc/stm32f1xx_ll_rcc.h ****   * @{
  46:Drivers/STM32F1xx_HAL_Driver/Inc/stm32f1xx_ll_rcc.h ****   */
  47:Drivers/STM32F1xx_HAL_Driver/Inc/stm32f1xx_ll_rcc.h **** /**
  48:Drivers/STM32F1xx_HAL_Driver/Inc/stm32f1xx_ll_rcc.h ****   * @}
  49:Drivers/STM32F1xx_HAL_Driver/Inc/stm32f1xx_ll_rcc.h ****   */
  50:Drivers/STM32F1xx_HAL_Driver/Inc/stm32f1xx_ll_rcc.h **** #endif /*USE_FULL_LL_DRIVER*/
  51:Drivers/STM32F1xx_HAL_Driver/Inc/stm32f1xx_ll_rcc.h **** /* Exported types ------------------------------------------------------------*/
  52:Drivers/STM32F1xx_HAL_Driver/Inc/stm32f1xx_ll_rcc.h **** #if defined(USE_FULL_LL_DRIVER)
  53:Drivers/STM32F1xx_HAL_Driver/Inc/stm32f1xx_ll_rcc.h **** /** @defgroup RCC_LL_Exported_Types RCC Exported Types
  54:Drivers/STM32F1xx_HAL_Driver/Inc/stm32f1xx_ll_rcc.h ****   * @{
  55:Drivers/STM32F1xx_HAL_Driver/Inc/stm32f1xx_ll_rcc.h ****   */
  56:Drivers/STM32F1xx_HAL_Driver/Inc/stm32f1xx_ll_rcc.h **** 
  57:Drivers/STM32F1xx_HAL_Driver/Inc/stm32f1xx_ll_rcc.h **** /** @defgroup LL_ES_CLOCK_FREQ Clocks Frequency Structure
  58:Drivers/STM32F1xx_HAL_Driver/Inc/stm32f1xx_ll_rcc.h ****   * @{
  59:Drivers/STM32F1xx_HAL_Driver/Inc/stm32f1xx_ll_rcc.h ****   */
  60:Drivers/STM32F1xx_HAL_Driver/Inc/stm32f1xx_ll_rcc.h **** 
  61:Drivers/STM32F1xx_HAL_Driver/Inc/stm32f1xx_ll_rcc.h **** /**
  62:Drivers/STM32F1xx_HAL_Driver/Inc/stm32f1xx_ll_rcc.h ****   * @brief  RCC Clocks Frequency Structure
  63:Drivers/STM32F1xx_HAL_Driver/Inc/stm32f1xx_ll_rcc.h ****   */
  64:Drivers/STM32F1xx_HAL_Driver/Inc/stm32f1xx_ll_rcc.h **** typedef struct
  65:Drivers/STM32F1xx_HAL_Driver/Inc/stm32f1xx_ll_rcc.h **** {
  66:Drivers/STM32F1xx_HAL_Driver/Inc/stm32f1xx_ll_rcc.h ****   uint32_t SYSCLK_Frequency;        /*!< SYSCLK clock frequency */
  67:Drivers/STM32F1xx_HAL_Driver/Inc/stm32f1xx_ll_rcc.h ****   uint32_t HCLK_Frequency;          /*!< HCLK clock frequency */
  68:Drivers/STM32F1xx_HAL_Driver/Inc/stm32f1xx_ll_rcc.h ****   uint32_t PCLK1_Frequency;         /*!< PCLK1 clock frequency */
  69:Drivers/STM32F1xx_HAL_Driver/Inc/stm32f1xx_ll_rcc.h ****   uint32_t PCLK2_Frequency;         /*!< PCLK2 clock frequency */
  70:Drivers/STM32F1xx_HAL_Driver/Inc/stm32f1xx_ll_rcc.h **** } LL_RCC_ClocksTypeDef;
  71:Drivers/STM32F1xx_HAL_Driver/Inc/stm32f1xx_ll_rcc.h **** 
  72:Drivers/STM32F1xx_HAL_Driver/Inc/stm32f1xx_ll_rcc.h **** /**
  73:Drivers/STM32F1xx_HAL_Driver/Inc/stm32f1xx_ll_rcc.h ****   * @}
  74:Drivers/STM32F1xx_HAL_Driver/Inc/stm32f1xx_ll_rcc.h ****   */
  75:Drivers/STM32F1xx_HAL_Driver/Inc/stm32f1xx_ll_rcc.h **** 
  76:Drivers/STM32F1xx_HAL_Driver/Inc/stm32f1xx_ll_rcc.h **** /**
  77:Drivers/STM32F1xx_HAL_Driver/Inc/stm32f1xx_ll_rcc.h ****   * @}
  78:Drivers/STM32F1xx_HAL_Driver/Inc/stm32f1xx_ll_rcc.h ****   */
  79:Drivers/STM32F1xx_HAL_Driver/Inc/stm32f1xx_ll_rcc.h **** #endif /* USE_FULL_LL_DRIVER */
  80:Drivers/STM32F1xx_HAL_Driver/Inc/stm32f1xx_ll_rcc.h **** 
  81:Drivers/STM32F1xx_HAL_Driver/Inc/stm32f1xx_ll_rcc.h **** /* Exported constants --------------------------------------------------------*/
  82:Drivers/STM32F1xx_HAL_Driver/Inc/stm32f1xx_ll_rcc.h **** /** @defgroup RCC_LL_Exported_Constants RCC Exported Constants
  83:Drivers/STM32F1xx_HAL_Driver/Inc/stm32f1xx_ll_rcc.h ****   * @{
  84:Drivers/STM32F1xx_HAL_Driver/Inc/stm32f1xx_ll_rcc.h ****   */
  85:Drivers/STM32F1xx_HAL_Driver/Inc/stm32f1xx_ll_rcc.h **** 
  86:Drivers/STM32F1xx_HAL_Driver/Inc/stm32f1xx_ll_rcc.h **** /** @defgroup RCC_LL_EC_OSC_VALUES Oscillator Values adaptation
  87:Drivers/STM32F1xx_HAL_Driver/Inc/stm32f1xx_ll_rcc.h ****   * @brief    Defines used to adapt values of different oscillators
  88:Drivers/STM32F1xx_HAL_Driver/Inc/stm32f1xx_ll_rcc.h ****   * @note     These values could be modified in the user environment according to
  89:Drivers/STM32F1xx_HAL_Driver/Inc/stm32f1xx_ll_rcc.h ****   *           HW set-up.
  90:Drivers/STM32F1xx_HAL_Driver/Inc/stm32f1xx_ll_rcc.h ****   * @{
ARM GAS  /tmp/ccLXhlQB.s 			page 16


  91:Drivers/STM32F1xx_HAL_Driver/Inc/stm32f1xx_ll_rcc.h ****   */
  92:Drivers/STM32F1xx_HAL_Driver/Inc/stm32f1xx_ll_rcc.h **** #if !defined  (HSE_VALUE)
  93:Drivers/STM32F1xx_HAL_Driver/Inc/stm32f1xx_ll_rcc.h **** #define HSE_VALUE    8000000U  /*!< Value of the HSE oscillator in Hz */
  94:Drivers/STM32F1xx_HAL_Driver/Inc/stm32f1xx_ll_rcc.h **** #endif /* HSE_VALUE */
  95:Drivers/STM32F1xx_HAL_Driver/Inc/stm32f1xx_ll_rcc.h **** 
  96:Drivers/STM32F1xx_HAL_Driver/Inc/stm32f1xx_ll_rcc.h **** #if !defined  (HSI_VALUE)
  97:Drivers/STM32F1xx_HAL_Driver/Inc/stm32f1xx_ll_rcc.h **** #define HSI_VALUE    8000000U  /*!< Value of the HSI oscillator in Hz */
  98:Drivers/STM32F1xx_HAL_Driver/Inc/stm32f1xx_ll_rcc.h **** #endif /* HSI_VALUE */
  99:Drivers/STM32F1xx_HAL_Driver/Inc/stm32f1xx_ll_rcc.h **** 
 100:Drivers/STM32F1xx_HAL_Driver/Inc/stm32f1xx_ll_rcc.h **** #if !defined  (LSE_VALUE)
 101:Drivers/STM32F1xx_HAL_Driver/Inc/stm32f1xx_ll_rcc.h **** #define LSE_VALUE    32768U    /*!< Value of the LSE oscillator in Hz */
 102:Drivers/STM32F1xx_HAL_Driver/Inc/stm32f1xx_ll_rcc.h **** #endif /* LSE_VALUE */
 103:Drivers/STM32F1xx_HAL_Driver/Inc/stm32f1xx_ll_rcc.h **** 
 104:Drivers/STM32F1xx_HAL_Driver/Inc/stm32f1xx_ll_rcc.h **** #if !defined  (LSI_VALUE)
 105:Drivers/STM32F1xx_HAL_Driver/Inc/stm32f1xx_ll_rcc.h **** #define LSI_VALUE    40000U    /*!< Value of the LSI oscillator in Hz */
 106:Drivers/STM32F1xx_HAL_Driver/Inc/stm32f1xx_ll_rcc.h **** #endif /* LSI_VALUE */
 107:Drivers/STM32F1xx_HAL_Driver/Inc/stm32f1xx_ll_rcc.h **** /**
 108:Drivers/STM32F1xx_HAL_Driver/Inc/stm32f1xx_ll_rcc.h ****   * @}
 109:Drivers/STM32F1xx_HAL_Driver/Inc/stm32f1xx_ll_rcc.h ****   */
 110:Drivers/STM32F1xx_HAL_Driver/Inc/stm32f1xx_ll_rcc.h **** 
 111:Drivers/STM32F1xx_HAL_Driver/Inc/stm32f1xx_ll_rcc.h **** /** @defgroup RCC_LL_EC_CLEAR_FLAG Clear Flags Defines
 112:Drivers/STM32F1xx_HAL_Driver/Inc/stm32f1xx_ll_rcc.h ****   * @brief    Flags defines which can be used with LL_RCC_WriteReg function
 113:Drivers/STM32F1xx_HAL_Driver/Inc/stm32f1xx_ll_rcc.h ****   * @{
 114:Drivers/STM32F1xx_HAL_Driver/Inc/stm32f1xx_ll_rcc.h ****   */
 115:Drivers/STM32F1xx_HAL_Driver/Inc/stm32f1xx_ll_rcc.h **** #define LL_RCC_CIR_LSIRDYC                RCC_CIR_LSIRDYC     /*!< LSI Ready Interrupt Clear */
 116:Drivers/STM32F1xx_HAL_Driver/Inc/stm32f1xx_ll_rcc.h **** #define LL_RCC_CIR_LSERDYC                RCC_CIR_LSERDYC     /*!< LSE Ready Interrupt Clear */
 117:Drivers/STM32F1xx_HAL_Driver/Inc/stm32f1xx_ll_rcc.h **** #define LL_RCC_CIR_HSIRDYC                RCC_CIR_HSIRDYC     /*!< HSI Ready Interrupt Clear */
 118:Drivers/STM32F1xx_HAL_Driver/Inc/stm32f1xx_ll_rcc.h **** #define LL_RCC_CIR_HSERDYC                RCC_CIR_HSERDYC     /*!< HSE Ready Interrupt Clear */
 119:Drivers/STM32F1xx_HAL_Driver/Inc/stm32f1xx_ll_rcc.h **** #define LL_RCC_CIR_PLLRDYC                RCC_CIR_PLLRDYC     /*!< PLL Ready Interrupt Clear */
 120:Drivers/STM32F1xx_HAL_Driver/Inc/stm32f1xx_ll_rcc.h **** #define LL_RCC_CIR_PLL3RDYC               RCC_CIR_PLL3RDYC    /*!< PLL3(PLLI2S) Ready Interrupt Cle
 121:Drivers/STM32F1xx_HAL_Driver/Inc/stm32f1xx_ll_rcc.h **** #define LL_RCC_CIR_PLL2RDYC               RCC_CIR_PLL2RDYC    /*!< PLL2 Ready Interrupt Clear */
 122:Drivers/STM32F1xx_HAL_Driver/Inc/stm32f1xx_ll_rcc.h **** #define LL_RCC_CIR_CSSC                   RCC_CIR_CSSC        /*!< Clock Security System Interrupt 
 123:Drivers/STM32F1xx_HAL_Driver/Inc/stm32f1xx_ll_rcc.h **** /**
 124:Drivers/STM32F1xx_HAL_Driver/Inc/stm32f1xx_ll_rcc.h ****   * @}
 125:Drivers/STM32F1xx_HAL_Driver/Inc/stm32f1xx_ll_rcc.h ****   */
 126:Drivers/STM32F1xx_HAL_Driver/Inc/stm32f1xx_ll_rcc.h **** 
 127:Drivers/STM32F1xx_HAL_Driver/Inc/stm32f1xx_ll_rcc.h **** /** @defgroup RCC_LL_EC_GET_FLAG Get Flags Defines
 128:Drivers/STM32F1xx_HAL_Driver/Inc/stm32f1xx_ll_rcc.h ****   * @brief    Flags defines which can be used with LL_RCC_ReadReg function
 129:Drivers/STM32F1xx_HAL_Driver/Inc/stm32f1xx_ll_rcc.h ****   * @{
 130:Drivers/STM32F1xx_HAL_Driver/Inc/stm32f1xx_ll_rcc.h ****   */
 131:Drivers/STM32F1xx_HAL_Driver/Inc/stm32f1xx_ll_rcc.h **** #define LL_RCC_CIR_LSIRDYF                RCC_CIR_LSIRDYF     /*!< LSI Ready Interrupt flag */
 132:Drivers/STM32F1xx_HAL_Driver/Inc/stm32f1xx_ll_rcc.h **** #define LL_RCC_CIR_LSERDYF                RCC_CIR_LSERDYF     /*!< LSE Ready Interrupt flag */
 133:Drivers/STM32F1xx_HAL_Driver/Inc/stm32f1xx_ll_rcc.h **** #define LL_RCC_CIR_HSIRDYF                RCC_CIR_HSIRDYF     /*!< HSI Ready Interrupt flag */
 134:Drivers/STM32F1xx_HAL_Driver/Inc/stm32f1xx_ll_rcc.h **** #define LL_RCC_CIR_HSERDYF                RCC_CIR_HSERDYF     /*!< HSE Ready Interrupt flag */
 135:Drivers/STM32F1xx_HAL_Driver/Inc/stm32f1xx_ll_rcc.h **** #define LL_RCC_CIR_PLLRDYF                RCC_CIR_PLLRDYF     /*!< PLL Ready Interrupt flag */
 136:Drivers/STM32F1xx_HAL_Driver/Inc/stm32f1xx_ll_rcc.h **** #define LL_RCC_CIR_PLL3RDYF               RCC_CIR_PLL3RDYF    /*!< PLL3(PLLI2S) Ready Interrupt fla
 137:Drivers/STM32F1xx_HAL_Driver/Inc/stm32f1xx_ll_rcc.h **** #define LL_RCC_CIR_PLL2RDYF               RCC_CIR_PLL2RDYF    /*!< PLL2 Ready Interrupt flag */
 138:Drivers/STM32F1xx_HAL_Driver/Inc/stm32f1xx_ll_rcc.h **** #define LL_RCC_CIR_CSSF                   RCC_CIR_CSSF        /*!< Clock Security System Interrupt 
 139:Drivers/STM32F1xx_HAL_Driver/Inc/stm32f1xx_ll_rcc.h **** #define LL_RCC_CSR_PINRSTF                RCC_CSR_PINRSTF     /*!< PIN reset flag */
 140:Drivers/STM32F1xx_HAL_Driver/Inc/stm32f1xx_ll_rcc.h **** #define LL_RCC_CSR_PORRSTF                RCC_CSR_PORRSTF     /*!< POR/PDR reset flag */
 141:Drivers/STM32F1xx_HAL_Driver/Inc/stm32f1xx_ll_rcc.h **** #define LL_RCC_CSR_SFTRSTF                RCC_CSR_SFTRSTF     /*!< Software Reset flag */
 142:Drivers/STM32F1xx_HAL_Driver/Inc/stm32f1xx_ll_rcc.h **** #define LL_RCC_CSR_IWDGRSTF               RCC_CSR_IWDGRSTF    /*!< Independent Watchdog reset flag 
 143:Drivers/STM32F1xx_HAL_Driver/Inc/stm32f1xx_ll_rcc.h **** #define LL_RCC_CSR_WWDGRSTF               RCC_CSR_WWDGRSTF    /*!< Window watchdog reset flag */
 144:Drivers/STM32F1xx_HAL_Driver/Inc/stm32f1xx_ll_rcc.h **** #define LL_RCC_CSR_LPWRRSTF               RCC_CSR_LPWRRSTF    /*!< Low-Power reset flag */
 145:Drivers/STM32F1xx_HAL_Driver/Inc/stm32f1xx_ll_rcc.h **** /**
 146:Drivers/STM32F1xx_HAL_Driver/Inc/stm32f1xx_ll_rcc.h ****   * @}
 147:Drivers/STM32F1xx_HAL_Driver/Inc/stm32f1xx_ll_rcc.h ****   */
ARM GAS  /tmp/ccLXhlQB.s 			page 17


 148:Drivers/STM32F1xx_HAL_Driver/Inc/stm32f1xx_ll_rcc.h **** 
 149:Drivers/STM32F1xx_HAL_Driver/Inc/stm32f1xx_ll_rcc.h **** /** @defgroup RCC_LL_EC_IT IT Defines
 150:Drivers/STM32F1xx_HAL_Driver/Inc/stm32f1xx_ll_rcc.h ****   * @brief    IT defines which can be used with LL_RCC_ReadReg and  LL_RCC_WriteReg functions
 151:Drivers/STM32F1xx_HAL_Driver/Inc/stm32f1xx_ll_rcc.h ****   * @{
 152:Drivers/STM32F1xx_HAL_Driver/Inc/stm32f1xx_ll_rcc.h ****   */
 153:Drivers/STM32F1xx_HAL_Driver/Inc/stm32f1xx_ll_rcc.h **** #define LL_RCC_CIR_LSIRDYIE               RCC_CIR_LSIRDYIE      /*!< LSI Ready Interrupt Enable */
 154:Drivers/STM32F1xx_HAL_Driver/Inc/stm32f1xx_ll_rcc.h **** #define LL_RCC_CIR_LSERDYIE               RCC_CIR_LSERDYIE      /*!< LSE Ready Interrupt Enable */
 155:Drivers/STM32F1xx_HAL_Driver/Inc/stm32f1xx_ll_rcc.h **** #define LL_RCC_CIR_HSIRDYIE               RCC_CIR_HSIRDYIE      /*!< HSI Ready Interrupt Enable */
 156:Drivers/STM32F1xx_HAL_Driver/Inc/stm32f1xx_ll_rcc.h **** #define LL_RCC_CIR_HSERDYIE               RCC_CIR_HSERDYIE      /*!< HSE Ready Interrupt Enable */
 157:Drivers/STM32F1xx_HAL_Driver/Inc/stm32f1xx_ll_rcc.h **** #define LL_RCC_CIR_PLLRDYIE               RCC_CIR_PLLRDYIE      /*!< PLL Ready Interrupt Enable */
 158:Drivers/STM32F1xx_HAL_Driver/Inc/stm32f1xx_ll_rcc.h **** #define LL_RCC_CIR_PLL3RDYIE              RCC_CIR_PLL3RDYIE     /*!< PLL3(PLLI2S) Ready Interrupt E
 159:Drivers/STM32F1xx_HAL_Driver/Inc/stm32f1xx_ll_rcc.h **** #define LL_RCC_CIR_PLL2RDYIE              RCC_CIR_PLL2RDYIE     /*!< PLL2 Ready Interrupt Enable */
 160:Drivers/STM32F1xx_HAL_Driver/Inc/stm32f1xx_ll_rcc.h **** /**
 161:Drivers/STM32F1xx_HAL_Driver/Inc/stm32f1xx_ll_rcc.h ****   * @}
 162:Drivers/STM32F1xx_HAL_Driver/Inc/stm32f1xx_ll_rcc.h ****   */
 163:Drivers/STM32F1xx_HAL_Driver/Inc/stm32f1xx_ll_rcc.h **** 
 164:Drivers/STM32F1xx_HAL_Driver/Inc/stm32f1xx_ll_rcc.h **** #if defined(RCC_CFGR2_PREDIV2)
 165:Drivers/STM32F1xx_HAL_Driver/Inc/stm32f1xx_ll_rcc.h **** /** @defgroup RCC_LL_EC_HSE_PREDIV2_DIV HSE PREDIV2 Division factor
 166:Drivers/STM32F1xx_HAL_Driver/Inc/stm32f1xx_ll_rcc.h ****   * @{
 167:Drivers/STM32F1xx_HAL_Driver/Inc/stm32f1xx_ll_rcc.h ****   */
 168:Drivers/STM32F1xx_HAL_Driver/Inc/stm32f1xx_ll_rcc.h **** #define LL_RCC_HSE_PREDIV2_DIV_1           RCC_CFGR2_PREDIV2_DIV1   /*!< PREDIV2 input clock not di
 169:Drivers/STM32F1xx_HAL_Driver/Inc/stm32f1xx_ll_rcc.h **** #define LL_RCC_HSE_PREDIV2_DIV_2           RCC_CFGR2_PREDIV2_DIV2   /*!< PREDIV2 input clock divide
 170:Drivers/STM32F1xx_HAL_Driver/Inc/stm32f1xx_ll_rcc.h **** #define LL_RCC_HSE_PREDIV2_DIV_3           RCC_CFGR2_PREDIV2_DIV3   /*!< PREDIV2 input clock divide
 171:Drivers/STM32F1xx_HAL_Driver/Inc/stm32f1xx_ll_rcc.h **** #define LL_RCC_HSE_PREDIV2_DIV_4           RCC_CFGR2_PREDIV2_DIV4   /*!< PREDIV2 input clock divide
 172:Drivers/STM32F1xx_HAL_Driver/Inc/stm32f1xx_ll_rcc.h **** #define LL_RCC_HSE_PREDIV2_DIV_5           RCC_CFGR2_PREDIV2_DIV5   /*!< PREDIV2 input clock divide
 173:Drivers/STM32F1xx_HAL_Driver/Inc/stm32f1xx_ll_rcc.h **** #define LL_RCC_HSE_PREDIV2_DIV_6           RCC_CFGR2_PREDIV2_DIV6   /*!< PREDIV2 input clock divide
 174:Drivers/STM32F1xx_HAL_Driver/Inc/stm32f1xx_ll_rcc.h **** #define LL_RCC_HSE_PREDIV2_DIV_7           RCC_CFGR2_PREDIV2_DIV7   /*!< PREDIV2 input clock divide
 175:Drivers/STM32F1xx_HAL_Driver/Inc/stm32f1xx_ll_rcc.h **** #define LL_RCC_HSE_PREDIV2_DIV_8           RCC_CFGR2_PREDIV2_DIV8   /*!< PREDIV2 input clock divide
 176:Drivers/STM32F1xx_HAL_Driver/Inc/stm32f1xx_ll_rcc.h **** #define LL_RCC_HSE_PREDIV2_DIV_9           RCC_CFGR2_PREDIV2_DIV9   /*!< PREDIV2 input clock divide
 177:Drivers/STM32F1xx_HAL_Driver/Inc/stm32f1xx_ll_rcc.h **** #define LL_RCC_HSE_PREDIV2_DIV_10          RCC_CFGR2_PREDIV2_DIV10  /*!< PREDIV2 input clock divide
 178:Drivers/STM32F1xx_HAL_Driver/Inc/stm32f1xx_ll_rcc.h **** #define LL_RCC_HSE_PREDIV2_DIV_11          RCC_CFGR2_PREDIV2_DIV11  /*!< PREDIV2 input clock divide
 179:Drivers/STM32F1xx_HAL_Driver/Inc/stm32f1xx_ll_rcc.h **** #define LL_RCC_HSE_PREDIV2_DIV_12          RCC_CFGR2_PREDIV2_DIV12  /*!< PREDIV2 input clock divide
 180:Drivers/STM32F1xx_HAL_Driver/Inc/stm32f1xx_ll_rcc.h **** #define LL_RCC_HSE_PREDIV2_DIV_13          RCC_CFGR2_PREDIV2_DIV13  /*!< PREDIV2 input clock divide
 181:Drivers/STM32F1xx_HAL_Driver/Inc/stm32f1xx_ll_rcc.h **** #define LL_RCC_HSE_PREDIV2_DIV_14          RCC_CFGR2_PREDIV2_DIV14  /*!< PREDIV2 input clock divide
 182:Drivers/STM32F1xx_HAL_Driver/Inc/stm32f1xx_ll_rcc.h **** #define LL_RCC_HSE_PREDIV2_DIV_15          RCC_CFGR2_PREDIV2_DIV15  /*!< PREDIV2 input clock divide
 183:Drivers/STM32F1xx_HAL_Driver/Inc/stm32f1xx_ll_rcc.h **** #define LL_RCC_HSE_PREDIV2_DIV_16          RCC_CFGR2_PREDIV2_DIV16  /*!< PREDIV2 input clock divide
 184:Drivers/STM32F1xx_HAL_Driver/Inc/stm32f1xx_ll_rcc.h **** /**
 185:Drivers/STM32F1xx_HAL_Driver/Inc/stm32f1xx_ll_rcc.h ****   * @}
 186:Drivers/STM32F1xx_HAL_Driver/Inc/stm32f1xx_ll_rcc.h ****   */
 187:Drivers/STM32F1xx_HAL_Driver/Inc/stm32f1xx_ll_rcc.h **** 
 188:Drivers/STM32F1xx_HAL_Driver/Inc/stm32f1xx_ll_rcc.h **** #endif /* RCC_CFGR2_PREDIV2 */
 189:Drivers/STM32F1xx_HAL_Driver/Inc/stm32f1xx_ll_rcc.h **** 
 190:Drivers/STM32F1xx_HAL_Driver/Inc/stm32f1xx_ll_rcc.h **** /** @defgroup RCC_LL_EC_SYS_CLKSOURCE  System clock switch
 191:Drivers/STM32F1xx_HAL_Driver/Inc/stm32f1xx_ll_rcc.h ****   * @{
 192:Drivers/STM32F1xx_HAL_Driver/Inc/stm32f1xx_ll_rcc.h ****   */
 193:Drivers/STM32F1xx_HAL_Driver/Inc/stm32f1xx_ll_rcc.h **** #define LL_RCC_SYS_CLKSOURCE_HSI           RCC_CFGR_SW_HSI    /*!< HSI selection as system clock */
 194:Drivers/STM32F1xx_HAL_Driver/Inc/stm32f1xx_ll_rcc.h **** #define LL_RCC_SYS_CLKSOURCE_HSE           RCC_CFGR_SW_HSE    /*!< HSE selection as system clock */
 195:Drivers/STM32F1xx_HAL_Driver/Inc/stm32f1xx_ll_rcc.h **** #define LL_RCC_SYS_CLKSOURCE_PLL           RCC_CFGR_SW_PLL    /*!< PLL selection as system clock */
 196:Drivers/STM32F1xx_HAL_Driver/Inc/stm32f1xx_ll_rcc.h **** /**
 197:Drivers/STM32F1xx_HAL_Driver/Inc/stm32f1xx_ll_rcc.h ****   * @}
 198:Drivers/STM32F1xx_HAL_Driver/Inc/stm32f1xx_ll_rcc.h ****   */
 199:Drivers/STM32F1xx_HAL_Driver/Inc/stm32f1xx_ll_rcc.h **** 
 200:Drivers/STM32F1xx_HAL_Driver/Inc/stm32f1xx_ll_rcc.h **** /** @defgroup RCC_LL_EC_SYS_CLKSOURCE_STATUS  System clock switch status
 201:Drivers/STM32F1xx_HAL_Driver/Inc/stm32f1xx_ll_rcc.h ****   * @{
 202:Drivers/STM32F1xx_HAL_Driver/Inc/stm32f1xx_ll_rcc.h ****   */
 203:Drivers/STM32F1xx_HAL_Driver/Inc/stm32f1xx_ll_rcc.h **** #define LL_RCC_SYS_CLKSOURCE_STATUS_HSI    RCC_CFGR_SWS_HSI   /*!< HSI used as system clock */
 204:Drivers/STM32F1xx_HAL_Driver/Inc/stm32f1xx_ll_rcc.h **** #define LL_RCC_SYS_CLKSOURCE_STATUS_HSE    RCC_CFGR_SWS_HSE   /*!< HSE used as system clock */
ARM GAS  /tmp/ccLXhlQB.s 			page 18


 205:Drivers/STM32F1xx_HAL_Driver/Inc/stm32f1xx_ll_rcc.h **** #define LL_RCC_SYS_CLKSOURCE_STATUS_PLL    RCC_CFGR_SWS_PLL   /*!< PLL used as system clock */
 206:Drivers/STM32F1xx_HAL_Driver/Inc/stm32f1xx_ll_rcc.h **** /**
 207:Drivers/STM32F1xx_HAL_Driver/Inc/stm32f1xx_ll_rcc.h ****   * @}
 208:Drivers/STM32F1xx_HAL_Driver/Inc/stm32f1xx_ll_rcc.h ****   */
 209:Drivers/STM32F1xx_HAL_Driver/Inc/stm32f1xx_ll_rcc.h **** 
 210:Drivers/STM32F1xx_HAL_Driver/Inc/stm32f1xx_ll_rcc.h **** /** @defgroup RCC_LL_EC_SYSCLK_DIV  AHB prescaler
 211:Drivers/STM32F1xx_HAL_Driver/Inc/stm32f1xx_ll_rcc.h ****   * @{
 212:Drivers/STM32F1xx_HAL_Driver/Inc/stm32f1xx_ll_rcc.h ****   */
 213:Drivers/STM32F1xx_HAL_Driver/Inc/stm32f1xx_ll_rcc.h **** #define LL_RCC_SYSCLK_DIV_1                RCC_CFGR_HPRE_DIV1   /*!< SYSCLK not divided */
 214:Drivers/STM32F1xx_HAL_Driver/Inc/stm32f1xx_ll_rcc.h **** #define LL_RCC_SYSCLK_DIV_2                RCC_CFGR_HPRE_DIV2   /*!< SYSCLK divided by 2 */
 215:Drivers/STM32F1xx_HAL_Driver/Inc/stm32f1xx_ll_rcc.h **** #define LL_RCC_SYSCLK_DIV_4                RCC_CFGR_HPRE_DIV4   /*!< SYSCLK divided by 4 */
 216:Drivers/STM32F1xx_HAL_Driver/Inc/stm32f1xx_ll_rcc.h **** #define LL_RCC_SYSCLK_DIV_8                RCC_CFGR_HPRE_DIV8   /*!< SYSCLK divided by 8 */
 217:Drivers/STM32F1xx_HAL_Driver/Inc/stm32f1xx_ll_rcc.h **** #define LL_RCC_SYSCLK_DIV_16               RCC_CFGR_HPRE_DIV16  /*!< SYSCLK divided by 16 */
 218:Drivers/STM32F1xx_HAL_Driver/Inc/stm32f1xx_ll_rcc.h **** #define LL_RCC_SYSCLK_DIV_64               RCC_CFGR_HPRE_DIV64  /*!< SYSCLK divided by 64 */
 219:Drivers/STM32F1xx_HAL_Driver/Inc/stm32f1xx_ll_rcc.h **** #define LL_RCC_SYSCLK_DIV_128              RCC_CFGR_HPRE_DIV128 /*!< SYSCLK divided by 128 */
 220:Drivers/STM32F1xx_HAL_Driver/Inc/stm32f1xx_ll_rcc.h **** #define LL_RCC_SYSCLK_DIV_256              RCC_CFGR_HPRE_DIV256 /*!< SYSCLK divided by 256 */
 221:Drivers/STM32F1xx_HAL_Driver/Inc/stm32f1xx_ll_rcc.h **** #define LL_RCC_SYSCLK_DIV_512              RCC_CFGR_HPRE_DIV512 /*!< SYSCLK divided by 512 */
 222:Drivers/STM32F1xx_HAL_Driver/Inc/stm32f1xx_ll_rcc.h **** /**
 223:Drivers/STM32F1xx_HAL_Driver/Inc/stm32f1xx_ll_rcc.h ****   * @}
 224:Drivers/STM32F1xx_HAL_Driver/Inc/stm32f1xx_ll_rcc.h ****   */
 225:Drivers/STM32F1xx_HAL_Driver/Inc/stm32f1xx_ll_rcc.h **** 
 226:Drivers/STM32F1xx_HAL_Driver/Inc/stm32f1xx_ll_rcc.h **** /** @defgroup RCC_LL_EC_APB1_DIV  APB low-speed prescaler (APB1)
 227:Drivers/STM32F1xx_HAL_Driver/Inc/stm32f1xx_ll_rcc.h ****   * @{
 228:Drivers/STM32F1xx_HAL_Driver/Inc/stm32f1xx_ll_rcc.h ****   */
 229:Drivers/STM32F1xx_HAL_Driver/Inc/stm32f1xx_ll_rcc.h **** #define LL_RCC_APB1_DIV_1                  RCC_CFGR_PPRE1_DIV1  /*!< HCLK not divided */
 230:Drivers/STM32F1xx_HAL_Driver/Inc/stm32f1xx_ll_rcc.h **** #define LL_RCC_APB1_DIV_2                  RCC_CFGR_PPRE1_DIV2  /*!< HCLK divided by 2 */
 231:Drivers/STM32F1xx_HAL_Driver/Inc/stm32f1xx_ll_rcc.h **** #define LL_RCC_APB1_DIV_4                  RCC_CFGR_PPRE1_DIV4  /*!< HCLK divided by 4 */
 232:Drivers/STM32F1xx_HAL_Driver/Inc/stm32f1xx_ll_rcc.h **** #define LL_RCC_APB1_DIV_8                  RCC_CFGR_PPRE1_DIV8  /*!< HCLK divided by 8 */
 233:Drivers/STM32F1xx_HAL_Driver/Inc/stm32f1xx_ll_rcc.h **** #define LL_RCC_APB1_DIV_16                 RCC_CFGR_PPRE1_DIV16 /*!< HCLK divided by 16 */
 234:Drivers/STM32F1xx_HAL_Driver/Inc/stm32f1xx_ll_rcc.h **** /**
 235:Drivers/STM32F1xx_HAL_Driver/Inc/stm32f1xx_ll_rcc.h ****   * @}
 236:Drivers/STM32F1xx_HAL_Driver/Inc/stm32f1xx_ll_rcc.h ****   */
 237:Drivers/STM32F1xx_HAL_Driver/Inc/stm32f1xx_ll_rcc.h **** 
 238:Drivers/STM32F1xx_HAL_Driver/Inc/stm32f1xx_ll_rcc.h **** /** @defgroup RCC_LL_EC_APB2_DIV  APB high-speed prescaler (APB2)
 239:Drivers/STM32F1xx_HAL_Driver/Inc/stm32f1xx_ll_rcc.h ****   * @{
 240:Drivers/STM32F1xx_HAL_Driver/Inc/stm32f1xx_ll_rcc.h ****   */
 241:Drivers/STM32F1xx_HAL_Driver/Inc/stm32f1xx_ll_rcc.h **** #define LL_RCC_APB2_DIV_1                  RCC_CFGR_PPRE2_DIV1  /*!< HCLK not divided */
 242:Drivers/STM32F1xx_HAL_Driver/Inc/stm32f1xx_ll_rcc.h **** #define LL_RCC_APB2_DIV_2                  RCC_CFGR_PPRE2_DIV2  /*!< HCLK divided by 2 */
 243:Drivers/STM32F1xx_HAL_Driver/Inc/stm32f1xx_ll_rcc.h **** #define LL_RCC_APB2_DIV_4                  RCC_CFGR_PPRE2_DIV4  /*!< HCLK divided by 4 */
 244:Drivers/STM32F1xx_HAL_Driver/Inc/stm32f1xx_ll_rcc.h **** #define LL_RCC_APB2_DIV_8                  RCC_CFGR_PPRE2_DIV8  /*!< HCLK divided by 8 */
 245:Drivers/STM32F1xx_HAL_Driver/Inc/stm32f1xx_ll_rcc.h **** #define LL_RCC_APB2_DIV_16                 RCC_CFGR_PPRE2_DIV16 /*!< HCLK divided by 16 */
 246:Drivers/STM32F1xx_HAL_Driver/Inc/stm32f1xx_ll_rcc.h **** /**
 247:Drivers/STM32F1xx_HAL_Driver/Inc/stm32f1xx_ll_rcc.h ****   * @}
 248:Drivers/STM32F1xx_HAL_Driver/Inc/stm32f1xx_ll_rcc.h ****   */
 249:Drivers/STM32F1xx_HAL_Driver/Inc/stm32f1xx_ll_rcc.h **** 
 250:Drivers/STM32F1xx_HAL_Driver/Inc/stm32f1xx_ll_rcc.h **** /** @defgroup RCC_LL_EC_MCO1SOURCE  MCO1 SOURCE selection
 251:Drivers/STM32F1xx_HAL_Driver/Inc/stm32f1xx_ll_rcc.h ****   * @{
 252:Drivers/STM32F1xx_HAL_Driver/Inc/stm32f1xx_ll_rcc.h ****   */
 253:Drivers/STM32F1xx_HAL_Driver/Inc/stm32f1xx_ll_rcc.h **** #define LL_RCC_MCO1SOURCE_NOCLOCK          RCC_CFGR_MCO_NOCLOCK      /*!< MCO output disabled, no c
 254:Drivers/STM32F1xx_HAL_Driver/Inc/stm32f1xx_ll_rcc.h **** #define LL_RCC_MCO1SOURCE_SYSCLK           RCC_CFGR_MCO_SYSCLK       /*!< SYSCLK selection as MCO s
 255:Drivers/STM32F1xx_HAL_Driver/Inc/stm32f1xx_ll_rcc.h **** #define LL_RCC_MCO1SOURCE_HSI              RCC_CFGR_MCO_HSI          /*!< HSI selection as MCO sour
 256:Drivers/STM32F1xx_HAL_Driver/Inc/stm32f1xx_ll_rcc.h **** #define LL_RCC_MCO1SOURCE_HSE              RCC_CFGR_MCO_HSE          /*!< HSE selection as MCO sour
 257:Drivers/STM32F1xx_HAL_Driver/Inc/stm32f1xx_ll_rcc.h **** #define LL_RCC_MCO1SOURCE_PLLCLK_DIV_2     RCC_CFGR_MCO_PLLCLK_DIV2  /*!< PLL clock divided by 2*/
 258:Drivers/STM32F1xx_HAL_Driver/Inc/stm32f1xx_ll_rcc.h **** #if defined(RCC_CFGR_MCO_PLL2CLK)
 259:Drivers/STM32F1xx_HAL_Driver/Inc/stm32f1xx_ll_rcc.h **** #define LL_RCC_MCO1SOURCE_PLL2CLK          RCC_CFGR_MCO_PLL2CLK      /*!< PLL2 clock selected as MC
 260:Drivers/STM32F1xx_HAL_Driver/Inc/stm32f1xx_ll_rcc.h **** #endif /* RCC_CFGR_MCO_PLL2CLK */
 261:Drivers/STM32F1xx_HAL_Driver/Inc/stm32f1xx_ll_rcc.h **** #if defined(RCC_CFGR_MCO_PLL3CLK_DIV2)
ARM GAS  /tmp/ccLXhlQB.s 			page 19


 262:Drivers/STM32F1xx_HAL_Driver/Inc/stm32f1xx_ll_rcc.h **** #define LL_RCC_MCO1SOURCE_PLLI2SCLK_DIV2   RCC_CFGR_MCO_PLL3CLK_DIV2 /*!< PLLI2S clock divided by 2
 263:Drivers/STM32F1xx_HAL_Driver/Inc/stm32f1xx_ll_rcc.h **** #endif /* RCC_CFGR_MCO_PLL3CLK_DIV2 */
 264:Drivers/STM32F1xx_HAL_Driver/Inc/stm32f1xx_ll_rcc.h **** #if defined(RCC_CFGR_MCO_EXT_HSE)
 265:Drivers/STM32F1xx_HAL_Driver/Inc/stm32f1xx_ll_rcc.h **** #define LL_RCC_MCO1SOURCE_EXT_HSE          RCC_CFGR_MCO_EXT_HSE      /*!< XT1 external 3-25 MHz osc
 266:Drivers/STM32F1xx_HAL_Driver/Inc/stm32f1xx_ll_rcc.h **** #endif /* RCC_CFGR_MCO_EXT_HSE */
 267:Drivers/STM32F1xx_HAL_Driver/Inc/stm32f1xx_ll_rcc.h **** #if defined(RCC_CFGR_MCO_PLL3CLK)
 268:Drivers/STM32F1xx_HAL_Driver/Inc/stm32f1xx_ll_rcc.h **** #define LL_RCC_MCO1SOURCE_PLLI2SCLK        RCC_CFGR_MCO_PLL3CLK      /*!< PLLI2S clock selected as 
 269:Drivers/STM32F1xx_HAL_Driver/Inc/stm32f1xx_ll_rcc.h **** #endif /* RCC_CFGR_MCO_PLL3CLK */
 270:Drivers/STM32F1xx_HAL_Driver/Inc/stm32f1xx_ll_rcc.h **** /**
 271:Drivers/STM32F1xx_HAL_Driver/Inc/stm32f1xx_ll_rcc.h ****   * @}
 272:Drivers/STM32F1xx_HAL_Driver/Inc/stm32f1xx_ll_rcc.h ****   */
 273:Drivers/STM32F1xx_HAL_Driver/Inc/stm32f1xx_ll_rcc.h **** 
 274:Drivers/STM32F1xx_HAL_Driver/Inc/stm32f1xx_ll_rcc.h **** #if defined(USE_FULL_LL_DRIVER)
 275:Drivers/STM32F1xx_HAL_Driver/Inc/stm32f1xx_ll_rcc.h **** /** @defgroup RCC_LL_EC_PERIPH_FREQUENCY Peripheral clock frequency
 276:Drivers/STM32F1xx_HAL_Driver/Inc/stm32f1xx_ll_rcc.h ****   * @{
 277:Drivers/STM32F1xx_HAL_Driver/Inc/stm32f1xx_ll_rcc.h ****   */
 278:Drivers/STM32F1xx_HAL_Driver/Inc/stm32f1xx_ll_rcc.h **** #define LL_RCC_PERIPH_FREQUENCY_NO         0x00000000U      /*!< No clock enabled for the periphera
 279:Drivers/STM32F1xx_HAL_Driver/Inc/stm32f1xx_ll_rcc.h **** #define LL_RCC_PERIPH_FREQUENCY_NA         0xFFFFFFFFU      /*!< Frequency cannot be provided as ex
 280:Drivers/STM32F1xx_HAL_Driver/Inc/stm32f1xx_ll_rcc.h **** /**
 281:Drivers/STM32F1xx_HAL_Driver/Inc/stm32f1xx_ll_rcc.h ****   * @}
 282:Drivers/STM32F1xx_HAL_Driver/Inc/stm32f1xx_ll_rcc.h ****   */
 283:Drivers/STM32F1xx_HAL_Driver/Inc/stm32f1xx_ll_rcc.h **** #endif /* USE_FULL_LL_DRIVER */
 284:Drivers/STM32F1xx_HAL_Driver/Inc/stm32f1xx_ll_rcc.h **** 
 285:Drivers/STM32F1xx_HAL_Driver/Inc/stm32f1xx_ll_rcc.h **** #if defined(RCC_CFGR2_I2S2SRC)
 286:Drivers/STM32F1xx_HAL_Driver/Inc/stm32f1xx_ll_rcc.h **** /** @defgroup RCC_LL_EC_I2S2CLKSOURCE Peripheral I2S clock source selection
 287:Drivers/STM32F1xx_HAL_Driver/Inc/stm32f1xx_ll_rcc.h ****   * @{
 288:Drivers/STM32F1xx_HAL_Driver/Inc/stm32f1xx_ll_rcc.h ****   */
 289:Drivers/STM32F1xx_HAL_Driver/Inc/stm32f1xx_ll_rcc.h **** #define LL_RCC_I2S2_CLKSOURCE_SYSCLK        RCC_CFGR2_I2S2SRC                                      
 290:Drivers/STM32F1xx_HAL_Driver/Inc/stm32f1xx_ll_rcc.h **** #define LL_RCC_I2S2_CLKSOURCE_PLLI2S_VCO    (uint32_t)(RCC_CFGR2_I2S2SRC | (RCC_CFGR2_I2S2SRC >> 16
 291:Drivers/STM32F1xx_HAL_Driver/Inc/stm32f1xx_ll_rcc.h **** #define LL_RCC_I2S3_CLKSOURCE_SYSCLK        RCC_CFGR2_I2S3SRC                                      
 292:Drivers/STM32F1xx_HAL_Driver/Inc/stm32f1xx_ll_rcc.h **** #define LL_RCC_I2S3_CLKSOURCE_PLLI2S_VCO    (uint32_t)(RCC_CFGR2_I2S3SRC | (RCC_CFGR2_I2S3SRC >> 16
 293:Drivers/STM32F1xx_HAL_Driver/Inc/stm32f1xx_ll_rcc.h **** /**
 294:Drivers/STM32F1xx_HAL_Driver/Inc/stm32f1xx_ll_rcc.h ****   * @}
 295:Drivers/STM32F1xx_HAL_Driver/Inc/stm32f1xx_ll_rcc.h ****   */
 296:Drivers/STM32F1xx_HAL_Driver/Inc/stm32f1xx_ll_rcc.h **** #endif /* RCC_CFGR2_I2S2SRC */
 297:Drivers/STM32F1xx_HAL_Driver/Inc/stm32f1xx_ll_rcc.h **** 
 298:Drivers/STM32F1xx_HAL_Driver/Inc/stm32f1xx_ll_rcc.h **** #if defined(USB_OTG_FS) || defined(USB)
 299:Drivers/STM32F1xx_HAL_Driver/Inc/stm32f1xx_ll_rcc.h **** /** @defgroup RCC_LL_EC_USB_CLKSOURCE Peripheral USB clock source selection
 300:Drivers/STM32F1xx_HAL_Driver/Inc/stm32f1xx_ll_rcc.h ****   * @{
 301:Drivers/STM32F1xx_HAL_Driver/Inc/stm32f1xx_ll_rcc.h ****   */
 302:Drivers/STM32F1xx_HAL_Driver/Inc/stm32f1xx_ll_rcc.h **** #if defined(RCC_CFGR_USBPRE)
 303:Drivers/STM32F1xx_HAL_Driver/Inc/stm32f1xx_ll_rcc.h **** #define LL_RCC_USB_CLKSOURCE_PLL             RCC_CFGR_USBPRE        /*!< PLL clock is not divided *
 304:Drivers/STM32F1xx_HAL_Driver/Inc/stm32f1xx_ll_rcc.h **** #define LL_RCC_USB_CLKSOURCE_PLL_DIV_1_5     0x00000000U            /*!< PLL clock is divided by 1.
 305:Drivers/STM32F1xx_HAL_Driver/Inc/stm32f1xx_ll_rcc.h **** #endif /*RCC_CFGR_USBPRE*/
 306:Drivers/STM32F1xx_HAL_Driver/Inc/stm32f1xx_ll_rcc.h **** #if defined(RCC_CFGR_OTGFSPRE)
 307:Drivers/STM32F1xx_HAL_Driver/Inc/stm32f1xx_ll_rcc.h **** #define LL_RCC_USB_CLKSOURCE_PLL_DIV_2       RCC_CFGR_OTGFSPRE      /*!< PLL clock is divided by 2 
 308:Drivers/STM32F1xx_HAL_Driver/Inc/stm32f1xx_ll_rcc.h **** #define LL_RCC_USB_CLKSOURCE_PLL_DIV_3       0x00000000U            /*!< PLL clock is divided by 3 
 309:Drivers/STM32F1xx_HAL_Driver/Inc/stm32f1xx_ll_rcc.h **** #endif /*RCC_CFGR_OTGFSPRE*/
 310:Drivers/STM32F1xx_HAL_Driver/Inc/stm32f1xx_ll_rcc.h **** /**
 311:Drivers/STM32F1xx_HAL_Driver/Inc/stm32f1xx_ll_rcc.h ****   * @}
 312:Drivers/STM32F1xx_HAL_Driver/Inc/stm32f1xx_ll_rcc.h ****   */
 313:Drivers/STM32F1xx_HAL_Driver/Inc/stm32f1xx_ll_rcc.h **** #endif /* USB_OTG_FS || USB */
 314:Drivers/STM32F1xx_HAL_Driver/Inc/stm32f1xx_ll_rcc.h **** 
 315:Drivers/STM32F1xx_HAL_Driver/Inc/stm32f1xx_ll_rcc.h **** /** @defgroup RCC_LL_EC_ADC_CLKSOURCE_PCLK2 Peripheral ADC clock source selection
 316:Drivers/STM32F1xx_HAL_Driver/Inc/stm32f1xx_ll_rcc.h ****   * @{
 317:Drivers/STM32F1xx_HAL_Driver/Inc/stm32f1xx_ll_rcc.h ****   */
 318:Drivers/STM32F1xx_HAL_Driver/Inc/stm32f1xx_ll_rcc.h **** #define LL_RCC_ADC_CLKSRC_PCLK2_DIV_2    RCC_CFGR_ADCPRE_DIV2 /*ADC prescaler PCLK2 divided by 2*/
ARM GAS  /tmp/ccLXhlQB.s 			page 20


 319:Drivers/STM32F1xx_HAL_Driver/Inc/stm32f1xx_ll_rcc.h **** #define LL_RCC_ADC_CLKSRC_PCLK2_DIV_4    RCC_CFGR_ADCPRE_DIV4 /*ADC prescaler PCLK2 divided by 4*/
 320:Drivers/STM32F1xx_HAL_Driver/Inc/stm32f1xx_ll_rcc.h **** #define LL_RCC_ADC_CLKSRC_PCLK2_DIV_6    RCC_CFGR_ADCPRE_DIV6 /*ADC prescaler PCLK2 divided by 6*/
 321:Drivers/STM32F1xx_HAL_Driver/Inc/stm32f1xx_ll_rcc.h **** #define LL_RCC_ADC_CLKSRC_PCLK2_DIV_8    RCC_CFGR_ADCPRE_DIV8 /*ADC prescaler PCLK2 divided by 8*/
 322:Drivers/STM32F1xx_HAL_Driver/Inc/stm32f1xx_ll_rcc.h **** /**
 323:Drivers/STM32F1xx_HAL_Driver/Inc/stm32f1xx_ll_rcc.h ****   * @}
 324:Drivers/STM32F1xx_HAL_Driver/Inc/stm32f1xx_ll_rcc.h ****   */
 325:Drivers/STM32F1xx_HAL_Driver/Inc/stm32f1xx_ll_rcc.h **** 
 326:Drivers/STM32F1xx_HAL_Driver/Inc/stm32f1xx_ll_rcc.h **** #if defined(RCC_CFGR2_I2S2SRC)
 327:Drivers/STM32F1xx_HAL_Driver/Inc/stm32f1xx_ll_rcc.h **** /** @defgroup RCC_LL_EC_I2S2 Peripheral I2S get clock source
 328:Drivers/STM32F1xx_HAL_Driver/Inc/stm32f1xx_ll_rcc.h ****   * @{
 329:Drivers/STM32F1xx_HAL_Driver/Inc/stm32f1xx_ll_rcc.h ****   */
 330:Drivers/STM32F1xx_HAL_Driver/Inc/stm32f1xx_ll_rcc.h **** #define LL_RCC_I2S2_CLKSOURCE              RCC_CFGR2_I2S2SRC       /*!< I2S2 Clock source selection
 331:Drivers/STM32F1xx_HAL_Driver/Inc/stm32f1xx_ll_rcc.h **** #define LL_RCC_I2S3_CLKSOURCE              RCC_CFGR2_I2S3SRC       /*!< I2S3 Clock source selection
 332:Drivers/STM32F1xx_HAL_Driver/Inc/stm32f1xx_ll_rcc.h **** /**
 333:Drivers/STM32F1xx_HAL_Driver/Inc/stm32f1xx_ll_rcc.h ****   * @}
 334:Drivers/STM32F1xx_HAL_Driver/Inc/stm32f1xx_ll_rcc.h ****   */
 335:Drivers/STM32F1xx_HAL_Driver/Inc/stm32f1xx_ll_rcc.h **** 
 336:Drivers/STM32F1xx_HAL_Driver/Inc/stm32f1xx_ll_rcc.h **** #endif /* RCC_CFGR2_I2S2SRC */
 337:Drivers/STM32F1xx_HAL_Driver/Inc/stm32f1xx_ll_rcc.h **** 
 338:Drivers/STM32F1xx_HAL_Driver/Inc/stm32f1xx_ll_rcc.h **** #if defined(USB_OTG_FS) || defined(USB)
 339:Drivers/STM32F1xx_HAL_Driver/Inc/stm32f1xx_ll_rcc.h **** /** @defgroup RCC_LL_EC_USB Peripheral USB get clock source
 340:Drivers/STM32F1xx_HAL_Driver/Inc/stm32f1xx_ll_rcc.h ****   * @{
 341:Drivers/STM32F1xx_HAL_Driver/Inc/stm32f1xx_ll_rcc.h ****   */
 342:Drivers/STM32F1xx_HAL_Driver/Inc/stm32f1xx_ll_rcc.h **** #define LL_RCC_USB_CLKSOURCE               0x00400000U     /*!< USB Clock source selection */
 343:Drivers/STM32F1xx_HAL_Driver/Inc/stm32f1xx_ll_rcc.h **** /**
 344:Drivers/STM32F1xx_HAL_Driver/Inc/stm32f1xx_ll_rcc.h ****   * @}
 345:Drivers/STM32F1xx_HAL_Driver/Inc/stm32f1xx_ll_rcc.h ****   */
 346:Drivers/STM32F1xx_HAL_Driver/Inc/stm32f1xx_ll_rcc.h **** 
 347:Drivers/STM32F1xx_HAL_Driver/Inc/stm32f1xx_ll_rcc.h **** #endif /* USB_OTG_FS || USB */
 348:Drivers/STM32F1xx_HAL_Driver/Inc/stm32f1xx_ll_rcc.h **** 
 349:Drivers/STM32F1xx_HAL_Driver/Inc/stm32f1xx_ll_rcc.h **** /** @defgroup RCC_LL_EC_ADC Peripheral ADC get clock source
 350:Drivers/STM32F1xx_HAL_Driver/Inc/stm32f1xx_ll_rcc.h ****   * @{
 351:Drivers/STM32F1xx_HAL_Driver/Inc/stm32f1xx_ll_rcc.h ****   */
 352:Drivers/STM32F1xx_HAL_Driver/Inc/stm32f1xx_ll_rcc.h **** #define LL_RCC_ADC_CLKSOURCE               RCC_CFGR_ADCPRE /*!< ADC Clock source selection */
 353:Drivers/STM32F1xx_HAL_Driver/Inc/stm32f1xx_ll_rcc.h **** /**
 354:Drivers/STM32F1xx_HAL_Driver/Inc/stm32f1xx_ll_rcc.h ****   * @}
 355:Drivers/STM32F1xx_HAL_Driver/Inc/stm32f1xx_ll_rcc.h ****   */
 356:Drivers/STM32F1xx_HAL_Driver/Inc/stm32f1xx_ll_rcc.h **** 
 357:Drivers/STM32F1xx_HAL_Driver/Inc/stm32f1xx_ll_rcc.h **** /** @defgroup RCC_LL_EC_RTC_CLKSOURCE  RTC clock source selection
 358:Drivers/STM32F1xx_HAL_Driver/Inc/stm32f1xx_ll_rcc.h ****   * @{
 359:Drivers/STM32F1xx_HAL_Driver/Inc/stm32f1xx_ll_rcc.h ****   */
 360:Drivers/STM32F1xx_HAL_Driver/Inc/stm32f1xx_ll_rcc.h **** #define LL_RCC_RTC_CLKSOURCE_NONE          0x00000000U             /*!< No clock used as RTC clock 
 361:Drivers/STM32F1xx_HAL_Driver/Inc/stm32f1xx_ll_rcc.h **** #define LL_RCC_RTC_CLKSOURCE_LSE           RCC_BDCR_RTCSEL_0       /*!< LSE oscillator clock used a
 362:Drivers/STM32F1xx_HAL_Driver/Inc/stm32f1xx_ll_rcc.h **** #define LL_RCC_RTC_CLKSOURCE_LSI           RCC_BDCR_RTCSEL_1       /*!< LSI oscillator clock used a
 363:Drivers/STM32F1xx_HAL_Driver/Inc/stm32f1xx_ll_rcc.h **** #define LL_RCC_RTC_CLKSOURCE_HSE_DIV128    RCC_BDCR_RTCSEL         /*!< HSE oscillator clock divide
 364:Drivers/STM32F1xx_HAL_Driver/Inc/stm32f1xx_ll_rcc.h **** /**
 365:Drivers/STM32F1xx_HAL_Driver/Inc/stm32f1xx_ll_rcc.h ****   * @}
 366:Drivers/STM32F1xx_HAL_Driver/Inc/stm32f1xx_ll_rcc.h ****   */
 367:Drivers/STM32F1xx_HAL_Driver/Inc/stm32f1xx_ll_rcc.h **** 
 368:Drivers/STM32F1xx_HAL_Driver/Inc/stm32f1xx_ll_rcc.h **** /** @defgroup RCC_LL_EC_PLL_MUL PLL Multiplicator factor
 369:Drivers/STM32F1xx_HAL_Driver/Inc/stm32f1xx_ll_rcc.h ****   * @{
 370:Drivers/STM32F1xx_HAL_Driver/Inc/stm32f1xx_ll_rcc.h ****   */
 371:Drivers/STM32F1xx_HAL_Driver/Inc/stm32f1xx_ll_rcc.h **** #if defined(RCC_CFGR_PLLMULL2)
 372:Drivers/STM32F1xx_HAL_Driver/Inc/stm32f1xx_ll_rcc.h **** #define LL_RCC_PLL_MUL_2                   RCC_CFGR_PLLMULL2  /*!< PLL input clock*2 */
 373:Drivers/STM32F1xx_HAL_Driver/Inc/stm32f1xx_ll_rcc.h **** #endif /*RCC_CFGR_PLLMULL2*/
 374:Drivers/STM32F1xx_HAL_Driver/Inc/stm32f1xx_ll_rcc.h **** #if defined(RCC_CFGR_PLLMULL3)
 375:Drivers/STM32F1xx_HAL_Driver/Inc/stm32f1xx_ll_rcc.h **** #define LL_RCC_PLL_MUL_3                   RCC_CFGR_PLLMULL3  /*!< PLL input clock*3 */
ARM GAS  /tmp/ccLXhlQB.s 			page 21


 376:Drivers/STM32F1xx_HAL_Driver/Inc/stm32f1xx_ll_rcc.h **** #endif /*RCC_CFGR_PLLMULL3*/
 377:Drivers/STM32F1xx_HAL_Driver/Inc/stm32f1xx_ll_rcc.h **** #define LL_RCC_PLL_MUL_4                   RCC_CFGR_PLLMULL4  /*!< PLL input clock*4 */
 378:Drivers/STM32F1xx_HAL_Driver/Inc/stm32f1xx_ll_rcc.h **** #define LL_RCC_PLL_MUL_5                   RCC_CFGR_PLLMULL5  /*!< PLL input clock*5 */
 379:Drivers/STM32F1xx_HAL_Driver/Inc/stm32f1xx_ll_rcc.h **** #define LL_RCC_PLL_MUL_6                   RCC_CFGR_PLLMULL6  /*!< PLL input clock*6 */
 380:Drivers/STM32F1xx_HAL_Driver/Inc/stm32f1xx_ll_rcc.h **** #define LL_RCC_PLL_MUL_7                   RCC_CFGR_PLLMULL7  /*!< PLL input clock*7 */
 381:Drivers/STM32F1xx_HAL_Driver/Inc/stm32f1xx_ll_rcc.h **** #define LL_RCC_PLL_MUL_8                   RCC_CFGR_PLLMULL8  /*!< PLL input clock*8 */
 382:Drivers/STM32F1xx_HAL_Driver/Inc/stm32f1xx_ll_rcc.h **** #define LL_RCC_PLL_MUL_9                   RCC_CFGR_PLLMULL9  /*!< PLL input clock*9 */
 383:Drivers/STM32F1xx_HAL_Driver/Inc/stm32f1xx_ll_rcc.h **** #if defined(RCC_CFGR_PLLMULL6_5)
 384:Drivers/STM32F1xx_HAL_Driver/Inc/stm32f1xx_ll_rcc.h **** #define LL_RCC_PLL_MUL_6_5                 RCC_CFGR_PLLMULL6_5 /*!< PLL input clock*6 */
 385:Drivers/STM32F1xx_HAL_Driver/Inc/stm32f1xx_ll_rcc.h **** #else
 386:Drivers/STM32F1xx_HAL_Driver/Inc/stm32f1xx_ll_rcc.h **** #define LL_RCC_PLL_MUL_10                  RCC_CFGR_PLLMULL10  /*!< PLL input clock*10 */
 387:Drivers/STM32F1xx_HAL_Driver/Inc/stm32f1xx_ll_rcc.h **** #define LL_RCC_PLL_MUL_11                  RCC_CFGR_PLLMULL11  /*!< PLL input clock*11 */
 388:Drivers/STM32F1xx_HAL_Driver/Inc/stm32f1xx_ll_rcc.h **** #define LL_RCC_PLL_MUL_12                  RCC_CFGR_PLLMULL12  /*!< PLL input clock*12 */
 389:Drivers/STM32F1xx_HAL_Driver/Inc/stm32f1xx_ll_rcc.h **** #define LL_RCC_PLL_MUL_13                  RCC_CFGR_PLLMULL13  /*!< PLL input clock*13 */
 390:Drivers/STM32F1xx_HAL_Driver/Inc/stm32f1xx_ll_rcc.h **** #define LL_RCC_PLL_MUL_14                  RCC_CFGR_PLLMULL14  /*!< PLL input clock*14 */
 391:Drivers/STM32F1xx_HAL_Driver/Inc/stm32f1xx_ll_rcc.h **** #define LL_RCC_PLL_MUL_15                  RCC_CFGR_PLLMULL15  /*!< PLL input clock*15 */
 392:Drivers/STM32F1xx_HAL_Driver/Inc/stm32f1xx_ll_rcc.h **** #define LL_RCC_PLL_MUL_16                  RCC_CFGR_PLLMULL16  /*!< PLL input clock*16 */
 393:Drivers/STM32F1xx_HAL_Driver/Inc/stm32f1xx_ll_rcc.h **** #endif /*RCC_CFGR_PLLMULL6_5*/
 394:Drivers/STM32F1xx_HAL_Driver/Inc/stm32f1xx_ll_rcc.h **** /**
 395:Drivers/STM32F1xx_HAL_Driver/Inc/stm32f1xx_ll_rcc.h ****   * @}
 396:Drivers/STM32F1xx_HAL_Driver/Inc/stm32f1xx_ll_rcc.h ****   */
 397:Drivers/STM32F1xx_HAL_Driver/Inc/stm32f1xx_ll_rcc.h **** 
 398:Drivers/STM32F1xx_HAL_Driver/Inc/stm32f1xx_ll_rcc.h **** /** @defgroup RCC_LL_EC_PLLSOURCE PLL SOURCE
 399:Drivers/STM32F1xx_HAL_Driver/Inc/stm32f1xx_ll_rcc.h ****   * @{
 400:Drivers/STM32F1xx_HAL_Driver/Inc/stm32f1xx_ll_rcc.h ****   */
 401:Drivers/STM32F1xx_HAL_Driver/Inc/stm32f1xx_ll_rcc.h **** #define LL_RCC_PLLSOURCE_HSI_DIV_2         0x00000000U                                    /*!< HSI 
 402:Drivers/STM32F1xx_HAL_Driver/Inc/stm32f1xx_ll_rcc.h **** #define LL_RCC_PLLSOURCE_HSE               RCC_CFGR_PLLSRC                                /*!< HSE/
 403:Drivers/STM32F1xx_HAL_Driver/Inc/stm32f1xx_ll_rcc.h **** #if defined(RCC_CFGR2_PREDIV1SRC)
 404:Drivers/STM32F1xx_HAL_Driver/Inc/stm32f1xx_ll_rcc.h **** #define LL_RCC_PLLSOURCE_PLL2              (RCC_CFGR_PLLSRC | RCC_CFGR2_PREDIV1SRC << 4U) /*!< PLL2
 405:Drivers/STM32F1xx_HAL_Driver/Inc/stm32f1xx_ll_rcc.h **** #endif /*RCC_CFGR2_PREDIV1SRC*/
 406:Drivers/STM32F1xx_HAL_Driver/Inc/stm32f1xx_ll_rcc.h **** 
 407:Drivers/STM32F1xx_HAL_Driver/Inc/stm32f1xx_ll_rcc.h **** #if defined(RCC_CFGR2_PREDIV1)
 408:Drivers/STM32F1xx_HAL_Driver/Inc/stm32f1xx_ll_rcc.h **** #define LL_RCC_PLLSOURCE_HSE_DIV_1         (RCC_CFGR_PLLSRC | RCC_CFGR2_PREDIV1_DIV1)    /*!< HSE/1
 409:Drivers/STM32F1xx_HAL_Driver/Inc/stm32f1xx_ll_rcc.h **** #define LL_RCC_PLLSOURCE_HSE_DIV_2         (RCC_CFGR_PLLSRC | RCC_CFGR2_PREDIV1_DIV2)    /*!< HSE/2
 410:Drivers/STM32F1xx_HAL_Driver/Inc/stm32f1xx_ll_rcc.h **** #define LL_RCC_PLLSOURCE_HSE_DIV_3         (RCC_CFGR_PLLSRC | RCC_CFGR2_PREDIV1_DIV3)    /*!< HSE/3
 411:Drivers/STM32F1xx_HAL_Driver/Inc/stm32f1xx_ll_rcc.h **** #define LL_RCC_PLLSOURCE_HSE_DIV_4         (RCC_CFGR_PLLSRC | RCC_CFGR2_PREDIV1_DIV4)    /*!< HSE/4
 412:Drivers/STM32F1xx_HAL_Driver/Inc/stm32f1xx_ll_rcc.h **** #define LL_RCC_PLLSOURCE_HSE_DIV_5         (RCC_CFGR_PLLSRC | RCC_CFGR2_PREDIV1_DIV5)    /*!< HSE/5
 413:Drivers/STM32F1xx_HAL_Driver/Inc/stm32f1xx_ll_rcc.h **** #define LL_RCC_PLLSOURCE_HSE_DIV_6         (RCC_CFGR_PLLSRC | RCC_CFGR2_PREDIV1_DIV6)    /*!< HSE/6
 414:Drivers/STM32F1xx_HAL_Driver/Inc/stm32f1xx_ll_rcc.h **** #define LL_RCC_PLLSOURCE_HSE_DIV_7         (RCC_CFGR_PLLSRC | RCC_CFGR2_PREDIV1_DIV7)    /*!< HSE/7
 415:Drivers/STM32F1xx_HAL_Driver/Inc/stm32f1xx_ll_rcc.h **** #define LL_RCC_PLLSOURCE_HSE_DIV_8         (RCC_CFGR_PLLSRC | RCC_CFGR2_PREDIV1_DIV8)    /*!< HSE/8
 416:Drivers/STM32F1xx_HAL_Driver/Inc/stm32f1xx_ll_rcc.h **** #define LL_RCC_PLLSOURCE_HSE_DIV_9         (RCC_CFGR_PLLSRC | RCC_CFGR2_PREDIV1_DIV9)    /*!< HSE/9
 417:Drivers/STM32F1xx_HAL_Driver/Inc/stm32f1xx_ll_rcc.h **** #define LL_RCC_PLLSOURCE_HSE_DIV_10        (RCC_CFGR_PLLSRC | RCC_CFGR2_PREDIV1_DIV10)   /*!< HSE/1
 418:Drivers/STM32F1xx_HAL_Driver/Inc/stm32f1xx_ll_rcc.h **** #define LL_RCC_PLLSOURCE_HSE_DIV_11        (RCC_CFGR_PLLSRC | RCC_CFGR2_PREDIV1_DIV11)   /*!< HSE/1
 419:Drivers/STM32F1xx_HAL_Driver/Inc/stm32f1xx_ll_rcc.h **** #define LL_RCC_PLLSOURCE_HSE_DIV_12        (RCC_CFGR_PLLSRC | RCC_CFGR2_PREDIV1_DIV12)   /*!< HSE/1
 420:Drivers/STM32F1xx_HAL_Driver/Inc/stm32f1xx_ll_rcc.h **** #define LL_RCC_PLLSOURCE_HSE_DIV_13        (RCC_CFGR_PLLSRC | RCC_CFGR2_PREDIV1_DIV13)   /*!< HSE/1
 421:Drivers/STM32F1xx_HAL_Driver/Inc/stm32f1xx_ll_rcc.h **** #define LL_RCC_PLLSOURCE_HSE_DIV_14        (RCC_CFGR_PLLSRC | RCC_CFGR2_PREDIV1_DIV14)   /*!< HSE/1
 422:Drivers/STM32F1xx_HAL_Driver/Inc/stm32f1xx_ll_rcc.h **** #define LL_RCC_PLLSOURCE_HSE_DIV_15        (RCC_CFGR_PLLSRC | RCC_CFGR2_PREDIV1_DIV15)   /*!< HSE/1
 423:Drivers/STM32F1xx_HAL_Driver/Inc/stm32f1xx_ll_rcc.h **** #define LL_RCC_PLLSOURCE_HSE_DIV_16        (RCC_CFGR_PLLSRC | RCC_CFGR2_PREDIV1_DIV16)   /*!< HSE/1
 424:Drivers/STM32F1xx_HAL_Driver/Inc/stm32f1xx_ll_rcc.h **** #if defined(RCC_CFGR2_PREDIV1SRC)
 425:Drivers/STM32F1xx_HAL_Driver/Inc/stm32f1xx_ll_rcc.h **** #define LL_RCC_PLLSOURCE_PLL2_DIV_1        (RCC_CFGR_PLLSRC | RCC_CFGR2_PREDIV1_DIV1 | RCC_CFGR2_PR
 426:Drivers/STM32F1xx_HAL_Driver/Inc/stm32f1xx_ll_rcc.h **** #define LL_RCC_PLLSOURCE_PLL2_DIV_2        (RCC_CFGR_PLLSRC | RCC_CFGR2_PREDIV1_DIV2 | RCC_CFGR2_PR
 427:Drivers/STM32F1xx_HAL_Driver/Inc/stm32f1xx_ll_rcc.h **** #define LL_RCC_PLLSOURCE_PLL2_DIV_3        (RCC_CFGR_PLLSRC | RCC_CFGR2_PREDIV1_DIV3 | RCC_CFGR2_PR
 428:Drivers/STM32F1xx_HAL_Driver/Inc/stm32f1xx_ll_rcc.h **** #define LL_RCC_PLLSOURCE_PLL2_DIV_4        (RCC_CFGR_PLLSRC | RCC_CFGR2_PREDIV1_DIV4 | RCC_CFGR2_PR
 429:Drivers/STM32F1xx_HAL_Driver/Inc/stm32f1xx_ll_rcc.h **** #define LL_RCC_PLLSOURCE_PLL2_DIV_5        (RCC_CFGR_PLLSRC | RCC_CFGR2_PREDIV1_DIV5 | RCC_CFGR2_PR
 430:Drivers/STM32F1xx_HAL_Driver/Inc/stm32f1xx_ll_rcc.h **** #define LL_RCC_PLLSOURCE_PLL2_DIV_6        (RCC_CFGR_PLLSRC | RCC_CFGR2_PREDIV1_DIV6 | RCC_CFGR2_PR
 431:Drivers/STM32F1xx_HAL_Driver/Inc/stm32f1xx_ll_rcc.h **** #define LL_RCC_PLLSOURCE_PLL2_DIV_7        (RCC_CFGR_PLLSRC | RCC_CFGR2_PREDIV1_DIV7 | RCC_CFGR2_PR
 432:Drivers/STM32F1xx_HAL_Driver/Inc/stm32f1xx_ll_rcc.h **** #define LL_RCC_PLLSOURCE_PLL2_DIV_8        (RCC_CFGR_PLLSRC | RCC_CFGR2_PREDIV1_DIV8 | RCC_CFGR2_PR
ARM GAS  /tmp/ccLXhlQB.s 			page 22


 433:Drivers/STM32F1xx_HAL_Driver/Inc/stm32f1xx_ll_rcc.h **** #define LL_RCC_PLLSOURCE_PLL2_DIV_9        (RCC_CFGR_PLLSRC | RCC_CFGR2_PREDIV1_DIV9 | RCC_CFGR2_PR
 434:Drivers/STM32F1xx_HAL_Driver/Inc/stm32f1xx_ll_rcc.h **** #define LL_RCC_PLLSOURCE_PLL2_DIV_10       (RCC_CFGR_PLLSRC | RCC_CFGR2_PREDIV1_DIV10 | RCC_CFGR2_P
 435:Drivers/STM32F1xx_HAL_Driver/Inc/stm32f1xx_ll_rcc.h **** #define LL_RCC_PLLSOURCE_PLL2_DIV_11       (RCC_CFGR_PLLSRC | RCC_CFGR2_PREDIV1_DIV11 | RCC_CFGR2_P
 436:Drivers/STM32F1xx_HAL_Driver/Inc/stm32f1xx_ll_rcc.h **** #define LL_RCC_PLLSOURCE_PLL2_DIV_12       (RCC_CFGR_PLLSRC | RCC_CFGR2_PREDIV1_DIV12 | RCC_CFGR2_P
 437:Drivers/STM32F1xx_HAL_Driver/Inc/stm32f1xx_ll_rcc.h **** #define LL_RCC_PLLSOURCE_PLL2_DIV_13       (RCC_CFGR_PLLSRC | RCC_CFGR2_PREDIV1_DIV13 | RCC_CFGR2_P
 438:Drivers/STM32F1xx_HAL_Driver/Inc/stm32f1xx_ll_rcc.h **** #define LL_RCC_PLLSOURCE_PLL2_DIV_14       (RCC_CFGR_PLLSRC | RCC_CFGR2_PREDIV1_DIV14 | RCC_CFGR2_P
 439:Drivers/STM32F1xx_HAL_Driver/Inc/stm32f1xx_ll_rcc.h **** #define LL_RCC_PLLSOURCE_PLL2_DIV_15       (RCC_CFGR_PLLSRC | RCC_CFGR2_PREDIV1_DIV15 | RCC_CFGR2_P
 440:Drivers/STM32F1xx_HAL_Driver/Inc/stm32f1xx_ll_rcc.h **** #define LL_RCC_PLLSOURCE_PLL2_DIV_16       (RCC_CFGR_PLLSRC | RCC_CFGR2_PREDIV1_DIV16 | RCC_CFGR2_P
 441:Drivers/STM32F1xx_HAL_Driver/Inc/stm32f1xx_ll_rcc.h **** #endif /*RCC_CFGR2_PREDIV1SRC*/
 442:Drivers/STM32F1xx_HAL_Driver/Inc/stm32f1xx_ll_rcc.h **** #else
 443:Drivers/STM32F1xx_HAL_Driver/Inc/stm32f1xx_ll_rcc.h **** #define LL_RCC_PLLSOURCE_HSE_DIV_1         (RCC_CFGR_PLLSRC | 0x00000000U)               /*!< HSE/1
 444:Drivers/STM32F1xx_HAL_Driver/Inc/stm32f1xx_ll_rcc.h **** #define LL_RCC_PLLSOURCE_HSE_DIV_2         (RCC_CFGR_PLLSRC | RCC_CFGR_PLLXTPRE)         /*!< HSE/2
 445:Drivers/STM32F1xx_HAL_Driver/Inc/stm32f1xx_ll_rcc.h **** #endif /*RCC_CFGR2_PREDIV1*/
 446:Drivers/STM32F1xx_HAL_Driver/Inc/stm32f1xx_ll_rcc.h **** /**
 447:Drivers/STM32F1xx_HAL_Driver/Inc/stm32f1xx_ll_rcc.h ****   * @}
 448:Drivers/STM32F1xx_HAL_Driver/Inc/stm32f1xx_ll_rcc.h ****   */
 449:Drivers/STM32F1xx_HAL_Driver/Inc/stm32f1xx_ll_rcc.h **** 
 450:Drivers/STM32F1xx_HAL_Driver/Inc/stm32f1xx_ll_rcc.h **** /** @defgroup RCC_LL_EC_PREDIV_DIV PREDIV Division factor
 451:Drivers/STM32F1xx_HAL_Driver/Inc/stm32f1xx_ll_rcc.h ****   * @{
 452:Drivers/STM32F1xx_HAL_Driver/Inc/stm32f1xx_ll_rcc.h ****   */
 453:Drivers/STM32F1xx_HAL_Driver/Inc/stm32f1xx_ll_rcc.h **** #if defined(RCC_CFGR2_PREDIV1)
 454:Drivers/STM32F1xx_HAL_Driver/Inc/stm32f1xx_ll_rcc.h **** #define LL_RCC_PREDIV_DIV_1                RCC_CFGR2_PREDIV1_DIV1   /*!< PREDIV1 input clock not di
 455:Drivers/STM32F1xx_HAL_Driver/Inc/stm32f1xx_ll_rcc.h **** #define LL_RCC_PREDIV_DIV_2                RCC_CFGR2_PREDIV1_DIV2   /*!< PREDIV1 input clock divide
 456:Drivers/STM32F1xx_HAL_Driver/Inc/stm32f1xx_ll_rcc.h **** #define LL_RCC_PREDIV_DIV_3                RCC_CFGR2_PREDIV1_DIV3   /*!< PREDIV1 input clock divide
 457:Drivers/STM32F1xx_HAL_Driver/Inc/stm32f1xx_ll_rcc.h **** #define LL_RCC_PREDIV_DIV_4                RCC_CFGR2_PREDIV1_DIV4   /*!< PREDIV1 input clock divide
 458:Drivers/STM32F1xx_HAL_Driver/Inc/stm32f1xx_ll_rcc.h **** #define LL_RCC_PREDIV_DIV_5                RCC_CFGR2_PREDIV1_DIV5   /*!< PREDIV1 input clock divide
 459:Drivers/STM32F1xx_HAL_Driver/Inc/stm32f1xx_ll_rcc.h **** #define LL_RCC_PREDIV_DIV_6                RCC_CFGR2_PREDIV1_DIV6   /*!< PREDIV1 input clock divide
 460:Drivers/STM32F1xx_HAL_Driver/Inc/stm32f1xx_ll_rcc.h **** #define LL_RCC_PREDIV_DIV_7                RCC_CFGR2_PREDIV1_DIV7   /*!< PREDIV1 input clock divide
 461:Drivers/STM32F1xx_HAL_Driver/Inc/stm32f1xx_ll_rcc.h **** #define LL_RCC_PREDIV_DIV_8                RCC_CFGR2_PREDIV1_DIV8   /*!< PREDIV1 input clock divide
 462:Drivers/STM32F1xx_HAL_Driver/Inc/stm32f1xx_ll_rcc.h **** #define LL_RCC_PREDIV_DIV_9                RCC_CFGR2_PREDIV1_DIV9   /*!< PREDIV1 input clock divide
 463:Drivers/STM32F1xx_HAL_Driver/Inc/stm32f1xx_ll_rcc.h **** #define LL_RCC_PREDIV_DIV_10               RCC_CFGR2_PREDIV1_DIV10  /*!< PREDIV1 input clock divide
 464:Drivers/STM32F1xx_HAL_Driver/Inc/stm32f1xx_ll_rcc.h **** #define LL_RCC_PREDIV_DIV_11               RCC_CFGR2_PREDIV1_DIV11  /*!< PREDIV1 input clock divide
 465:Drivers/STM32F1xx_HAL_Driver/Inc/stm32f1xx_ll_rcc.h **** #define LL_RCC_PREDIV_DIV_12               RCC_CFGR2_PREDIV1_DIV12  /*!< PREDIV1 input clock divide
 466:Drivers/STM32F1xx_HAL_Driver/Inc/stm32f1xx_ll_rcc.h **** #define LL_RCC_PREDIV_DIV_13               RCC_CFGR2_PREDIV1_DIV13  /*!< PREDIV1 input clock divide
 467:Drivers/STM32F1xx_HAL_Driver/Inc/stm32f1xx_ll_rcc.h **** #define LL_RCC_PREDIV_DIV_14               RCC_CFGR2_PREDIV1_DIV14  /*!< PREDIV1 input clock divide
 468:Drivers/STM32F1xx_HAL_Driver/Inc/stm32f1xx_ll_rcc.h **** #define LL_RCC_PREDIV_DIV_15               RCC_CFGR2_PREDIV1_DIV15  /*!< PREDIV1 input clock divide
 469:Drivers/STM32F1xx_HAL_Driver/Inc/stm32f1xx_ll_rcc.h **** #define LL_RCC_PREDIV_DIV_16               RCC_CFGR2_PREDIV1_DIV16  /*!< PREDIV1 input clock divide
 470:Drivers/STM32F1xx_HAL_Driver/Inc/stm32f1xx_ll_rcc.h **** #else
 471:Drivers/STM32F1xx_HAL_Driver/Inc/stm32f1xx_ll_rcc.h **** #define LL_RCC_PREDIV_DIV_1                0x00000000U              /*!< HSE divider clock clock no
 472:Drivers/STM32F1xx_HAL_Driver/Inc/stm32f1xx_ll_rcc.h **** #define LL_RCC_PREDIV_DIV_2                RCC_CFGR_PLLXTPRE        /*!< HSE divider clock divided 
 473:Drivers/STM32F1xx_HAL_Driver/Inc/stm32f1xx_ll_rcc.h **** #endif /*RCC_CFGR2_PREDIV1*/
 474:Drivers/STM32F1xx_HAL_Driver/Inc/stm32f1xx_ll_rcc.h **** /**
 475:Drivers/STM32F1xx_HAL_Driver/Inc/stm32f1xx_ll_rcc.h ****   * @}
 476:Drivers/STM32F1xx_HAL_Driver/Inc/stm32f1xx_ll_rcc.h ****   */
 477:Drivers/STM32F1xx_HAL_Driver/Inc/stm32f1xx_ll_rcc.h **** 
 478:Drivers/STM32F1xx_HAL_Driver/Inc/stm32f1xx_ll_rcc.h **** #if defined(RCC_PLLI2S_SUPPORT)
 479:Drivers/STM32F1xx_HAL_Driver/Inc/stm32f1xx_ll_rcc.h **** /** @defgroup RCC_LL_EC_PLLI2S_MUL PLLI2S MUL
 480:Drivers/STM32F1xx_HAL_Driver/Inc/stm32f1xx_ll_rcc.h ****   * @{
 481:Drivers/STM32F1xx_HAL_Driver/Inc/stm32f1xx_ll_rcc.h ****   */
 482:Drivers/STM32F1xx_HAL_Driver/Inc/stm32f1xx_ll_rcc.h **** #define LL_RCC_PLLI2S_MUL_8                RCC_CFGR2_PLL3MUL8   /*!< PLLI2S input clock * 8 */
 483:Drivers/STM32F1xx_HAL_Driver/Inc/stm32f1xx_ll_rcc.h **** #define LL_RCC_PLLI2S_MUL_9                RCC_CFGR2_PLL3MUL9   /*!< PLLI2S input clock * 9 */
 484:Drivers/STM32F1xx_HAL_Driver/Inc/stm32f1xx_ll_rcc.h **** #define LL_RCC_PLLI2S_MUL_10               RCC_CFGR2_PLL3MUL10  /*!< PLLI2S input clock * 10 */
 485:Drivers/STM32F1xx_HAL_Driver/Inc/stm32f1xx_ll_rcc.h **** #define LL_RCC_PLLI2S_MUL_11               RCC_CFGR2_PLL3MUL11  /*!< PLLI2S input clock * 11 */
 486:Drivers/STM32F1xx_HAL_Driver/Inc/stm32f1xx_ll_rcc.h **** #define LL_RCC_PLLI2S_MUL_12               RCC_CFGR2_PLL3MUL12  /*!< PLLI2S input clock * 12 */
 487:Drivers/STM32F1xx_HAL_Driver/Inc/stm32f1xx_ll_rcc.h **** #define LL_RCC_PLLI2S_MUL_13               RCC_CFGR2_PLL3MUL13  /*!< PLLI2S input clock * 13 */
 488:Drivers/STM32F1xx_HAL_Driver/Inc/stm32f1xx_ll_rcc.h **** #define LL_RCC_PLLI2S_MUL_14               RCC_CFGR2_PLL3MUL14  /*!< PLLI2S input clock * 14 */
 489:Drivers/STM32F1xx_HAL_Driver/Inc/stm32f1xx_ll_rcc.h **** #define LL_RCC_PLLI2S_MUL_16               RCC_CFGR2_PLL3MUL16  /*!< PLLI2S input clock * 16 */
ARM GAS  /tmp/ccLXhlQB.s 			page 23


 490:Drivers/STM32F1xx_HAL_Driver/Inc/stm32f1xx_ll_rcc.h **** #define LL_RCC_PLLI2S_MUL_20               RCC_CFGR2_PLL3MUL20  /*!< PLLI2S input clock * 20 */
 491:Drivers/STM32F1xx_HAL_Driver/Inc/stm32f1xx_ll_rcc.h **** /**
 492:Drivers/STM32F1xx_HAL_Driver/Inc/stm32f1xx_ll_rcc.h ****   * @}
 493:Drivers/STM32F1xx_HAL_Driver/Inc/stm32f1xx_ll_rcc.h ****   */
 494:Drivers/STM32F1xx_HAL_Driver/Inc/stm32f1xx_ll_rcc.h **** 
 495:Drivers/STM32F1xx_HAL_Driver/Inc/stm32f1xx_ll_rcc.h **** #endif /* RCC_PLLI2S_SUPPORT */
 496:Drivers/STM32F1xx_HAL_Driver/Inc/stm32f1xx_ll_rcc.h **** 
 497:Drivers/STM32F1xx_HAL_Driver/Inc/stm32f1xx_ll_rcc.h **** #if defined(RCC_PLL2_SUPPORT)
 498:Drivers/STM32F1xx_HAL_Driver/Inc/stm32f1xx_ll_rcc.h **** /** @defgroup RCC_LL_EC_PLL2_MUL PLL2 MUL
 499:Drivers/STM32F1xx_HAL_Driver/Inc/stm32f1xx_ll_rcc.h ****   * @{
 500:Drivers/STM32F1xx_HAL_Driver/Inc/stm32f1xx_ll_rcc.h ****   */
 501:Drivers/STM32F1xx_HAL_Driver/Inc/stm32f1xx_ll_rcc.h **** #define LL_RCC_PLL2_MUL_8                  RCC_CFGR2_PLL2MUL8   /*!< PLL2 input clock * 8 */
 502:Drivers/STM32F1xx_HAL_Driver/Inc/stm32f1xx_ll_rcc.h **** #define LL_RCC_PLL2_MUL_9                  RCC_CFGR2_PLL2MUL9   /*!< PLL2 input clock * 9 */
 503:Drivers/STM32F1xx_HAL_Driver/Inc/stm32f1xx_ll_rcc.h **** #define LL_RCC_PLL2_MUL_10                 RCC_CFGR2_PLL2MUL10  /*!< PLL2 input clock * 10 */
 504:Drivers/STM32F1xx_HAL_Driver/Inc/stm32f1xx_ll_rcc.h **** #define LL_RCC_PLL2_MUL_11                 RCC_CFGR2_PLL2MUL11  /*!< PLL2 input clock * 11 */
 505:Drivers/STM32F1xx_HAL_Driver/Inc/stm32f1xx_ll_rcc.h **** #define LL_RCC_PLL2_MUL_12                 RCC_CFGR2_PLL2MUL12  /*!< PLL2 input clock * 12 */
 506:Drivers/STM32F1xx_HAL_Driver/Inc/stm32f1xx_ll_rcc.h **** #define LL_RCC_PLL2_MUL_13                 RCC_CFGR2_PLL2MUL13  /*!< PLL2 input clock * 13 */
 507:Drivers/STM32F1xx_HAL_Driver/Inc/stm32f1xx_ll_rcc.h **** #define LL_RCC_PLL2_MUL_14                 RCC_CFGR2_PLL2MUL14  /*!< PLL2 input clock * 14 */
 508:Drivers/STM32F1xx_HAL_Driver/Inc/stm32f1xx_ll_rcc.h **** #define LL_RCC_PLL2_MUL_16                 RCC_CFGR2_PLL2MUL16  /*!< PLL2 input clock * 16 */
 509:Drivers/STM32F1xx_HAL_Driver/Inc/stm32f1xx_ll_rcc.h **** #define LL_RCC_PLL2_MUL_20                 RCC_CFGR2_PLL2MUL20  /*!< PLL2 input clock * 20 */
 510:Drivers/STM32F1xx_HAL_Driver/Inc/stm32f1xx_ll_rcc.h **** /**
 511:Drivers/STM32F1xx_HAL_Driver/Inc/stm32f1xx_ll_rcc.h ****   * @}
 512:Drivers/STM32F1xx_HAL_Driver/Inc/stm32f1xx_ll_rcc.h ****   */
 513:Drivers/STM32F1xx_HAL_Driver/Inc/stm32f1xx_ll_rcc.h **** 
 514:Drivers/STM32F1xx_HAL_Driver/Inc/stm32f1xx_ll_rcc.h **** #endif /* RCC_PLL2_SUPPORT */
 515:Drivers/STM32F1xx_HAL_Driver/Inc/stm32f1xx_ll_rcc.h **** 
 516:Drivers/STM32F1xx_HAL_Driver/Inc/stm32f1xx_ll_rcc.h **** /**
 517:Drivers/STM32F1xx_HAL_Driver/Inc/stm32f1xx_ll_rcc.h ****   * @}
 518:Drivers/STM32F1xx_HAL_Driver/Inc/stm32f1xx_ll_rcc.h ****   */
 519:Drivers/STM32F1xx_HAL_Driver/Inc/stm32f1xx_ll_rcc.h **** 
 520:Drivers/STM32F1xx_HAL_Driver/Inc/stm32f1xx_ll_rcc.h **** /* Exported macro ------------------------------------------------------------*/
 521:Drivers/STM32F1xx_HAL_Driver/Inc/stm32f1xx_ll_rcc.h **** /** @defgroup RCC_LL_Exported_Macros RCC Exported Macros
 522:Drivers/STM32F1xx_HAL_Driver/Inc/stm32f1xx_ll_rcc.h ****   * @{
 523:Drivers/STM32F1xx_HAL_Driver/Inc/stm32f1xx_ll_rcc.h ****   */
 524:Drivers/STM32F1xx_HAL_Driver/Inc/stm32f1xx_ll_rcc.h **** 
 525:Drivers/STM32F1xx_HAL_Driver/Inc/stm32f1xx_ll_rcc.h **** /** @defgroup RCC_LL_EM_WRITE_READ Common Write and read registers Macros
 526:Drivers/STM32F1xx_HAL_Driver/Inc/stm32f1xx_ll_rcc.h ****   * @{
 527:Drivers/STM32F1xx_HAL_Driver/Inc/stm32f1xx_ll_rcc.h ****   */
 528:Drivers/STM32F1xx_HAL_Driver/Inc/stm32f1xx_ll_rcc.h **** 
 529:Drivers/STM32F1xx_HAL_Driver/Inc/stm32f1xx_ll_rcc.h **** /**
 530:Drivers/STM32F1xx_HAL_Driver/Inc/stm32f1xx_ll_rcc.h ****   * @brief  Write a value in RCC register
 531:Drivers/STM32F1xx_HAL_Driver/Inc/stm32f1xx_ll_rcc.h ****   * @param  __REG__ Register to be written
 532:Drivers/STM32F1xx_HAL_Driver/Inc/stm32f1xx_ll_rcc.h ****   * @param  __VALUE__ Value to be written in the register
 533:Drivers/STM32F1xx_HAL_Driver/Inc/stm32f1xx_ll_rcc.h ****   * @retval None
 534:Drivers/STM32F1xx_HAL_Driver/Inc/stm32f1xx_ll_rcc.h ****   */
 535:Drivers/STM32F1xx_HAL_Driver/Inc/stm32f1xx_ll_rcc.h **** #define LL_RCC_WriteReg(__REG__, __VALUE__) WRITE_REG(RCC->__REG__, (__VALUE__))
 536:Drivers/STM32F1xx_HAL_Driver/Inc/stm32f1xx_ll_rcc.h **** 
 537:Drivers/STM32F1xx_HAL_Driver/Inc/stm32f1xx_ll_rcc.h **** /**
 538:Drivers/STM32F1xx_HAL_Driver/Inc/stm32f1xx_ll_rcc.h ****   * @brief  Read a value in RCC register
 539:Drivers/STM32F1xx_HAL_Driver/Inc/stm32f1xx_ll_rcc.h ****   * @param  __REG__ Register to be read
 540:Drivers/STM32F1xx_HAL_Driver/Inc/stm32f1xx_ll_rcc.h ****   * @retval Register value
 541:Drivers/STM32F1xx_HAL_Driver/Inc/stm32f1xx_ll_rcc.h ****   */
 542:Drivers/STM32F1xx_HAL_Driver/Inc/stm32f1xx_ll_rcc.h **** #define LL_RCC_ReadReg(__REG__) READ_REG(RCC->__REG__)
 543:Drivers/STM32F1xx_HAL_Driver/Inc/stm32f1xx_ll_rcc.h **** /**
 544:Drivers/STM32F1xx_HAL_Driver/Inc/stm32f1xx_ll_rcc.h ****   * @}
 545:Drivers/STM32F1xx_HAL_Driver/Inc/stm32f1xx_ll_rcc.h ****   */
 546:Drivers/STM32F1xx_HAL_Driver/Inc/stm32f1xx_ll_rcc.h **** 
ARM GAS  /tmp/ccLXhlQB.s 			page 24


 547:Drivers/STM32F1xx_HAL_Driver/Inc/stm32f1xx_ll_rcc.h **** /** @defgroup RCC_LL_EM_CALC_FREQ Calculate frequencies
 548:Drivers/STM32F1xx_HAL_Driver/Inc/stm32f1xx_ll_rcc.h ****   * @{
 549:Drivers/STM32F1xx_HAL_Driver/Inc/stm32f1xx_ll_rcc.h ****   */
 550:Drivers/STM32F1xx_HAL_Driver/Inc/stm32f1xx_ll_rcc.h **** 
 551:Drivers/STM32F1xx_HAL_Driver/Inc/stm32f1xx_ll_rcc.h **** #if defined(RCC_CFGR_PLLMULL6_5)
 552:Drivers/STM32F1xx_HAL_Driver/Inc/stm32f1xx_ll_rcc.h **** /**
 553:Drivers/STM32F1xx_HAL_Driver/Inc/stm32f1xx_ll_rcc.h ****   * @brief  Helper macro to calculate the PLLCLK frequency
 554:Drivers/STM32F1xx_HAL_Driver/Inc/stm32f1xx_ll_rcc.h ****   * @note ex: @ref __LL_RCC_CALC_PLLCLK_FREQ (HSE_VALUE / (@ref LL_RCC_PLL_GetPrediv () + 1), @ref 
 555:Drivers/STM32F1xx_HAL_Driver/Inc/stm32f1xx_ll_rcc.h ****   * @param  __INPUTFREQ__ PLL Input frequency (based on HSE div Prediv1 / HSI div 2 / PLL2 div Pred
 556:Drivers/STM32F1xx_HAL_Driver/Inc/stm32f1xx_ll_rcc.h ****   * @param  __PLLMUL__: This parameter can be one of the following values:
 557:Drivers/STM32F1xx_HAL_Driver/Inc/stm32f1xx_ll_rcc.h ****   *         @arg @ref LL_RCC_PLL_MUL_4
 558:Drivers/STM32F1xx_HAL_Driver/Inc/stm32f1xx_ll_rcc.h ****   *         @arg @ref LL_RCC_PLL_MUL_5
 559:Drivers/STM32F1xx_HAL_Driver/Inc/stm32f1xx_ll_rcc.h ****   *         @arg @ref LL_RCC_PLL_MUL_6
 560:Drivers/STM32F1xx_HAL_Driver/Inc/stm32f1xx_ll_rcc.h ****   *         @arg @ref LL_RCC_PLL_MUL_7
 561:Drivers/STM32F1xx_HAL_Driver/Inc/stm32f1xx_ll_rcc.h ****   *         @arg @ref LL_RCC_PLL_MUL_8
 562:Drivers/STM32F1xx_HAL_Driver/Inc/stm32f1xx_ll_rcc.h ****   *         @arg @ref LL_RCC_PLL_MUL_9
 563:Drivers/STM32F1xx_HAL_Driver/Inc/stm32f1xx_ll_rcc.h ****   *         @arg @ref LL_RCC_PLL_MUL_6_5
 564:Drivers/STM32F1xx_HAL_Driver/Inc/stm32f1xx_ll_rcc.h ****   * @retval PLL clock frequency (in Hz)
 565:Drivers/STM32F1xx_HAL_Driver/Inc/stm32f1xx_ll_rcc.h ****   */
 566:Drivers/STM32F1xx_HAL_Driver/Inc/stm32f1xx_ll_rcc.h **** #define __LL_RCC_CALC_PLLCLK_FREQ(__INPUTFREQ__, __PLLMUL__) \
 567:Drivers/STM32F1xx_HAL_Driver/Inc/stm32f1xx_ll_rcc.h ****           (((__PLLMUL__) != RCC_CFGR_PLLMULL6_5) ? \
 568:Drivers/STM32F1xx_HAL_Driver/Inc/stm32f1xx_ll_rcc.h ****               ((__INPUTFREQ__) * ((((__PLLMUL__) & RCC_CFGR_PLLMULL) >> RCC_CFGR_PLLMULL_Pos) + 2U)
 569:Drivers/STM32F1xx_HAL_Driver/Inc/stm32f1xx_ll_rcc.h ****               (((__INPUTFREQ__) * 13U) / 2U))
 570:Drivers/STM32F1xx_HAL_Driver/Inc/stm32f1xx_ll_rcc.h **** 
 571:Drivers/STM32F1xx_HAL_Driver/Inc/stm32f1xx_ll_rcc.h **** #else
 572:Drivers/STM32F1xx_HAL_Driver/Inc/stm32f1xx_ll_rcc.h **** /**
 573:Drivers/STM32F1xx_HAL_Driver/Inc/stm32f1xx_ll_rcc.h ****   * @brief  Helper macro to calculate the PLLCLK frequency
 574:Drivers/STM32F1xx_HAL_Driver/Inc/stm32f1xx_ll_rcc.h ****   * @note ex: @ref __LL_RCC_CALC_PLLCLK_FREQ (HSE_VALUE / (@ref LL_RCC_PLL_GetPrediv () + 1), @ref 
 575:Drivers/STM32F1xx_HAL_Driver/Inc/stm32f1xx_ll_rcc.h ****   * @param  __INPUTFREQ__ PLL Input frequency (based on HSE div Prediv1 or div 2 / HSI div 2)
 576:Drivers/STM32F1xx_HAL_Driver/Inc/stm32f1xx_ll_rcc.h ****   * @param  __PLLMUL__: This parameter can be one of the following values:
 577:Drivers/STM32F1xx_HAL_Driver/Inc/stm32f1xx_ll_rcc.h ****   *         @arg @ref LL_RCC_PLL_MUL_2
 578:Drivers/STM32F1xx_HAL_Driver/Inc/stm32f1xx_ll_rcc.h ****   *         @arg @ref LL_RCC_PLL_MUL_3
 579:Drivers/STM32F1xx_HAL_Driver/Inc/stm32f1xx_ll_rcc.h ****   *         @arg @ref LL_RCC_PLL_MUL_4
 580:Drivers/STM32F1xx_HAL_Driver/Inc/stm32f1xx_ll_rcc.h ****   *         @arg @ref LL_RCC_PLL_MUL_5
 581:Drivers/STM32F1xx_HAL_Driver/Inc/stm32f1xx_ll_rcc.h ****   *         @arg @ref LL_RCC_PLL_MUL_6
 582:Drivers/STM32F1xx_HAL_Driver/Inc/stm32f1xx_ll_rcc.h ****   *         @arg @ref LL_RCC_PLL_MUL_7
 583:Drivers/STM32F1xx_HAL_Driver/Inc/stm32f1xx_ll_rcc.h ****   *         @arg @ref LL_RCC_PLL_MUL_8
 584:Drivers/STM32F1xx_HAL_Driver/Inc/stm32f1xx_ll_rcc.h ****   *         @arg @ref LL_RCC_PLL_MUL_9
 585:Drivers/STM32F1xx_HAL_Driver/Inc/stm32f1xx_ll_rcc.h ****   *         @arg @ref LL_RCC_PLL_MUL_10
 586:Drivers/STM32F1xx_HAL_Driver/Inc/stm32f1xx_ll_rcc.h ****   *         @arg @ref LL_RCC_PLL_MUL_11
 587:Drivers/STM32F1xx_HAL_Driver/Inc/stm32f1xx_ll_rcc.h ****   *         @arg @ref LL_RCC_PLL_MUL_12
 588:Drivers/STM32F1xx_HAL_Driver/Inc/stm32f1xx_ll_rcc.h ****   *         @arg @ref LL_RCC_PLL_MUL_13
 589:Drivers/STM32F1xx_HAL_Driver/Inc/stm32f1xx_ll_rcc.h ****   *         @arg @ref LL_RCC_PLL_MUL_14
 590:Drivers/STM32F1xx_HAL_Driver/Inc/stm32f1xx_ll_rcc.h ****   *         @arg @ref LL_RCC_PLL_MUL_15
 591:Drivers/STM32F1xx_HAL_Driver/Inc/stm32f1xx_ll_rcc.h ****   *         @arg @ref LL_RCC_PLL_MUL_16
 592:Drivers/STM32F1xx_HAL_Driver/Inc/stm32f1xx_ll_rcc.h ****   * @retval PLL clock frequency (in Hz)
 593:Drivers/STM32F1xx_HAL_Driver/Inc/stm32f1xx_ll_rcc.h ****   */
 594:Drivers/STM32F1xx_HAL_Driver/Inc/stm32f1xx_ll_rcc.h **** #define __LL_RCC_CALC_PLLCLK_FREQ(__INPUTFREQ__, __PLLMUL__) ((__INPUTFREQ__) * (((__PLLMUL__) >> R
 595:Drivers/STM32F1xx_HAL_Driver/Inc/stm32f1xx_ll_rcc.h **** #endif /* RCC_CFGR_PLLMULL6_5 */
 596:Drivers/STM32F1xx_HAL_Driver/Inc/stm32f1xx_ll_rcc.h **** 
 597:Drivers/STM32F1xx_HAL_Driver/Inc/stm32f1xx_ll_rcc.h **** #if defined(RCC_PLLI2S_SUPPORT)
 598:Drivers/STM32F1xx_HAL_Driver/Inc/stm32f1xx_ll_rcc.h **** /**
 599:Drivers/STM32F1xx_HAL_Driver/Inc/stm32f1xx_ll_rcc.h ****   * @brief  Helper macro to calculate the PLLI2S frequency
 600:Drivers/STM32F1xx_HAL_Driver/Inc/stm32f1xx_ll_rcc.h ****   * @note ex: @ref __LL_RCC_CALC_PLLI2SCLK_FREQ (HSE_VALUE, @ref LL_RCC_PLLI2S_GetMultiplicator (),
 601:Drivers/STM32F1xx_HAL_Driver/Inc/stm32f1xx_ll_rcc.h ****   * @param  __INPUTFREQ__ PLLI2S Input frequency (based on HSE value)
 602:Drivers/STM32F1xx_HAL_Driver/Inc/stm32f1xx_ll_rcc.h ****   * @param  __PLLI2SMUL__: This parameter can be one of the following values:
 603:Drivers/STM32F1xx_HAL_Driver/Inc/stm32f1xx_ll_rcc.h ****   *         @arg @ref LL_RCC_PLLI2S_MUL_8
ARM GAS  /tmp/ccLXhlQB.s 			page 25


 604:Drivers/STM32F1xx_HAL_Driver/Inc/stm32f1xx_ll_rcc.h ****   *         @arg @ref LL_RCC_PLLI2S_MUL_9
 605:Drivers/STM32F1xx_HAL_Driver/Inc/stm32f1xx_ll_rcc.h ****   *         @arg @ref LL_RCC_PLLI2S_MUL_10
 606:Drivers/STM32F1xx_HAL_Driver/Inc/stm32f1xx_ll_rcc.h ****   *         @arg @ref LL_RCC_PLLI2S_MUL_11
 607:Drivers/STM32F1xx_HAL_Driver/Inc/stm32f1xx_ll_rcc.h ****   *         @arg @ref LL_RCC_PLLI2S_MUL_12
 608:Drivers/STM32F1xx_HAL_Driver/Inc/stm32f1xx_ll_rcc.h ****   *         @arg @ref LL_RCC_PLLI2S_MUL_13
 609:Drivers/STM32F1xx_HAL_Driver/Inc/stm32f1xx_ll_rcc.h ****   *         @arg @ref LL_RCC_PLLI2S_MUL_14
 610:Drivers/STM32F1xx_HAL_Driver/Inc/stm32f1xx_ll_rcc.h ****   *         @arg @ref LL_RCC_PLLI2S_MUL_16
 611:Drivers/STM32F1xx_HAL_Driver/Inc/stm32f1xx_ll_rcc.h ****   *         @arg @ref LL_RCC_PLLI2S_MUL_20
 612:Drivers/STM32F1xx_HAL_Driver/Inc/stm32f1xx_ll_rcc.h ****   * @param  __PLLI2SDIV__: This parameter can be one of the following values:
 613:Drivers/STM32F1xx_HAL_Driver/Inc/stm32f1xx_ll_rcc.h ****   *         @arg @ref LL_RCC_HSE_PREDIV2_DIV_1
 614:Drivers/STM32F1xx_HAL_Driver/Inc/stm32f1xx_ll_rcc.h ****   *         @arg @ref LL_RCC_HSE_PREDIV2_DIV_2
 615:Drivers/STM32F1xx_HAL_Driver/Inc/stm32f1xx_ll_rcc.h ****   *         @arg @ref LL_RCC_HSE_PREDIV2_DIV_3
 616:Drivers/STM32F1xx_HAL_Driver/Inc/stm32f1xx_ll_rcc.h ****   *         @arg @ref LL_RCC_HSE_PREDIV2_DIV_4
 617:Drivers/STM32F1xx_HAL_Driver/Inc/stm32f1xx_ll_rcc.h ****   *         @arg @ref LL_RCC_HSE_PREDIV2_DIV_5
 618:Drivers/STM32F1xx_HAL_Driver/Inc/stm32f1xx_ll_rcc.h ****   *         @arg @ref LL_RCC_HSE_PREDIV2_DIV_6
 619:Drivers/STM32F1xx_HAL_Driver/Inc/stm32f1xx_ll_rcc.h ****   *         @arg @ref LL_RCC_HSE_PREDIV2_DIV_7
 620:Drivers/STM32F1xx_HAL_Driver/Inc/stm32f1xx_ll_rcc.h ****   *         @arg @ref LL_RCC_HSE_PREDIV2_DIV_8
 621:Drivers/STM32F1xx_HAL_Driver/Inc/stm32f1xx_ll_rcc.h ****   *         @arg @ref LL_RCC_HSE_PREDIV2_DIV_9
 622:Drivers/STM32F1xx_HAL_Driver/Inc/stm32f1xx_ll_rcc.h ****   *         @arg @ref LL_RCC_HSE_PREDIV2_DIV_10
 623:Drivers/STM32F1xx_HAL_Driver/Inc/stm32f1xx_ll_rcc.h ****   *         @arg @ref LL_RCC_HSE_PREDIV2_DIV_11
 624:Drivers/STM32F1xx_HAL_Driver/Inc/stm32f1xx_ll_rcc.h ****   *         @arg @ref LL_RCC_HSE_PREDIV2_DIV_12
 625:Drivers/STM32F1xx_HAL_Driver/Inc/stm32f1xx_ll_rcc.h ****   *         @arg @ref LL_RCC_HSE_PREDIV2_DIV_13
 626:Drivers/STM32F1xx_HAL_Driver/Inc/stm32f1xx_ll_rcc.h ****   *         @arg @ref LL_RCC_HSE_PREDIV2_DIV_14
 627:Drivers/STM32F1xx_HAL_Driver/Inc/stm32f1xx_ll_rcc.h ****   *         @arg @ref LL_RCC_HSE_PREDIV2_DIV_15
 628:Drivers/STM32F1xx_HAL_Driver/Inc/stm32f1xx_ll_rcc.h ****   *         @arg @ref LL_RCC_HSE_PREDIV2_DIV_16
 629:Drivers/STM32F1xx_HAL_Driver/Inc/stm32f1xx_ll_rcc.h ****   * @retval PLLI2S clock frequency (in Hz)
 630:Drivers/STM32F1xx_HAL_Driver/Inc/stm32f1xx_ll_rcc.h ****   */
 631:Drivers/STM32F1xx_HAL_Driver/Inc/stm32f1xx_ll_rcc.h **** #define __LL_RCC_CALC_PLLI2SCLK_FREQ(__INPUTFREQ__, __PLLI2SMUL__, __PLLI2SDIV__) (((__INPUTFREQ__)
 632:Drivers/STM32F1xx_HAL_Driver/Inc/stm32f1xx_ll_rcc.h **** #endif /* RCC_PLLI2S_SUPPORT */
 633:Drivers/STM32F1xx_HAL_Driver/Inc/stm32f1xx_ll_rcc.h **** 
 634:Drivers/STM32F1xx_HAL_Driver/Inc/stm32f1xx_ll_rcc.h **** #if defined(RCC_PLL2_SUPPORT)
 635:Drivers/STM32F1xx_HAL_Driver/Inc/stm32f1xx_ll_rcc.h **** /**
 636:Drivers/STM32F1xx_HAL_Driver/Inc/stm32f1xx_ll_rcc.h ****   * @brief  Helper macro to calculate the PLL2 frequency
 637:Drivers/STM32F1xx_HAL_Driver/Inc/stm32f1xx_ll_rcc.h ****   * @note ex: @ref __LL_RCC_CALC_PLL2CLK_FREQ (HSE_VALUE, @ref LL_RCC_PLL2_GetMultiplicator (), @re
 638:Drivers/STM32F1xx_HAL_Driver/Inc/stm32f1xx_ll_rcc.h ****   * @param  __INPUTFREQ__ PLL2 Input frequency (based on HSE value)
 639:Drivers/STM32F1xx_HAL_Driver/Inc/stm32f1xx_ll_rcc.h ****   * @param  __PLL2MUL__: This parameter can be one of the following values:
 640:Drivers/STM32F1xx_HAL_Driver/Inc/stm32f1xx_ll_rcc.h ****   *         @arg @ref LL_RCC_PLL2_MUL_8
 641:Drivers/STM32F1xx_HAL_Driver/Inc/stm32f1xx_ll_rcc.h ****   *         @arg @ref LL_RCC_PLL2_MUL_9
 642:Drivers/STM32F1xx_HAL_Driver/Inc/stm32f1xx_ll_rcc.h ****   *         @arg @ref LL_RCC_PLL2_MUL_10
 643:Drivers/STM32F1xx_HAL_Driver/Inc/stm32f1xx_ll_rcc.h ****   *         @arg @ref LL_RCC_PLL2_MUL_11
 644:Drivers/STM32F1xx_HAL_Driver/Inc/stm32f1xx_ll_rcc.h ****   *         @arg @ref LL_RCC_PLL2_MUL_12
 645:Drivers/STM32F1xx_HAL_Driver/Inc/stm32f1xx_ll_rcc.h ****   *         @arg @ref LL_RCC_PLL2_MUL_13
 646:Drivers/STM32F1xx_HAL_Driver/Inc/stm32f1xx_ll_rcc.h ****   *         @arg @ref LL_RCC_PLL2_MUL_14
 647:Drivers/STM32F1xx_HAL_Driver/Inc/stm32f1xx_ll_rcc.h ****   *         @arg @ref LL_RCC_PLL2_MUL_16
 648:Drivers/STM32F1xx_HAL_Driver/Inc/stm32f1xx_ll_rcc.h ****   *         @arg @ref LL_RCC_PLL2_MUL_20
 649:Drivers/STM32F1xx_HAL_Driver/Inc/stm32f1xx_ll_rcc.h ****   * @param  __PLL2DIV__: This parameter can be one of the following values:
 650:Drivers/STM32F1xx_HAL_Driver/Inc/stm32f1xx_ll_rcc.h ****   *         @arg @ref LL_RCC_HSE_PREDIV2_DIV_1
 651:Drivers/STM32F1xx_HAL_Driver/Inc/stm32f1xx_ll_rcc.h ****   *         @arg @ref LL_RCC_HSE_PREDIV2_DIV_2
 652:Drivers/STM32F1xx_HAL_Driver/Inc/stm32f1xx_ll_rcc.h ****   *         @arg @ref LL_RCC_HSE_PREDIV2_DIV_3
 653:Drivers/STM32F1xx_HAL_Driver/Inc/stm32f1xx_ll_rcc.h ****   *         @arg @ref LL_RCC_HSE_PREDIV2_DIV_4
 654:Drivers/STM32F1xx_HAL_Driver/Inc/stm32f1xx_ll_rcc.h ****   *         @arg @ref LL_RCC_HSE_PREDIV2_DIV_5
 655:Drivers/STM32F1xx_HAL_Driver/Inc/stm32f1xx_ll_rcc.h ****   *         @arg @ref LL_RCC_HSE_PREDIV2_DIV_6
 656:Drivers/STM32F1xx_HAL_Driver/Inc/stm32f1xx_ll_rcc.h ****   *         @arg @ref LL_RCC_HSE_PREDIV2_DIV_7
 657:Drivers/STM32F1xx_HAL_Driver/Inc/stm32f1xx_ll_rcc.h ****   *         @arg @ref LL_RCC_HSE_PREDIV2_DIV_8
 658:Drivers/STM32F1xx_HAL_Driver/Inc/stm32f1xx_ll_rcc.h ****   *         @arg @ref LL_RCC_HSE_PREDIV2_DIV_9
 659:Drivers/STM32F1xx_HAL_Driver/Inc/stm32f1xx_ll_rcc.h ****   *         @arg @ref LL_RCC_HSE_PREDIV2_DIV_10
 660:Drivers/STM32F1xx_HAL_Driver/Inc/stm32f1xx_ll_rcc.h ****   *         @arg @ref LL_RCC_HSE_PREDIV2_DIV_11
ARM GAS  /tmp/ccLXhlQB.s 			page 26


 661:Drivers/STM32F1xx_HAL_Driver/Inc/stm32f1xx_ll_rcc.h ****   *         @arg @ref LL_RCC_HSE_PREDIV2_DIV_12
 662:Drivers/STM32F1xx_HAL_Driver/Inc/stm32f1xx_ll_rcc.h ****   *         @arg @ref LL_RCC_HSE_PREDIV2_DIV_13
 663:Drivers/STM32F1xx_HAL_Driver/Inc/stm32f1xx_ll_rcc.h ****   *         @arg @ref LL_RCC_HSE_PREDIV2_DIV_14
 664:Drivers/STM32F1xx_HAL_Driver/Inc/stm32f1xx_ll_rcc.h ****   *         @arg @ref LL_RCC_HSE_PREDIV2_DIV_15
 665:Drivers/STM32F1xx_HAL_Driver/Inc/stm32f1xx_ll_rcc.h ****   *         @arg @ref LL_RCC_HSE_PREDIV2_DIV_16
 666:Drivers/STM32F1xx_HAL_Driver/Inc/stm32f1xx_ll_rcc.h ****   * @retval PLL2 clock frequency (in Hz)
 667:Drivers/STM32F1xx_HAL_Driver/Inc/stm32f1xx_ll_rcc.h ****   */
 668:Drivers/STM32F1xx_HAL_Driver/Inc/stm32f1xx_ll_rcc.h **** #define __LL_RCC_CALC_PLL2CLK_FREQ(__INPUTFREQ__, __PLL2MUL__, __PLL2DIV__) (((__INPUTFREQ__) * (((
 669:Drivers/STM32F1xx_HAL_Driver/Inc/stm32f1xx_ll_rcc.h **** #endif /* RCC_PLL2_SUPPORT */
 670:Drivers/STM32F1xx_HAL_Driver/Inc/stm32f1xx_ll_rcc.h **** 
 671:Drivers/STM32F1xx_HAL_Driver/Inc/stm32f1xx_ll_rcc.h **** /**
 672:Drivers/STM32F1xx_HAL_Driver/Inc/stm32f1xx_ll_rcc.h ****   * @brief  Helper macro to calculate the HCLK frequency
 673:Drivers/STM32F1xx_HAL_Driver/Inc/stm32f1xx_ll_rcc.h ****   * @note: __AHBPRESCALER__ be retrieved by @ref LL_RCC_GetAHBPrescaler
 674:Drivers/STM32F1xx_HAL_Driver/Inc/stm32f1xx_ll_rcc.h ****   *        ex: __LL_RCC_CALC_HCLK_FREQ(LL_RCC_GetAHBPrescaler())
 675:Drivers/STM32F1xx_HAL_Driver/Inc/stm32f1xx_ll_rcc.h ****   * @param  __SYSCLKFREQ__ SYSCLK frequency (based on HSE/HSI/PLLCLK)
 676:Drivers/STM32F1xx_HAL_Driver/Inc/stm32f1xx_ll_rcc.h ****   * @param  __AHBPRESCALER__: This parameter can be one of the following values:
 677:Drivers/STM32F1xx_HAL_Driver/Inc/stm32f1xx_ll_rcc.h ****   *         @arg @ref LL_RCC_SYSCLK_DIV_1
 678:Drivers/STM32F1xx_HAL_Driver/Inc/stm32f1xx_ll_rcc.h ****   *         @arg @ref LL_RCC_SYSCLK_DIV_2
 679:Drivers/STM32F1xx_HAL_Driver/Inc/stm32f1xx_ll_rcc.h ****   *         @arg @ref LL_RCC_SYSCLK_DIV_4
 680:Drivers/STM32F1xx_HAL_Driver/Inc/stm32f1xx_ll_rcc.h ****   *         @arg @ref LL_RCC_SYSCLK_DIV_8
 681:Drivers/STM32F1xx_HAL_Driver/Inc/stm32f1xx_ll_rcc.h ****   *         @arg @ref LL_RCC_SYSCLK_DIV_16
 682:Drivers/STM32F1xx_HAL_Driver/Inc/stm32f1xx_ll_rcc.h ****   *         @arg @ref LL_RCC_SYSCLK_DIV_64
 683:Drivers/STM32F1xx_HAL_Driver/Inc/stm32f1xx_ll_rcc.h ****   *         @arg @ref LL_RCC_SYSCLK_DIV_128
 684:Drivers/STM32F1xx_HAL_Driver/Inc/stm32f1xx_ll_rcc.h ****   *         @arg @ref LL_RCC_SYSCLK_DIV_256
 685:Drivers/STM32F1xx_HAL_Driver/Inc/stm32f1xx_ll_rcc.h ****   *         @arg @ref LL_RCC_SYSCLK_DIV_512
 686:Drivers/STM32F1xx_HAL_Driver/Inc/stm32f1xx_ll_rcc.h ****   * @retval HCLK clock frequency (in Hz)
 687:Drivers/STM32F1xx_HAL_Driver/Inc/stm32f1xx_ll_rcc.h ****   */
 688:Drivers/STM32F1xx_HAL_Driver/Inc/stm32f1xx_ll_rcc.h **** #define __LL_RCC_CALC_HCLK_FREQ(__SYSCLKFREQ__, __AHBPRESCALER__) ((__SYSCLKFREQ__) >> AHBPrescTabl
 689:Drivers/STM32F1xx_HAL_Driver/Inc/stm32f1xx_ll_rcc.h **** 
 690:Drivers/STM32F1xx_HAL_Driver/Inc/stm32f1xx_ll_rcc.h **** /**
 691:Drivers/STM32F1xx_HAL_Driver/Inc/stm32f1xx_ll_rcc.h ****   * @brief  Helper macro to calculate the PCLK1 frequency (ABP1)
 692:Drivers/STM32F1xx_HAL_Driver/Inc/stm32f1xx_ll_rcc.h ****   * @note: __APB1PRESCALER__ be retrieved by @ref LL_RCC_GetAPB1Prescaler
 693:Drivers/STM32F1xx_HAL_Driver/Inc/stm32f1xx_ll_rcc.h ****   *        ex: __LL_RCC_CALC_PCLK1_FREQ(LL_RCC_GetAPB1Prescaler())
 694:Drivers/STM32F1xx_HAL_Driver/Inc/stm32f1xx_ll_rcc.h ****   * @param  __HCLKFREQ__ HCLK frequency
 695:Drivers/STM32F1xx_HAL_Driver/Inc/stm32f1xx_ll_rcc.h ****   * @param  __APB1PRESCALER__: This parameter can be one of the following values:
 696:Drivers/STM32F1xx_HAL_Driver/Inc/stm32f1xx_ll_rcc.h ****   *         @arg @ref LL_RCC_APB1_DIV_1
 697:Drivers/STM32F1xx_HAL_Driver/Inc/stm32f1xx_ll_rcc.h ****   *         @arg @ref LL_RCC_APB1_DIV_2
 698:Drivers/STM32F1xx_HAL_Driver/Inc/stm32f1xx_ll_rcc.h ****   *         @arg @ref LL_RCC_APB1_DIV_4
 699:Drivers/STM32F1xx_HAL_Driver/Inc/stm32f1xx_ll_rcc.h ****   *         @arg @ref LL_RCC_APB1_DIV_8
 700:Drivers/STM32F1xx_HAL_Driver/Inc/stm32f1xx_ll_rcc.h ****   *         @arg @ref LL_RCC_APB1_DIV_16
 701:Drivers/STM32F1xx_HAL_Driver/Inc/stm32f1xx_ll_rcc.h ****   * @retval PCLK1 clock frequency (in Hz)
 702:Drivers/STM32F1xx_HAL_Driver/Inc/stm32f1xx_ll_rcc.h ****   */
 703:Drivers/STM32F1xx_HAL_Driver/Inc/stm32f1xx_ll_rcc.h **** #define __LL_RCC_CALC_PCLK1_FREQ(__HCLKFREQ__, __APB1PRESCALER__) ((__HCLKFREQ__) >> APBPrescTable[
 704:Drivers/STM32F1xx_HAL_Driver/Inc/stm32f1xx_ll_rcc.h **** 
 705:Drivers/STM32F1xx_HAL_Driver/Inc/stm32f1xx_ll_rcc.h **** /**
 706:Drivers/STM32F1xx_HAL_Driver/Inc/stm32f1xx_ll_rcc.h ****   * @brief  Helper macro to calculate the PCLK2 frequency (ABP2)
 707:Drivers/STM32F1xx_HAL_Driver/Inc/stm32f1xx_ll_rcc.h ****   * @note: __APB2PRESCALER__ be retrieved by @ref LL_RCC_GetAPB2Prescaler
 708:Drivers/STM32F1xx_HAL_Driver/Inc/stm32f1xx_ll_rcc.h ****   *        ex: __LL_RCC_CALC_PCLK2_FREQ(LL_RCC_GetAPB2Prescaler())
 709:Drivers/STM32F1xx_HAL_Driver/Inc/stm32f1xx_ll_rcc.h ****   * @param  __HCLKFREQ__ HCLK frequency
 710:Drivers/STM32F1xx_HAL_Driver/Inc/stm32f1xx_ll_rcc.h ****   * @param  __APB2PRESCALER__: This parameter can be one of the following values:
 711:Drivers/STM32F1xx_HAL_Driver/Inc/stm32f1xx_ll_rcc.h ****   *         @arg @ref LL_RCC_APB2_DIV_1
 712:Drivers/STM32F1xx_HAL_Driver/Inc/stm32f1xx_ll_rcc.h ****   *         @arg @ref LL_RCC_APB2_DIV_2
 713:Drivers/STM32F1xx_HAL_Driver/Inc/stm32f1xx_ll_rcc.h ****   *         @arg @ref LL_RCC_APB2_DIV_4
 714:Drivers/STM32F1xx_HAL_Driver/Inc/stm32f1xx_ll_rcc.h ****   *         @arg @ref LL_RCC_APB2_DIV_8
 715:Drivers/STM32F1xx_HAL_Driver/Inc/stm32f1xx_ll_rcc.h ****   *         @arg @ref LL_RCC_APB2_DIV_16
 716:Drivers/STM32F1xx_HAL_Driver/Inc/stm32f1xx_ll_rcc.h ****   * @retval PCLK2 clock frequency (in Hz)
 717:Drivers/STM32F1xx_HAL_Driver/Inc/stm32f1xx_ll_rcc.h ****   */
ARM GAS  /tmp/ccLXhlQB.s 			page 27


 718:Drivers/STM32F1xx_HAL_Driver/Inc/stm32f1xx_ll_rcc.h **** #define __LL_RCC_CALC_PCLK2_FREQ(__HCLKFREQ__, __APB2PRESCALER__) ((__HCLKFREQ__) >> APBPrescTable[
 719:Drivers/STM32F1xx_HAL_Driver/Inc/stm32f1xx_ll_rcc.h **** 
 720:Drivers/STM32F1xx_HAL_Driver/Inc/stm32f1xx_ll_rcc.h **** /**
 721:Drivers/STM32F1xx_HAL_Driver/Inc/stm32f1xx_ll_rcc.h ****   * @}
 722:Drivers/STM32F1xx_HAL_Driver/Inc/stm32f1xx_ll_rcc.h ****   */
 723:Drivers/STM32F1xx_HAL_Driver/Inc/stm32f1xx_ll_rcc.h **** 
 724:Drivers/STM32F1xx_HAL_Driver/Inc/stm32f1xx_ll_rcc.h **** /**
 725:Drivers/STM32F1xx_HAL_Driver/Inc/stm32f1xx_ll_rcc.h ****   * @}
 726:Drivers/STM32F1xx_HAL_Driver/Inc/stm32f1xx_ll_rcc.h ****   */
 727:Drivers/STM32F1xx_HAL_Driver/Inc/stm32f1xx_ll_rcc.h **** 
 728:Drivers/STM32F1xx_HAL_Driver/Inc/stm32f1xx_ll_rcc.h **** /* Exported functions --------------------------------------------------------*/
 729:Drivers/STM32F1xx_HAL_Driver/Inc/stm32f1xx_ll_rcc.h **** /** @defgroup RCC_LL_Exported_Functions RCC Exported Functions
 730:Drivers/STM32F1xx_HAL_Driver/Inc/stm32f1xx_ll_rcc.h ****   * @{
 731:Drivers/STM32F1xx_HAL_Driver/Inc/stm32f1xx_ll_rcc.h ****   */
 732:Drivers/STM32F1xx_HAL_Driver/Inc/stm32f1xx_ll_rcc.h **** 
 733:Drivers/STM32F1xx_HAL_Driver/Inc/stm32f1xx_ll_rcc.h **** /** @defgroup RCC_LL_EF_HSE HSE
 734:Drivers/STM32F1xx_HAL_Driver/Inc/stm32f1xx_ll_rcc.h ****   * @{
 735:Drivers/STM32F1xx_HAL_Driver/Inc/stm32f1xx_ll_rcc.h ****   */
 736:Drivers/STM32F1xx_HAL_Driver/Inc/stm32f1xx_ll_rcc.h **** 
 737:Drivers/STM32F1xx_HAL_Driver/Inc/stm32f1xx_ll_rcc.h **** /**
 738:Drivers/STM32F1xx_HAL_Driver/Inc/stm32f1xx_ll_rcc.h ****   * @brief  Enable the Clock Security System.
 739:Drivers/STM32F1xx_HAL_Driver/Inc/stm32f1xx_ll_rcc.h ****   * @rmtoll CR           CSSON         LL_RCC_HSE_EnableCSS
 740:Drivers/STM32F1xx_HAL_Driver/Inc/stm32f1xx_ll_rcc.h ****   * @retval None
 741:Drivers/STM32F1xx_HAL_Driver/Inc/stm32f1xx_ll_rcc.h ****   */
 742:Drivers/STM32F1xx_HAL_Driver/Inc/stm32f1xx_ll_rcc.h **** __STATIC_INLINE void LL_RCC_HSE_EnableCSS(void)
 743:Drivers/STM32F1xx_HAL_Driver/Inc/stm32f1xx_ll_rcc.h **** {
 744:Drivers/STM32F1xx_HAL_Driver/Inc/stm32f1xx_ll_rcc.h ****   SET_BIT(RCC->CR, RCC_CR_CSSON);
 745:Drivers/STM32F1xx_HAL_Driver/Inc/stm32f1xx_ll_rcc.h **** }
 746:Drivers/STM32F1xx_HAL_Driver/Inc/stm32f1xx_ll_rcc.h **** 
 747:Drivers/STM32F1xx_HAL_Driver/Inc/stm32f1xx_ll_rcc.h **** /**
 748:Drivers/STM32F1xx_HAL_Driver/Inc/stm32f1xx_ll_rcc.h ****   * @brief  Enable HSE external oscillator (HSE Bypass)
 749:Drivers/STM32F1xx_HAL_Driver/Inc/stm32f1xx_ll_rcc.h ****   * @rmtoll CR           HSEBYP        LL_RCC_HSE_EnableBypass
 750:Drivers/STM32F1xx_HAL_Driver/Inc/stm32f1xx_ll_rcc.h ****   * @retval None
 751:Drivers/STM32F1xx_HAL_Driver/Inc/stm32f1xx_ll_rcc.h ****   */
 752:Drivers/STM32F1xx_HAL_Driver/Inc/stm32f1xx_ll_rcc.h **** __STATIC_INLINE void LL_RCC_HSE_EnableBypass(void)
 753:Drivers/STM32F1xx_HAL_Driver/Inc/stm32f1xx_ll_rcc.h **** {
 754:Drivers/STM32F1xx_HAL_Driver/Inc/stm32f1xx_ll_rcc.h ****   SET_BIT(RCC->CR, RCC_CR_HSEBYP);
 755:Drivers/STM32F1xx_HAL_Driver/Inc/stm32f1xx_ll_rcc.h **** }
 756:Drivers/STM32F1xx_HAL_Driver/Inc/stm32f1xx_ll_rcc.h **** 
 757:Drivers/STM32F1xx_HAL_Driver/Inc/stm32f1xx_ll_rcc.h **** /**
 758:Drivers/STM32F1xx_HAL_Driver/Inc/stm32f1xx_ll_rcc.h ****   * @brief  Disable HSE external oscillator (HSE Bypass)
 759:Drivers/STM32F1xx_HAL_Driver/Inc/stm32f1xx_ll_rcc.h ****   * @rmtoll CR           HSEBYP        LL_RCC_HSE_DisableBypass
 760:Drivers/STM32F1xx_HAL_Driver/Inc/stm32f1xx_ll_rcc.h ****   * @retval None
 761:Drivers/STM32F1xx_HAL_Driver/Inc/stm32f1xx_ll_rcc.h ****   */
 762:Drivers/STM32F1xx_HAL_Driver/Inc/stm32f1xx_ll_rcc.h **** __STATIC_INLINE void LL_RCC_HSE_DisableBypass(void)
 763:Drivers/STM32F1xx_HAL_Driver/Inc/stm32f1xx_ll_rcc.h **** {
 764:Drivers/STM32F1xx_HAL_Driver/Inc/stm32f1xx_ll_rcc.h ****   CLEAR_BIT(RCC->CR, RCC_CR_HSEBYP);
 765:Drivers/STM32F1xx_HAL_Driver/Inc/stm32f1xx_ll_rcc.h **** }
 766:Drivers/STM32F1xx_HAL_Driver/Inc/stm32f1xx_ll_rcc.h **** 
 767:Drivers/STM32F1xx_HAL_Driver/Inc/stm32f1xx_ll_rcc.h **** /**
 768:Drivers/STM32F1xx_HAL_Driver/Inc/stm32f1xx_ll_rcc.h ****   * @brief  Enable HSE crystal oscillator (HSE ON)
 769:Drivers/STM32F1xx_HAL_Driver/Inc/stm32f1xx_ll_rcc.h ****   * @rmtoll CR           HSEON         LL_RCC_HSE_Enable
 770:Drivers/STM32F1xx_HAL_Driver/Inc/stm32f1xx_ll_rcc.h ****   * @retval None
 771:Drivers/STM32F1xx_HAL_Driver/Inc/stm32f1xx_ll_rcc.h ****   */
 772:Drivers/STM32F1xx_HAL_Driver/Inc/stm32f1xx_ll_rcc.h **** __STATIC_INLINE void LL_RCC_HSE_Enable(void)
 773:Drivers/STM32F1xx_HAL_Driver/Inc/stm32f1xx_ll_rcc.h **** {
 774:Drivers/STM32F1xx_HAL_Driver/Inc/stm32f1xx_ll_rcc.h ****   SET_BIT(RCC->CR, RCC_CR_HSEON);
ARM GAS  /tmp/ccLXhlQB.s 			page 28


 775:Drivers/STM32F1xx_HAL_Driver/Inc/stm32f1xx_ll_rcc.h **** }
 776:Drivers/STM32F1xx_HAL_Driver/Inc/stm32f1xx_ll_rcc.h **** 
 777:Drivers/STM32F1xx_HAL_Driver/Inc/stm32f1xx_ll_rcc.h **** /**
 778:Drivers/STM32F1xx_HAL_Driver/Inc/stm32f1xx_ll_rcc.h ****   * @brief  Disable HSE crystal oscillator (HSE ON)
 779:Drivers/STM32F1xx_HAL_Driver/Inc/stm32f1xx_ll_rcc.h ****   * @rmtoll CR           HSEON         LL_RCC_HSE_Disable
 780:Drivers/STM32F1xx_HAL_Driver/Inc/stm32f1xx_ll_rcc.h ****   * @retval None
 781:Drivers/STM32F1xx_HAL_Driver/Inc/stm32f1xx_ll_rcc.h ****   */
 782:Drivers/STM32F1xx_HAL_Driver/Inc/stm32f1xx_ll_rcc.h **** __STATIC_INLINE void LL_RCC_HSE_Disable(void)
 783:Drivers/STM32F1xx_HAL_Driver/Inc/stm32f1xx_ll_rcc.h **** {
 784:Drivers/STM32F1xx_HAL_Driver/Inc/stm32f1xx_ll_rcc.h ****   CLEAR_BIT(RCC->CR, RCC_CR_HSEON);
 785:Drivers/STM32F1xx_HAL_Driver/Inc/stm32f1xx_ll_rcc.h **** }
 786:Drivers/STM32F1xx_HAL_Driver/Inc/stm32f1xx_ll_rcc.h **** 
 787:Drivers/STM32F1xx_HAL_Driver/Inc/stm32f1xx_ll_rcc.h **** /**
 788:Drivers/STM32F1xx_HAL_Driver/Inc/stm32f1xx_ll_rcc.h ****   * @brief  Check if HSE oscillator Ready
 789:Drivers/STM32F1xx_HAL_Driver/Inc/stm32f1xx_ll_rcc.h ****   * @rmtoll CR           HSERDY        LL_RCC_HSE_IsReady
 790:Drivers/STM32F1xx_HAL_Driver/Inc/stm32f1xx_ll_rcc.h ****   * @retval State of bit (1 or 0).
 791:Drivers/STM32F1xx_HAL_Driver/Inc/stm32f1xx_ll_rcc.h ****   */
 792:Drivers/STM32F1xx_HAL_Driver/Inc/stm32f1xx_ll_rcc.h **** __STATIC_INLINE uint32_t LL_RCC_HSE_IsReady(void)
 793:Drivers/STM32F1xx_HAL_Driver/Inc/stm32f1xx_ll_rcc.h **** {
 794:Drivers/STM32F1xx_HAL_Driver/Inc/stm32f1xx_ll_rcc.h ****   return (READ_BIT(RCC->CR, RCC_CR_HSERDY) == (RCC_CR_HSERDY));
 795:Drivers/STM32F1xx_HAL_Driver/Inc/stm32f1xx_ll_rcc.h **** }
 796:Drivers/STM32F1xx_HAL_Driver/Inc/stm32f1xx_ll_rcc.h **** 
 797:Drivers/STM32F1xx_HAL_Driver/Inc/stm32f1xx_ll_rcc.h **** #if defined(RCC_CFGR2_PREDIV2)
 798:Drivers/STM32F1xx_HAL_Driver/Inc/stm32f1xx_ll_rcc.h **** /**
 799:Drivers/STM32F1xx_HAL_Driver/Inc/stm32f1xx_ll_rcc.h ****   * @brief  Get PREDIV2 division factor
 800:Drivers/STM32F1xx_HAL_Driver/Inc/stm32f1xx_ll_rcc.h ****   * @rmtoll CFGR2        PREDIV2       LL_RCC_HSE_GetPrediv2
 801:Drivers/STM32F1xx_HAL_Driver/Inc/stm32f1xx_ll_rcc.h ****   * @retval Returned value can be one of the following values:
 802:Drivers/STM32F1xx_HAL_Driver/Inc/stm32f1xx_ll_rcc.h ****   *         @arg @ref LL_RCC_HSE_PREDIV2_DIV_1
 803:Drivers/STM32F1xx_HAL_Driver/Inc/stm32f1xx_ll_rcc.h ****   *         @arg @ref LL_RCC_HSE_PREDIV2_DIV_2
 804:Drivers/STM32F1xx_HAL_Driver/Inc/stm32f1xx_ll_rcc.h ****   *         @arg @ref LL_RCC_HSE_PREDIV2_DIV_3
 805:Drivers/STM32F1xx_HAL_Driver/Inc/stm32f1xx_ll_rcc.h ****   *         @arg @ref LL_RCC_HSE_PREDIV2_DIV_4
 806:Drivers/STM32F1xx_HAL_Driver/Inc/stm32f1xx_ll_rcc.h ****   *         @arg @ref LL_RCC_HSE_PREDIV2_DIV_5
 807:Drivers/STM32F1xx_HAL_Driver/Inc/stm32f1xx_ll_rcc.h ****   *         @arg @ref LL_RCC_HSE_PREDIV2_DIV_6
 808:Drivers/STM32F1xx_HAL_Driver/Inc/stm32f1xx_ll_rcc.h ****   *         @arg @ref LL_RCC_HSE_PREDIV2_DIV_7
 809:Drivers/STM32F1xx_HAL_Driver/Inc/stm32f1xx_ll_rcc.h ****   *         @arg @ref LL_RCC_HSE_PREDIV2_DIV_8
 810:Drivers/STM32F1xx_HAL_Driver/Inc/stm32f1xx_ll_rcc.h ****   *         @arg @ref LL_RCC_HSE_PREDIV2_DIV_9
 811:Drivers/STM32F1xx_HAL_Driver/Inc/stm32f1xx_ll_rcc.h ****   *         @arg @ref LL_RCC_HSE_PREDIV2_DIV_10
 812:Drivers/STM32F1xx_HAL_Driver/Inc/stm32f1xx_ll_rcc.h ****   *         @arg @ref LL_RCC_HSE_PREDIV2_DIV_11
 813:Drivers/STM32F1xx_HAL_Driver/Inc/stm32f1xx_ll_rcc.h ****   *         @arg @ref LL_RCC_HSE_PREDIV2_DIV_12
 814:Drivers/STM32F1xx_HAL_Driver/Inc/stm32f1xx_ll_rcc.h ****   *         @arg @ref LL_RCC_HSE_PREDIV2_DIV_13
 815:Drivers/STM32F1xx_HAL_Driver/Inc/stm32f1xx_ll_rcc.h ****   *         @arg @ref LL_RCC_HSE_PREDIV2_DIV_14
 816:Drivers/STM32F1xx_HAL_Driver/Inc/stm32f1xx_ll_rcc.h ****   *         @arg @ref LL_RCC_HSE_PREDIV2_DIV_15
 817:Drivers/STM32F1xx_HAL_Driver/Inc/stm32f1xx_ll_rcc.h ****   *         @arg @ref LL_RCC_HSE_PREDIV2_DIV_16
 818:Drivers/STM32F1xx_HAL_Driver/Inc/stm32f1xx_ll_rcc.h ****   */
 819:Drivers/STM32F1xx_HAL_Driver/Inc/stm32f1xx_ll_rcc.h **** __STATIC_INLINE uint32_t LL_RCC_HSE_GetPrediv2(void)
 820:Drivers/STM32F1xx_HAL_Driver/Inc/stm32f1xx_ll_rcc.h **** {
 821:Drivers/STM32F1xx_HAL_Driver/Inc/stm32f1xx_ll_rcc.h ****   return (uint32_t)(READ_BIT(RCC->CFGR2, RCC_CFGR2_PREDIV2));
 822:Drivers/STM32F1xx_HAL_Driver/Inc/stm32f1xx_ll_rcc.h **** }
 823:Drivers/STM32F1xx_HAL_Driver/Inc/stm32f1xx_ll_rcc.h **** #endif /* RCC_CFGR2_PREDIV2 */
 824:Drivers/STM32F1xx_HAL_Driver/Inc/stm32f1xx_ll_rcc.h **** 
 825:Drivers/STM32F1xx_HAL_Driver/Inc/stm32f1xx_ll_rcc.h **** /**
 826:Drivers/STM32F1xx_HAL_Driver/Inc/stm32f1xx_ll_rcc.h ****   * @}
 827:Drivers/STM32F1xx_HAL_Driver/Inc/stm32f1xx_ll_rcc.h ****   */
 828:Drivers/STM32F1xx_HAL_Driver/Inc/stm32f1xx_ll_rcc.h **** 
 829:Drivers/STM32F1xx_HAL_Driver/Inc/stm32f1xx_ll_rcc.h **** /** @defgroup RCC_LL_EF_HSI HSI
 830:Drivers/STM32F1xx_HAL_Driver/Inc/stm32f1xx_ll_rcc.h ****   * @{
 831:Drivers/STM32F1xx_HAL_Driver/Inc/stm32f1xx_ll_rcc.h ****   */
ARM GAS  /tmp/ccLXhlQB.s 			page 29


 832:Drivers/STM32F1xx_HAL_Driver/Inc/stm32f1xx_ll_rcc.h **** 
 833:Drivers/STM32F1xx_HAL_Driver/Inc/stm32f1xx_ll_rcc.h **** /**
 834:Drivers/STM32F1xx_HAL_Driver/Inc/stm32f1xx_ll_rcc.h ****   * @brief  Enable HSI oscillator
 835:Drivers/STM32F1xx_HAL_Driver/Inc/stm32f1xx_ll_rcc.h ****   * @rmtoll CR           HSION         LL_RCC_HSI_Enable
 836:Drivers/STM32F1xx_HAL_Driver/Inc/stm32f1xx_ll_rcc.h ****   * @retval None
 837:Drivers/STM32F1xx_HAL_Driver/Inc/stm32f1xx_ll_rcc.h ****   */
 838:Drivers/STM32F1xx_HAL_Driver/Inc/stm32f1xx_ll_rcc.h **** __STATIC_INLINE void LL_RCC_HSI_Enable(void)
 839:Drivers/STM32F1xx_HAL_Driver/Inc/stm32f1xx_ll_rcc.h **** {
 840:Drivers/STM32F1xx_HAL_Driver/Inc/stm32f1xx_ll_rcc.h ****   SET_BIT(RCC->CR, RCC_CR_HSION);
 841:Drivers/STM32F1xx_HAL_Driver/Inc/stm32f1xx_ll_rcc.h **** }
 842:Drivers/STM32F1xx_HAL_Driver/Inc/stm32f1xx_ll_rcc.h **** 
 843:Drivers/STM32F1xx_HAL_Driver/Inc/stm32f1xx_ll_rcc.h **** /**
 844:Drivers/STM32F1xx_HAL_Driver/Inc/stm32f1xx_ll_rcc.h ****   * @brief  Disable HSI oscillator
 845:Drivers/STM32F1xx_HAL_Driver/Inc/stm32f1xx_ll_rcc.h ****   * @rmtoll CR           HSION         LL_RCC_HSI_Disable
 846:Drivers/STM32F1xx_HAL_Driver/Inc/stm32f1xx_ll_rcc.h ****   * @retval None
 847:Drivers/STM32F1xx_HAL_Driver/Inc/stm32f1xx_ll_rcc.h ****   */
 848:Drivers/STM32F1xx_HAL_Driver/Inc/stm32f1xx_ll_rcc.h **** __STATIC_INLINE void LL_RCC_HSI_Disable(void)
 849:Drivers/STM32F1xx_HAL_Driver/Inc/stm32f1xx_ll_rcc.h **** {
 850:Drivers/STM32F1xx_HAL_Driver/Inc/stm32f1xx_ll_rcc.h ****   CLEAR_BIT(RCC->CR, RCC_CR_HSION);
 851:Drivers/STM32F1xx_HAL_Driver/Inc/stm32f1xx_ll_rcc.h **** }
 852:Drivers/STM32F1xx_HAL_Driver/Inc/stm32f1xx_ll_rcc.h **** 
 853:Drivers/STM32F1xx_HAL_Driver/Inc/stm32f1xx_ll_rcc.h **** /**
 854:Drivers/STM32F1xx_HAL_Driver/Inc/stm32f1xx_ll_rcc.h ****   * @brief  Check if HSI clock is ready
 855:Drivers/STM32F1xx_HAL_Driver/Inc/stm32f1xx_ll_rcc.h ****   * @rmtoll CR           HSIRDY        LL_RCC_HSI_IsReady
 856:Drivers/STM32F1xx_HAL_Driver/Inc/stm32f1xx_ll_rcc.h ****   * @retval State of bit (1 or 0).
 857:Drivers/STM32F1xx_HAL_Driver/Inc/stm32f1xx_ll_rcc.h ****   */
 858:Drivers/STM32F1xx_HAL_Driver/Inc/stm32f1xx_ll_rcc.h **** __STATIC_INLINE uint32_t LL_RCC_HSI_IsReady(void)
 859:Drivers/STM32F1xx_HAL_Driver/Inc/stm32f1xx_ll_rcc.h **** {
 860:Drivers/STM32F1xx_HAL_Driver/Inc/stm32f1xx_ll_rcc.h ****   return (READ_BIT(RCC->CR, RCC_CR_HSIRDY) == (RCC_CR_HSIRDY));
 861:Drivers/STM32F1xx_HAL_Driver/Inc/stm32f1xx_ll_rcc.h **** }
 862:Drivers/STM32F1xx_HAL_Driver/Inc/stm32f1xx_ll_rcc.h **** 
 863:Drivers/STM32F1xx_HAL_Driver/Inc/stm32f1xx_ll_rcc.h **** /**
 864:Drivers/STM32F1xx_HAL_Driver/Inc/stm32f1xx_ll_rcc.h ****   * @brief  Get HSI Calibration value
 865:Drivers/STM32F1xx_HAL_Driver/Inc/stm32f1xx_ll_rcc.h ****   * @note When HSITRIM is written, HSICAL is updated with the sum of
 866:Drivers/STM32F1xx_HAL_Driver/Inc/stm32f1xx_ll_rcc.h ****   *       HSITRIM and the factory trim value
 867:Drivers/STM32F1xx_HAL_Driver/Inc/stm32f1xx_ll_rcc.h ****   * @rmtoll CR        HSICAL        LL_RCC_HSI_GetCalibration
 868:Drivers/STM32F1xx_HAL_Driver/Inc/stm32f1xx_ll_rcc.h ****   * @retval Between Min_Data = 0x00 and Max_Data = 0xFF
 869:Drivers/STM32F1xx_HAL_Driver/Inc/stm32f1xx_ll_rcc.h ****   */
 870:Drivers/STM32F1xx_HAL_Driver/Inc/stm32f1xx_ll_rcc.h **** __STATIC_INLINE uint32_t LL_RCC_HSI_GetCalibration(void)
 871:Drivers/STM32F1xx_HAL_Driver/Inc/stm32f1xx_ll_rcc.h **** {
 872:Drivers/STM32F1xx_HAL_Driver/Inc/stm32f1xx_ll_rcc.h ****   return (uint32_t)(READ_BIT(RCC->CR, RCC_CR_HSICAL) >> RCC_CR_HSICAL_Pos);
 873:Drivers/STM32F1xx_HAL_Driver/Inc/stm32f1xx_ll_rcc.h **** }
 874:Drivers/STM32F1xx_HAL_Driver/Inc/stm32f1xx_ll_rcc.h **** 
 875:Drivers/STM32F1xx_HAL_Driver/Inc/stm32f1xx_ll_rcc.h **** /**
 876:Drivers/STM32F1xx_HAL_Driver/Inc/stm32f1xx_ll_rcc.h ****   * @brief  Set HSI Calibration trimming
 877:Drivers/STM32F1xx_HAL_Driver/Inc/stm32f1xx_ll_rcc.h ****   * @note user-programmable trimming value that is added to the HSICAL
 878:Drivers/STM32F1xx_HAL_Driver/Inc/stm32f1xx_ll_rcc.h ****   * @note Default value is 16, which, when added to the HSICAL value,
 879:Drivers/STM32F1xx_HAL_Driver/Inc/stm32f1xx_ll_rcc.h ****   *       should trim the HSI to 16 MHz +/- 1 %
 880:Drivers/STM32F1xx_HAL_Driver/Inc/stm32f1xx_ll_rcc.h ****   * @rmtoll CR        HSITRIM       LL_RCC_HSI_SetCalibTrimming
 881:Drivers/STM32F1xx_HAL_Driver/Inc/stm32f1xx_ll_rcc.h ****   * @param  Value between Min_Data = 0x00 and Max_Data = 0x1F
 882:Drivers/STM32F1xx_HAL_Driver/Inc/stm32f1xx_ll_rcc.h ****   * @retval None
 883:Drivers/STM32F1xx_HAL_Driver/Inc/stm32f1xx_ll_rcc.h ****   */
 884:Drivers/STM32F1xx_HAL_Driver/Inc/stm32f1xx_ll_rcc.h **** __STATIC_INLINE void LL_RCC_HSI_SetCalibTrimming(uint32_t Value)
 885:Drivers/STM32F1xx_HAL_Driver/Inc/stm32f1xx_ll_rcc.h **** {
 886:Drivers/STM32F1xx_HAL_Driver/Inc/stm32f1xx_ll_rcc.h ****   MODIFY_REG(RCC->CR, RCC_CR_HSITRIM, Value << RCC_CR_HSITRIM_Pos);
 887:Drivers/STM32F1xx_HAL_Driver/Inc/stm32f1xx_ll_rcc.h **** }
 888:Drivers/STM32F1xx_HAL_Driver/Inc/stm32f1xx_ll_rcc.h **** 
ARM GAS  /tmp/ccLXhlQB.s 			page 30


 889:Drivers/STM32F1xx_HAL_Driver/Inc/stm32f1xx_ll_rcc.h **** /**
 890:Drivers/STM32F1xx_HAL_Driver/Inc/stm32f1xx_ll_rcc.h ****   * @brief  Get HSI Calibration trimming
 891:Drivers/STM32F1xx_HAL_Driver/Inc/stm32f1xx_ll_rcc.h ****   * @rmtoll CR        HSITRIM       LL_RCC_HSI_GetCalibTrimming
 892:Drivers/STM32F1xx_HAL_Driver/Inc/stm32f1xx_ll_rcc.h ****   * @retval Between Min_Data = 0x00 and Max_Data = 0x1F
 893:Drivers/STM32F1xx_HAL_Driver/Inc/stm32f1xx_ll_rcc.h ****   */
 894:Drivers/STM32F1xx_HAL_Driver/Inc/stm32f1xx_ll_rcc.h **** __STATIC_INLINE uint32_t LL_RCC_HSI_GetCalibTrimming(void)
 895:Drivers/STM32F1xx_HAL_Driver/Inc/stm32f1xx_ll_rcc.h **** {
 896:Drivers/STM32F1xx_HAL_Driver/Inc/stm32f1xx_ll_rcc.h ****   return (uint32_t)(READ_BIT(RCC->CR, RCC_CR_HSITRIM) >> RCC_CR_HSITRIM_Pos);
 897:Drivers/STM32F1xx_HAL_Driver/Inc/stm32f1xx_ll_rcc.h **** }
 898:Drivers/STM32F1xx_HAL_Driver/Inc/stm32f1xx_ll_rcc.h **** 
 899:Drivers/STM32F1xx_HAL_Driver/Inc/stm32f1xx_ll_rcc.h **** /**
 900:Drivers/STM32F1xx_HAL_Driver/Inc/stm32f1xx_ll_rcc.h ****   * @}
 901:Drivers/STM32F1xx_HAL_Driver/Inc/stm32f1xx_ll_rcc.h ****   */
 902:Drivers/STM32F1xx_HAL_Driver/Inc/stm32f1xx_ll_rcc.h **** 
 903:Drivers/STM32F1xx_HAL_Driver/Inc/stm32f1xx_ll_rcc.h **** /** @defgroup RCC_LL_EF_LSE LSE
 904:Drivers/STM32F1xx_HAL_Driver/Inc/stm32f1xx_ll_rcc.h ****   * @{
 905:Drivers/STM32F1xx_HAL_Driver/Inc/stm32f1xx_ll_rcc.h ****   */
 906:Drivers/STM32F1xx_HAL_Driver/Inc/stm32f1xx_ll_rcc.h **** 
 907:Drivers/STM32F1xx_HAL_Driver/Inc/stm32f1xx_ll_rcc.h **** /**
 908:Drivers/STM32F1xx_HAL_Driver/Inc/stm32f1xx_ll_rcc.h ****   * @brief  Enable  Low Speed External (LSE) crystal.
 909:Drivers/STM32F1xx_HAL_Driver/Inc/stm32f1xx_ll_rcc.h ****   * @rmtoll BDCR         LSEON         LL_RCC_LSE_Enable
 910:Drivers/STM32F1xx_HAL_Driver/Inc/stm32f1xx_ll_rcc.h ****   * @retval None
 911:Drivers/STM32F1xx_HAL_Driver/Inc/stm32f1xx_ll_rcc.h ****   */
 912:Drivers/STM32F1xx_HAL_Driver/Inc/stm32f1xx_ll_rcc.h **** __STATIC_INLINE void LL_RCC_LSE_Enable(void)
 913:Drivers/STM32F1xx_HAL_Driver/Inc/stm32f1xx_ll_rcc.h **** {
 914:Drivers/STM32F1xx_HAL_Driver/Inc/stm32f1xx_ll_rcc.h ****   SET_BIT(RCC->BDCR, RCC_BDCR_LSEON);
 915:Drivers/STM32F1xx_HAL_Driver/Inc/stm32f1xx_ll_rcc.h **** }
 916:Drivers/STM32F1xx_HAL_Driver/Inc/stm32f1xx_ll_rcc.h **** 
 917:Drivers/STM32F1xx_HAL_Driver/Inc/stm32f1xx_ll_rcc.h **** /**
 918:Drivers/STM32F1xx_HAL_Driver/Inc/stm32f1xx_ll_rcc.h ****   * @brief  Disable  Low Speed External (LSE) crystal.
 919:Drivers/STM32F1xx_HAL_Driver/Inc/stm32f1xx_ll_rcc.h ****   * @rmtoll BDCR         LSEON         LL_RCC_LSE_Disable
 920:Drivers/STM32F1xx_HAL_Driver/Inc/stm32f1xx_ll_rcc.h ****   * @retval None
 921:Drivers/STM32F1xx_HAL_Driver/Inc/stm32f1xx_ll_rcc.h ****   */
 922:Drivers/STM32F1xx_HAL_Driver/Inc/stm32f1xx_ll_rcc.h **** __STATIC_INLINE void LL_RCC_LSE_Disable(void)
 923:Drivers/STM32F1xx_HAL_Driver/Inc/stm32f1xx_ll_rcc.h **** {
 924:Drivers/STM32F1xx_HAL_Driver/Inc/stm32f1xx_ll_rcc.h ****   CLEAR_BIT(RCC->BDCR, RCC_BDCR_LSEON);
 925:Drivers/STM32F1xx_HAL_Driver/Inc/stm32f1xx_ll_rcc.h **** }
 926:Drivers/STM32F1xx_HAL_Driver/Inc/stm32f1xx_ll_rcc.h **** 
 927:Drivers/STM32F1xx_HAL_Driver/Inc/stm32f1xx_ll_rcc.h **** /**
 928:Drivers/STM32F1xx_HAL_Driver/Inc/stm32f1xx_ll_rcc.h ****   * @brief  Enable external clock source (LSE bypass).
 929:Drivers/STM32F1xx_HAL_Driver/Inc/stm32f1xx_ll_rcc.h ****   * @rmtoll BDCR         LSEBYP        LL_RCC_LSE_EnableBypass
 930:Drivers/STM32F1xx_HAL_Driver/Inc/stm32f1xx_ll_rcc.h ****   * @retval None
 931:Drivers/STM32F1xx_HAL_Driver/Inc/stm32f1xx_ll_rcc.h ****   */
 932:Drivers/STM32F1xx_HAL_Driver/Inc/stm32f1xx_ll_rcc.h **** __STATIC_INLINE void LL_RCC_LSE_EnableBypass(void)
 933:Drivers/STM32F1xx_HAL_Driver/Inc/stm32f1xx_ll_rcc.h **** {
 934:Drivers/STM32F1xx_HAL_Driver/Inc/stm32f1xx_ll_rcc.h ****   SET_BIT(RCC->BDCR, RCC_BDCR_LSEBYP);
 935:Drivers/STM32F1xx_HAL_Driver/Inc/stm32f1xx_ll_rcc.h **** }
 936:Drivers/STM32F1xx_HAL_Driver/Inc/stm32f1xx_ll_rcc.h **** 
 937:Drivers/STM32F1xx_HAL_Driver/Inc/stm32f1xx_ll_rcc.h **** /**
 938:Drivers/STM32F1xx_HAL_Driver/Inc/stm32f1xx_ll_rcc.h ****   * @brief  Disable external clock source (LSE bypass).
 939:Drivers/STM32F1xx_HAL_Driver/Inc/stm32f1xx_ll_rcc.h ****   * @rmtoll BDCR         LSEBYP        LL_RCC_LSE_DisableBypass
 940:Drivers/STM32F1xx_HAL_Driver/Inc/stm32f1xx_ll_rcc.h ****   * @retval None
 941:Drivers/STM32F1xx_HAL_Driver/Inc/stm32f1xx_ll_rcc.h ****   */
 942:Drivers/STM32F1xx_HAL_Driver/Inc/stm32f1xx_ll_rcc.h **** __STATIC_INLINE void LL_RCC_LSE_DisableBypass(void)
 943:Drivers/STM32F1xx_HAL_Driver/Inc/stm32f1xx_ll_rcc.h **** {
 944:Drivers/STM32F1xx_HAL_Driver/Inc/stm32f1xx_ll_rcc.h ****   CLEAR_BIT(RCC->BDCR, RCC_BDCR_LSEBYP);
 945:Drivers/STM32F1xx_HAL_Driver/Inc/stm32f1xx_ll_rcc.h **** }
ARM GAS  /tmp/ccLXhlQB.s 			page 31


 946:Drivers/STM32F1xx_HAL_Driver/Inc/stm32f1xx_ll_rcc.h **** 
 947:Drivers/STM32F1xx_HAL_Driver/Inc/stm32f1xx_ll_rcc.h **** /**
 948:Drivers/STM32F1xx_HAL_Driver/Inc/stm32f1xx_ll_rcc.h ****   * @brief  Check if LSE oscillator Ready
 949:Drivers/STM32F1xx_HAL_Driver/Inc/stm32f1xx_ll_rcc.h ****   * @rmtoll BDCR         LSERDY        LL_RCC_LSE_IsReady
 950:Drivers/STM32F1xx_HAL_Driver/Inc/stm32f1xx_ll_rcc.h ****   * @retval State of bit (1 or 0).
 951:Drivers/STM32F1xx_HAL_Driver/Inc/stm32f1xx_ll_rcc.h ****   */
 952:Drivers/STM32F1xx_HAL_Driver/Inc/stm32f1xx_ll_rcc.h **** __STATIC_INLINE uint32_t LL_RCC_LSE_IsReady(void)
 953:Drivers/STM32F1xx_HAL_Driver/Inc/stm32f1xx_ll_rcc.h **** {
 954:Drivers/STM32F1xx_HAL_Driver/Inc/stm32f1xx_ll_rcc.h ****   return (READ_BIT(RCC->BDCR, RCC_BDCR_LSERDY) == (RCC_BDCR_LSERDY));
 955:Drivers/STM32F1xx_HAL_Driver/Inc/stm32f1xx_ll_rcc.h **** }
 956:Drivers/STM32F1xx_HAL_Driver/Inc/stm32f1xx_ll_rcc.h **** 
 957:Drivers/STM32F1xx_HAL_Driver/Inc/stm32f1xx_ll_rcc.h **** /**
 958:Drivers/STM32F1xx_HAL_Driver/Inc/stm32f1xx_ll_rcc.h ****   * @}
 959:Drivers/STM32F1xx_HAL_Driver/Inc/stm32f1xx_ll_rcc.h ****   */
 960:Drivers/STM32F1xx_HAL_Driver/Inc/stm32f1xx_ll_rcc.h **** 
 961:Drivers/STM32F1xx_HAL_Driver/Inc/stm32f1xx_ll_rcc.h **** /** @defgroup RCC_LL_EF_LSI LSI
 962:Drivers/STM32F1xx_HAL_Driver/Inc/stm32f1xx_ll_rcc.h ****   * @{
 963:Drivers/STM32F1xx_HAL_Driver/Inc/stm32f1xx_ll_rcc.h ****   */
 964:Drivers/STM32F1xx_HAL_Driver/Inc/stm32f1xx_ll_rcc.h **** 
 965:Drivers/STM32F1xx_HAL_Driver/Inc/stm32f1xx_ll_rcc.h **** /**
 966:Drivers/STM32F1xx_HAL_Driver/Inc/stm32f1xx_ll_rcc.h ****   * @brief  Enable LSI Oscillator
 967:Drivers/STM32F1xx_HAL_Driver/Inc/stm32f1xx_ll_rcc.h ****   * @rmtoll CSR          LSION         LL_RCC_LSI_Enable
 968:Drivers/STM32F1xx_HAL_Driver/Inc/stm32f1xx_ll_rcc.h ****   * @retval None
 969:Drivers/STM32F1xx_HAL_Driver/Inc/stm32f1xx_ll_rcc.h ****   */
 970:Drivers/STM32F1xx_HAL_Driver/Inc/stm32f1xx_ll_rcc.h **** __STATIC_INLINE void LL_RCC_LSI_Enable(void)
 971:Drivers/STM32F1xx_HAL_Driver/Inc/stm32f1xx_ll_rcc.h **** {
 972:Drivers/STM32F1xx_HAL_Driver/Inc/stm32f1xx_ll_rcc.h ****   SET_BIT(RCC->CSR, RCC_CSR_LSION);
 973:Drivers/STM32F1xx_HAL_Driver/Inc/stm32f1xx_ll_rcc.h **** }
 974:Drivers/STM32F1xx_HAL_Driver/Inc/stm32f1xx_ll_rcc.h **** 
 975:Drivers/STM32F1xx_HAL_Driver/Inc/stm32f1xx_ll_rcc.h **** /**
 976:Drivers/STM32F1xx_HAL_Driver/Inc/stm32f1xx_ll_rcc.h ****   * @brief  Disable LSI Oscillator
 977:Drivers/STM32F1xx_HAL_Driver/Inc/stm32f1xx_ll_rcc.h ****   * @rmtoll CSR          LSION         LL_RCC_LSI_Disable
 978:Drivers/STM32F1xx_HAL_Driver/Inc/stm32f1xx_ll_rcc.h ****   * @retval None
 979:Drivers/STM32F1xx_HAL_Driver/Inc/stm32f1xx_ll_rcc.h ****   */
 980:Drivers/STM32F1xx_HAL_Driver/Inc/stm32f1xx_ll_rcc.h **** __STATIC_INLINE void LL_RCC_LSI_Disable(void)
 981:Drivers/STM32F1xx_HAL_Driver/Inc/stm32f1xx_ll_rcc.h **** {
 982:Drivers/STM32F1xx_HAL_Driver/Inc/stm32f1xx_ll_rcc.h ****   CLEAR_BIT(RCC->CSR, RCC_CSR_LSION);
 983:Drivers/STM32F1xx_HAL_Driver/Inc/stm32f1xx_ll_rcc.h **** }
 984:Drivers/STM32F1xx_HAL_Driver/Inc/stm32f1xx_ll_rcc.h **** 
 985:Drivers/STM32F1xx_HAL_Driver/Inc/stm32f1xx_ll_rcc.h **** /**
 986:Drivers/STM32F1xx_HAL_Driver/Inc/stm32f1xx_ll_rcc.h ****   * @brief  Check if LSI is Ready
 987:Drivers/STM32F1xx_HAL_Driver/Inc/stm32f1xx_ll_rcc.h ****   * @rmtoll CSR          LSIRDY        LL_RCC_LSI_IsReady
 988:Drivers/STM32F1xx_HAL_Driver/Inc/stm32f1xx_ll_rcc.h ****   * @retval State of bit (1 or 0).
 989:Drivers/STM32F1xx_HAL_Driver/Inc/stm32f1xx_ll_rcc.h ****   */
 990:Drivers/STM32F1xx_HAL_Driver/Inc/stm32f1xx_ll_rcc.h **** __STATIC_INLINE uint32_t LL_RCC_LSI_IsReady(void)
 991:Drivers/STM32F1xx_HAL_Driver/Inc/stm32f1xx_ll_rcc.h **** {
 992:Drivers/STM32F1xx_HAL_Driver/Inc/stm32f1xx_ll_rcc.h ****   return (READ_BIT(RCC->CSR, RCC_CSR_LSIRDY) == (RCC_CSR_LSIRDY));
 993:Drivers/STM32F1xx_HAL_Driver/Inc/stm32f1xx_ll_rcc.h **** }
 994:Drivers/STM32F1xx_HAL_Driver/Inc/stm32f1xx_ll_rcc.h **** 
 995:Drivers/STM32F1xx_HAL_Driver/Inc/stm32f1xx_ll_rcc.h **** /**
 996:Drivers/STM32F1xx_HAL_Driver/Inc/stm32f1xx_ll_rcc.h ****   * @}
 997:Drivers/STM32F1xx_HAL_Driver/Inc/stm32f1xx_ll_rcc.h ****   */
 998:Drivers/STM32F1xx_HAL_Driver/Inc/stm32f1xx_ll_rcc.h **** 
 999:Drivers/STM32F1xx_HAL_Driver/Inc/stm32f1xx_ll_rcc.h **** /** @defgroup RCC_LL_EF_System System
1000:Drivers/STM32F1xx_HAL_Driver/Inc/stm32f1xx_ll_rcc.h ****   * @{
1001:Drivers/STM32F1xx_HAL_Driver/Inc/stm32f1xx_ll_rcc.h ****   */
1002:Drivers/STM32F1xx_HAL_Driver/Inc/stm32f1xx_ll_rcc.h **** 
ARM GAS  /tmp/ccLXhlQB.s 			page 32


1003:Drivers/STM32F1xx_HAL_Driver/Inc/stm32f1xx_ll_rcc.h **** /**
1004:Drivers/STM32F1xx_HAL_Driver/Inc/stm32f1xx_ll_rcc.h ****   * @brief  Configure the system clock source
1005:Drivers/STM32F1xx_HAL_Driver/Inc/stm32f1xx_ll_rcc.h ****   * @rmtoll CFGR         SW            LL_RCC_SetSysClkSource
1006:Drivers/STM32F1xx_HAL_Driver/Inc/stm32f1xx_ll_rcc.h ****   * @param  Source This parameter can be one of the following values:
1007:Drivers/STM32F1xx_HAL_Driver/Inc/stm32f1xx_ll_rcc.h ****   *         @arg @ref LL_RCC_SYS_CLKSOURCE_HSI
1008:Drivers/STM32F1xx_HAL_Driver/Inc/stm32f1xx_ll_rcc.h ****   *         @arg @ref LL_RCC_SYS_CLKSOURCE_HSE
1009:Drivers/STM32F1xx_HAL_Driver/Inc/stm32f1xx_ll_rcc.h ****   *         @arg @ref LL_RCC_SYS_CLKSOURCE_PLL
1010:Drivers/STM32F1xx_HAL_Driver/Inc/stm32f1xx_ll_rcc.h ****   * @retval None
1011:Drivers/STM32F1xx_HAL_Driver/Inc/stm32f1xx_ll_rcc.h ****   */
1012:Drivers/STM32F1xx_HAL_Driver/Inc/stm32f1xx_ll_rcc.h **** __STATIC_INLINE void LL_RCC_SetSysClkSource(uint32_t Source)
1013:Drivers/STM32F1xx_HAL_Driver/Inc/stm32f1xx_ll_rcc.h **** {
1014:Drivers/STM32F1xx_HAL_Driver/Inc/stm32f1xx_ll_rcc.h ****   MODIFY_REG(RCC->CFGR, RCC_CFGR_SW, Source);
1015:Drivers/STM32F1xx_HAL_Driver/Inc/stm32f1xx_ll_rcc.h **** }
1016:Drivers/STM32F1xx_HAL_Driver/Inc/stm32f1xx_ll_rcc.h **** 
1017:Drivers/STM32F1xx_HAL_Driver/Inc/stm32f1xx_ll_rcc.h **** /**
1018:Drivers/STM32F1xx_HAL_Driver/Inc/stm32f1xx_ll_rcc.h ****   * @brief  Get the system clock source
1019:Drivers/STM32F1xx_HAL_Driver/Inc/stm32f1xx_ll_rcc.h ****   * @rmtoll CFGR         SWS           LL_RCC_GetSysClkSource
1020:Drivers/STM32F1xx_HAL_Driver/Inc/stm32f1xx_ll_rcc.h ****   * @retval Returned value can be one of the following values:
1021:Drivers/STM32F1xx_HAL_Driver/Inc/stm32f1xx_ll_rcc.h ****   *         @arg @ref LL_RCC_SYS_CLKSOURCE_STATUS_HSI
1022:Drivers/STM32F1xx_HAL_Driver/Inc/stm32f1xx_ll_rcc.h ****   *         @arg @ref LL_RCC_SYS_CLKSOURCE_STATUS_HSE
1023:Drivers/STM32F1xx_HAL_Driver/Inc/stm32f1xx_ll_rcc.h ****   *         @arg @ref LL_RCC_SYS_CLKSOURCE_STATUS_PLL
1024:Drivers/STM32F1xx_HAL_Driver/Inc/stm32f1xx_ll_rcc.h ****   */
1025:Drivers/STM32F1xx_HAL_Driver/Inc/stm32f1xx_ll_rcc.h **** __STATIC_INLINE uint32_t LL_RCC_GetSysClkSource(void)
1026:Drivers/STM32F1xx_HAL_Driver/Inc/stm32f1xx_ll_rcc.h **** {
1027:Drivers/STM32F1xx_HAL_Driver/Inc/stm32f1xx_ll_rcc.h ****   return (uint32_t)(READ_BIT(RCC->CFGR, RCC_CFGR_SWS));
1028:Drivers/STM32F1xx_HAL_Driver/Inc/stm32f1xx_ll_rcc.h **** }
1029:Drivers/STM32F1xx_HAL_Driver/Inc/stm32f1xx_ll_rcc.h **** 
1030:Drivers/STM32F1xx_HAL_Driver/Inc/stm32f1xx_ll_rcc.h **** /**
1031:Drivers/STM32F1xx_HAL_Driver/Inc/stm32f1xx_ll_rcc.h ****   * @brief  Set AHB prescaler
1032:Drivers/STM32F1xx_HAL_Driver/Inc/stm32f1xx_ll_rcc.h ****   * @rmtoll CFGR         HPRE          LL_RCC_SetAHBPrescaler
1033:Drivers/STM32F1xx_HAL_Driver/Inc/stm32f1xx_ll_rcc.h ****   * @param  Prescaler This parameter can be one of the following values:
1034:Drivers/STM32F1xx_HAL_Driver/Inc/stm32f1xx_ll_rcc.h ****   *         @arg @ref LL_RCC_SYSCLK_DIV_1
1035:Drivers/STM32F1xx_HAL_Driver/Inc/stm32f1xx_ll_rcc.h ****   *         @arg @ref LL_RCC_SYSCLK_DIV_2
1036:Drivers/STM32F1xx_HAL_Driver/Inc/stm32f1xx_ll_rcc.h ****   *         @arg @ref LL_RCC_SYSCLK_DIV_4
1037:Drivers/STM32F1xx_HAL_Driver/Inc/stm32f1xx_ll_rcc.h ****   *         @arg @ref LL_RCC_SYSCLK_DIV_8
1038:Drivers/STM32F1xx_HAL_Driver/Inc/stm32f1xx_ll_rcc.h ****   *         @arg @ref LL_RCC_SYSCLK_DIV_16
1039:Drivers/STM32F1xx_HAL_Driver/Inc/stm32f1xx_ll_rcc.h ****   *         @arg @ref LL_RCC_SYSCLK_DIV_64
1040:Drivers/STM32F1xx_HAL_Driver/Inc/stm32f1xx_ll_rcc.h ****   *         @arg @ref LL_RCC_SYSCLK_DIV_128
1041:Drivers/STM32F1xx_HAL_Driver/Inc/stm32f1xx_ll_rcc.h ****   *         @arg @ref LL_RCC_SYSCLK_DIV_256
1042:Drivers/STM32F1xx_HAL_Driver/Inc/stm32f1xx_ll_rcc.h ****   *         @arg @ref LL_RCC_SYSCLK_DIV_512
1043:Drivers/STM32F1xx_HAL_Driver/Inc/stm32f1xx_ll_rcc.h ****   * @retval None
1044:Drivers/STM32F1xx_HAL_Driver/Inc/stm32f1xx_ll_rcc.h ****   */
1045:Drivers/STM32F1xx_HAL_Driver/Inc/stm32f1xx_ll_rcc.h **** __STATIC_INLINE void LL_RCC_SetAHBPrescaler(uint32_t Prescaler)
1046:Drivers/STM32F1xx_HAL_Driver/Inc/stm32f1xx_ll_rcc.h **** {
1047:Drivers/STM32F1xx_HAL_Driver/Inc/stm32f1xx_ll_rcc.h ****   MODIFY_REG(RCC->CFGR, RCC_CFGR_HPRE, Prescaler);
1048:Drivers/STM32F1xx_HAL_Driver/Inc/stm32f1xx_ll_rcc.h **** }
1049:Drivers/STM32F1xx_HAL_Driver/Inc/stm32f1xx_ll_rcc.h **** 
1050:Drivers/STM32F1xx_HAL_Driver/Inc/stm32f1xx_ll_rcc.h **** /**
1051:Drivers/STM32F1xx_HAL_Driver/Inc/stm32f1xx_ll_rcc.h ****   * @brief  Set APB1 prescaler
1052:Drivers/STM32F1xx_HAL_Driver/Inc/stm32f1xx_ll_rcc.h ****   * @rmtoll CFGR         PPRE1         LL_RCC_SetAPB1Prescaler
1053:Drivers/STM32F1xx_HAL_Driver/Inc/stm32f1xx_ll_rcc.h ****   * @param  Prescaler This parameter can be one of the following values:
1054:Drivers/STM32F1xx_HAL_Driver/Inc/stm32f1xx_ll_rcc.h ****   *         @arg @ref LL_RCC_APB1_DIV_1
1055:Drivers/STM32F1xx_HAL_Driver/Inc/stm32f1xx_ll_rcc.h ****   *         @arg @ref LL_RCC_APB1_DIV_2
1056:Drivers/STM32F1xx_HAL_Driver/Inc/stm32f1xx_ll_rcc.h ****   *         @arg @ref LL_RCC_APB1_DIV_4
1057:Drivers/STM32F1xx_HAL_Driver/Inc/stm32f1xx_ll_rcc.h ****   *         @arg @ref LL_RCC_APB1_DIV_8
1058:Drivers/STM32F1xx_HAL_Driver/Inc/stm32f1xx_ll_rcc.h ****   *         @arg @ref LL_RCC_APB1_DIV_16
1059:Drivers/STM32F1xx_HAL_Driver/Inc/stm32f1xx_ll_rcc.h ****   * @retval None
ARM GAS  /tmp/ccLXhlQB.s 			page 33


1060:Drivers/STM32F1xx_HAL_Driver/Inc/stm32f1xx_ll_rcc.h ****   */
1061:Drivers/STM32F1xx_HAL_Driver/Inc/stm32f1xx_ll_rcc.h **** __STATIC_INLINE void LL_RCC_SetAPB1Prescaler(uint32_t Prescaler)
1062:Drivers/STM32F1xx_HAL_Driver/Inc/stm32f1xx_ll_rcc.h **** {
1063:Drivers/STM32F1xx_HAL_Driver/Inc/stm32f1xx_ll_rcc.h ****   MODIFY_REG(RCC->CFGR, RCC_CFGR_PPRE1, Prescaler);
1064:Drivers/STM32F1xx_HAL_Driver/Inc/stm32f1xx_ll_rcc.h **** }
1065:Drivers/STM32F1xx_HAL_Driver/Inc/stm32f1xx_ll_rcc.h **** 
1066:Drivers/STM32F1xx_HAL_Driver/Inc/stm32f1xx_ll_rcc.h **** /**
1067:Drivers/STM32F1xx_HAL_Driver/Inc/stm32f1xx_ll_rcc.h ****   * @brief  Set APB2 prescaler
1068:Drivers/STM32F1xx_HAL_Driver/Inc/stm32f1xx_ll_rcc.h ****   * @rmtoll CFGR         PPRE2         LL_RCC_SetAPB2Prescaler
1069:Drivers/STM32F1xx_HAL_Driver/Inc/stm32f1xx_ll_rcc.h ****   * @param  Prescaler This parameter can be one of the following values:
1070:Drivers/STM32F1xx_HAL_Driver/Inc/stm32f1xx_ll_rcc.h ****   *         @arg @ref LL_RCC_APB2_DIV_1
1071:Drivers/STM32F1xx_HAL_Driver/Inc/stm32f1xx_ll_rcc.h ****   *         @arg @ref LL_RCC_APB2_DIV_2
1072:Drivers/STM32F1xx_HAL_Driver/Inc/stm32f1xx_ll_rcc.h ****   *         @arg @ref LL_RCC_APB2_DIV_4
1073:Drivers/STM32F1xx_HAL_Driver/Inc/stm32f1xx_ll_rcc.h ****   *         @arg @ref LL_RCC_APB2_DIV_8
1074:Drivers/STM32F1xx_HAL_Driver/Inc/stm32f1xx_ll_rcc.h ****   *         @arg @ref LL_RCC_APB2_DIV_16
1075:Drivers/STM32F1xx_HAL_Driver/Inc/stm32f1xx_ll_rcc.h ****   * @retval None
1076:Drivers/STM32F1xx_HAL_Driver/Inc/stm32f1xx_ll_rcc.h ****   */
1077:Drivers/STM32F1xx_HAL_Driver/Inc/stm32f1xx_ll_rcc.h **** __STATIC_INLINE void LL_RCC_SetAPB2Prescaler(uint32_t Prescaler)
1078:Drivers/STM32F1xx_HAL_Driver/Inc/stm32f1xx_ll_rcc.h **** {
1079:Drivers/STM32F1xx_HAL_Driver/Inc/stm32f1xx_ll_rcc.h ****   MODIFY_REG(RCC->CFGR, RCC_CFGR_PPRE2, Prescaler);
1080:Drivers/STM32F1xx_HAL_Driver/Inc/stm32f1xx_ll_rcc.h **** }
1081:Drivers/STM32F1xx_HAL_Driver/Inc/stm32f1xx_ll_rcc.h **** 
1082:Drivers/STM32F1xx_HAL_Driver/Inc/stm32f1xx_ll_rcc.h **** /**
1083:Drivers/STM32F1xx_HAL_Driver/Inc/stm32f1xx_ll_rcc.h ****   * @brief  Get AHB prescaler
1084:Drivers/STM32F1xx_HAL_Driver/Inc/stm32f1xx_ll_rcc.h ****   * @rmtoll CFGR         HPRE          LL_RCC_GetAHBPrescaler
1085:Drivers/STM32F1xx_HAL_Driver/Inc/stm32f1xx_ll_rcc.h ****   * @retval Returned value can be one of the following values:
1086:Drivers/STM32F1xx_HAL_Driver/Inc/stm32f1xx_ll_rcc.h ****   *         @arg @ref LL_RCC_SYSCLK_DIV_1
1087:Drivers/STM32F1xx_HAL_Driver/Inc/stm32f1xx_ll_rcc.h ****   *         @arg @ref LL_RCC_SYSCLK_DIV_2
1088:Drivers/STM32F1xx_HAL_Driver/Inc/stm32f1xx_ll_rcc.h ****   *         @arg @ref LL_RCC_SYSCLK_DIV_4
1089:Drivers/STM32F1xx_HAL_Driver/Inc/stm32f1xx_ll_rcc.h ****   *         @arg @ref LL_RCC_SYSCLK_DIV_8
1090:Drivers/STM32F1xx_HAL_Driver/Inc/stm32f1xx_ll_rcc.h ****   *         @arg @ref LL_RCC_SYSCLK_DIV_16
1091:Drivers/STM32F1xx_HAL_Driver/Inc/stm32f1xx_ll_rcc.h ****   *         @arg @ref LL_RCC_SYSCLK_DIV_64
1092:Drivers/STM32F1xx_HAL_Driver/Inc/stm32f1xx_ll_rcc.h ****   *         @arg @ref LL_RCC_SYSCLK_DIV_128
1093:Drivers/STM32F1xx_HAL_Driver/Inc/stm32f1xx_ll_rcc.h ****   *         @arg @ref LL_RCC_SYSCLK_DIV_256
1094:Drivers/STM32F1xx_HAL_Driver/Inc/stm32f1xx_ll_rcc.h ****   *         @arg @ref LL_RCC_SYSCLK_DIV_512
1095:Drivers/STM32F1xx_HAL_Driver/Inc/stm32f1xx_ll_rcc.h ****   */
1096:Drivers/STM32F1xx_HAL_Driver/Inc/stm32f1xx_ll_rcc.h **** __STATIC_INLINE uint32_t LL_RCC_GetAHBPrescaler(void)
1097:Drivers/STM32F1xx_HAL_Driver/Inc/stm32f1xx_ll_rcc.h **** {
1098:Drivers/STM32F1xx_HAL_Driver/Inc/stm32f1xx_ll_rcc.h ****   return (uint32_t)(READ_BIT(RCC->CFGR, RCC_CFGR_HPRE));
1099:Drivers/STM32F1xx_HAL_Driver/Inc/stm32f1xx_ll_rcc.h **** }
1100:Drivers/STM32F1xx_HAL_Driver/Inc/stm32f1xx_ll_rcc.h **** 
1101:Drivers/STM32F1xx_HAL_Driver/Inc/stm32f1xx_ll_rcc.h **** /**
1102:Drivers/STM32F1xx_HAL_Driver/Inc/stm32f1xx_ll_rcc.h ****   * @brief  Get APB1 prescaler
1103:Drivers/STM32F1xx_HAL_Driver/Inc/stm32f1xx_ll_rcc.h ****   * @rmtoll CFGR         PPRE1         LL_RCC_GetAPB1Prescaler
1104:Drivers/STM32F1xx_HAL_Driver/Inc/stm32f1xx_ll_rcc.h ****   * @retval Returned value can be one of the following values:
1105:Drivers/STM32F1xx_HAL_Driver/Inc/stm32f1xx_ll_rcc.h ****   *         @arg @ref LL_RCC_APB1_DIV_1
1106:Drivers/STM32F1xx_HAL_Driver/Inc/stm32f1xx_ll_rcc.h ****   *         @arg @ref LL_RCC_APB1_DIV_2
1107:Drivers/STM32F1xx_HAL_Driver/Inc/stm32f1xx_ll_rcc.h ****   *         @arg @ref LL_RCC_APB1_DIV_4
1108:Drivers/STM32F1xx_HAL_Driver/Inc/stm32f1xx_ll_rcc.h ****   *         @arg @ref LL_RCC_APB1_DIV_8
1109:Drivers/STM32F1xx_HAL_Driver/Inc/stm32f1xx_ll_rcc.h ****   *         @arg @ref LL_RCC_APB1_DIV_16
1110:Drivers/STM32F1xx_HAL_Driver/Inc/stm32f1xx_ll_rcc.h ****   */
1111:Drivers/STM32F1xx_HAL_Driver/Inc/stm32f1xx_ll_rcc.h **** __STATIC_INLINE uint32_t LL_RCC_GetAPB1Prescaler(void)
1112:Drivers/STM32F1xx_HAL_Driver/Inc/stm32f1xx_ll_rcc.h **** {
1113:Drivers/STM32F1xx_HAL_Driver/Inc/stm32f1xx_ll_rcc.h ****   return (uint32_t)(READ_BIT(RCC->CFGR, RCC_CFGR_PPRE1));
1114:Drivers/STM32F1xx_HAL_Driver/Inc/stm32f1xx_ll_rcc.h **** }
1115:Drivers/STM32F1xx_HAL_Driver/Inc/stm32f1xx_ll_rcc.h **** 
1116:Drivers/STM32F1xx_HAL_Driver/Inc/stm32f1xx_ll_rcc.h **** /**
ARM GAS  /tmp/ccLXhlQB.s 			page 34


1117:Drivers/STM32F1xx_HAL_Driver/Inc/stm32f1xx_ll_rcc.h ****   * @brief  Get APB2 prescaler
1118:Drivers/STM32F1xx_HAL_Driver/Inc/stm32f1xx_ll_rcc.h ****   * @rmtoll CFGR         PPRE2         LL_RCC_GetAPB2Prescaler
1119:Drivers/STM32F1xx_HAL_Driver/Inc/stm32f1xx_ll_rcc.h ****   * @retval Returned value can be one of the following values:
1120:Drivers/STM32F1xx_HAL_Driver/Inc/stm32f1xx_ll_rcc.h ****   *         @arg @ref LL_RCC_APB2_DIV_1
1121:Drivers/STM32F1xx_HAL_Driver/Inc/stm32f1xx_ll_rcc.h ****   *         @arg @ref LL_RCC_APB2_DIV_2
1122:Drivers/STM32F1xx_HAL_Driver/Inc/stm32f1xx_ll_rcc.h ****   *         @arg @ref LL_RCC_APB2_DIV_4
1123:Drivers/STM32F1xx_HAL_Driver/Inc/stm32f1xx_ll_rcc.h ****   *         @arg @ref LL_RCC_APB2_DIV_8
1124:Drivers/STM32F1xx_HAL_Driver/Inc/stm32f1xx_ll_rcc.h ****   *         @arg @ref LL_RCC_APB2_DIV_16
1125:Drivers/STM32F1xx_HAL_Driver/Inc/stm32f1xx_ll_rcc.h ****   */
1126:Drivers/STM32F1xx_HAL_Driver/Inc/stm32f1xx_ll_rcc.h **** __STATIC_INLINE uint32_t LL_RCC_GetAPB2Prescaler(void)
1127:Drivers/STM32F1xx_HAL_Driver/Inc/stm32f1xx_ll_rcc.h **** {
1128:Drivers/STM32F1xx_HAL_Driver/Inc/stm32f1xx_ll_rcc.h ****   return (uint32_t)(READ_BIT(RCC->CFGR, RCC_CFGR_PPRE2));
1129:Drivers/STM32F1xx_HAL_Driver/Inc/stm32f1xx_ll_rcc.h **** }
1130:Drivers/STM32F1xx_HAL_Driver/Inc/stm32f1xx_ll_rcc.h **** 
1131:Drivers/STM32F1xx_HAL_Driver/Inc/stm32f1xx_ll_rcc.h **** /**
1132:Drivers/STM32F1xx_HAL_Driver/Inc/stm32f1xx_ll_rcc.h ****   * @}
1133:Drivers/STM32F1xx_HAL_Driver/Inc/stm32f1xx_ll_rcc.h ****   */
1134:Drivers/STM32F1xx_HAL_Driver/Inc/stm32f1xx_ll_rcc.h **** 
1135:Drivers/STM32F1xx_HAL_Driver/Inc/stm32f1xx_ll_rcc.h **** /** @defgroup RCC_LL_EF_MCO MCO
1136:Drivers/STM32F1xx_HAL_Driver/Inc/stm32f1xx_ll_rcc.h ****   * @{
1137:Drivers/STM32F1xx_HAL_Driver/Inc/stm32f1xx_ll_rcc.h ****   */
1138:Drivers/STM32F1xx_HAL_Driver/Inc/stm32f1xx_ll_rcc.h **** 
1139:Drivers/STM32F1xx_HAL_Driver/Inc/stm32f1xx_ll_rcc.h **** /**
1140:Drivers/STM32F1xx_HAL_Driver/Inc/stm32f1xx_ll_rcc.h ****   * @brief  Configure MCOx
1141:Drivers/STM32F1xx_HAL_Driver/Inc/stm32f1xx_ll_rcc.h ****   * @rmtoll CFGR         MCO           LL_RCC_ConfigMCO
1142:Drivers/STM32F1xx_HAL_Driver/Inc/stm32f1xx_ll_rcc.h ****   * @param  MCOxSource This parameter can be one of the following values:
1143:Drivers/STM32F1xx_HAL_Driver/Inc/stm32f1xx_ll_rcc.h ****   *         @arg @ref LL_RCC_MCO1SOURCE_NOCLOCK
1144:Drivers/STM32F1xx_HAL_Driver/Inc/stm32f1xx_ll_rcc.h ****   *         @arg @ref LL_RCC_MCO1SOURCE_SYSCLK
1145:Drivers/STM32F1xx_HAL_Driver/Inc/stm32f1xx_ll_rcc.h ****   *         @arg @ref LL_RCC_MCO1SOURCE_HSI
1146:Drivers/STM32F1xx_HAL_Driver/Inc/stm32f1xx_ll_rcc.h ****   *         @arg @ref LL_RCC_MCO1SOURCE_HSE
1147:Drivers/STM32F1xx_HAL_Driver/Inc/stm32f1xx_ll_rcc.h ****   *         @arg @ref LL_RCC_MCO1SOURCE_PLLCLK_DIV_2
1148:Drivers/STM32F1xx_HAL_Driver/Inc/stm32f1xx_ll_rcc.h ****   *         @arg @ref LL_RCC_MCO1SOURCE_PLL2CLK (*)
1149:Drivers/STM32F1xx_HAL_Driver/Inc/stm32f1xx_ll_rcc.h ****   *         @arg @ref LL_RCC_MCO1SOURCE_PLLI2SCLK_DIV2 (*)
1150:Drivers/STM32F1xx_HAL_Driver/Inc/stm32f1xx_ll_rcc.h ****   *         @arg @ref LL_RCC_MCO1SOURCE_EXT_HSE (*)
1151:Drivers/STM32F1xx_HAL_Driver/Inc/stm32f1xx_ll_rcc.h ****   *         @arg @ref LL_RCC_MCO1SOURCE_PLLI2SCLK (*)
1152:Drivers/STM32F1xx_HAL_Driver/Inc/stm32f1xx_ll_rcc.h ****   *
1153:Drivers/STM32F1xx_HAL_Driver/Inc/stm32f1xx_ll_rcc.h ****   *         (*) value not defined in all devices
1154:Drivers/STM32F1xx_HAL_Driver/Inc/stm32f1xx_ll_rcc.h ****   * @retval None
1155:Drivers/STM32F1xx_HAL_Driver/Inc/stm32f1xx_ll_rcc.h ****   */
1156:Drivers/STM32F1xx_HAL_Driver/Inc/stm32f1xx_ll_rcc.h **** __STATIC_INLINE void LL_RCC_ConfigMCO(uint32_t MCOxSource)
1157:Drivers/STM32F1xx_HAL_Driver/Inc/stm32f1xx_ll_rcc.h **** {
1158:Drivers/STM32F1xx_HAL_Driver/Inc/stm32f1xx_ll_rcc.h ****   MODIFY_REG(RCC->CFGR, RCC_CFGR_MCOSEL, MCOxSource);
1159:Drivers/STM32F1xx_HAL_Driver/Inc/stm32f1xx_ll_rcc.h **** }
1160:Drivers/STM32F1xx_HAL_Driver/Inc/stm32f1xx_ll_rcc.h **** 
1161:Drivers/STM32F1xx_HAL_Driver/Inc/stm32f1xx_ll_rcc.h **** /**
1162:Drivers/STM32F1xx_HAL_Driver/Inc/stm32f1xx_ll_rcc.h ****   * @}
1163:Drivers/STM32F1xx_HAL_Driver/Inc/stm32f1xx_ll_rcc.h ****   */
1164:Drivers/STM32F1xx_HAL_Driver/Inc/stm32f1xx_ll_rcc.h **** 
1165:Drivers/STM32F1xx_HAL_Driver/Inc/stm32f1xx_ll_rcc.h **** /** @defgroup RCC_LL_EF_Peripheral_Clock_Source Peripheral Clock Source
1166:Drivers/STM32F1xx_HAL_Driver/Inc/stm32f1xx_ll_rcc.h ****   * @{
1167:Drivers/STM32F1xx_HAL_Driver/Inc/stm32f1xx_ll_rcc.h ****   */
1168:Drivers/STM32F1xx_HAL_Driver/Inc/stm32f1xx_ll_rcc.h **** 
1169:Drivers/STM32F1xx_HAL_Driver/Inc/stm32f1xx_ll_rcc.h **** #if defined(RCC_CFGR2_I2S2SRC)
1170:Drivers/STM32F1xx_HAL_Driver/Inc/stm32f1xx_ll_rcc.h **** /**
1171:Drivers/STM32F1xx_HAL_Driver/Inc/stm32f1xx_ll_rcc.h ****   * @brief  Configure I2Sx clock source
1172:Drivers/STM32F1xx_HAL_Driver/Inc/stm32f1xx_ll_rcc.h ****   * @rmtoll CFGR2        I2S2SRC       LL_RCC_SetI2SClockSource\n
1173:Drivers/STM32F1xx_HAL_Driver/Inc/stm32f1xx_ll_rcc.h ****   *         CFGR2        I2S3SRC       LL_RCC_SetI2SClockSource
ARM GAS  /tmp/ccLXhlQB.s 			page 35


1174:Drivers/STM32F1xx_HAL_Driver/Inc/stm32f1xx_ll_rcc.h ****   * @param  I2SxSource This parameter can be one of the following values:
1175:Drivers/STM32F1xx_HAL_Driver/Inc/stm32f1xx_ll_rcc.h ****   *         @arg @ref LL_RCC_I2S2_CLKSOURCE_SYSCLK
1176:Drivers/STM32F1xx_HAL_Driver/Inc/stm32f1xx_ll_rcc.h ****   *         @arg @ref LL_RCC_I2S2_CLKSOURCE_PLLI2S_VCO
1177:Drivers/STM32F1xx_HAL_Driver/Inc/stm32f1xx_ll_rcc.h ****   *         @arg @ref LL_RCC_I2S3_CLKSOURCE_SYSCLK
1178:Drivers/STM32F1xx_HAL_Driver/Inc/stm32f1xx_ll_rcc.h ****   *         @arg @ref LL_RCC_I2S3_CLKSOURCE_PLLI2S_VCO
1179:Drivers/STM32F1xx_HAL_Driver/Inc/stm32f1xx_ll_rcc.h ****   * @retval None
1180:Drivers/STM32F1xx_HAL_Driver/Inc/stm32f1xx_ll_rcc.h ****   */
1181:Drivers/STM32F1xx_HAL_Driver/Inc/stm32f1xx_ll_rcc.h **** __STATIC_INLINE void LL_RCC_SetI2SClockSource(uint32_t I2SxSource)
1182:Drivers/STM32F1xx_HAL_Driver/Inc/stm32f1xx_ll_rcc.h **** {
1183:Drivers/STM32F1xx_HAL_Driver/Inc/stm32f1xx_ll_rcc.h ****   MODIFY_REG(RCC->CFGR2, (I2SxSource & 0xFFFF0000U), (I2SxSource << 16U));
1184:Drivers/STM32F1xx_HAL_Driver/Inc/stm32f1xx_ll_rcc.h **** }
1185:Drivers/STM32F1xx_HAL_Driver/Inc/stm32f1xx_ll_rcc.h **** #endif /* RCC_CFGR2_I2S2SRC */
1186:Drivers/STM32F1xx_HAL_Driver/Inc/stm32f1xx_ll_rcc.h **** 
1187:Drivers/STM32F1xx_HAL_Driver/Inc/stm32f1xx_ll_rcc.h **** #if defined(USB_OTG_FS) || defined(USB)
1188:Drivers/STM32F1xx_HAL_Driver/Inc/stm32f1xx_ll_rcc.h **** /**
1189:Drivers/STM32F1xx_HAL_Driver/Inc/stm32f1xx_ll_rcc.h ****   * @brief  Configure USB clock source
1190:Drivers/STM32F1xx_HAL_Driver/Inc/stm32f1xx_ll_rcc.h ****   * @rmtoll CFGR         OTGFSPRE      LL_RCC_SetUSBClockSource\n
1191:Drivers/STM32F1xx_HAL_Driver/Inc/stm32f1xx_ll_rcc.h ****   *         CFGR         USBPRE        LL_RCC_SetUSBClockSource
1192:Drivers/STM32F1xx_HAL_Driver/Inc/stm32f1xx_ll_rcc.h ****   * @param  USBxSource This parameter can be one of the following values:
1193:Drivers/STM32F1xx_HAL_Driver/Inc/stm32f1xx_ll_rcc.h ****   *         @arg @ref LL_RCC_USB_CLKSOURCE_PLL (*)
1194:Drivers/STM32F1xx_HAL_Driver/Inc/stm32f1xx_ll_rcc.h ****   *         @arg @ref LL_RCC_USB_CLKSOURCE_PLL_DIV_1_5 (*)
1195:Drivers/STM32F1xx_HAL_Driver/Inc/stm32f1xx_ll_rcc.h ****   *         @arg @ref LL_RCC_USB_CLKSOURCE_PLL_DIV_2 (*)
1196:Drivers/STM32F1xx_HAL_Driver/Inc/stm32f1xx_ll_rcc.h ****   *         @arg @ref LL_RCC_USB_CLKSOURCE_PLL_DIV_3 (*)
1197:Drivers/STM32F1xx_HAL_Driver/Inc/stm32f1xx_ll_rcc.h ****   *
1198:Drivers/STM32F1xx_HAL_Driver/Inc/stm32f1xx_ll_rcc.h ****   *         (*) value not defined in all devices
1199:Drivers/STM32F1xx_HAL_Driver/Inc/stm32f1xx_ll_rcc.h ****   * @retval None
1200:Drivers/STM32F1xx_HAL_Driver/Inc/stm32f1xx_ll_rcc.h ****   */
1201:Drivers/STM32F1xx_HAL_Driver/Inc/stm32f1xx_ll_rcc.h **** __STATIC_INLINE void LL_RCC_SetUSBClockSource(uint32_t USBxSource)
1202:Drivers/STM32F1xx_HAL_Driver/Inc/stm32f1xx_ll_rcc.h **** {
1203:Drivers/STM32F1xx_HAL_Driver/Inc/stm32f1xx_ll_rcc.h **** #if defined(RCC_CFGR_USBPRE)
1204:Drivers/STM32F1xx_HAL_Driver/Inc/stm32f1xx_ll_rcc.h ****   MODIFY_REG(RCC->CFGR, RCC_CFGR_USBPRE, USBxSource);
1205:Drivers/STM32F1xx_HAL_Driver/Inc/stm32f1xx_ll_rcc.h **** #else /*RCC_CFGR_OTGFSPRE*/
1206:Drivers/STM32F1xx_HAL_Driver/Inc/stm32f1xx_ll_rcc.h ****   MODIFY_REG(RCC->CFGR, RCC_CFGR_OTGFSPRE, USBxSource);
1207:Drivers/STM32F1xx_HAL_Driver/Inc/stm32f1xx_ll_rcc.h **** #endif /*RCC_CFGR_USBPRE*/
1208:Drivers/STM32F1xx_HAL_Driver/Inc/stm32f1xx_ll_rcc.h **** }
1209:Drivers/STM32F1xx_HAL_Driver/Inc/stm32f1xx_ll_rcc.h **** #endif /* USB_OTG_FS || USB */
1210:Drivers/STM32F1xx_HAL_Driver/Inc/stm32f1xx_ll_rcc.h **** 
1211:Drivers/STM32F1xx_HAL_Driver/Inc/stm32f1xx_ll_rcc.h **** /**
1212:Drivers/STM32F1xx_HAL_Driver/Inc/stm32f1xx_ll_rcc.h ****   * @brief  Configure ADC clock source
1213:Drivers/STM32F1xx_HAL_Driver/Inc/stm32f1xx_ll_rcc.h ****   * @rmtoll CFGR         ADCPRE        LL_RCC_SetADCClockSource
1214:Drivers/STM32F1xx_HAL_Driver/Inc/stm32f1xx_ll_rcc.h ****   * @param  ADCxSource This parameter can be one of the following values:
1215:Drivers/STM32F1xx_HAL_Driver/Inc/stm32f1xx_ll_rcc.h ****   *         @arg @ref LL_RCC_ADC_CLKSRC_PCLK2_DIV_2
1216:Drivers/STM32F1xx_HAL_Driver/Inc/stm32f1xx_ll_rcc.h ****   *         @arg @ref LL_RCC_ADC_CLKSRC_PCLK2_DIV_4
1217:Drivers/STM32F1xx_HAL_Driver/Inc/stm32f1xx_ll_rcc.h ****   *         @arg @ref LL_RCC_ADC_CLKSRC_PCLK2_DIV_6
1218:Drivers/STM32F1xx_HAL_Driver/Inc/stm32f1xx_ll_rcc.h ****   *         @arg @ref LL_RCC_ADC_CLKSRC_PCLK2_DIV_8
1219:Drivers/STM32F1xx_HAL_Driver/Inc/stm32f1xx_ll_rcc.h ****   * @retval None
1220:Drivers/STM32F1xx_HAL_Driver/Inc/stm32f1xx_ll_rcc.h ****   */
1221:Drivers/STM32F1xx_HAL_Driver/Inc/stm32f1xx_ll_rcc.h **** __STATIC_INLINE void LL_RCC_SetADCClockSource(uint32_t ADCxSource)
1222:Drivers/STM32F1xx_HAL_Driver/Inc/stm32f1xx_ll_rcc.h **** {
1223:Drivers/STM32F1xx_HAL_Driver/Inc/stm32f1xx_ll_rcc.h ****   MODIFY_REG(RCC->CFGR, RCC_CFGR_ADCPRE, ADCxSource);
1224:Drivers/STM32F1xx_HAL_Driver/Inc/stm32f1xx_ll_rcc.h **** }
1225:Drivers/STM32F1xx_HAL_Driver/Inc/stm32f1xx_ll_rcc.h **** 
1226:Drivers/STM32F1xx_HAL_Driver/Inc/stm32f1xx_ll_rcc.h **** #if defined(RCC_CFGR2_I2S2SRC)
1227:Drivers/STM32F1xx_HAL_Driver/Inc/stm32f1xx_ll_rcc.h **** /**
1228:Drivers/STM32F1xx_HAL_Driver/Inc/stm32f1xx_ll_rcc.h ****   * @brief  Get I2Sx clock source
1229:Drivers/STM32F1xx_HAL_Driver/Inc/stm32f1xx_ll_rcc.h ****   * @rmtoll CFGR2        I2S2SRC       LL_RCC_GetI2SClockSource\n
1230:Drivers/STM32F1xx_HAL_Driver/Inc/stm32f1xx_ll_rcc.h ****   *         CFGR2        I2S3SRC       LL_RCC_GetI2SClockSource
ARM GAS  /tmp/ccLXhlQB.s 			page 36


1231:Drivers/STM32F1xx_HAL_Driver/Inc/stm32f1xx_ll_rcc.h ****   * @param  I2Sx This parameter can be one of the following values:
1232:Drivers/STM32F1xx_HAL_Driver/Inc/stm32f1xx_ll_rcc.h ****   *         @arg @ref LL_RCC_I2S2_CLKSOURCE
1233:Drivers/STM32F1xx_HAL_Driver/Inc/stm32f1xx_ll_rcc.h ****   *         @arg @ref LL_RCC_I2S3_CLKSOURCE
1234:Drivers/STM32F1xx_HAL_Driver/Inc/stm32f1xx_ll_rcc.h ****   * @retval Returned value can be one of the following values:
1235:Drivers/STM32F1xx_HAL_Driver/Inc/stm32f1xx_ll_rcc.h ****   *         @arg @ref LL_RCC_I2S2_CLKSOURCE_SYSCLK
1236:Drivers/STM32F1xx_HAL_Driver/Inc/stm32f1xx_ll_rcc.h ****   *         @arg @ref LL_RCC_I2S2_CLKSOURCE_PLLI2S_VCO
1237:Drivers/STM32F1xx_HAL_Driver/Inc/stm32f1xx_ll_rcc.h ****   *         @arg @ref LL_RCC_I2S3_CLKSOURCE_SYSCLK
1238:Drivers/STM32F1xx_HAL_Driver/Inc/stm32f1xx_ll_rcc.h ****   *         @arg @ref LL_RCC_I2S3_CLKSOURCE_PLLI2S_VCO
1239:Drivers/STM32F1xx_HAL_Driver/Inc/stm32f1xx_ll_rcc.h ****   */
1240:Drivers/STM32F1xx_HAL_Driver/Inc/stm32f1xx_ll_rcc.h **** __STATIC_INLINE uint32_t LL_RCC_GetI2SClockSource(uint32_t I2Sx)
1241:Drivers/STM32F1xx_HAL_Driver/Inc/stm32f1xx_ll_rcc.h **** {
1242:Drivers/STM32F1xx_HAL_Driver/Inc/stm32f1xx_ll_rcc.h ****   return (uint32_t)(READ_BIT(RCC->CFGR2, I2Sx) >> 16U | I2Sx);
1243:Drivers/STM32F1xx_HAL_Driver/Inc/stm32f1xx_ll_rcc.h **** }
1244:Drivers/STM32F1xx_HAL_Driver/Inc/stm32f1xx_ll_rcc.h **** #endif /* RCC_CFGR2_I2S2SRC */
1245:Drivers/STM32F1xx_HAL_Driver/Inc/stm32f1xx_ll_rcc.h **** 
1246:Drivers/STM32F1xx_HAL_Driver/Inc/stm32f1xx_ll_rcc.h **** #if defined(USB_OTG_FS) || defined(USB)
1247:Drivers/STM32F1xx_HAL_Driver/Inc/stm32f1xx_ll_rcc.h **** /**
1248:Drivers/STM32F1xx_HAL_Driver/Inc/stm32f1xx_ll_rcc.h ****   * @brief  Get USBx clock source
1249:Drivers/STM32F1xx_HAL_Driver/Inc/stm32f1xx_ll_rcc.h ****   * @rmtoll CFGR         OTGFSPRE      LL_RCC_GetUSBClockSource\n
1250:Drivers/STM32F1xx_HAL_Driver/Inc/stm32f1xx_ll_rcc.h ****   *         CFGR         USBPRE        LL_RCC_GetUSBClockSource
1251:Drivers/STM32F1xx_HAL_Driver/Inc/stm32f1xx_ll_rcc.h ****   * @param  USBx This parameter can be one of the following values:
1252:Drivers/STM32F1xx_HAL_Driver/Inc/stm32f1xx_ll_rcc.h ****   *         @arg @ref LL_RCC_USB_CLKSOURCE
1253:Drivers/STM32F1xx_HAL_Driver/Inc/stm32f1xx_ll_rcc.h ****   * @retval Returned value can be one of the following values:
1254:Drivers/STM32F1xx_HAL_Driver/Inc/stm32f1xx_ll_rcc.h ****   *         @arg @ref LL_RCC_USB_CLKSOURCE_PLL (*)
1255:Drivers/STM32F1xx_HAL_Driver/Inc/stm32f1xx_ll_rcc.h ****   *         @arg @ref LL_RCC_USB_CLKSOURCE_PLL_DIV_1_5 (*)
1256:Drivers/STM32F1xx_HAL_Driver/Inc/stm32f1xx_ll_rcc.h ****   *         @arg @ref LL_RCC_USB_CLKSOURCE_PLL_DIV_2 (*)
1257:Drivers/STM32F1xx_HAL_Driver/Inc/stm32f1xx_ll_rcc.h ****   *         @arg @ref LL_RCC_USB_CLKSOURCE_PLL_DIV_3 (*)
1258:Drivers/STM32F1xx_HAL_Driver/Inc/stm32f1xx_ll_rcc.h ****   *
1259:Drivers/STM32F1xx_HAL_Driver/Inc/stm32f1xx_ll_rcc.h ****   *         (*) value not defined in all devices
1260:Drivers/STM32F1xx_HAL_Driver/Inc/stm32f1xx_ll_rcc.h ****   */
1261:Drivers/STM32F1xx_HAL_Driver/Inc/stm32f1xx_ll_rcc.h **** __STATIC_INLINE uint32_t LL_RCC_GetUSBClockSource(uint32_t USBx)
1262:Drivers/STM32F1xx_HAL_Driver/Inc/stm32f1xx_ll_rcc.h **** {
1263:Drivers/STM32F1xx_HAL_Driver/Inc/stm32f1xx_ll_rcc.h ****   return (uint32_t)(READ_BIT(RCC->CFGR, USBx));
1264:Drivers/STM32F1xx_HAL_Driver/Inc/stm32f1xx_ll_rcc.h **** }
1265:Drivers/STM32F1xx_HAL_Driver/Inc/stm32f1xx_ll_rcc.h **** #endif /* USB_OTG_FS || USB */
1266:Drivers/STM32F1xx_HAL_Driver/Inc/stm32f1xx_ll_rcc.h **** 
1267:Drivers/STM32F1xx_HAL_Driver/Inc/stm32f1xx_ll_rcc.h **** /**
1268:Drivers/STM32F1xx_HAL_Driver/Inc/stm32f1xx_ll_rcc.h ****   * @brief  Get ADCx clock source
1269:Drivers/STM32F1xx_HAL_Driver/Inc/stm32f1xx_ll_rcc.h ****   * @rmtoll CFGR         ADCPRE        LL_RCC_GetADCClockSource
1270:Drivers/STM32F1xx_HAL_Driver/Inc/stm32f1xx_ll_rcc.h ****   * @param  ADCx This parameter can be one of the following values:
1271:Drivers/STM32F1xx_HAL_Driver/Inc/stm32f1xx_ll_rcc.h ****   *         @arg @ref LL_RCC_ADC_CLKSOURCE
1272:Drivers/STM32F1xx_HAL_Driver/Inc/stm32f1xx_ll_rcc.h ****   * @retval Returned value can be one of the following values:
1273:Drivers/STM32F1xx_HAL_Driver/Inc/stm32f1xx_ll_rcc.h ****   *         @arg @ref LL_RCC_ADC_CLKSRC_PCLK2_DIV_2
1274:Drivers/STM32F1xx_HAL_Driver/Inc/stm32f1xx_ll_rcc.h ****   *         @arg @ref LL_RCC_ADC_CLKSRC_PCLK2_DIV_4
1275:Drivers/STM32F1xx_HAL_Driver/Inc/stm32f1xx_ll_rcc.h ****   *         @arg @ref LL_RCC_ADC_CLKSRC_PCLK2_DIV_6
1276:Drivers/STM32F1xx_HAL_Driver/Inc/stm32f1xx_ll_rcc.h ****   *         @arg @ref LL_RCC_ADC_CLKSRC_PCLK2_DIV_8
1277:Drivers/STM32F1xx_HAL_Driver/Inc/stm32f1xx_ll_rcc.h ****   */
1278:Drivers/STM32F1xx_HAL_Driver/Inc/stm32f1xx_ll_rcc.h **** __STATIC_INLINE uint32_t LL_RCC_GetADCClockSource(uint32_t ADCx)
1279:Drivers/STM32F1xx_HAL_Driver/Inc/stm32f1xx_ll_rcc.h **** {
1280:Drivers/STM32F1xx_HAL_Driver/Inc/stm32f1xx_ll_rcc.h ****   return (uint32_t)(READ_BIT(RCC->CFGR, ADCx));
1281:Drivers/STM32F1xx_HAL_Driver/Inc/stm32f1xx_ll_rcc.h **** }
1282:Drivers/STM32F1xx_HAL_Driver/Inc/stm32f1xx_ll_rcc.h **** 
1283:Drivers/STM32F1xx_HAL_Driver/Inc/stm32f1xx_ll_rcc.h **** /**
1284:Drivers/STM32F1xx_HAL_Driver/Inc/stm32f1xx_ll_rcc.h ****   * @}
1285:Drivers/STM32F1xx_HAL_Driver/Inc/stm32f1xx_ll_rcc.h ****   */
1286:Drivers/STM32F1xx_HAL_Driver/Inc/stm32f1xx_ll_rcc.h **** 
1287:Drivers/STM32F1xx_HAL_Driver/Inc/stm32f1xx_ll_rcc.h **** /** @defgroup RCC_LL_EF_RTC RTC
ARM GAS  /tmp/ccLXhlQB.s 			page 37


1288:Drivers/STM32F1xx_HAL_Driver/Inc/stm32f1xx_ll_rcc.h ****   * @{
1289:Drivers/STM32F1xx_HAL_Driver/Inc/stm32f1xx_ll_rcc.h ****   */
1290:Drivers/STM32F1xx_HAL_Driver/Inc/stm32f1xx_ll_rcc.h **** 
1291:Drivers/STM32F1xx_HAL_Driver/Inc/stm32f1xx_ll_rcc.h **** /**
1292:Drivers/STM32F1xx_HAL_Driver/Inc/stm32f1xx_ll_rcc.h ****   * @brief  Set RTC Clock Source
1293:Drivers/STM32F1xx_HAL_Driver/Inc/stm32f1xx_ll_rcc.h ****   * @note Once the RTC clock source has been selected, it cannot be changed any more unless
1294:Drivers/STM32F1xx_HAL_Driver/Inc/stm32f1xx_ll_rcc.h ****   *       the Backup domain is reset. The BDRST bit can be used to reset them.
1295:Drivers/STM32F1xx_HAL_Driver/Inc/stm32f1xx_ll_rcc.h ****   * @rmtoll BDCR         RTCSEL        LL_RCC_SetRTCClockSource
1296:Drivers/STM32F1xx_HAL_Driver/Inc/stm32f1xx_ll_rcc.h ****   * @param  Source This parameter can be one of the following values:
1297:Drivers/STM32F1xx_HAL_Driver/Inc/stm32f1xx_ll_rcc.h ****   *         @arg @ref LL_RCC_RTC_CLKSOURCE_NONE
1298:Drivers/STM32F1xx_HAL_Driver/Inc/stm32f1xx_ll_rcc.h ****   *         @arg @ref LL_RCC_RTC_CLKSOURCE_LSE
1299:Drivers/STM32F1xx_HAL_Driver/Inc/stm32f1xx_ll_rcc.h ****   *         @arg @ref LL_RCC_RTC_CLKSOURCE_LSI
1300:Drivers/STM32F1xx_HAL_Driver/Inc/stm32f1xx_ll_rcc.h ****   *         @arg @ref LL_RCC_RTC_CLKSOURCE_HSE_DIV128
1301:Drivers/STM32F1xx_HAL_Driver/Inc/stm32f1xx_ll_rcc.h ****   * @retval None
1302:Drivers/STM32F1xx_HAL_Driver/Inc/stm32f1xx_ll_rcc.h ****   */
1303:Drivers/STM32F1xx_HAL_Driver/Inc/stm32f1xx_ll_rcc.h **** __STATIC_INLINE void LL_RCC_SetRTCClockSource(uint32_t Source)
1304:Drivers/STM32F1xx_HAL_Driver/Inc/stm32f1xx_ll_rcc.h **** {
1305:Drivers/STM32F1xx_HAL_Driver/Inc/stm32f1xx_ll_rcc.h ****   MODIFY_REG(RCC->BDCR, RCC_BDCR_RTCSEL, Source);
1306:Drivers/STM32F1xx_HAL_Driver/Inc/stm32f1xx_ll_rcc.h **** }
1307:Drivers/STM32F1xx_HAL_Driver/Inc/stm32f1xx_ll_rcc.h **** 
1308:Drivers/STM32F1xx_HAL_Driver/Inc/stm32f1xx_ll_rcc.h **** /**
1309:Drivers/STM32F1xx_HAL_Driver/Inc/stm32f1xx_ll_rcc.h ****   * @brief  Get RTC Clock Source
1310:Drivers/STM32F1xx_HAL_Driver/Inc/stm32f1xx_ll_rcc.h ****   * @rmtoll BDCR         RTCSEL        LL_RCC_GetRTCClockSource
1311:Drivers/STM32F1xx_HAL_Driver/Inc/stm32f1xx_ll_rcc.h ****   * @retval Returned value can be one of the following values:
1312:Drivers/STM32F1xx_HAL_Driver/Inc/stm32f1xx_ll_rcc.h ****   *         @arg @ref LL_RCC_RTC_CLKSOURCE_NONE
1313:Drivers/STM32F1xx_HAL_Driver/Inc/stm32f1xx_ll_rcc.h ****   *         @arg @ref LL_RCC_RTC_CLKSOURCE_LSE
1314:Drivers/STM32F1xx_HAL_Driver/Inc/stm32f1xx_ll_rcc.h ****   *         @arg @ref LL_RCC_RTC_CLKSOURCE_LSI
1315:Drivers/STM32F1xx_HAL_Driver/Inc/stm32f1xx_ll_rcc.h ****   *         @arg @ref LL_RCC_RTC_CLKSOURCE_HSE_DIV128
1316:Drivers/STM32F1xx_HAL_Driver/Inc/stm32f1xx_ll_rcc.h ****   */
1317:Drivers/STM32F1xx_HAL_Driver/Inc/stm32f1xx_ll_rcc.h **** __STATIC_INLINE uint32_t LL_RCC_GetRTCClockSource(void)
1318:Drivers/STM32F1xx_HAL_Driver/Inc/stm32f1xx_ll_rcc.h **** {
1319:Drivers/STM32F1xx_HAL_Driver/Inc/stm32f1xx_ll_rcc.h ****   return (uint32_t)(READ_BIT(RCC->BDCR, RCC_BDCR_RTCSEL));
1320:Drivers/STM32F1xx_HAL_Driver/Inc/stm32f1xx_ll_rcc.h **** }
1321:Drivers/STM32F1xx_HAL_Driver/Inc/stm32f1xx_ll_rcc.h **** 
1322:Drivers/STM32F1xx_HAL_Driver/Inc/stm32f1xx_ll_rcc.h **** /**
1323:Drivers/STM32F1xx_HAL_Driver/Inc/stm32f1xx_ll_rcc.h ****   * @brief  Enable RTC
1324:Drivers/STM32F1xx_HAL_Driver/Inc/stm32f1xx_ll_rcc.h ****   * @rmtoll BDCR         RTCEN         LL_RCC_EnableRTC
1325:Drivers/STM32F1xx_HAL_Driver/Inc/stm32f1xx_ll_rcc.h ****   * @retval None
1326:Drivers/STM32F1xx_HAL_Driver/Inc/stm32f1xx_ll_rcc.h ****   */
1327:Drivers/STM32F1xx_HAL_Driver/Inc/stm32f1xx_ll_rcc.h **** __STATIC_INLINE void LL_RCC_EnableRTC(void)
1328:Drivers/STM32F1xx_HAL_Driver/Inc/stm32f1xx_ll_rcc.h **** {
1329:Drivers/STM32F1xx_HAL_Driver/Inc/stm32f1xx_ll_rcc.h ****   SET_BIT(RCC->BDCR, RCC_BDCR_RTCEN);
1330:Drivers/STM32F1xx_HAL_Driver/Inc/stm32f1xx_ll_rcc.h **** }
1331:Drivers/STM32F1xx_HAL_Driver/Inc/stm32f1xx_ll_rcc.h **** 
1332:Drivers/STM32F1xx_HAL_Driver/Inc/stm32f1xx_ll_rcc.h **** /**
1333:Drivers/STM32F1xx_HAL_Driver/Inc/stm32f1xx_ll_rcc.h ****   * @brief  Disable RTC
1334:Drivers/STM32F1xx_HAL_Driver/Inc/stm32f1xx_ll_rcc.h ****   * @rmtoll BDCR         RTCEN         LL_RCC_DisableRTC
1335:Drivers/STM32F1xx_HAL_Driver/Inc/stm32f1xx_ll_rcc.h ****   * @retval None
1336:Drivers/STM32F1xx_HAL_Driver/Inc/stm32f1xx_ll_rcc.h ****   */
1337:Drivers/STM32F1xx_HAL_Driver/Inc/stm32f1xx_ll_rcc.h **** __STATIC_INLINE void LL_RCC_DisableRTC(void)
1338:Drivers/STM32F1xx_HAL_Driver/Inc/stm32f1xx_ll_rcc.h **** {
1339:Drivers/STM32F1xx_HAL_Driver/Inc/stm32f1xx_ll_rcc.h ****   CLEAR_BIT(RCC->BDCR, RCC_BDCR_RTCEN);
1340:Drivers/STM32F1xx_HAL_Driver/Inc/stm32f1xx_ll_rcc.h **** }
1341:Drivers/STM32F1xx_HAL_Driver/Inc/stm32f1xx_ll_rcc.h **** 
1342:Drivers/STM32F1xx_HAL_Driver/Inc/stm32f1xx_ll_rcc.h **** /**
1343:Drivers/STM32F1xx_HAL_Driver/Inc/stm32f1xx_ll_rcc.h ****   * @brief  Check if RTC has been enabled or not
1344:Drivers/STM32F1xx_HAL_Driver/Inc/stm32f1xx_ll_rcc.h ****   * @rmtoll BDCR         RTCEN         LL_RCC_IsEnabledRTC
ARM GAS  /tmp/ccLXhlQB.s 			page 38


1345:Drivers/STM32F1xx_HAL_Driver/Inc/stm32f1xx_ll_rcc.h ****   * @retval State of bit (1 or 0).
1346:Drivers/STM32F1xx_HAL_Driver/Inc/stm32f1xx_ll_rcc.h ****   */
1347:Drivers/STM32F1xx_HAL_Driver/Inc/stm32f1xx_ll_rcc.h **** __STATIC_INLINE uint32_t LL_RCC_IsEnabledRTC(void)
1348:Drivers/STM32F1xx_HAL_Driver/Inc/stm32f1xx_ll_rcc.h **** {
1349:Drivers/STM32F1xx_HAL_Driver/Inc/stm32f1xx_ll_rcc.h ****   return (READ_BIT(RCC->BDCR, RCC_BDCR_RTCEN) == (RCC_BDCR_RTCEN));
1350:Drivers/STM32F1xx_HAL_Driver/Inc/stm32f1xx_ll_rcc.h **** }
1351:Drivers/STM32F1xx_HAL_Driver/Inc/stm32f1xx_ll_rcc.h **** 
1352:Drivers/STM32F1xx_HAL_Driver/Inc/stm32f1xx_ll_rcc.h **** /**
1353:Drivers/STM32F1xx_HAL_Driver/Inc/stm32f1xx_ll_rcc.h ****   * @brief  Force the Backup domain reset
1354:Drivers/STM32F1xx_HAL_Driver/Inc/stm32f1xx_ll_rcc.h ****   * @rmtoll BDCR         BDRST         LL_RCC_ForceBackupDomainReset
1355:Drivers/STM32F1xx_HAL_Driver/Inc/stm32f1xx_ll_rcc.h ****   * @retval None
1356:Drivers/STM32F1xx_HAL_Driver/Inc/stm32f1xx_ll_rcc.h ****   */
1357:Drivers/STM32F1xx_HAL_Driver/Inc/stm32f1xx_ll_rcc.h **** __STATIC_INLINE void LL_RCC_ForceBackupDomainReset(void)
1358:Drivers/STM32F1xx_HAL_Driver/Inc/stm32f1xx_ll_rcc.h **** {
1359:Drivers/STM32F1xx_HAL_Driver/Inc/stm32f1xx_ll_rcc.h ****   SET_BIT(RCC->BDCR, RCC_BDCR_BDRST);
1360:Drivers/STM32F1xx_HAL_Driver/Inc/stm32f1xx_ll_rcc.h **** }
1361:Drivers/STM32F1xx_HAL_Driver/Inc/stm32f1xx_ll_rcc.h **** 
1362:Drivers/STM32F1xx_HAL_Driver/Inc/stm32f1xx_ll_rcc.h **** /**
1363:Drivers/STM32F1xx_HAL_Driver/Inc/stm32f1xx_ll_rcc.h ****   * @brief  Release the Backup domain reset
1364:Drivers/STM32F1xx_HAL_Driver/Inc/stm32f1xx_ll_rcc.h ****   * @rmtoll BDCR         BDRST         LL_RCC_ReleaseBackupDomainReset
1365:Drivers/STM32F1xx_HAL_Driver/Inc/stm32f1xx_ll_rcc.h ****   * @retval None
1366:Drivers/STM32F1xx_HAL_Driver/Inc/stm32f1xx_ll_rcc.h ****   */
1367:Drivers/STM32F1xx_HAL_Driver/Inc/stm32f1xx_ll_rcc.h **** __STATIC_INLINE void LL_RCC_ReleaseBackupDomainReset(void)
1368:Drivers/STM32F1xx_HAL_Driver/Inc/stm32f1xx_ll_rcc.h **** {
1369:Drivers/STM32F1xx_HAL_Driver/Inc/stm32f1xx_ll_rcc.h ****   CLEAR_BIT(RCC->BDCR, RCC_BDCR_BDRST);
1370:Drivers/STM32F1xx_HAL_Driver/Inc/stm32f1xx_ll_rcc.h **** }
1371:Drivers/STM32F1xx_HAL_Driver/Inc/stm32f1xx_ll_rcc.h **** 
1372:Drivers/STM32F1xx_HAL_Driver/Inc/stm32f1xx_ll_rcc.h **** /**
1373:Drivers/STM32F1xx_HAL_Driver/Inc/stm32f1xx_ll_rcc.h ****   * @}
1374:Drivers/STM32F1xx_HAL_Driver/Inc/stm32f1xx_ll_rcc.h ****   */
1375:Drivers/STM32F1xx_HAL_Driver/Inc/stm32f1xx_ll_rcc.h **** 
1376:Drivers/STM32F1xx_HAL_Driver/Inc/stm32f1xx_ll_rcc.h **** /** @defgroup RCC_LL_EF_PLL PLL
1377:Drivers/STM32F1xx_HAL_Driver/Inc/stm32f1xx_ll_rcc.h ****   * @{
1378:Drivers/STM32F1xx_HAL_Driver/Inc/stm32f1xx_ll_rcc.h ****   */
1379:Drivers/STM32F1xx_HAL_Driver/Inc/stm32f1xx_ll_rcc.h **** 
1380:Drivers/STM32F1xx_HAL_Driver/Inc/stm32f1xx_ll_rcc.h **** /**
1381:Drivers/STM32F1xx_HAL_Driver/Inc/stm32f1xx_ll_rcc.h ****   * @brief  Enable PLL
1382:Drivers/STM32F1xx_HAL_Driver/Inc/stm32f1xx_ll_rcc.h ****   * @rmtoll CR           PLLON         LL_RCC_PLL_Enable
1383:Drivers/STM32F1xx_HAL_Driver/Inc/stm32f1xx_ll_rcc.h ****   * @retval None
1384:Drivers/STM32F1xx_HAL_Driver/Inc/stm32f1xx_ll_rcc.h ****   */
1385:Drivers/STM32F1xx_HAL_Driver/Inc/stm32f1xx_ll_rcc.h **** __STATIC_INLINE void LL_RCC_PLL_Enable(void)
1386:Drivers/STM32F1xx_HAL_Driver/Inc/stm32f1xx_ll_rcc.h **** {
1387:Drivers/STM32F1xx_HAL_Driver/Inc/stm32f1xx_ll_rcc.h ****   SET_BIT(RCC->CR, RCC_CR_PLLON);
1388:Drivers/STM32F1xx_HAL_Driver/Inc/stm32f1xx_ll_rcc.h **** }
1389:Drivers/STM32F1xx_HAL_Driver/Inc/stm32f1xx_ll_rcc.h **** 
1390:Drivers/STM32F1xx_HAL_Driver/Inc/stm32f1xx_ll_rcc.h **** /**
1391:Drivers/STM32F1xx_HAL_Driver/Inc/stm32f1xx_ll_rcc.h ****   * @brief  Disable PLL
1392:Drivers/STM32F1xx_HAL_Driver/Inc/stm32f1xx_ll_rcc.h ****   * @note Cannot be disabled if the PLL clock is used as the system clock
1393:Drivers/STM32F1xx_HAL_Driver/Inc/stm32f1xx_ll_rcc.h ****   * @rmtoll CR           PLLON         LL_RCC_PLL_Disable
1394:Drivers/STM32F1xx_HAL_Driver/Inc/stm32f1xx_ll_rcc.h ****   * @retval None
1395:Drivers/STM32F1xx_HAL_Driver/Inc/stm32f1xx_ll_rcc.h ****   */
1396:Drivers/STM32F1xx_HAL_Driver/Inc/stm32f1xx_ll_rcc.h **** __STATIC_INLINE void LL_RCC_PLL_Disable(void)
1397:Drivers/STM32F1xx_HAL_Driver/Inc/stm32f1xx_ll_rcc.h **** {
1398:Drivers/STM32F1xx_HAL_Driver/Inc/stm32f1xx_ll_rcc.h ****   CLEAR_BIT(RCC->CR, RCC_CR_PLLON);
1399:Drivers/STM32F1xx_HAL_Driver/Inc/stm32f1xx_ll_rcc.h **** }
1400:Drivers/STM32F1xx_HAL_Driver/Inc/stm32f1xx_ll_rcc.h **** 
1401:Drivers/STM32F1xx_HAL_Driver/Inc/stm32f1xx_ll_rcc.h **** /**
ARM GAS  /tmp/ccLXhlQB.s 			page 39


1402:Drivers/STM32F1xx_HAL_Driver/Inc/stm32f1xx_ll_rcc.h ****   * @brief  Check if PLL Ready
1403:Drivers/STM32F1xx_HAL_Driver/Inc/stm32f1xx_ll_rcc.h ****   * @rmtoll CR           PLLRDY        LL_RCC_PLL_IsReady
1404:Drivers/STM32F1xx_HAL_Driver/Inc/stm32f1xx_ll_rcc.h ****   * @retval State of bit (1 or 0).
1405:Drivers/STM32F1xx_HAL_Driver/Inc/stm32f1xx_ll_rcc.h ****   */
1406:Drivers/STM32F1xx_HAL_Driver/Inc/stm32f1xx_ll_rcc.h **** __STATIC_INLINE uint32_t LL_RCC_PLL_IsReady(void)
 126              		.loc 2 1406 26 view .LVU26
 127              	.LBB57:
1407:Drivers/STM32F1xx_HAL_Driver/Inc/stm32f1xx_ll_rcc.h **** {
1408:Drivers/STM32F1xx_HAL_Driver/Inc/stm32f1xx_ll_rcc.h ****   return (READ_BIT(RCC->CR, RCC_CR_PLLRDY) == (RCC_CR_PLLRDY));
 128              		.loc 2 1408 3 view .LVU27
 129              		.loc 2 1408 11 is_stmt 0 view .LVU28
 130 0000 0A4B     		ldr	r3, .L12
 131 0002 1B68     		ldr	r3, [r3]
 132              	.LBE57:
 133              	.LBE56:
 134              		.loc 1 645 6 view .LVU29
 135 0004 13F0007F 		tst	r3, #33554432
 136 0008 0DD1     		bne	.L9
 642:Drivers/STM32F1xx_HAL_Driver/Src/stm32f1xx_ll_utils.c **** 
 137              		.loc 1 642 15 view .LVU30
 138 000a 0020     		movs	r0, #0
 139              	.L6:
 140              	.LVL10:
 646:Drivers/STM32F1xx_HAL_Driver/Src/stm32f1xx_ll_utils.c ****   {
 647:Drivers/STM32F1xx_HAL_Driver/Src/stm32f1xx_ll_utils.c ****     /* PLL configuration cannot be modified */
 648:Drivers/STM32F1xx_HAL_Driver/Src/stm32f1xx_ll_utils.c ****     status = ERROR;
 649:Drivers/STM32F1xx_HAL_Driver/Src/stm32f1xx_ll_utils.c ****   }
 650:Drivers/STM32F1xx_HAL_Driver/Src/stm32f1xx_ll_utils.c **** #if defined(RCC_PLL2_SUPPORT)
 651:Drivers/STM32F1xx_HAL_Driver/Src/stm32f1xx_ll_utils.c ****   /* Check if PLL2 is busy*/
 652:Drivers/STM32F1xx_HAL_Driver/Src/stm32f1xx_ll_utils.c ****   if (LL_RCC_PLL2_IsReady() != 0U)
 141              		.loc 1 652 3 is_stmt 1 view .LVU31
 142              	.LBB58:
 143              	.LBI58:
1409:Drivers/STM32F1xx_HAL_Driver/Inc/stm32f1xx_ll_rcc.h **** }
1410:Drivers/STM32F1xx_HAL_Driver/Inc/stm32f1xx_ll_rcc.h **** 
1411:Drivers/STM32F1xx_HAL_Driver/Inc/stm32f1xx_ll_rcc.h **** /**
1412:Drivers/STM32F1xx_HAL_Driver/Inc/stm32f1xx_ll_rcc.h ****   * @brief  Configure PLL used for SYSCLK Domain
1413:Drivers/STM32F1xx_HAL_Driver/Inc/stm32f1xx_ll_rcc.h ****   * @rmtoll CFGR         PLLSRC        LL_RCC_PLL_ConfigDomain_SYS\n
1414:Drivers/STM32F1xx_HAL_Driver/Inc/stm32f1xx_ll_rcc.h ****   *         CFGR         PLLXTPRE      LL_RCC_PLL_ConfigDomain_SYS\n
1415:Drivers/STM32F1xx_HAL_Driver/Inc/stm32f1xx_ll_rcc.h ****   *         CFGR         PLLMULL       LL_RCC_PLL_ConfigDomain_SYS\n
1416:Drivers/STM32F1xx_HAL_Driver/Inc/stm32f1xx_ll_rcc.h ****   *         CFGR2        PREDIV1       LL_RCC_PLL_ConfigDomain_SYS\n
1417:Drivers/STM32F1xx_HAL_Driver/Inc/stm32f1xx_ll_rcc.h ****   *         CFGR2        PREDIV1SRC    LL_RCC_PLL_ConfigDomain_SYS
1418:Drivers/STM32F1xx_HAL_Driver/Inc/stm32f1xx_ll_rcc.h ****   * @param  Source This parameter can be one of the following values:
1419:Drivers/STM32F1xx_HAL_Driver/Inc/stm32f1xx_ll_rcc.h ****   *         @arg @ref LL_RCC_PLLSOURCE_HSI_DIV_2
1420:Drivers/STM32F1xx_HAL_Driver/Inc/stm32f1xx_ll_rcc.h ****   *         @arg @ref LL_RCC_PLLSOURCE_HSE_DIV_1
1421:Drivers/STM32F1xx_HAL_Driver/Inc/stm32f1xx_ll_rcc.h ****   *         @arg @ref LL_RCC_PLLSOURCE_HSE_DIV_2 (*)
1422:Drivers/STM32F1xx_HAL_Driver/Inc/stm32f1xx_ll_rcc.h ****   *         @arg @ref LL_RCC_PLLSOURCE_HSE_DIV_3 (*)
1423:Drivers/STM32F1xx_HAL_Driver/Inc/stm32f1xx_ll_rcc.h ****   *         @arg @ref LL_RCC_PLLSOURCE_HSE_DIV_4 (*)
1424:Drivers/STM32F1xx_HAL_Driver/Inc/stm32f1xx_ll_rcc.h ****   *         @arg @ref LL_RCC_PLLSOURCE_HSE_DIV_5 (*)
1425:Drivers/STM32F1xx_HAL_Driver/Inc/stm32f1xx_ll_rcc.h ****   *         @arg @ref LL_RCC_PLLSOURCE_HSE_DIV_6 (*)
1426:Drivers/STM32F1xx_HAL_Driver/Inc/stm32f1xx_ll_rcc.h ****   *         @arg @ref LL_RCC_PLLSOURCE_HSE_DIV_7 (*)
1427:Drivers/STM32F1xx_HAL_Driver/Inc/stm32f1xx_ll_rcc.h ****   *         @arg @ref LL_RCC_PLLSOURCE_HSE_DIV_8 (*)
1428:Drivers/STM32F1xx_HAL_Driver/Inc/stm32f1xx_ll_rcc.h ****   *         @arg @ref LL_RCC_PLLSOURCE_HSE_DIV_9 (*)
1429:Drivers/STM32F1xx_HAL_Driver/Inc/stm32f1xx_ll_rcc.h ****   *         @arg @ref LL_RCC_PLLSOURCE_HSE_DIV_10 (*)
1430:Drivers/STM32F1xx_HAL_Driver/Inc/stm32f1xx_ll_rcc.h ****   *         @arg @ref LL_RCC_PLLSOURCE_HSE_DIV_11 (*)
1431:Drivers/STM32F1xx_HAL_Driver/Inc/stm32f1xx_ll_rcc.h ****   *         @arg @ref LL_RCC_PLLSOURCE_HSE_DIV_12 (*)
1432:Drivers/STM32F1xx_HAL_Driver/Inc/stm32f1xx_ll_rcc.h ****   *         @arg @ref LL_RCC_PLLSOURCE_HSE_DIV_13 (*)
ARM GAS  /tmp/ccLXhlQB.s 			page 40


1433:Drivers/STM32F1xx_HAL_Driver/Inc/stm32f1xx_ll_rcc.h ****   *         @arg @ref LL_RCC_PLLSOURCE_HSE_DIV_14 (*)
1434:Drivers/STM32F1xx_HAL_Driver/Inc/stm32f1xx_ll_rcc.h ****   *         @arg @ref LL_RCC_PLLSOURCE_HSE_DIV_15 (*)
1435:Drivers/STM32F1xx_HAL_Driver/Inc/stm32f1xx_ll_rcc.h ****   *         @arg @ref LL_RCC_PLLSOURCE_HSE_DIV_16 (*)
1436:Drivers/STM32F1xx_HAL_Driver/Inc/stm32f1xx_ll_rcc.h ****   *         @arg @ref LL_RCC_PLLSOURCE_PLL2_DIV_1 (*)
1437:Drivers/STM32F1xx_HAL_Driver/Inc/stm32f1xx_ll_rcc.h ****   *         @arg @ref LL_RCC_PLLSOURCE_PLL2_DIV_2 (*)
1438:Drivers/STM32F1xx_HAL_Driver/Inc/stm32f1xx_ll_rcc.h ****   *         @arg @ref LL_RCC_PLLSOURCE_PLL2_DIV_3 (*)
1439:Drivers/STM32F1xx_HAL_Driver/Inc/stm32f1xx_ll_rcc.h ****   *         @arg @ref LL_RCC_PLLSOURCE_PLL2_DIV_4 (*)
1440:Drivers/STM32F1xx_HAL_Driver/Inc/stm32f1xx_ll_rcc.h ****   *         @arg @ref LL_RCC_PLLSOURCE_PLL2_DIV_5 (*)
1441:Drivers/STM32F1xx_HAL_Driver/Inc/stm32f1xx_ll_rcc.h ****   *         @arg @ref LL_RCC_PLLSOURCE_PLL2_DIV_6 (*)
1442:Drivers/STM32F1xx_HAL_Driver/Inc/stm32f1xx_ll_rcc.h ****   *         @arg @ref LL_RCC_PLLSOURCE_PLL2_DIV_7 (*)
1443:Drivers/STM32F1xx_HAL_Driver/Inc/stm32f1xx_ll_rcc.h ****   *         @arg @ref LL_RCC_PLLSOURCE_PLL2_DIV_8 (*)
1444:Drivers/STM32F1xx_HAL_Driver/Inc/stm32f1xx_ll_rcc.h ****   *         @arg @ref LL_RCC_PLLSOURCE_PLL2_DIV_9 (*)
1445:Drivers/STM32F1xx_HAL_Driver/Inc/stm32f1xx_ll_rcc.h ****   *         @arg @ref LL_RCC_PLLSOURCE_PLL2_DIV_10 (*)
1446:Drivers/STM32F1xx_HAL_Driver/Inc/stm32f1xx_ll_rcc.h ****   *         @arg @ref LL_RCC_PLLSOURCE_PLL2_DIV_11 (*)
1447:Drivers/STM32F1xx_HAL_Driver/Inc/stm32f1xx_ll_rcc.h ****   *         @arg @ref LL_RCC_PLLSOURCE_PLL2_DIV_12 (*)
1448:Drivers/STM32F1xx_HAL_Driver/Inc/stm32f1xx_ll_rcc.h ****   *         @arg @ref LL_RCC_PLLSOURCE_PLL2_DIV_13 (*)
1449:Drivers/STM32F1xx_HAL_Driver/Inc/stm32f1xx_ll_rcc.h ****   *         @arg @ref LL_RCC_PLLSOURCE_PLL2_DIV_14 (*)
1450:Drivers/STM32F1xx_HAL_Driver/Inc/stm32f1xx_ll_rcc.h ****   *         @arg @ref LL_RCC_PLLSOURCE_PLL2_DIV_15 (*)
1451:Drivers/STM32F1xx_HAL_Driver/Inc/stm32f1xx_ll_rcc.h ****   *         @arg @ref LL_RCC_PLLSOURCE_PLL2_DIV_16 (*)
1452:Drivers/STM32F1xx_HAL_Driver/Inc/stm32f1xx_ll_rcc.h ****   *
1453:Drivers/STM32F1xx_HAL_Driver/Inc/stm32f1xx_ll_rcc.h ****   *         (*) value not defined in all devices
1454:Drivers/STM32F1xx_HAL_Driver/Inc/stm32f1xx_ll_rcc.h ****   * @param  PLLMul This parameter can be one of the following values:
1455:Drivers/STM32F1xx_HAL_Driver/Inc/stm32f1xx_ll_rcc.h ****   *         @arg @ref LL_RCC_PLL_MUL_2 (*)
1456:Drivers/STM32F1xx_HAL_Driver/Inc/stm32f1xx_ll_rcc.h ****   *         @arg @ref LL_RCC_PLL_MUL_3 (*)
1457:Drivers/STM32F1xx_HAL_Driver/Inc/stm32f1xx_ll_rcc.h ****   *         @arg @ref LL_RCC_PLL_MUL_4
1458:Drivers/STM32F1xx_HAL_Driver/Inc/stm32f1xx_ll_rcc.h ****   *         @arg @ref LL_RCC_PLL_MUL_5
1459:Drivers/STM32F1xx_HAL_Driver/Inc/stm32f1xx_ll_rcc.h ****   *         @arg @ref LL_RCC_PLL_MUL_6
1460:Drivers/STM32F1xx_HAL_Driver/Inc/stm32f1xx_ll_rcc.h ****   *         @arg @ref LL_RCC_PLL_MUL_7
1461:Drivers/STM32F1xx_HAL_Driver/Inc/stm32f1xx_ll_rcc.h ****   *         @arg @ref LL_RCC_PLL_MUL_8
1462:Drivers/STM32F1xx_HAL_Driver/Inc/stm32f1xx_ll_rcc.h ****   *         @arg @ref LL_RCC_PLL_MUL_9
1463:Drivers/STM32F1xx_HAL_Driver/Inc/stm32f1xx_ll_rcc.h ****   *         @arg @ref LL_RCC_PLL_MUL_6_5 (*)
1464:Drivers/STM32F1xx_HAL_Driver/Inc/stm32f1xx_ll_rcc.h ****   *         @arg @ref LL_RCC_PLL_MUL_10 (*)
1465:Drivers/STM32F1xx_HAL_Driver/Inc/stm32f1xx_ll_rcc.h ****   *         @arg @ref LL_RCC_PLL_MUL_11 (*)
1466:Drivers/STM32F1xx_HAL_Driver/Inc/stm32f1xx_ll_rcc.h ****   *         @arg @ref LL_RCC_PLL_MUL_12 (*)
1467:Drivers/STM32F1xx_HAL_Driver/Inc/stm32f1xx_ll_rcc.h ****   *         @arg @ref LL_RCC_PLL_MUL_13 (*)
1468:Drivers/STM32F1xx_HAL_Driver/Inc/stm32f1xx_ll_rcc.h ****   *         @arg @ref LL_RCC_PLL_MUL_14 (*)
1469:Drivers/STM32F1xx_HAL_Driver/Inc/stm32f1xx_ll_rcc.h ****   *         @arg @ref LL_RCC_PLL_MUL_15 (*)
1470:Drivers/STM32F1xx_HAL_Driver/Inc/stm32f1xx_ll_rcc.h ****   *         @arg @ref LL_RCC_PLL_MUL_16 (*)
1471:Drivers/STM32F1xx_HAL_Driver/Inc/stm32f1xx_ll_rcc.h ****   *
1472:Drivers/STM32F1xx_HAL_Driver/Inc/stm32f1xx_ll_rcc.h ****   *         (*) value not defined in all devices
1473:Drivers/STM32F1xx_HAL_Driver/Inc/stm32f1xx_ll_rcc.h ****   * @retval None
1474:Drivers/STM32F1xx_HAL_Driver/Inc/stm32f1xx_ll_rcc.h ****   */
1475:Drivers/STM32F1xx_HAL_Driver/Inc/stm32f1xx_ll_rcc.h **** __STATIC_INLINE void LL_RCC_PLL_ConfigDomain_SYS(uint32_t Source, uint32_t PLLMul)
1476:Drivers/STM32F1xx_HAL_Driver/Inc/stm32f1xx_ll_rcc.h **** {
1477:Drivers/STM32F1xx_HAL_Driver/Inc/stm32f1xx_ll_rcc.h ****   MODIFY_REG(RCC->CFGR, RCC_CFGR_PLLSRC | RCC_CFGR_PLLXTPRE | RCC_CFGR_PLLMULL,
1478:Drivers/STM32F1xx_HAL_Driver/Inc/stm32f1xx_ll_rcc.h ****              (Source & (RCC_CFGR_PLLSRC | RCC_CFGR_PLLXTPRE)) | PLLMul);
1479:Drivers/STM32F1xx_HAL_Driver/Inc/stm32f1xx_ll_rcc.h **** #if defined(RCC_CFGR2_PREDIV1)
1480:Drivers/STM32F1xx_HAL_Driver/Inc/stm32f1xx_ll_rcc.h **** #if defined(RCC_CFGR2_PREDIV1SRC)
1481:Drivers/STM32F1xx_HAL_Driver/Inc/stm32f1xx_ll_rcc.h ****   MODIFY_REG(RCC->CFGR2, (RCC_CFGR2_PREDIV1 | RCC_CFGR2_PREDIV1SRC),
1482:Drivers/STM32F1xx_HAL_Driver/Inc/stm32f1xx_ll_rcc.h ****              (Source & RCC_CFGR2_PREDIV1) | ((Source & (RCC_CFGR2_PREDIV1SRC << 4U)) >> 4U));
1483:Drivers/STM32F1xx_HAL_Driver/Inc/stm32f1xx_ll_rcc.h **** #else
1484:Drivers/STM32F1xx_HAL_Driver/Inc/stm32f1xx_ll_rcc.h ****   MODIFY_REG(RCC->CFGR2, RCC_CFGR2_PREDIV1, (Source & RCC_CFGR2_PREDIV1));
1485:Drivers/STM32F1xx_HAL_Driver/Inc/stm32f1xx_ll_rcc.h **** #endif /*RCC_CFGR2_PREDIV1SRC*/
1486:Drivers/STM32F1xx_HAL_Driver/Inc/stm32f1xx_ll_rcc.h **** #endif /*RCC_CFGR2_PREDIV1*/
1487:Drivers/STM32F1xx_HAL_Driver/Inc/stm32f1xx_ll_rcc.h **** }
1488:Drivers/STM32F1xx_HAL_Driver/Inc/stm32f1xx_ll_rcc.h **** 
1489:Drivers/STM32F1xx_HAL_Driver/Inc/stm32f1xx_ll_rcc.h **** /**
ARM GAS  /tmp/ccLXhlQB.s 			page 41


1490:Drivers/STM32F1xx_HAL_Driver/Inc/stm32f1xx_ll_rcc.h ****   * @brief  Configure PLL clock source
1491:Drivers/STM32F1xx_HAL_Driver/Inc/stm32f1xx_ll_rcc.h ****   * @rmtoll CFGR      PLLSRC        LL_RCC_PLL_SetMainSource\n
1492:Drivers/STM32F1xx_HAL_Driver/Inc/stm32f1xx_ll_rcc.h ****   *         CFGR2     PREDIV1SRC    LL_RCC_PLL_SetMainSource
1493:Drivers/STM32F1xx_HAL_Driver/Inc/stm32f1xx_ll_rcc.h ****   * @param PLLSource This parameter can be one of the following values:
1494:Drivers/STM32F1xx_HAL_Driver/Inc/stm32f1xx_ll_rcc.h ****   *         @arg @ref LL_RCC_PLLSOURCE_HSI_DIV_2
1495:Drivers/STM32F1xx_HAL_Driver/Inc/stm32f1xx_ll_rcc.h ****   *         @arg @ref LL_RCC_PLLSOURCE_HSE
1496:Drivers/STM32F1xx_HAL_Driver/Inc/stm32f1xx_ll_rcc.h ****   *         @arg @ref LL_RCC_PLLSOURCE_PLL2 (*)
1497:Drivers/STM32F1xx_HAL_Driver/Inc/stm32f1xx_ll_rcc.h ****   * @retval None
1498:Drivers/STM32F1xx_HAL_Driver/Inc/stm32f1xx_ll_rcc.h ****   */
1499:Drivers/STM32F1xx_HAL_Driver/Inc/stm32f1xx_ll_rcc.h **** __STATIC_INLINE void LL_RCC_PLL_SetMainSource(uint32_t PLLSource)
1500:Drivers/STM32F1xx_HAL_Driver/Inc/stm32f1xx_ll_rcc.h **** {
1501:Drivers/STM32F1xx_HAL_Driver/Inc/stm32f1xx_ll_rcc.h **** #if defined(RCC_CFGR2_PREDIV1SRC)
1502:Drivers/STM32F1xx_HAL_Driver/Inc/stm32f1xx_ll_rcc.h ****   MODIFY_REG(RCC->CFGR2, RCC_CFGR2_PREDIV1SRC, ((PLLSource & (RCC_CFGR2_PREDIV1SRC << 4U)) >> 4U));
1503:Drivers/STM32F1xx_HAL_Driver/Inc/stm32f1xx_ll_rcc.h **** #endif /* RCC_CFGR2_PREDIV1SRC */
1504:Drivers/STM32F1xx_HAL_Driver/Inc/stm32f1xx_ll_rcc.h ****   MODIFY_REG(RCC->CFGR, RCC_CFGR_PLLSRC, PLLSource);
1505:Drivers/STM32F1xx_HAL_Driver/Inc/stm32f1xx_ll_rcc.h **** }
1506:Drivers/STM32F1xx_HAL_Driver/Inc/stm32f1xx_ll_rcc.h **** 
1507:Drivers/STM32F1xx_HAL_Driver/Inc/stm32f1xx_ll_rcc.h **** /**
1508:Drivers/STM32F1xx_HAL_Driver/Inc/stm32f1xx_ll_rcc.h ****   * @brief  Get the oscillator used as PLL clock source.
1509:Drivers/STM32F1xx_HAL_Driver/Inc/stm32f1xx_ll_rcc.h ****   * @rmtoll CFGR         PLLSRC        LL_RCC_PLL_GetMainSource\n
1510:Drivers/STM32F1xx_HAL_Driver/Inc/stm32f1xx_ll_rcc.h ****   *         CFGR2        PREDIV1SRC    LL_RCC_PLL_GetMainSource
1511:Drivers/STM32F1xx_HAL_Driver/Inc/stm32f1xx_ll_rcc.h ****   * @retval Returned value can be one of the following values:
1512:Drivers/STM32F1xx_HAL_Driver/Inc/stm32f1xx_ll_rcc.h ****   *         @arg @ref LL_RCC_PLLSOURCE_HSI_DIV_2
1513:Drivers/STM32F1xx_HAL_Driver/Inc/stm32f1xx_ll_rcc.h ****   *         @arg @ref LL_RCC_PLLSOURCE_HSE
1514:Drivers/STM32F1xx_HAL_Driver/Inc/stm32f1xx_ll_rcc.h ****   *         @arg @ref LL_RCC_PLLSOURCE_PLL2 (*)
1515:Drivers/STM32F1xx_HAL_Driver/Inc/stm32f1xx_ll_rcc.h ****   *
1516:Drivers/STM32F1xx_HAL_Driver/Inc/stm32f1xx_ll_rcc.h ****   *         (*) value not defined in all devices
1517:Drivers/STM32F1xx_HAL_Driver/Inc/stm32f1xx_ll_rcc.h ****   */
1518:Drivers/STM32F1xx_HAL_Driver/Inc/stm32f1xx_ll_rcc.h **** __STATIC_INLINE uint32_t LL_RCC_PLL_GetMainSource(void)
1519:Drivers/STM32F1xx_HAL_Driver/Inc/stm32f1xx_ll_rcc.h **** {
1520:Drivers/STM32F1xx_HAL_Driver/Inc/stm32f1xx_ll_rcc.h **** #if defined(RCC_CFGR2_PREDIV1SRC)
1521:Drivers/STM32F1xx_HAL_Driver/Inc/stm32f1xx_ll_rcc.h ****   uint32_t pllsrc = READ_BIT(RCC->CFGR, RCC_CFGR_PLLSRC);
1522:Drivers/STM32F1xx_HAL_Driver/Inc/stm32f1xx_ll_rcc.h ****   uint32_t predivsrc = (uint32_t)(READ_BIT(RCC->CFGR2, RCC_CFGR2_PREDIV1SRC) << 4U);
1523:Drivers/STM32F1xx_HAL_Driver/Inc/stm32f1xx_ll_rcc.h ****   return (uint32_t)(pllsrc | predivsrc);
1524:Drivers/STM32F1xx_HAL_Driver/Inc/stm32f1xx_ll_rcc.h **** #else
1525:Drivers/STM32F1xx_HAL_Driver/Inc/stm32f1xx_ll_rcc.h ****   return (uint32_t)(READ_BIT(RCC->CFGR, RCC_CFGR_PLLSRC));
1526:Drivers/STM32F1xx_HAL_Driver/Inc/stm32f1xx_ll_rcc.h **** #endif /*RCC_CFGR2_PREDIV1SRC*/
1527:Drivers/STM32F1xx_HAL_Driver/Inc/stm32f1xx_ll_rcc.h **** }
1528:Drivers/STM32F1xx_HAL_Driver/Inc/stm32f1xx_ll_rcc.h **** 
1529:Drivers/STM32F1xx_HAL_Driver/Inc/stm32f1xx_ll_rcc.h **** /**
1530:Drivers/STM32F1xx_HAL_Driver/Inc/stm32f1xx_ll_rcc.h ****   * @brief  Get PLL multiplication Factor
1531:Drivers/STM32F1xx_HAL_Driver/Inc/stm32f1xx_ll_rcc.h ****   * @rmtoll CFGR         PLLMULL       LL_RCC_PLL_GetMultiplicator
1532:Drivers/STM32F1xx_HAL_Driver/Inc/stm32f1xx_ll_rcc.h ****   * @retval Returned value can be one of the following values:
1533:Drivers/STM32F1xx_HAL_Driver/Inc/stm32f1xx_ll_rcc.h ****   *         @arg @ref LL_RCC_PLL_MUL_2 (*)
1534:Drivers/STM32F1xx_HAL_Driver/Inc/stm32f1xx_ll_rcc.h ****   *         @arg @ref LL_RCC_PLL_MUL_3 (*)
1535:Drivers/STM32F1xx_HAL_Driver/Inc/stm32f1xx_ll_rcc.h ****   *         @arg @ref LL_RCC_PLL_MUL_4
1536:Drivers/STM32F1xx_HAL_Driver/Inc/stm32f1xx_ll_rcc.h ****   *         @arg @ref LL_RCC_PLL_MUL_5
1537:Drivers/STM32F1xx_HAL_Driver/Inc/stm32f1xx_ll_rcc.h ****   *         @arg @ref LL_RCC_PLL_MUL_6
1538:Drivers/STM32F1xx_HAL_Driver/Inc/stm32f1xx_ll_rcc.h ****   *         @arg @ref LL_RCC_PLL_MUL_7
1539:Drivers/STM32F1xx_HAL_Driver/Inc/stm32f1xx_ll_rcc.h ****   *         @arg @ref LL_RCC_PLL_MUL_8
1540:Drivers/STM32F1xx_HAL_Driver/Inc/stm32f1xx_ll_rcc.h ****   *         @arg @ref LL_RCC_PLL_MUL_9
1541:Drivers/STM32F1xx_HAL_Driver/Inc/stm32f1xx_ll_rcc.h ****   *         @arg @ref LL_RCC_PLL_MUL_6_5 (*)
1542:Drivers/STM32F1xx_HAL_Driver/Inc/stm32f1xx_ll_rcc.h ****   *         @arg @ref LL_RCC_PLL_MUL_10 (*)
1543:Drivers/STM32F1xx_HAL_Driver/Inc/stm32f1xx_ll_rcc.h ****   *         @arg @ref LL_RCC_PLL_MUL_11 (*)
1544:Drivers/STM32F1xx_HAL_Driver/Inc/stm32f1xx_ll_rcc.h ****   *         @arg @ref LL_RCC_PLL_MUL_12 (*)
1545:Drivers/STM32F1xx_HAL_Driver/Inc/stm32f1xx_ll_rcc.h ****   *         @arg @ref LL_RCC_PLL_MUL_13 (*)
1546:Drivers/STM32F1xx_HAL_Driver/Inc/stm32f1xx_ll_rcc.h ****   *         @arg @ref LL_RCC_PLL_MUL_14 (*)
ARM GAS  /tmp/ccLXhlQB.s 			page 42


1547:Drivers/STM32F1xx_HAL_Driver/Inc/stm32f1xx_ll_rcc.h ****   *         @arg @ref LL_RCC_PLL_MUL_15 (*)
1548:Drivers/STM32F1xx_HAL_Driver/Inc/stm32f1xx_ll_rcc.h ****   *         @arg @ref LL_RCC_PLL_MUL_16 (*)
1549:Drivers/STM32F1xx_HAL_Driver/Inc/stm32f1xx_ll_rcc.h ****   *
1550:Drivers/STM32F1xx_HAL_Driver/Inc/stm32f1xx_ll_rcc.h ****   *         (*) value not defined in all devices
1551:Drivers/STM32F1xx_HAL_Driver/Inc/stm32f1xx_ll_rcc.h ****   */
1552:Drivers/STM32F1xx_HAL_Driver/Inc/stm32f1xx_ll_rcc.h **** __STATIC_INLINE uint32_t LL_RCC_PLL_GetMultiplicator(void)
1553:Drivers/STM32F1xx_HAL_Driver/Inc/stm32f1xx_ll_rcc.h **** {
1554:Drivers/STM32F1xx_HAL_Driver/Inc/stm32f1xx_ll_rcc.h ****   return (uint32_t)(READ_BIT(RCC->CFGR, RCC_CFGR_PLLMULL));
1555:Drivers/STM32F1xx_HAL_Driver/Inc/stm32f1xx_ll_rcc.h **** }
1556:Drivers/STM32F1xx_HAL_Driver/Inc/stm32f1xx_ll_rcc.h **** 
1557:Drivers/STM32F1xx_HAL_Driver/Inc/stm32f1xx_ll_rcc.h **** /**
1558:Drivers/STM32F1xx_HAL_Driver/Inc/stm32f1xx_ll_rcc.h ****   * @brief  Get PREDIV1 division factor for the main PLL
1559:Drivers/STM32F1xx_HAL_Driver/Inc/stm32f1xx_ll_rcc.h ****   * @note They can be written only when the PLL is disabled
1560:Drivers/STM32F1xx_HAL_Driver/Inc/stm32f1xx_ll_rcc.h ****   * @rmtoll CFGR2        PREDIV1       LL_RCC_PLL_GetPrediv\n
1561:Drivers/STM32F1xx_HAL_Driver/Inc/stm32f1xx_ll_rcc.h ****   *         CFGR2        PLLXTPRE      LL_RCC_PLL_GetPrediv
1562:Drivers/STM32F1xx_HAL_Driver/Inc/stm32f1xx_ll_rcc.h ****   * @retval Returned value can be one of the following values:
1563:Drivers/STM32F1xx_HAL_Driver/Inc/stm32f1xx_ll_rcc.h ****   *         @arg @ref LL_RCC_PREDIV_DIV_1
1564:Drivers/STM32F1xx_HAL_Driver/Inc/stm32f1xx_ll_rcc.h ****   *         @arg @ref LL_RCC_PREDIV_DIV_2
1565:Drivers/STM32F1xx_HAL_Driver/Inc/stm32f1xx_ll_rcc.h ****   *         @arg @ref LL_RCC_PREDIV_DIV_3 (*)
1566:Drivers/STM32F1xx_HAL_Driver/Inc/stm32f1xx_ll_rcc.h ****   *         @arg @ref LL_RCC_PREDIV_DIV_4 (*)
1567:Drivers/STM32F1xx_HAL_Driver/Inc/stm32f1xx_ll_rcc.h ****   *         @arg @ref LL_RCC_PREDIV_DIV_5 (*)
1568:Drivers/STM32F1xx_HAL_Driver/Inc/stm32f1xx_ll_rcc.h ****   *         @arg @ref LL_RCC_PREDIV_DIV_6 (*)
1569:Drivers/STM32F1xx_HAL_Driver/Inc/stm32f1xx_ll_rcc.h ****   *         @arg @ref LL_RCC_PREDIV_DIV_7 (*)
1570:Drivers/STM32F1xx_HAL_Driver/Inc/stm32f1xx_ll_rcc.h ****   *         @arg @ref LL_RCC_PREDIV_DIV_8 (*)
1571:Drivers/STM32F1xx_HAL_Driver/Inc/stm32f1xx_ll_rcc.h ****   *         @arg @ref LL_RCC_PREDIV_DIV_9 (*)
1572:Drivers/STM32F1xx_HAL_Driver/Inc/stm32f1xx_ll_rcc.h ****   *         @arg @ref LL_RCC_PREDIV_DIV_10 (*)
1573:Drivers/STM32F1xx_HAL_Driver/Inc/stm32f1xx_ll_rcc.h ****   *         @arg @ref LL_RCC_PREDIV_DIV_11 (*)
1574:Drivers/STM32F1xx_HAL_Driver/Inc/stm32f1xx_ll_rcc.h ****   *         @arg @ref LL_RCC_PREDIV_DIV_12 (*)
1575:Drivers/STM32F1xx_HAL_Driver/Inc/stm32f1xx_ll_rcc.h ****   *         @arg @ref LL_RCC_PREDIV_DIV_13 (*)
1576:Drivers/STM32F1xx_HAL_Driver/Inc/stm32f1xx_ll_rcc.h ****   *         @arg @ref LL_RCC_PREDIV_DIV_14 (*)
1577:Drivers/STM32F1xx_HAL_Driver/Inc/stm32f1xx_ll_rcc.h ****   *         @arg @ref LL_RCC_PREDIV_DIV_15 (*)
1578:Drivers/STM32F1xx_HAL_Driver/Inc/stm32f1xx_ll_rcc.h ****   *         @arg @ref LL_RCC_PREDIV_DIV_16 (*)
1579:Drivers/STM32F1xx_HAL_Driver/Inc/stm32f1xx_ll_rcc.h ****   *
1580:Drivers/STM32F1xx_HAL_Driver/Inc/stm32f1xx_ll_rcc.h ****   *         (*) value not defined in all devices
1581:Drivers/STM32F1xx_HAL_Driver/Inc/stm32f1xx_ll_rcc.h ****   */
1582:Drivers/STM32F1xx_HAL_Driver/Inc/stm32f1xx_ll_rcc.h **** __STATIC_INLINE uint32_t LL_RCC_PLL_GetPrediv(void)
1583:Drivers/STM32F1xx_HAL_Driver/Inc/stm32f1xx_ll_rcc.h **** {
1584:Drivers/STM32F1xx_HAL_Driver/Inc/stm32f1xx_ll_rcc.h **** #if defined(RCC_CFGR2_PREDIV1)
1585:Drivers/STM32F1xx_HAL_Driver/Inc/stm32f1xx_ll_rcc.h ****   return (uint32_t)(READ_BIT(RCC->CFGR2, RCC_CFGR2_PREDIV1));
1586:Drivers/STM32F1xx_HAL_Driver/Inc/stm32f1xx_ll_rcc.h **** #else
1587:Drivers/STM32F1xx_HAL_Driver/Inc/stm32f1xx_ll_rcc.h ****   return (uint32_t)(READ_BIT(RCC->CFGR, RCC_CFGR_PLLXTPRE) >> RCC_CFGR_PLLXTPRE_Pos);
1588:Drivers/STM32F1xx_HAL_Driver/Inc/stm32f1xx_ll_rcc.h **** #endif /*RCC_CFGR2_PREDIV1*/
1589:Drivers/STM32F1xx_HAL_Driver/Inc/stm32f1xx_ll_rcc.h **** }
1590:Drivers/STM32F1xx_HAL_Driver/Inc/stm32f1xx_ll_rcc.h **** 
1591:Drivers/STM32F1xx_HAL_Driver/Inc/stm32f1xx_ll_rcc.h **** /**
1592:Drivers/STM32F1xx_HAL_Driver/Inc/stm32f1xx_ll_rcc.h ****   * @}
1593:Drivers/STM32F1xx_HAL_Driver/Inc/stm32f1xx_ll_rcc.h ****   */
1594:Drivers/STM32F1xx_HAL_Driver/Inc/stm32f1xx_ll_rcc.h **** 
1595:Drivers/STM32F1xx_HAL_Driver/Inc/stm32f1xx_ll_rcc.h **** #if defined(RCC_PLLI2S_SUPPORT)
1596:Drivers/STM32F1xx_HAL_Driver/Inc/stm32f1xx_ll_rcc.h **** /** @defgroup RCC_LL_EF_PLLI2S PLLI2S
1597:Drivers/STM32F1xx_HAL_Driver/Inc/stm32f1xx_ll_rcc.h ****   * @{
1598:Drivers/STM32F1xx_HAL_Driver/Inc/stm32f1xx_ll_rcc.h ****   */
1599:Drivers/STM32F1xx_HAL_Driver/Inc/stm32f1xx_ll_rcc.h **** 
1600:Drivers/STM32F1xx_HAL_Driver/Inc/stm32f1xx_ll_rcc.h **** /**
1601:Drivers/STM32F1xx_HAL_Driver/Inc/stm32f1xx_ll_rcc.h ****   * @brief  Enable PLLI2S
1602:Drivers/STM32F1xx_HAL_Driver/Inc/stm32f1xx_ll_rcc.h ****   * @rmtoll CR           PLL3ON        LL_RCC_PLLI2S_Enable
1603:Drivers/STM32F1xx_HAL_Driver/Inc/stm32f1xx_ll_rcc.h ****   * @retval None
ARM GAS  /tmp/ccLXhlQB.s 			page 43


1604:Drivers/STM32F1xx_HAL_Driver/Inc/stm32f1xx_ll_rcc.h ****   */
1605:Drivers/STM32F1xx_HAL_Driver/Inc/stm32f1xx_ll_rcc.h **** __STATIC_INLINE void LL_RCC_PLLI2S_Enable(void)
1606:Drivers/STM32F1xx_HAL_Driver/Inc/stm32f1xx_ll_rcc.h **** {
1607:Drivers/STM32F1xx_HAL_Driver/Inc/stm32f1xx_ll_rcc.h ****   SET_BIT(RCC->CR, RCC_CR_PLL3ON);
1608:Drivers/STM32F1xx_HAL_Driver/Inc/stm32f1xx_ll_rcc.h **** }
1609:Drivers/STM32F1xx_HAL_Driver/Inc/stm32f1xx_ll_rcc.h **** 
1610:Drivers/STM32F1xx_HAL_Driver/Inc/stm32f1xx_ll_rcc.h **** /**
1611:Drivers/STM32F1xx_HAL_Driver/Inc/stm32f1xx_ll_rcc.h ****   * @brief  Disable PLLI2S
1612:Drivers/STM32F1xx_HAL_Driver/Inc/stm32f1xx_ll_rcc.h ****   * @rmtoll CR           PLL3ON        LL_RCC_PLLI2S_Disable
1613:Drivers/STM32F1xx_HAL_Driver/Inc/stm32f1xx_ll_rcc.h ****   * @retval None
1614:Drivers/STM32F1xx_HAL_Driver/Inc/stm32f1xx_ll_rcc.h ****   */
1615:Drivers/STM32F1xx_HAL_Driver/Inc/stm32f1xx_ll_rcc.h **** __STATIC_INLINE void LL_RCC_PLLI2S_Disable(void)
1616:Drivers/STM32F1xx_HAL_Driver/Inc/stm32f1xx_ll_rcc.h **** {
1617:Drivers/STM32F1xx_HAL_Driver/Inc/stm32f1xx_ll_rcc.h ****   CLEAR_BIT(RCC->CR, RCC_CR_PLL3ON);
1618:Drivers/STM32F1xx_HAL_Driver/Inc/stm32f1xx_ll_rcc.h **** }
1619:Drivers/STM32F1xx_HAL_Driver/Inc/stm32f1xx_ll_rcc.h **** 
1620:Drivers/STM32F1xx_HAL_Driver/Inc/stm32f1xx_ll_rcc.h **** /**
1621:Drivers/STM32F1xx_HAL_Driver/Inc/stm32f1xx_ll_rcc.h ****   * @brief  Check if PLLI2S Ready
1622:Drivers/STM32F1xx_HAL_Driver/Inc/stm32f1xx_ll_rcc.h ****   * @rmtoll CR           PLL3RDY       LL_RCC_PLLI2S_IsReady
1623:Drivers/STM32F1xx_HAL_Driver/Inc/stm32f1xx_ll_rcc.h ****   * @retval State of bit (1 or 0).
1624:Drivers/STM32F1xx_HAL_Driver/Inc/stm32f1xx_ll_rcc.h ****   */
1625:Drivers/STM32F1xx_HAL_Driver/Inc/stm32f1xx_ll_rcc.h **** __STATIC_INLINE uint32_t LL_RCC_PLLI2S_IsReady(void)
1626:Drivers/STM32F1xx_HAL_Driver/Inc/stm32f1xx_ll_rcc.h **** {
1627:Drivers/STM32F1xx_HAL_Driver/Inc/stm32f1xx_ll_rcc.h ****   return (READ_BIT(RCC->CR, RCC_CR_PLL3RDY) == (RCC_CR_PLL3RDY));
1628:Drivers/STM32F1xx_HAL_Driver/Inc/stm32f1xx_ll_rcc.h **** }
1629:Drivers/STM32F1xx_HAL_Driver/Inc/stm32f1xx_ll_rcc.h **** 
1630:Drivers/STM32F1xx_HAL_Driver/Inc/stm32f1xx_ll_rcc.h **** /**
1631:Drivers/STM32F1xx_HAL_Driver/Inc/stm32f1xx_ll_rcc.h ****   * @brief  Configure PLLI2S used for I2S Domain
1632:Drivers/STM32F1xx_HAL_Driver/Inc/stm32f1xx_ll_rcc.h ****   * @rmtoll CFGR2        PREDIV2       LL_RCC_PLL_ConfigDomain_PLLI2S\n
1633:Drivers/STM32F1xx_HAL_Driver/Inc/stm32f1xx_ll_rcc.h ****   *         CFGR2        PLL3MUL       LL_RCC_PLL_ConfigDomain_PLLI2S
1634:Drivers/STM32F1xx_HAL_Driver/Inc/stm32f1xx_ll_rcc.h ****   * @param  Divider This parameter can be one of the following values:
1635:Drivers/STM32F1xx_HAL_Driver/Inc/stm32f1xx_ll_rcc.h ****   *         @arg @ref LL_RCC_HSE_PREDIV2_DIV_1
1636:Drivers/STM32F1xx_HAL_Driver/Inc/stm32f1xx_ll_rcc.h ****   *         @arg @ref LL_RCC_HSE_PREDIV2_DIV_2
1637:Drivers/STM32F1xx_HAL_Driver/Inc/stm32f1xx_ll_rcc.h ****   *         @arg @ref LL_RCC_HSE_PREDIV2_DIV_3
1638:Drivers/STM32F1xx_HAL_Driver/Inc/stm32f1xx_ll_rcc.h ****   *         @arg @ref LL_RCC_HSE_PREDIV2_DIV_4
1639:Drivers/STM32F1xx_HAL_Driver/Inc/stm32f1xx_ll_rcc.h ****   *         @arg @ref LL_RCC_HSE_PREDIV2_DIV_5
1640:Drivers/STM32F1xx_HAL_Driver/Inc/stm32f1xx_ll_rcc.h ****   *         @arg @ref LL_RCC_HSE_PREDIV2_DIV_6
1641:Drivers/STM32F1xx_HAL_Driver/Inc/stm32f1xx_ll_rcc.h ****   *         @arg @ref LL_RCC_HSE_PREDIV2_DIV_7
1642:Drivers/STM32F1xx_HAL_Driver/Inc/stm32f1xx_ll_rcc.h ****   *         @arg @ref LL_RCC_HSE_PREDIV2_DIV_8
1643:Drivers/STM32F1xx_HAL_Driver/Inc/stm32f1xx_ll_rcc.h ****   *         @arg @ref LL_RCC_HSE_PREDIV2_DIV_9
1644:Drivers/STM32F1xx_HAL_Driver/Inc/stm32f1xx_ll_rcc.h ****   *         @arg @ref LL_RCC_HSE_PREDIV2_DIV_10
1645:Drivers/STM32F1xx_HAL_Driver/Inc/stm32f1xx_ll_rcc.h ****   *         @arg @ref LL_RCC_HSE_PREDIV2_DIV_11
1646:Drivers/STM32F1xx_HAL_Driver/Inc/stm32f1xx_ll_rcc.h ****   *         @arg @ref LL_RCC_HSE_PREDIV2_DIV_12
1647:Drivers/STM32F1xx_HAL_Driver/Inc/stm32f1xx_ll_rcc.h ****   *         @arg @ref LL_RCC_HSE_PREDIV2_DIV_13
1648:Drivers/STM32F1xx_HAL_Driver/Inc/stm32f1xx_ll_rcc.h ****   *         @arg @ref LL_RCC_HSE_PREDIV2_DIV_14
1649:Drivers/STM32F1xx_HAL_Driver/Inc/stm32f1xx_ll_rcc.h ****   *         @arg @ref LL_RCC_HSE_PREDIV2_DIV_15
1650:Drivers/STM32F1xx_HAL_Driver/Inc/stm32f1xx_ll_rcc.h ****   *         @arg @ref LL_RCC_HSE_PREDIV2_DIV_16
1651:Drivers/STM32F1xx_HAL_Driver/Inc/stm32f1xx_ll_rcc.h ****   * @param  Multiplicator This parameter can be one of the following values:
1652:Drivers/STM32F1xx_HAL_Driver/Inc/stm32f1xx_ll_rcc.h ****   *         @arg @ref LL_RCC_PLLI2S_MUL_8
1653:Drivers/STM32F1xx_HAL_Driver/Inc/stm32f1xx_ll_rcc.h ****   *         @arg @ref LL_RCC_PLLI2S_MUL_9
1654:Drivers/STM32F1xx_HAL_Driver/Inc/stm32f1xx_ll_rcc.h ****   *         @arg @ref LL_RCC_PLLI2S_MUL_10
1655:Drivers/STM32F1xx_HAL_Driver/Inc/stm32f1xx_ll_rcc.h ****   *         @arg @ref LL_RCC_PLLI2S_MUL_11
1656:Drivers/STM32F1xx_HAL_Driver/Inc/stm32f1xx_ll_rcc.h ****   *         @arg @ref LL_RCC_PLLI2S_MUL_12
1657:Drivers/STM32F1xx_HAL_Driver/Inc/stm32f1xx_ll_rcc.h ****   *         @arg @ref LL_RCC_PLLI2S_MUL_13
1658:Drivers/STM32F1xx_HAL_Driver/Inc/stm32f1xx_ll_rcc.h ****   *         @arg @ref LL_RCC_PLLI2S_MUL_14
1659:Drivers/STM32F1xx_HAL_Driver/Inc/stm32f1xx_ll_rcc.h ****   *         @arg @ref LL_RCC_PLLI2S_MUL_16
1660:Drivers/STM32F1xx_HAL_Driver/Inc/stm32f1xx_ll_rcc.h ****   *         @arg @ref LL_RCC_PLLI2S_MUL_20
ARM GAS  /tmp/ccLXhlQB.s 			page 44


1661:Drivers/STM32F1xx_HAL_Driver/Inc/stm32f1xx_ll_rcc.h ****   * @retval None
1662:Drivers/STM32F1xx_HAL_Driver/Inc/stm32f1xx_ll_rcc.h ****   */
1663:Drivers/STM32F1xx_HAL_Driver/Inc/stm32f1xx_ll_rcc.h **** __STATIC_INLINE void LL_RCC_PLL_ConfigDomain_PLLI2S(uint32_t Divider, uint32_t Multiplicator)
1664:Drivers/STM32F1xx_HAL_Driver/Inc/stm32f1xx_ll_rcc.h **** {
1665:Drivers/STM32F1xx_HAL_Driver/Inc/stm32f1xx_ll_rcc.h ****   MODIFY_REG(RCC->CFGR2, RCC_CFGR2_PREDIV2 | RCC_CFGR2_PLL3MUL, Divider | Multiplicator);
1666:Drivers/STM32F1xx_HAL_Driver/Inc/stm32f1xx_ll_rcc.h **** }
1667:Drivers/STM32F1xx_HAL_Driver/Inc/stm32f1xx_ll_rcc.h **** 
1668:Drivers/STM32F1xx_HAL_Driver/Inc/stm32f1xx_ll_rcc.h **** /**
1669:Drivers/STM32F1xx_HAL_Driver/Inc/stm32f1xx_ll_rcc.h ****   * @brief  Get PLLI2S Multiplication Factor
1670:Drivers/STM32F1xx_HAL_Driver/Inc/stm32f1xx_ll_rcc.h ****   * @rmtoll CFGR2        PLL3MUL       LL_RCC_PLLI2S_GetMultiplicator
1671:Drivers/STM32F1xx_HAL_Driver/Inc/stm32f1xx_ll_rcc.h ****   * @retval Returned value can be one of the following values:
1672:Drivers/STM32F1xx_HAL_Driver/Inc/stm32f1xx_ll_rcc.h ****   *         @arg @ref LL_RCC_PLLI2S_MUL_8
1673:Drivers/STM32F1xx_HAL_Driver/Inc/stm32f1xx_ll_rcc.h ****   *         @arg @ref LL_RCC_PLLI2S_MUL_9
1674:Drivers/STM32F1xx_HAL_Driver/Inc/stm32f1xx_ll_rcc.h ****   *         @arg @ref LL_RCC_PLLI2S_MUL_10
1675:Drivers/STM32F1xx_HAL_Driver/Inc/stm32f1xx_ll_rcc.h ****   *         @arg @ref LL_RCC_PLLI2S_MUL_11
1676:Drivers/STM32F1xx_HAL_Driver/Inc/stm32f1xx_ll_rcc.h ****   *         @arg @ref LL_RCC_PLLI2S_MUL_12
1677:Drivers/STM32F1xx_HAL_Driver/Inc/stm32f1xx_ll_rcc.h ****   *         @arg @ref LL_RCC_PLLI2S_MUL_13
1678:Drivers/STM32F1xx_HAL_Driver/Inc/stm32f1xx_ll_rcc.h ****   *         @arg @ref LL_RCC_PLLI2S_MUL_14
1679:Drivers/STM32F1xx_HAL_Driver/Inc/stm32f1xx_ll_rcc.h ****   *         @arg @ref LL_RCC_PLLI2S_MUL_16
1680:Drivers/STM32F1xx_HAL_Driver/Inc/stm32f1xx_ll_rcc.h ****   *         @arg @ref LL_RCC_PLLI2S_MUL_20
1681:Drivers/STM32F1xx_HAL_Driver/Inc/stm32f1xx_ll_rcc.h ****   */
1682:Drivers/STM32F1xx_HAL_Driver/Inc/stm32f1xx_ll_rcc.h **** __STATIC_INLINE uint32_t LL_RCC_PLLI2S_GetMultiplicator(void)
1683:Drivers/STM32F1xx_HAL_Driver/Inc/stm32f1xx_ll_rcc.h **** {
1684:Drivers/STM32F1xx_HAL_Driver/Inc/stm32f1xx_ll_rcc.h ****   return (uint32_t)(READ_BIT(RCC->CFGR2, RCC_CFGR2_PLL3MUL));
1685:Drivers/STM32F1xx_HAL_Driver/Inc/stm32f1xx_ll_rcc.h **** }
1686:Drivers/STM32F1xx_HAL_Driver/Inc/stm32f1xx_ll_rcc.h **** 
1687:Drivers/STM32F1xx_HAL_Driver/Inc/stm32f1xx_ll_rcc.h **** /**
1688:Drivers/STM32F1xx_HAL_Driver/Inc/stm32f1xx_ll_rcc.h ****   * @}
1689:Drivers/STM32F1xx_HAL_Driver/Inc/stm32f1xx_ll_rcc.h ****   */
1690:Drivers/STM32F1xx_HAL_Driver/Inc/stm32f1xx_ll_rcc.h **** #endif /* RCC_PLLI2S_SUPPORT */
1691:Drivers/STM32F1xx_HAL_Driver/Inc/stm32f1xx_ll_rcc.h **** 
1692:Drivers/STM32F1xx_HAL_Driver/Inc/stm32f1xx_ll_rcc.h **** #if defined(RCC_PLL2_SUPPORT)
1693:Drivers/STM32F1xx_HAL_Driver/Inc/stm32f1xx_ll_rcc.h **** /** @defgroup RCC_LL_EF_PLL2 PLL2
1694:Drivers/STM32F1xx_HAL_Driver/Inc/stm32f1xx_ll_rcc.h ****   * @{
1695:Drivers/STM32F1xx_HAL_Driver/Inc/stm32f1xx_ll_rcc.h ****   */
1696:Drivers/STM32F1xx_HAL_Driver/Inc/stm32f1xx_ll_rcc.h **** 
1697:Drivers/STM32F1xx_HAL_Driver/Inc/stm32f1xx_ll_rcc.h **** /**
1698:Drivers/STM32F1xx_HAL_Driver/Inc/stm32f1xx_ll_rcc.h ****   * @brief  Enable PLL2
1699:Drivers/STM32F1xx_HAL_Driver/Inc/stm32f1xx_ll_rcc.h ****   * @rmtoll CR           PLL2ON        LL_RCC_PLL2_Enable
1700:Drivers/STM32F1xx_HAL_Driver/Inc/stm32f1xx_ll_rcc.h ****   * @retval None
1701:Drivers/STM32F1xx_HAL_Driver/Inc/stm32f1xx_ll_rcc.h ****   */
1702:Drivers/STM32F1xx_HAL_Driver/Inc/stm32f1xx_ll_rcc.h **** __STATIC_INLINE void LL_RCC_PLL2_Enable(void)
1703:Drivers/STM32F1xx_HAL_Driver/Inc/stm32f1xx_ll_rcc.h **** {
1704:Drivers/STM32F1xx_HAL_Driver/Inc/stm32f1xx_ll_rcc.h ****   SET_BIT(RCC->CR, RCC_CR_PLL2ON);
1705:Drivers/STM32F1xx_HAL_Driver/Inc/stm32f1xx_ll_rcc.h **** }
1706:Drivers/STM32F1xx_HAL_Driver/Inc/stm32f1xx_ll_rcc.h **** 
1707:Drivers/STM32F1xx_HAL_Driver/Inc/stm32f1xx_ll_rcc.h **** /**
1708:Drivers/STM32F1xx_HAL_Driver/Inc/stm32f1xx_ll_rcc.h ****   * @brief  Disable PLL2
1709:Drivers/STM32F1xx_HAL_Driver/Inc/stm32f1xx_ll_rcc.h ****   * @rmtoll CR           PLL2ON        LL_RCC_PLL2_Disable
1710:Drivers/STM32F1xx_HAL_Driver/Inc/stm32f1xx_ll_rcc.h ****   * @retval None
1711:Drivers/STM32F1xx_HAL_Driver/Inc/stm32f1xx_ll_rcc.h ****   */
1712:Drivers/STM32F1xx_HAL_Driver/Inc/stm32f1xx_ll_rcc.h **** __STATIC_INLINE void LL_RCC_PLL2_Disable(void)
1713:Drivers/STM32F1xx_HAL_Driver/Inc/stm32f1xx_ll_rcc.h **** {
1714:Drivers/STM32F1xx_HAL_Driver/Inc/stm32f1xx_ll_rcc.h ****   CLEAR_BIT(RCC->CR, RCC_CR_PLL2ON);
1715:Drivers/STM32F1xx_HAL_Driver/Inc/stm32f1xx_ll_rcc.h **** }
1716:Drivers/STM32F1xx_HAL_Driver/Inc/stm32f1xx_ll_rcc.h **** 
1717:Drivers/STM32F1xx_HAL_Driver/Inc/stm32f1xx_ll_rcc.h **** /**
ARM GAS  /tmp/ccLXhlQB.s 			page 45


1718:Drivers/STM32F1xx_HAL_Driver/Inc/stm32f1xx_ll_rcc.h ****   * @brief  Check if PLL2 Ready
1719:Drivers/STM32F1xx_HAL_Driver/Inc/stm32f1xx_ll_rcc.h ****   * @rmtoll CR           PLL2RDY       LL_RCC_PLL2_IsReady
1720:Drivers/STM32F1xx_HAL_Driver/Inc/stm32f1xx_ll_rcc.h ****   * @retval State of bit (1 or 0).
1721:Drivers/STM32F1xx_HAL_Driver/Inc/stm32f1xx_ll_rcc.h ****   */
1722:Drivers/STM32F1xx_HAL_Driver/Inc/stm32f1xx_ll_rcc.h **** __STATIC_INLINE uint32_t LL_RCC_PLL2_IsReady(void)
 144              		.loc 2 1722 26 view .LVU32
 145              	.LBB59:
1723:Drivers/STM32F1xx_HAL_Driver/Inc/stm32f1xx_ll_rcc.h **** {
1724:Drivers/STM32F1xx_HAL_Driver/Inc/stm32f1xx_ll_rcc.h ****   return (READ_BIT(RCC->CR, RCC_CR_PLL2RDY) == (RCC_CR_PLL2RDY));
 146              		.loc 2 1724 3 view .LVU33
 147              		.loc 2 1724 11 is_stmt 0 view .LVU34
 148 000c 074B     		ldr	r3, .L12
 149 000e 1B68     		ldr	r3, [r3]
 150              	.LBE59:
 151              	.LBE58:
 152              		.loc 1 652 6 view .LVU35
 153 0010 13F0006F 		tst	r3, #134217728
 154 0014 00D0     		beq	.L7
 653:Drivers/STM32F1xx_HAL_Driver/Src/stm32f1xx_ll_utils.c ****   {
 654:Drivers/STM32F1xx_HAL_Driver/Src/stm32f1xx_ll_utils.c ****     /* PLL2 configuration cannot be modified */
 655:Drivers/STM32F1xx_HAL_Driver/Src/stm32f1xx_ll_utils.c ****     status = ERROR;
 155              		.loc 1 655 12 view .LVU36
 156 0016 0120     		movs	r0, #1
 157              	.LVL11:
 158              	.L7:
 656:Drivers/STM32F1xx_HAL_Driver/Src/stm32f1xx_ll_utils.c ****   }
 657:Drivers/STM32F1xx_HAL_Driver/Src/stm32f1xx_ll_utils.c **** #endif /* RCC_PLL2_SUPPORT */
 658:Drivers/STM32F1xx_HAL_Driver/Src/stm32f1xx_ll_utils.c **** 
 659:Drivers/STM32F1xx_HAL_Driver/Src/stm32f1xx_ll_utils.c **** #if defined(RCC_PLLI2S_SUPPORT)
 660:Drivers/STM32F1xx_HAL_Driver/Src/stm32f1xx_ll_utils.c ****   /* Check if PLLI2S  is busy*/
 661:Drivers/STM32F1xx_HAL_Driver/Src/stm32f1xx_ll_utils.c ****   if (LL_RCC_PLLI2S_IsReady() != 0U)
 159              		.loc 1 661 3 is_stmt 1 view .LVU37
 160              	.LBB60:
 161              	.LBI60:
1625:Drivers/STM32F1xx_HAL_Driver/Inc/stm32f1xx_ll_rcc.h **** {
 162              		.loc 2 1625 26 view .LVU38
 163              	.LBB61:
1627:Drivers/STM32F1xx_HAL_Driver/Inc/stm32f1xx_ll_rcc.h **** }
 164              		.loc 2 1627 3 view .LVU39
1627:Drivers/STM32F1xx_HAL_Driver/Inc/stm32f1xx_ll_rcc.h **** }
 165              		.loc 2 1627 11 is_stmt 0 view .LVU40
 166 0018 044B     		ldr	r3, .L12
 167 001a 1B68     		ldr	r3, [r3]
 168              	.LBE61:
 169              	.LBE60:
 170              		.loc 1 661 6 view .LVU41
 171 001c 13F0005F 		tst	r3, #536870912
 172 0020 00D0     		beq	.L8
 662:Drivers/STM32F1xx_HAL_Driver/Src/stm32f1xx_ll_utils.c ****   {
