ARM GAS  /tmp/ccdg0XkI.s 			page 1


   1              		.cpu cortex-m3
   2              		.arch armv7-m
   3              		.fpu softvfp
   4              		.eabi_attribute 20, 1
   5              		.eabi_attribute 21, 1
   6              		.eabi_attribute 23, 3
   7              		.eabi_attribute 24, 1
   8              		.eabi_attribute 25, 1
   9              		.eabi_attribute 26, 1
  10              		.eabi_attribute 30, 1
  11              		.eabi_attribute 34, 1
  12              		.eabi_attribute 18, 4
  13              		.file	"tim.c"
  14              		.text
  15              	.Ltext0:
  16              		.cfi_sections	.debug_frame
  17              		.section	.text.xTimer_Task,"ax",%progbits
  18              		.align	1
  19              		.global	xTimer_Task
  20              		.syntax unified
  21              		.thumb
  22              		.thumb_func
  24              	xTimer_Task:
  25              	.LVL0:
  26              	.LFB973:
  27              		.file 1 "Core/Src/tim.c"
   1:Core/Src/tim.c **** /* USER CODE BEGIN Header */
   2:Core/Src/tim.c **** /**
   3:Core/Src/tim.c ****   ******************************************************************************
   4:Core/Src/tim.c ****   * @file    tim.c
   5:Core/Src/tim.c ****   * @brief   This file provides code for the configuration
   6:Core/Src/tim.c ****   *          of the TIM instances.
   7:Core/Src/tim.c ****   ******************************************************************************
   8:Core/Src/tim.c ****   * @attention
   9:Core/Src/tim.c ****   *
  10:Core/Src/tim.c ****   * Copyright (c) 2025 STMicroelectronics.
  11:Core/Src/tim.c ****   * All rights reserved.
  12:Core/Src/tim.c ****   *
  13:Core/Src/tim.c ****   * This software is licensed under terms that can be found in the LICENSE file
  14:Core/Src/tim.c ****   * in the root directory of this software component.
  15:Core/Src/tim.c ****   * If no LICENSE file comes with this software, it is provided AS-IS.
  16:Core/Src/tim.c ****   *
  17:Core/Src/tim.c ****   ******************************************************************************
  18:Core/Src/tim.c ****   */
  19:Core/Src/tim.c **** /* USER CODE END Header */
  20:Core/Src/tim.c **** /* Includes ------------------------------------------------------------------*/
  21:Core/Src/tim.c **** #include "tim.h"
  22:Core/Src/tim.c **** 
  23:Core/Src/tim.c **** /* USER CODE BEGIN 0 */
  24:Core/Src/tim.c **** #include "typedef.h"
  25:Core/Src/tim.c **** #include "usart.h"
  26:Core/Src/tim.c **** #include "drive.h"
  27:Core/Src/tim.c **** #include "gpio.h"
  28:Core/Src/tim.c **** #include "encoder.h"
  29:Core/Src/tim.c **** #include "button.h"
  30:Core/Src/tim.c **** 
  31:Core/Src/tim.c **** // Defines ---------------------------------------------------------------------//
ARM GAS  /tmp/ccdg0XkI.s 			page 2


  32:Core/Src/tim.c **** #define 	PERIODIC 										1
  33:Core/Src/tim.c **** #define 	ONCE 												0
  34:Core/Src/tim.c **** #define   NULL                        0
  35:Core/Src/tim.c **** 
  36:Core/Src/tim.c **** // Variables --------------------------------------------------------------------//
  37:Core/Src/tim.c **** static portTickType xTimeNow; //—É–∫–∞–∑–∞—Ç–µ–ª—å –Ω–∞ —Ñ-—é –≤–æ–∑–≤—Ä–∞—Ç–∞ —Å–∏—Å—Ç–µ–º–Ω–æ–≥–æ
  38:Core/Src/tim.c **** static SysTick_CALLBACK SysTick_CallbackFunction = NULL; //–∏–Ω–∏—Ü–∏–∞–ª–∏–∑–∞—Ü–∏—è —É–∫–∞–∑–∞—Ç–
  39:Core/Src/tim.c **** static uint32_t TicksCounter = 0; //—Å—á—ë—Ç—á–∏–∫ —Å–∏—Å—Ç–µ–º–Ω—ã—Ö —Ç–∏–∫–æ–≤
  40:Core/Src/tim.c **** 
  41:Core/Src/tim.c **** static xTIMER xTimerList[MAX_xTIMERS]; //–º–∞—Å—Å–∏–≤ —Å—Ç—Ä—É–∫—Ç—É—Ä –ø—Ä–æ–≥—Ä–∞–º–º–Ω—ã—Ö —Ç–∞–
  42:Core/Src/tim.c **** static xTimerHandle xTimerBtnBounce;
  43:Core/Src/tim.c **** static xTimerHandle xTimerEncDelay;
  44:Core/Src/tim.c **** 
  45:Core/Src/tim.c **** // Functions --------------------------------------------------------------------//
  46:Core/Src/tim.c **** static void vTimerBtnBounceCallback(xTimerHandle xTimer); 
  47:Core/Src/tim.c **** static void vTimerEncDelayCallback(xTimerHandle xTimer); 
  48:Core/Src/tim.c **** static void tim_delay_init (void);
  49:Core/Src/tim.c **** static void timer_bounce_init (void);
  50:Core/Src/tim.c **** static uint32_t Get_SysTick(void);
  51:Core/Src/tim.c **** 
  52:Core/Src/tim.c **** /* USER CODE END 0 */
  53:Core/Src/tim.c **** 
  54:Core/Src/tim.c **** /* TIM1 init function */
  55:Core/Src/tim.c **** void MX_TIM1_Init(void)
  56:Core/Src/tim.c **** {
  57:Core/Src/tim.c **** 
  58:Core/Src/tim.c ****   /* USER CODE BEGIN TIM1_Init 0 */
  59:Core/Src/tim.c **** 
  60:Core/Src/tim.c ****   /* USER CODE END TIM1_Init 0 */
  61:Core/Src/tim.c **** 
  62:Core/Src/tim.c ****   LL_TIM_InitTypeDef TIM_InitStruct = {0};
  63:Core/Src/tim.c ****   LL_TIM_OC_InitTypeDef TIM_OC_InitStruct = {0};
  64:Core/Src/tim.c ****   LL_TIM_BDTR_InitTypeDef TIM_BDTRInitStruct = {0};
  65:Core/Src/tim.c **** 
  66:Core/Src/tim.c ****   LL_GPIO_InitTypeDef GPIO_InitStruct = {0};
  67:Core/Src/tim.c ****   /* Peripheral clock enable */
  68:Core/Src/tim.c ****   LL_APB2_GRP1_EnableClock(LL_APB2_GRP1_PERIPH_TIM1);
  69:Core/Src/tim.c **** 
  70:Core/Src/tim.c ****   /* USER CODE BEGIN TIM1_Init 1 */
  71:Core/Src/tim.c **** 
  72:Core/Src/tim.c ****   /* USER CODE END TIM1_Init 1 */
  73:Core/Src/tim.c ****   TIM_InitStruct.Prescaler = 71;
  74:Core/Src/tim.c ****   TIM_InitStruct.CounterMode = LL_TIM_COUNTERMODE_UP;
  75:Core/Src/tim.c ****   TIM_InitStruct.Autoreload = 999;
  76:Core/Src/tim.c ****   TIM_InitStruct.ClockDivision = LL_TIM_CLOCKDIVISION_DIV1;
  77:Core/Src/tim.c ****   TIM_InitStruct.RepetitionCounter = 255;
  78:Core/Src/tim.c ****   LL_TIM_Init(TIM1, &TIM_InitStruct);
  79:Core/Src/tim.c ****   LL_TIM_DisableARRPreload(TIM1);
  80:Core/Src/tim.c ****   LL_TIM_SetClockSource(TIM1, LL_TIM_CLOCKSOURCE_INTERNAL);
  81:Core/Src/tim.c ****   LL_TIM_OC_EnablePreload(TIM1, LL_TIM_CHANNEL_CH1);
  82:Core/Src/tim.c ****   TIM_OC_InitStruct.OCMode = LL_TIM_OCMODE_PWM2;
  83:Core/Src/tim.c ****   TIM_OC_InitStruct.OCState = LL_TIM_OCSTATE_DISABLE;
  84:Core/Src/tim.c ****   TIM_OC_InitStruct.OCNState = LL_TIM_OCSTATE_DISABLE;
  85:Core/Src/tim.c ****   TIM_OC_InitStruct.CompareValue = 499;
  86:Core/Src/tim.c ****   TIM_OC_InitStruct.OCPolarity = LL_TIM_OCPOLARITY_HIGH;
  87:Core/Src/tim.c ****   TIM_OC_InitStruct.OCNPolarity = LL_TIM_OCPOLARITY_HIGH;
  88:Core/Src/tim.c ****   TIM_OC_InitStruct.OCIdleState = LL_TIM_OCIDLESTATE_LOW;
ARM GAS  /tmp/ccdg0XkI.s 			page 3


  89:Core/Src/tim.c ****   TIM_OC_InitStruct.OCNIdleState = LL_TIM_OCIDLESTATE_LOW;
  90:Core/Src/tim.c ****   LL_TIM_OC_Init(TIM1, LL_TIM_CHANNEL_CH1, &TIM_OC_InitStruct);
  91:Core/Src/tim.c ****   LL_TIM_OC_DisableFast(TIM1, LL_TIM_CHANNEL_CH1);
  92:Core/Src/tim.c ****   LL_TIM_SetTriggerOutput(TIM1, LL_TIM_TRGO_OC1REF);
  93:Core/Src/tim.c ****   LL_TIM_EnableMasterSlaveMode(TIM1);
  94:Core/Src/tim.c ****   TIM_BDTRInitStruct.OSSRState = LL_TIM_OSSR_DISABLE;
  95:Core/Src/tim.c ****   TIM_BDTRInitStruct.OSSIState = LL_TIM_OSSI_DISABLE;
  96:Core/Src/tim.c ****   TIM_BDTRInitStruct.LockLevel = LL_TIM_LOCKLEVEL_OFF;
  97:Core/Src/tim.c ****   TIM_BDTRInitStruct.DeadTime = 0;
  98:Core/Src/tim.c ****   TIM_BDTRInitStruct.BreakState = LL_TIM_BREAK_DISABLE;
  99:Core/Src/tim.c ****   TIM_BDTRInitStruct.BreakPolarity = LL_TIM_BREAK_POLARITY_HIGH;
 100:Core/Src/tim.c ****   TIM_BDTRInitStruct.AutomaticOutput = LL_TIM_AUTOMATICOUTPUT_DISABLE;
 101:Core/Src/tim.c ****   LL_TIM_BDTR_Init(TIM1, &TIM_BDTRInitStruct);
 102:Core/Src/tim.c ****   /* USER CODE BEGIN TIM1_Init 2 */
 103:Core/Src/tim.c **** 
 104:Core/Src/tim.c ****   /* USER CODE END TIM1_Init 2 */
 105:Core/Src/tim.c ****   LL_APB2_GRP1_EnableClock(LL_APB2_GRP1_PERIPH_GPIOA);
 106:Core/Src/tim.c ****     /**TIM1 GPIO Configuration
 107:Core/Src/tim.c ****     PA8     ------> TIM1_CH1
 108:Core/Src/tim.c ****     */
 109:Core/Src/tim.c ****   GPIO_InitStruct.Pin = PUL_DRIVE2_Pin;
 110:Core/Src/tim.c ****   GPIO_InitStruct.Mode = LL_GPIO_MODE_ALTERNATE;
 111:Core/Src/tim.c ****   GPIO_InitStruct.Speed = LL_GPIO_SPEED_FREQ_LOW;
 112:Core/Src/tim.c ****   GPIO_InitStruct.OutputType = LL_GPIO_OUTPUT_PUSHPULL;
 113:Core/Src/tim.c ****   LL_GPIO_Init(PUL_DRIVE2_GPIO_Port, &GPIO_InitStruct);
 114:Core/Src/tim.c **** 
 115:Core/Src/tim.c **** }
 116:Core/Src/tim.c **** /* TIM3 init function */
 117:Core/Src/tim.c **** void MX_TIM3_Init(void)
 118:Core/Src/tim.c **** {
 119:Core/Src/tim.c **** 
 120:Core/Src/tim.c ****   /* USER CODE BEGIN TIM3_Init 0 */
 121:Core/Src/tim.c **** 
 122:Core/Src/tim.c ****   /* USER CODE END TIM3_Init 0 */
 123:Core/Src/tim.c **** 
 124:Core/Src/tim.c ****   LL_TIM_InitTypeDef TIM_InitStruct = {0};
 125:Core/Src/tim.c ****   LL_TIM_OC_InitTypeDef TIM_OC_InitStruct = {0};
 126:Core/Src/tim.c **** 
 127:Core/Src/tim.c ****   LL_GPIO_InitTypeDef GPIO_InitStruct = {0};
 128:Core/Src/tim.c ****   /* Peripheral clock enable */
 129:Core/Src/tim.c ****   LL_APB1_GRP1_EnableClock(LL_APB1_GRP1_PERIPH_TIM3);
 130:Core/Src/tim.c **** 
 131:Core/Src/tim.c ****   /* USER CODE BEGIN TIM3_Init 1 */
 132:Core/Src/tim.c **** 
 133:Core/Src/tim.c ****   /* USER CODE END TIM3_Init 1 */
 134:Core/Src/tim.c ****   TIM_InitStruct.Prescaler = 71;
 135:Core/Src/tim.c ****   TIM_InitStruct.CounterMode = LL_TIM_COUNTERMODE_UP;
 136:Core/Src/tim.c ****   TIM_InitStruct.Autoreload = 999;
 137:Core/Src/tim.c ****   TIM_InitStruct.ClockDivision = LL_TIM_CLOCKDIVISION_DIV1;
 138:Core/Src/tim.c ****   LL_TIM_Init(TIM3, &TIM_InitStruct);
 139:Core/Src/tim.c ****   LL_TIM_DisableARRPreload(TIM3);
 140:Core/Src/tim.c ****   LL_TIM_OC_EnablePreload(TIM3, LL_TIM_CHANNEL_CH2);
 141:Core/Src/tim.c ****   TIM_OC_InitStruct.OCMode = LL_TIM_OCMODE_PWM2;
 142:Core/Src/tim.c ****   TIM_OC_InitStruct.OCState = LL_TIM_OCSTATE_DISABLE;
 143:Core/Src/tim.c ****   TIM_OC_InitStruct.OCNState = LL_TIM_OCSTATE_DISABLE;
 144:Core/Src/tim.c ****   TIM_OC_InitStruct.CompareValue = 499;
 145:Core/Src/tim.c ****   TIM_OC_InitStruct.OCPolarity = LL_TIM_OCPOLARITY_HIGH;
ARM GAS  /tmp/ccdg0XkI.s 			page 4


 146:Core/Src/tim.c ****   LL_TIM_OC_Init(TIM3, LL_TIM_CHANNEL_CH2, &TIM_OC_InitStruct);
 147:Core/Src/tim.c ****   LL_TIM_OC_DisableFast(TIM3, LL_TIM_CHANNEL_CH2);
 148:Core/Src/tim.c ****   LL_TIM_SetTriggerOutput(TIM3, LL_TIM_TRGO_OC2REF);
 149:Core/Src/tim.c ****   LL_TIM_EnableMasterSlaveMode(TIM3);
 150:Core/Src/tim.c ****   /* USER CODE BEGIN TIM3_Init 2 */
 151:Core/Src/tim.c **** 
 152:Core/Src/tim.c ****   /* USER CODE END TIM3_Init 2 */
 153:Core/Src/tim.c ****   LL_APB2_GRP1_EnableClock(LL_APB2_GRP1_PERIPH_GPIOA);
 154:Core/Src/tim.c ****     /**TIM3 GPIO Configuration
 155:Core/Src/tim.c ****     PA7     ------> TIM3_CH2
 156:Core/Src/tim.c ****     */
 157:Core/Src/tim.c ****   GPIO_InitStruct.Pin = PUL_DIR1_Pin;
 158:Core/Src/tim.c ****   GPIO_InitStruct.Mode = LL_GPIO_MODE_ALTERNATE;
 159:Core/Src/tim.c ****   GPIO_InitStruct.Speed = LL_GPIO_SPEED_FREQ_LOW;
 160:Core/Src/tim.c ****   GPIO_InitStruct.OutputType = LL_GPIO_OUTPUT_PUSHPULL;
 161:Core/Src/tim.c ****   LL_GPIO_Init(PUL_DIR1_GPIO_Port, &GPIO_InitStruct);
 162:Core/Src/tim.c **** 
 163:Core/Src/tim.c **** }
 164:Core/Src/tim.c **** /* TIM4 init function */
 165:Core/Src/tim.c **** void MX_TIM4_Init(void)
 166:Core/Src/tim.c **** {
 167:Core/Src/tim.c **** 
 168:Core/Src/tim.c ****   /* USER CODE BEGIN TIM4_Init 0 */
 169:Core/Src/tim.c **** 
 170:Core/Src/tim.c ****   /* USER CODE END TIM4_Init 0 */
 171:Core/Src/tim.c **** 
 172:Core/Src/tim.c ****   LL_TIM_InitTypeDef TIM_InitStruct = {0};
 173:Core/Src/tim.c **** 
 174:Core/Src/tim.c ****   /* Peripheral clock enable */
 175:Core/Src/tim.c ****   LL_APB1_GRP1_EnableClock(LL_APB1_GRP1_PERIPH_TIM4);
 176:Core/Src/tim.c **** 
 177:Core/Src/tim.c ****   /* USER CODE BEGIN TIM4_Init 1 */
 178:Core/Src/tim.c **** 
 179:Core/Src/tim.c ****   /* USER CODE END TIM4_Init 1 */
 180:Core/Src/tim.c ****   TIM_InitStruct.Prescaler = 0;
 181:Core/Src/tim.c ****   TIM_InitStruct.CounterMode = LL_TIM_COUNTERMODE_UP;
 182:Core/Src/tim.c ****   TIM_InitStruct.Autoreload = 1599;
 183:Core/Src/tim.c ****   TIM_InitStruct.ClockDivision = LL_TIM_CLOCKDIVISION_DIV1;
 184:Core/Src/tim.c ****   LL_TIM_Init(TIM4, &TIM_InitStruct);
 185:Core/Src/tim.c ****   LL_TIM_DisableARRPreload(TIM4);
 186:Core/Src/tim.c ****   LL_TIM_SetTriggerInput(TIM4, LL_TIM_TS_ITR0);
 187:Core/Src/tim.c ****   LL_TIM_SetClockSource(TIM4, LL_TIM_CLOCKSOURCE_EXT_MODE1);
 188:Core/Src/tim.c ****   LL_TIM_DisableIT_TRIG(TIM4);
 189:Core/Src/tim.c ****   LL_TIM_DisableDMAReq_TRIG(TIM4);
 190:Core/Src/tim.c ****   LL_TIM_SetTriggerOutput(TIM4, LL_TIM_TRGO_RESET);
 191:Core/Src/tim.c ****   LL_TIM_DisableMasterSlaveMode(TIM4);
 192:Core/Src/tim.c ****   /* USER CODE BEGIN TIM4_Init 2 */
 193:Core/Src/tim.c **** 	LL_TIM_ClearFlag_UPDATE(TIM_cnt_PWM_DRIVE2); 		//—Å–±—Ä–æ—Å —Ñ–ª–∞–≥–∞ –æ–±–Ω–æ–≤–ª–µ–Ω–∏—è —Ç–∞–π
 194:Core/Src/tim.c **** 	LL_TIM_EnableIT_UPDATE(TIM_cnt_PWM_DRIVE2); 		//Enable update interrupt
 195:Core/Src/tim.c **** 	NVIC_SetPriority(TIM_cnt_PWM_DRIVE2_IRQn, 1); 	//–ø—Ä–∏–æ—Ä–∏—Ç–µ—Ç –ø—Ä–µ—Ä—ã–≤–∞–Ω–∏—è
 196:Core/Src/tim.c ****   NVIC_EnableIRQ(TIM_cnt_PWM_DRIVE2_IRQn);	
 197:Core/Src/tim.c **** 	LL_TIM_SetCounter(TIM_cnt_PWM_DRIVE2, 0); 			//—Å–±—Ä–æ—Å —Å—á—ë—Ç–Ω–æ–≥–æ —Ä–µ–≥–∏—Å—Ç—Ä–∞
 198:Core/Src/tim.c ****   /* USER CODE END TIM4_Init 2 */
 199:Core/Src/tim.c **** 
 200:Core/Src/tim.c **** }
 201:Core/Src/tim.c **** /* TIM5 init function */
 202:Core/Src/tim.c **** void MX_TIM5_Init(void)
ARM GAS  /tmp/ccdg0XkI.s 			page 5


 203:Core/Src/tim.c **** {
 204:Core/Src/tim.c **** 
 205:Core/Src/tim.c ****   /* USER CODE BEGIN TIM5_Init 0 */
 206:Core/Src/tim.c **** 
 207:Core/Src/tim.c ****   /* USER CODE END TIM5_Init 0 */
 208:Core/Src/tim.c **** 
 209:Core/Src/tim.c ****   LL_TIM_InitTypeDef TIM_InitStruct = {0};
 210:Core/Src/tim.c **** 
 211:Core/Src/tim.c ****   /* Peripheral clock enable */
 212:Core/Src/tim.c ****   LL_APB1_GRP1_EnableClock(LL_APB1_GRP1_PERIPH_TIM5);
 213:Core/Src/tim.c **** 
 214:Core/Src/tim.c ****   /* USER CODE BEGIN TIM5_Init 1 */
 215:Core/Src/tim.c **** 
 216:Core/Src/tim.c ****   /* USER CODE END TIM5_Init 1 */
 217:Core/Src/tim.c ****   TIM_InitStruct.Prescaler = 0;
 218:Core/Src/tim.c ****   TIM_InitStruct.CounterMode = LL_TIM_COUNTERMODE_UP;
 219:Core/Src/tim.c ****   TIM_InitStruct.Autoreload = 199;
 220:Core/Src/tim.c ****   TIM_InitStruct.ClockDivision = LL_TIM_CLOCKDIVISION_DIV1;
 221:Core/Src/tim.c ****   LL_TIM_Init(TIM5, &TIM_InitStruct);
 222:Core/Src/tim.c ****   LL_TIM_DisableARRPreload(TIM5);
 223:Core/Src/tim.c ****   LL_TIM_SetTriggerInput(TIM5, LL_TIM_TS_ITR1);
 224:Core/Src/tim.c ****   LL_TIM_SetClockSource(TIM5, LL_TIM_CLOCKSOURCE_EXT_MODE1);
 225:Core/Src/tim.c ****   LL_TIM_DisableIT_TRIG(TIM5);
 226:Core/Src/tim.c ****   LL_TIM_DisableDMAReq_TRIG(TIM5);
 227:Core/Src/tim.c ****   LL_TIM_SetTriggerOutput(TIM5, LL_TIM_TRGO_RESET);
 228:Core/Src/tim.c ****   LL_TIM_DisableMasterSlaveMode(TIM5);
 229:Core/Src/tim.c ****   /* USER CODE BEGIN TIM5_Init 2 */
 230:Core/Src/tim.c **** 	LL_TIM_ClearFlag_UPDATE(TIM_cnt_PWM_DRIVE1); 		//—Å–±—Ä–æ—Å —Ñ–ª–∞–≥–∞ –æ–±–Ω–æ–≤–ª–µ–Ω–∏—è —Ç–∞–π
 231:Core/Src/tim.c **** 	LL_TIM_EnableIT_UPDATE(TIM_cnt_PWM_DRIVE1); 		//Enable update interrupt
 232:Core/Src/tim.c **** 	NVIC_SetPriority(TIM_cnt_PWM_DRIVE1_IRQn, 1); 	//–ø—Ä–∏–æ—Ä–∏—Ç–µ—Ç –ø—Ä–µ—Ä—ã–≤–∞–Ω–∏—è
 233:Core/Src/tim.c ****   NVIC_EnableIRQ(TIM_cnt_PWM_DRIVE1_IRQn);	
 234:Core/Src/tim.c **** 	LL_TIM_SetCounter(TIM_cnt_PWM_DRIVE1, 0); 			//—Å–±—Ä–æ—Å —Å—á—ë—Ç–Ω–æ–≥–æ —Ä–µ–≥–∏—Å—Ç—Ä–∞
 235:Core/Src/tim.c ****   /* USER CODE END TIM5_Init 2 */
 236:Core/Src/tim.c **** 
 237:Core/Src/tim.c **** }
 238:Core/Src/tim.c **** 
 239:Core/Src/tim.c **** /* USER CODE BEGIN 1 */
 240:Core/Src/tim.c **** //---------------------------------------------------------------------------------------//
 241:Core/Src/tim.c **** void Drives_PWM_start(PWM_data_t * PWM_data) 
 242:Core/Src/tim.c **** {
 243:Core/Src/tim.c **** 	LL_TIM_DisableCounter(TIM_cnt_PWM_DRIVE1);
 244:Core/Src/tim.c **** 	LL_TIM_SetAutoReload(TIM_cnt_PWM_DRIVE1, PWM_data->number_cnt_PWM_DR1);
 245:Core/Src/tim.c **** 	LL_TIM_SetCounter(TIM_cnt_PWM_DRIVE1, 0); 		//—Å–±—Ä–æ—Å —Å—á—ë—Ç–Ω–æ–≥–æ —Ä–µ–≥–∏—Å—Ç—Ä–∞
 246:Core/Src/tim.c **** 	LL_TIM_EnableCounter(TIM_cnt_PWM_DRIVE1); 		//–≤–∫–ª—é—á–µ–Ω–∏–µ —Ç–∞–π–º–µ—Ä–∞	
 247:Core/Src/tim.c **** 	
 248:Core/Src/tim.c **** 	LL_TIM_DisableCounter(TIM_cnt_PWM_DRIVE2);
 249:Core/Src/tim.c **** 	LL_TIM_SetCounter(TIM_cnt_PWM_DRIVE2, 0); 		//—Å–±—Ä–æ—Å —Å—á—ë—Ç–Ω–æ–≥–æ —Ä–µ–≥–∏—Å—Ç—Ä–∞
 250:Core/Src/tim.c **** 	LL_TIM_EnableCounter(TIM_cnt_PWM_DRIVE2); 		//–≤–∫–ª—é—á–µ–Ω–∏–µ —Ç–∞–π–º–µ—Ä–∞	*/
 251:Core/Src/tim.c **** 	
 252:Core/Src/tim.c **** 	LL_TIM_DisableCounter(TIM_PWM_Drive1); //–≤—ã–∫–ª—é—á–µ–Ω–∏–µ —Ç–∞–π–º–µ—Ä–∞, —É–ø—Ä–∞–≤–ª—è—é—â–∏
 253:Core/Src/tim.c **** 	LL_TIM_DisableCounter(TIM_PWM_Drive2); //–≤—ã–∫–ª—é—á–µ–Ω–∏–µ —Ç–∞–π–º–µ—Ä–∞, —É–ø—Ä–∞–≤–ª—è—é—â–∏
 254:Core/Src/tim.c **** 	LL_TIM_SetCounter(TIM_PWM_Drive1, 0);
 255:Core/Src/tim.c **** 	LL_TIM_SetCounter(TIM_PWM_Drive2, 0);
 256:Core/Src/tim.c **** 	LL_TIM_SetAutoReload(TIM_PWM_Drive1, PWM_data-> Period_Drive1); 	//Set the Autoreload value 
 257:Core/Src/tim.c **** 	LL_TIM_SetAutoReload(TIM_PWM_Drive2, PWM_data-> Period_Drive2); 	//Set the Autoreload value 
 258:Core/Src/tim.c **** 	LL_TIM_OC_SetCompareCH2(TIM_PWM_Drive1, PWM_data->Compare_Drive1); //Set compare value for output 
 259:Core/Src/tim.c **** 	LL_TIM_OC_SetCompareCH1(TIM_PWM_Drive2, PWM_data->Compare_Drive2); //Set compare value for output 
ARM GAS  /tmp/ccdg0XkI.s 			page 6


 260:Core/Src/tim.c **** 	LL_TIM_CC_EnableChannel(TIM_PWM_Drive1,  Drive1_PWM_Channel); //–≤–∫–ª—é—á–µ–Ω–∏–µ –∫–∞–Ω–∞–ª–∞ –®
 261:Core/Src/tim.c **** 	LL_TIM_CC_EnableChannel(TIM_PWM_Drive2,  Drive2_PWM_Channel); //–≤–∫–ª—é—á–µ–Ω–∏–µ –∫–∞–Ω–∞–ª–∞ –®
 262:Core/Src/tim.c **** 	if (TIM_PWM_Drive1 == TIM1)
 263:Core/Src/tim.c **** 	{	LL_TIM_EnableAllOutputs(TIM_PWM_Drive1);	}	//–≤–∫–ª—é—á–µ–Ω–∏–µ —Ç–∞–π–º–µ—Ä–∞  –¥–ª—è –≥–µ–Ω–µ—
 264:Core/Src/tim.c **** 	
 265:Core/Src/tim.c **** 	if (TIM_PWM_Drive2 == TIM1)
 266:Core/Src/tim.c **** 	{	LL_TIM_EnableAllOutputs(TIM_PWM_Drive2);	}//–≤–∫–ª—é—á–µ–Ω–∏–µ —Ç–∞–π–º–µ—Ä–∞  –¥–ª—è –≥–µ–Ω–µ—Ä
 267:Core/Src/tim.c **** 
 268:Core/Src/tim.c **** 	LL_TIM_EnableCounter(TIM_PWM_Drive1); 		//Enable timer counter
 269:Core/Src/tim.c **** 	LL_TIM_EnableCounter(TIM_PWM_Drive2); 
 270:Core/Src/tim.c **** }
 271:Core/Src/tim.c **** 
 272:Core/Src/tim.c **** //---------------------------------------------------------------------------------------//
 273:Core/Src/tim.c **** void Drive1_PWM_start(PWM_data_t * PWM_data) 
 274:Core/Src/tim.c **** {	
 275:Core/Src/tim.c **** 	LL_TIM_DisableCounter(TIM_PWM_Drive1); //–≤—ã–∫–ª—é—á–µ–Ω–∏–µ —Ç–∞–π–º–µ—Ä–∞, —É–ø—Ä–∞–≤–ª—è—é—â–∏
 276:Core/Src/tim.c **** 	LL_TIM_SetCounter(TIM_PWM_Drive1, 0);
 277:Core/Src/tim.c **** 	LL_TIM_SetAutoReload(TIM_PWM_Drive1, PWM_data->Period_Drive1);
 278:Core/Src/tim.c **** 	LL_TIM_OC_SetCompareCH2(TIM_PWM_Drive1,	PWM_data->Compare_Drive1);
 279:Core/Src/tim.c **** 	LL_TIM_CC_EnableChannel(TIM_PWM_Drive1,  Drive1_PWM_Channel); //–≤–∫–ª—é—á–µ–Ω–∏–µ –∫–∞–Ω–∞–ª–∞ –®
 280:Core/Src/tim.c **** 	if (TIM_PWM_Drive1 == TIM1)
 281:Core/Src/tim.c **** 	{
 282:Core/Src/tim.c **** 		LL_TIM_EnableAllOutputs(TIM_PWM_Drive1);	//–≤–∫–ª—é—á–µ–Ω–∏–µ —Ç–∞–π–º–µ—Ä–∞  –¥–ª—è –≥–µ–Ω–µ—Ä–∞
 283:Core/Src/tim.c **** 	}
 284:Core/Src/tim.c **** 	LL_TIM_EnableCounter(TIM_PWM_Drive1); 		//Enable timer counter
 285:Core/Src/tim.c **** }
 286:Core/Src/tim.c **** 
 287:Core/Src/tim.c **** //---------------------------------------------------------------------------------------//
 288:Core/Src/tim.c **** void Drive1_PWM_repeat(void) 
 289:Core/Src/tim.c **** {
 290:Core/Src/tim.c **** 	LL_TIM_SetCounter(TIM_PWM_Drive1, 0);
 291:Core/Src/tim.c **** 	LL_TIM_EnableCounter(TIM_PWM_Drive1); //–≤–∫–ª—é—á–µ–Ω–∏–µ —Ç–∞–π–º–µ—Ä–∞  –¥–ª—è –≥–µ–Ω–µ—Ä–∞—Ü–∏
 292:Core/Src/tim.c **** }
 293:Core/Src/tim.c **** 
 294:Core/Src/tim.c **** //---------------------------------------------------------------------------------------//
 295:Core/Src/tim.c **** void Drive1_PWM_stop(void) 
 296:Core/Src/tim.c **** {
 297:Core/Src/tim.c **** 		LL_TIM_DisableCounter(TIM_PWM_Drive1); //–≤—ã–∫–ª—é—á–µ–Ω–∏–µ —Ç–∞–π–º–µ—Ä–∞
 298:Core/Src/tim.c **** 		LL_TIM_CC_DisableChannel(TIM_PWM_Drive1, Drive1_PWM_Channel ); //–≤—ã–∫–ª—é—á–µ–Ω–∏–µ —Ç–∞–π–º–µ—
 299:Core/Src/tim.c **** }
 300:Core/Src/tim.c **** 
 301:Core/Src/tim.c **** //---------------------------------------------------------------------------------------//
 302:Core/Src/tim.c **** void TIM_cnt_PWM_DRIVE1_IRQHandler(void)
 303:Core/Src/tim.c **** {
 304:Core/Src/tim.c **** 	if (LL_TIM_IsActiveFlag_UPDATE(TIM_cnt_PWM_DRIVE1) == SET)
 305:Core/Src/tim.c **** 	{
 306:Core/Src/tim.c **** 		LL_TIM_ClearFlag_UPDATE (TIM_cnt_PWM_DRIVE1);
 307:Core/Src/tim.c **** 		Counter_PWM_Drive1_Callback ();
 308:Core/Src/tim.c **** 	}
 309:Core/Src/tim.c **** }
 310:Core/Src/tim.c **** 
 311:Core/Src/tim.c **** //---------------------------------------------------------------------------------------//
 312:Core/Src/tim.c **** void Drive2_PWM_start(PWM_data_t * PWM_data) 
 313:Core/Src/tim.c **** {
 314:Core/Src/tim.c **** 	LL_TIM_DisableCounter(TIM_PWM_Drive2); //–≤—ã–∫–ª—é—á–µ–Ω–∏–µ —Ç–∞–π–º–µ—Ä–∞
 315:Core/Src/tim.c **** 	LL_TIM_SetCounter(TIM_PWM_Drive2, 0);
 316:Core/Src/tim.c **** 	LL_TIM_SetAutoReload(TIM_PWM_Drive2, PWM_data->Period_Drive2); //Set the Autoreload value
ARM GAS  /tmp/ccdg0XkI.s 			page 7


 317:Core/Src/tim.c **** 	LL_TIM_OC_SetCompareCH1(TIM_PWM_Drive2, PWM_data->Compare_Drive2); //Set compare value for output 
 318:Core/Src/tim.c **** 	LL_TIM_CC_EnableChannel(TIM_PWM_Drive2, Drive2_PWM_Channel); //–≤–∫–ª—é—á–µ–Ω–∏–µ –∫–∞–Ω–∞–ª–∞ 1 —
 319:Core/Src/tim.c ****   LL_TIM_EnableAllOutputs(TIM_PWM_Drive2);	//–≤–∫–ª—é—á–µ–Ω–∏–µ —Ç–∞–π–º–µ—Ä–∞ –¥–ª—è –≥–µ–Ω–µ—Ä–∞—
 320:Core/Src/tim.c **** 	LL_TIM_EnableCounter(TIM_PWM_Drive2); //Enable timer counter
 321:Core/Src/tim.c **** }
 322:Core/Src/tim.c **** 
 323:Core/Src/tim.c **** //---------------------------------------------------------------------------------------//
 324:Core/Src/tim.c **** void Drive2_PWM_repeat(void) 
 325:Core/Src/tim.c **** {
 326:Core/Src/tim.c **** 	LL_TIM_SetCounter(TIM_PWM_Drive2, 0);
 327:Core/Src/tim.c **** 	LL_TIM_EnableCounter(TIM_PWM_Drive2); //–≤–∫–ª—é—á–µ–Ω–∏–µ —Ç–∞–π–º–µ—Ä–∞  –¥–ª—è –≥–µ–Ω–µ—Ä–∞—Ü–∏
 328:Core/Src/tim.c **** 	LL_TIM_EnableAllOutputs(TIM_PWM_Drive2);	//–≤–∫–ª—é—á–µ–Ω–∏–µ –∫–∞–Ω–∞–ª–æ–≤ —Ç–∞–π–º–µ—Ä–∞ 
 329:Core/Src/tim.c **** }
 330:Core/Src/tim.c **** 
 331:Core/Src/tim.c **** //---------------------------------------------------------------------------------------//
 332:Core/Src/tim.c **** void Drive2_PWM_stop(void) 
 333:Core/Src/tim.c **** {
 334:Core/Src/tim.c **** 	LL_TIM_DisableCounter(TIM_PWM_Drive2); //–≤—ã–∫–ª—é—á–µ–Ω–∏–µ —Ç–∞–π–º–µ—Ä–∞
 335:Core/Src/tim.c **** 	LL_TIM_DisableAllOutputs(TIM_PWM_Drive2); //
 336:Core/Src/tim.c **** 	LL_TIM_CC_DisableChannel(TIM_PWM_Drive2, Drive2_PWM_Channel );
 337:Core/Src/tim.c **** }
 338:Core/Src/tim.c **** 
 339:Core/Src/tim.c **** //---------------------------------------------------------------------------------------//
 340:Core/Src/tim.c **** void Stop_Count_Timers(void)
 341:Core/Src/tim.c **** {
 342:Core/Src/tim.c **** 	LL_TIM_DisableCounter(TIM_cnt_PWM_DRIVE1);
 343:Core/Src/tim.c **** 	LL_TIM_DisableCounter(TIM_cnt_PWM_DRIVE2);
 344:Core/Src/tim.c **** }	
 345:Core/Src/tim.c **** 
 346:Core/Src/tim.c **** //---------------------------------------------------------------------------------------//
 347:Core/Src/tim.c **** void TIM_cnt_PWM_DRIVE2_IRQHandler(void)
 348:Core/Src/tim.c **** {
 349:Core/Src/tim.c **** 	if (LL_TIM_IsActiveFlag_UPDATE(TIM_cnt_PWM_DRIVE2) == SET)
 350:Core/Src/tim.c **** 	{
 351:Core/Src/tim.c **** 		LL_TIM_ClearFlag_UPDATE (TIM_cnt_PWM_DRIVE2);
 352:Core/Src/tim.c **** 		Counter_PWM_Drive2_Callback ();
 353:Core/Src/tim.c **** 	}
 354:Core/Src/tim.c **** }
 355:Core/Src/tim.c **** 
 356:Core/Src/tim.c **** //---------------------------------------------------------------------------------------//
 357:Core/Src/tim.c **** static void tim_delay_init (void)
 358:Core/Src/tim.c **** {
 359:Core/Src/tim.c **** 	LL_TIM_InitTypeDef TIM_InitStruct = {0};
 360:Core/Src/tim.c **** 
 361:Core/Src/tim.c ****   LL_APB1_GRP1_EnableClock(TIM_DELAY_us_APB1_BIT );   // Peripheral clock enable 
 362:Core/Src/tim.c **** 
 363:Core/Src/tim.c ****   TIM_InitStruct.Prescaler = (uint16_t)((CPU_CLOCK_VALUE/1000000)-1); //–ø—Ä–µ–¥–¥–µ–ª–∏—Ç–µ–ª—å 72
 364:Core/Src/tim.c ****   TIM_InitStruct.CounterMode = LL_TIM_COUNTERMODE_UP;
 365:Core/Src/tim.c ****   TIM_InitStruct.Autoreload = 0xFF;
 366:Core/Src/tim.c ****   TIM_InitStruct.ClockDivision = LL_TIM_CLOCKDIVISION_DIV1;
 367:Core/Src/tim.c ****   LL_TIM_Init(TIM_DELAY_us, &TIM_InitStruct);
 368:Core/Src/tim.c ****   LL_TIM_DisableARRPreload(TIM_DELAY_us);
 369:Core/Src/tim.c **** }
 370:Core/Src/tim.c **** 
 371:Core/Src/tim.c **** //---------------------------------------------------------------------------------------//
 372:Core/Src/tim.c **** void delay_us(uint16_t delay)
 373:Core/Src/tim.c **** {
ARM GAS  /tmp/ccdg0XkI.s 			page 8


 374:Core/Src/tim.c ****   LL_TIM_SetAutoReload(TIM_DELAY_us, delay); //—É—Å—Ç–∞–Ω–æ–≤–∫–∞ –∑–∞–¥–µ—Ä–∂–∫–∏ –≤ –º–∫—Å
 375:Core/Src/tim.c **** 	LL_TIM_ClearFlag_UPDATE(TIM_DELAY_us); //—Å–±—Ä–æ—Å —Ñ–ª–∞–≥–∞ –æ–±–Ω–æ–≤–ª–µ–Ω–∏—è —Ç–∞–π–º–µ—Ä–∞
 376:Core/Src/tim.c **** 	LL_TIM_SetCounter(TIM_DELAY_us, 0); //—Å–±—Ä–æ—Å —Å—á—ë—Ç–Ω–æ–≥–æ —Ä–µ–≥–∏—Å—Ç—Ä–∞
 377:Core/Src/tim.c **** 	LL_TIM_EnableCounter(TIM_DELAY_us); //–≤–∫–ª—é—á–µ–Ω–∏–µ —Ç–∞–π–º–µ—Ä–∞
 378:Core/Src/tim.c **** 	while (LL_TIM_IsActiveFlag_UPDATE(TIM_DELAY_us) == 0) {} //–æ–∂–∏–¥–∞–Ω–∏–µ —É—Å—Ç–∞–Ω–æ–≤–∫–∏ —Ñ–
 379:Core/Src/tim.c **** 	LL_TIM_DisableCounter(TIM_DELAY_us); //–≤—ã–∫–ª—é—á–µ–Ω–∏–µ —Ç–∞–π–º–µ—Ä–∞		
 380:Core/Src/tim.c **** }
 381:Core/Src/tim.c **** 
 382:Core/Src/tim.c **** //---------------------------------------------------------------------------------------//
 383:Core/Src/tim.c **** static void timer_bounce_init (void)
 384:Core/Src/tim.c **** {
 385:Core/Src/tim.c **** 	LL_TIM_InitTypeDef TIM_InitStruct = {0};
 386:Core/Src/tim.c **** 
 387:Core/Src/tim.c ****   LL_APB1_GRP1_EnableClock(TIM_BOUNCE_DELAY_APB1_BIT);   // Peripheral clock enable 
 388:Core/Src/tim.c **** 
 389:Core/Src/tim.c ****   TIM_InitStruct.Prescaler = (uint16_t)((CPU_CLOCK_VALUE/1000000)-1); //–ø—Ä–µ–¥–¥–µ–ª–∏—Ç–µ–ª—å 72
 390:Core/Src/tim.c ****   TIM_InitStruct.CounterMode = LL_TIM_COUNTERMODE_UP;
 391:Core/Src/tim.c ****   TIM_InitStruct.Autoreload = (1000-1);
 392:Core/Src/tim.c ****   TIM_InitStruct.ClockDivision = LL_TIM_CLOCKDIVISION_DIV1;
 393:Core/Src/tim.c ****   TIM_InitStruct.RepetitionCounter = 0;
 394:Core/Src/tim.c ****   LL_TIM_Init(TIM_BOUNCE_DELAY, &TIM_InitStruct);
 395:Core/Src/tim.c ****   LL_TIM_DisableARRPreload(TIM_BOUNCE_DELAY);	
 396:Core/Src/tim.c **** 	
 397:Core/Src/tim.c **** 	LL_TIM_ClearFlag_UPDATE(TIM_BOUNCE_DELAY); //—Å–±—Ä–æ—Å —Ñ–ª–∞–≥–∞ –æ–±–Ω–æ–≤–ª–µ–Ω–∏—è —Ç–∞–π–º–µ
 398:Core/Src/tim.c **** 	LL_TIM_EnableIT_UPDATE(TIM_BOUNCE_DELAY); //—Ä–∞–∑—Ä–µ—à–µ–Ω–∏–π –ø—Ä–µ—Ä—ã–≤–∞–Ω–∏–π –æ—Ç —Ç–∞–π–
 399:Core/Src/tim.c **** 	LL_TIM_SetCounter(TIM_BOUNCE_DELAY, 0); //—Å–±—Ä–æ—Å —Å—á—ë—Ç–Ω–æ–≥–æ —Ä–µ–≥–∏—Å—Ç—Ä–∞
 400:Core/Src/tim.c **** 
 401:Core/Src/tim.c **** 	NVIC_SetPriority(TIM_BOUNCE_DELAY_IRQn, 4); //–ø—Ä–∏–æ—Ä–∏—Ç–µ—Ç –ø—Ä–µ—Ä—ã–≤–∞–Ω–∏—è
 402:Core/Src/tim.c ****   NVIC_EnableIRQ(TIM_BOUNCE_DELAY_IRQn); //–≤–∫–ª—é—á–µ–Ω–∏–µ –ø—Ä–µ—Ä—ã–≤–∞–Ω–∏—è –æ—Ç —Ç–∞–π–º–µ—
 403:Core/Src/tim.c ****   LL_TIM_EnableCounter(TIM_BOUNCE_DELAY); //–≤–∫–ª—é—á–µ–Ω–∏–µ —Ç–∞–π–º–µ—Ä–∞	
 404:Core/Src/tim.c **** 
 405:Core/Src/tim.c **** }
 406:Core/Src/tim.c **** 
 407:Core/Src/tim.c **** //---------------------------------------------------------------------------------------//
 408:Core/Src/tim.c **** void TIM_BOUNCE_DELAY_IRQHandler(void)
 409:Core/Src/tim.c **** {
 410:Core/Src/tim.c **** 	if (LL_TIM_IsActiveFlag_UPDATE(TIM_BOUNCE_DELAY) == SET)
 411:Core/Src/tim.c **** 	{	
 412:Core/Src/tim.c **** 	  LL_TIM_ClearFlag_UPDATE (TIM_BOUNCE_DELAY); //—Å–±—Ä–æ—Å —Ñ–ª–∞–≥–∞ –æ–±–Ω–æ–≤–ª–µ–Ω–∏—è —Ç–∞–π–
 413:Core/Src/tim.c **** 		//LL_TIM_DisableCounter(TIM_BOUNCE_DELAY); //–≤—ã–∫–ª—é—á–µ–Ω–∏–µ —Ç–∞–π–º–µ—Ä–∞
 414:Core/Src/tim.c **** 		//end_bounce = SET; //—É—Å—Ç–∞–Ω–æ–≤–∫–∞ —Ñ–ª–∞–≥–∞ –æ–∫–æ–Ω—á–∞–Ω–∏—è –æ–∂–∏–¥–∞–Ω–∏—è –ø—Ä–µ–∫—
 415:Core/Src/tim.c ****     TicksCounter++; 
 416:Core/Src/tim.c **** 	  if ( SysTick_CallbackFunction != NULL ) //–µ—Å–ª–∏ —É–∫–∞–∑–∞—Ç–µ–ª—å –Ω–∞ –∫–æ–ª–ª–±—ç–∫ xTimer
 417:Core/Src/tim.c **** 	  { SysTick_CallbackFunction(TicksCounter); } //–≤—ã–∑–æ–≤ –∫–æ–ª–ª–±—ç–∫–∞
 418:Core/Src/tim.c **** 	}
 419:Core/Src/tim.c **** }
 420:Core/Src/tim.c **** 
 421:Core/Src/tim.c **** //---------------------------------------------------------------------------------------//
 422:Core/Src/tim.c **** void timers_ini (void)
 423:Core/Src/tim.c **** {
 424:Core/Src/tim.c **** 	tim_delay_init(); 		//–∏–Ω–∏—Ü–∏–∞–ª–∏–∑–∞—Ü–∏—è TIM7 –¥–ª—è –º–∏–∫—Ä–æ—Å–µ–∫—É–Ω–¥–Ω—ã—Ö –∑–∞–¥–µ
 425:Core/Src/tim.c **** 	timer_bounce_init();	//–∏–Ω–∏—Ü–∏–∞–ª–∏–∑–∞—Ü–∏—è TIM6 –¥–ª—è –ø—Ä–∏–≤—è–∑–∫–∏ –∫ xTimer
 426:Core/Src/tim.c ****   SysTick_CallbackFunction = xTimer_Task; //–ø—Ä–∏—Å–≤–æ–µ–Ω–∏–µ —É–∫–∞–∑–∞—Ç–µ–ª—é –∑–Ω–∞—á–µ–Ω–∏—
 427:Core/Src/tim.c ****   xTimeNow = Get_SysTick; //–∏–Ω–∏—Ü–∏–∞–ª–∏–∑–∞—Ü–∏—è —É–∫–∞–∑–∞—Ç–µ–ª—è –Ω–∞ —Ñ-—é –ø–æ–ª—É—á–µ–Ω
 428:Core/Src/tim.c ****   xTimerBtnBounce = xTimer_Create(KEY_BOUNCE_TIME, ONCE, &vTimerBtnBounceCallback, DISABLE);;
 429:Core/Src/tim.c ****   xTimerEncDelay = xTimer_Create(ENC_DELAY_TIME, ONCE, &vTimerEncDelayCallback, DISABLE);;
 430:Core/Src/tim.c **** }
ARM GAS  /tmp/ccdg0XkI.s 			page 9


 431:Core/Src/tim.c **** 
 432:Core/Src/tim.c **** //---------------------------------------------------------------------------------------//
 433:Core/Src/tim.c **** xTimerHandle xTimer_Create(uint32_t xTimerPeriodInTicks, FunctionalState AutoReload, 
 434:Core/Src/tim.c **** tmrTIMER_CALLBACK CallbackFunction, FunctionalState NewState)
 435:Core/Src/tim.c **** {
 436:Core/Src/tim.c **** 	xTimerHandle NewTimer = NULL; //–∏–Ω–∏—Ü–∏–∞–ª–∏–∑–∞—Ü–∏—è —É–∫–∞–∑–∞—Ç–µ–ª—è –Ω–∞ —Å—Ç—Ä—É–∫—Ç—É—
 437:Core/Src/tim.c **** 	
 438:Core/Src/tim.c **** 	for (uint16_t count = 0; count < MAX_xTIMERS; count++) //–ø–æ–∏—Å–∫ —Å–≤–æ–±–æ–¥–Ω–æ–≥–æ —ç–ª–µ–º–
 439:Core/Src/tim.c **** 	{
 440:Core/Src/tim.c **** 		if (xTimerList[count].CallbackFunction == NULL) 		//–µ—Å–ª–∏ —É–∫–∞–∑–∞—Ç–µ–ª—å –Ω–∞ —Ñ-—é –∫–æ–ª
 441:Core/Src/tim.c **** 		{
 442:Core/Src/tim.c **** 			xTimerList[count].periodic = xTimerPeriodInTicks;		//–≤—Ä–µ–º—è –∑–∞–¥–µ—Ä–∂–∫–∏ –≤ –º—Å
 443:Core/Src/tim.c **** 			xTimerList[count].AutoReload = AutoReload;				//–ø–µ—Ä–∏–æ–¥–∏—á–µ—Å–∫–∏–π –∑–∞–ø—É—Å–∫ –∏–ª–∏ –
 444:Core/Src/tim.c **** 			xTimerList[count].CallbackFunction = CallbackFunction;	//—É–∫–∞–∑–∞—Ç–µ–ª—å –Ω–∞ —Ñ-—é –∫–æ–ª–ª–
 445:Core/Src/tim.c **** 			
 446:Core/Src/tim.c **** 			if (NewState != DISABLE) //–µ—Å–ª–∏ –Ω–æ–≤—ã–π —Ç–∞–π–º–µ—Ä –≤ —Å–æ—Å—Ç–æ—è–Ω–∏–µ  ENABLE
 447:Core/Src/tim.c **** 			{
 448:Core/Src/tim.c **** 				xTimerList[count].expiry = xTimeNow() + xTimerPeriodInTicks; //–≤—ã—á–∏—Å–ª–µ–Ω–∏–µ –≤—Ä–µ–º–µ–
 449:Core/Src/tim.c **** 				xTimerList[count].State = __ACTIVE; //—Å–æ—Å—Ç–æ—è–Ω–∏–µ —Ç–∞–π–º–µ—Ä–∞ –∞–∫—Ç–∏–≤–µ–Ω
 450:Core/Src/tim.c **** 			} 
 451:Core/Src/tim.c **** 			else 
 452:Core/Src/tim.c **** 			{	xTimerList[count].State = __IDLE;	}	//–µ—Å–ª–∏ –Ω–æ–≤—ã–π —Ç–∞–π–º–µ—Ä –≤ —Å–æ—Å—Ç–æ—è–Ω–∏–µ  
 453:Core/Src/tim.c **** 			NewTimer = (xTimerHandle)(count+1); //–≤–æ–∑–≤—Ä–∞—Ç –Ω–æ–º–µ—Ä–∞ —É–∫–∞–∑–∞—Ç–µ–ª—è –Ω–∞ —Å—Ç—Ä
 454:Core/Src/tim.c **** 			break;
 455:Core/Src/tim.c ****     }
 456:Core/Src/tim.c ****   }
 457:Core/Src/tim.c **** 	return NewTimer;
 458:Core/Src/tim.c **** }
 459:Core/Src/tim.c **** 
 460:Core/Src/tim.c **** //---------------------------------------------------------------------------------------//
 461:Core/Src/tim.c **** void xTimer_SetPeriod(xTimerHandle xTimer, uint32_t xTimerPeriodInTicks) 
 462:Core/Src/tim.c **** {
 463:Core/Src/tim.c **** 	if ( xTimer != NULL )  
 464:Core/Src/tim.c **** 	{	xTimerList[(uint32_t)xTimer-1].periodic = xTimerPeriodInTicks;	} //—É—Å—Ç–∞–Ω–æ–≤–∫–∞ –Ω–æ–≤–æ–≥
 465:Core/Src/tim.c **** }
 466:Core/Src/tim.c **** 
 467:Core/Src/tim.c **** //---------------------------------------------------------------------------------------//
 468:Core/Src/tim.c **** void xTimer_Reload(xTimerHandle xTimer) 
 469:Core/Src/tim.c **** {
 470:Core/Src/tim.c **** 	if ( xTimer != NULL ) 
 471:Core/Src/tim.c **** 	{
 472:Core/Src/tim.c **** 		xTimerList[(uint32_t)xTimer-1].expiry = xTimeNow() + xTimerList[(uint32_t)xTimer-1].periodic; //—
 473:Core/Src/tim.c **** 		xTimerList[(uint32_t)xTimer-1].State = __ACTIVE; //–∑–∞–ø—É—Å–∫ —Ç–∞–π–º–µ—Ä–∞
 474:Core/Src/tim.c **** 	}
 475:Core/Src/tim.c **** }
 476:Core/Src/tim.c **** 
 477:Core/Src/tim.c **** //---------------------------------------------------------------------------------------//
 478:Core/Src/tim.c **** void xTimer_Delete(xTimerHandle xTimer)
 479:Core/Src/tim.c **** {
 480:Core/Src/tim.c **** 	if ( xTimer != NULL ) 
 481:Core/Src/tim.c **** 	{
 482:Core/Src/tim.c **** 		xTimerList[(uint32_t)xTimer-1].CallbackFunction = NULL;
 483:Core/Src/tim.c **** 		xTimerList[(uint32_t)xTimer-1].State = __IDLE;
 484:Core/Src/tim.c **** 		xTimer = NULL;
 485:Core/Src/tim.c **** 	}		
 486:Core/Src/tim.c **** }
 487:Core/Src/tim.c **** 
ARM GAS  /tmp/ccdg0XkI.s 			page 10


 488:Core/Src/tim.c **** //---------------------------------—Ñ-—è –¥–∏—Å–ø–µ—Ç—á–µ—Ä–∞ xTimer-------------------------------
 489:Core/Src/tim.c **** void xTimer_Task(uint32_t portTick)
 490:Core/Src/tim.c **** {
  28              		.loc 1 490 1 view -0
  29              		.cfi_startproc
  30              		@ args = 0, pretend = 0, frame = 0
  31              		@ frame_needed = 0, uses_anonymous_args = 0
  32              		.loc 1 490 1 is_stmt 0 view .LVU1
  33 0000 38B5     		push	{r3, r4, r5, lr}
  34              	.LCFI0:
  35              		.cfi_def_cfa_offset 16
  36              		.cfi_offset 3, -16
  37              		.cfi_offset 4, -12
  38              		.cfi_offset 5, -8
  39              		.cfi_offset 14, -4
  40 0002 0546     		mov	r5, r0
 491:Core/Src/tim.c **** 	uint16_t i;
  41              		.loc 1 491 2 is_stmt 1 view .LVU2
 492:Core/Src/tim.c **** 	
 493:Core/Src/tim.c **** 	for (i = 0; i < MAX_xTIMERS; i++) 
  42              		.loc 1 493 2 view .LVU3
  43              	.LVL1:
  44              		.loc 1 493 9 is_stmt 0 view .LVU4
  45 0004 0024     		movs	r4, #0
  46              		.loc 1 493 2 view .LVU5
  47 0006 0CE0     		b	.L2
  48              	.LVL2:
  49              	.L4:
 494:Core/Src/tim.c ****   {
 495:Core/Src/tim.c **** 		switch (xTimerList[i].State) 
 496:Core/Src/tim.c **** 		{
 497:Core/Src/tim.c **** 			case __ACTIVE: //–µ—Å–ª–∏ —Ç–∞–π–º–µ—Ä –∞–∫—Ç–∏–≤–µ–Ω
 498:Core/Src/tim.c **** 				if ( portTick >= xTimerList[i].expiry ) //–µ—Å–ª–∏ —Ç–µ–∫—É—â–µ–µ —Å–∏—Å—Ç–µ–º–Ω–æ–µ –≤—Ä–µ–º—è
 499:Core/Src/tim.c **** 				{				
 500:Core/Src/tim.c **** 					if ( xTimerList[i].AutoReload != DISABLE ) //–µ—Å–ª–∏ —Ç–∞–π–º–µ—Ä –ø–µ—Ä–∏–æ–¥–∏—á–µ—Å–∫–∏–π
 501:Core/Src/tim.c **** 					{	xTimerList[i].expiry = portTick + xTimerList[i].periodic;	} //—É—Å—Ç–∞–Ω–æ–≤–∫–∞ –Ω–æ–≤–æ–≥–
 502:Core/Src/tim.c **** 					else 
 503:Core/Src/tim.c **** 					{	xTimerList[i].State = __IDLE;	}	//—Å—Ç–∞—Ç—É—Å —Ç–∞–π–º–µ—Ä–∞ –Ω–µ –∞–∫—Ç–∏–≤–µ–Ω		
  50              		.loc 1 503 8 is_stmt 1 view .LVU6
  51              		.loc 1 503 28 is_stmt 0 view .LVU7
  52 0008 134B     		ldr	r3, .L9
  53 000a 03EB0413 		add	r3, r3, r4, lsl #4
  54 000e 0021     		movs	r1, #0
  55 0010 1972     		strb	r1, [r3, #8]
  56              	.L5:
 504:Core/Src/tim.c **** 					xTimerList[i].CallbackFunction((xTimerHandle)(i+1)); //–≤—ã–∑–æ–≤ –∫–æ–ª–ª–±—ç–∫–∞
  57              		.loc 1 504 6 is_stmt 1 view .LVU8
  58              		.loc 1 504 19 is_stmt 0 view .LVU9
  59 0012 114B     		ldr	r3, .L9
  60 0014 03EB0213 		add	r3, r3, r2, lsl #4
  61 0018 DB68     		ldr	r3, [r3, #12]
  62              		.loc 1 504 6 view .LVU10
  63 001a 501C     		adds	r0, r2, #1
  64 001c 9847     		blx	r3
  65              	.LVL3:
  66              	.L3:
 493:Core/Src/tim.c ****   {
ARM GAS  /tmp/ccdg0XkI.s 			page 11


  67              		.loc 1 493 31 is_stmt 1 discriminator 2 view .LVU11
 493:Core/Src/tim.c ****   {
  68              		.loc 1 493 32 is_stmt 0 discriminator 2 view .LVU12
  69 001e 0134     		adds	r4, r4, #1
  70              	.LVL4:
 493:Core/Src/tim.c ****   {
  71              		.loc 1 493 32 discriminator 2 view .LVU13
  72 0020 A4B2     		uxth	r4, r4
  73              	.LVL5:
  74              	.L2:
 493:Core/Src/tim.c ****   {
  75              		.loc 1 493 14 is_stmt 1 discriminator 1 view .LVU14
 493:Core/Src/tim.c ****   {
  76              		.loc 1 493 2 is_stmt 0 discriminator 1 view .LVU15
  77 0022 022C     		cmp	r4, #2
  78 0024 17D8     		bhi	.L8
 495:Core/Src/tim.c **** 		{
  79              		.loc 1 495 3 is_stmt 1 view .LVU16
 495:Core/Src/tim.c **** 		{
  80              		.loc 1 495 24 is_stmt 0 view .LVU17
  81 0026 2246     		mov	r2, r4
  82 0028 0B4B     		ldr	r3, .L9
  83 002a 03EB0413 		add	r3, r3, r4, lsl #4
  84 002e 1B7A     		ldrb	r3, [r3, #8]	@ zero_extendqisi2
 495:Core/Src/tim.c **** 		{
  85              		.loc 1 495 3 view .LVU18
  86 0030 012B     		cmp	r3, #1
  87 0032 F4D1     		bne	.L3
 498:Core/Src/tim.c **** 				{				
  88              		.loc 1 498 5 is_stmt 1 view .LVU19
 498:Core/Src/tim.c **** 				{				
  89              		.loc 1 498 35 is_stmt 0 view .LVU20
  90 0034 2301     		lsls	r3, r4, #4
  91 0036 0849     		ldr	r1, .L9
  92 0038 CB58     		ldr	r3, [r1, r3]
 498:Core/Src/tim.c **** 				{				
  93              		.loc 1 498 8 view .LVU21
  94 003a AB42     		cmp	r3, r5
  95 003c EFD8     		bhi	.L3
 500:Core/Src/tim.c **** 					{	xTimerList[i].expiry = portTick + xTimerList[i].periodic;	} //—É—Å—Ç–∞–Ω–æ–≤–∫–∞ –Ω–æ–≤–æ–≥–
  96              		.loc 1 500 6 is_stmt 1 view .LVU22
 500:Core/Src/tim.c **** 					{	xTimerList[i].expiry = portTick + xTimerList[i].periodic;	} //—É—Å—Ç–∞–Ω–æ–≤–∫–∞ –Ω–æ–≤–æ–≥–
  97              		.loc 1 500 24 is_stmt 0 view .LVU23
  98 003e 01EB0413 		add	r3, r1, r4, lsl #4
  99 0042 5B7A     		ldrb	r3, [r3, #9]	@ zero_extendqisi2
 500:Core/Src/tim.c **** 					{	xTimerList[i].expiry = portTick + xTimerList[i].periodic;	} //—É—Å—Ç–∞–Ω–æ–≤–∫–∞ –Ω–æ–≤–æ–≥–
 100              		.loc 1 500 9 view .LVU24
 101 0044 002B     		cmp	r3, #0
 102 0046 DFD0     		beq	.L4
 501:Core/Src/tim.c **** 					else 
 103              		.loc 1 501 8 is_stmt 1 view .LVU25
 501:Core/Src/tim.c **** 					else 
 104              		.loc 1 501 55 is_stmt 0 view .LVU26
 105 0048 2001     		lsls	r0, r4, #4
 106 004a 01EB0413 		add	r3, r1, r4, lsl #4
 107 004e 5B68     		ldr	r3, [r3, #4]
 501:Core/Src/tim.c **** 					else 
ARM GAS  /tmp/ccdg0XkI.s 			page 12


 108              		.loc 1 501 40 view .LVU27
 109 0050 2B44     		add	r3, r3, r5
 501:Core/Src/tim.c **** 					else 
 110              		.loc 1 501 29 view .LVU28
 111 0052 0B50     		str	r3, [r1, r0]
 112 0054 DDE7     		b	.L5
 113              	.L8:
 505:Core/Src/tim.c **** 				}					
 506:Core/Src/tim.c **** 				break;
 507:Core/Src/tim.c **** 				
 508:Core/Src/tim.c **** 			default:
 509:Core/Src/tim.c **** 				break;
 510:Core/Src/tim.c **** 		}
 511:Core/Src/tim.c **** 	}	
 512:Core/Src/tim.c **** }
 114              		.loc 1 512 1 view .LVU29
 115 0056 38BD     		pop	{r3, r4, r5, pc}
 116              	.LVL6:
 117              	.L10:
 118              		.loc 1 512 1 view .LVU30
 119              		.align	2
 120              	.L9:
 121 0058 00000000 		.word	.LANCHOR0
 122              		.cfi_endproc
 123              	.LFE973:
 125              		.section	.text.Get_SysTick,"ax",%progbits
 126              		.align	1
 127              		.syntax unified
 128              		.thumb
 129              		.thumb_func
 131              	Get_SysTick:
 132              	.LFB979:
 513:Core/Src/tim.c **** 
 514:Core/Src/tim.c **** // –∫–æ–ª–ª–±—ç–∫ –ø—Ä–µ—Ä—ã–≤–∞–Ω–∏—è —Ç–∞–π–º–µ—Ä–∞ SysTick -------------------------------------
 515:Core/Src/tim.c **** void SysTick_Callback(void)
 516:Core/Src/tim.c **** {
 517:Core/Src/tim.c **** 	TicksCounter++; 
 518:Core/Src/tim.c **** 	if ( SysTick_CallbackFunction != NULL ) //–µ—Å–ª–∏ —É–∫–∞–∑–∞—Ç–µ–ª—å –Ω–∞ –∫–æ–ª–ª–±—ç–∫ xTimer_T
 519:Core/Src/tim.c **** 	{SysTick_CallbackFunction(TicksCounter);} //–≤—ã–∑–æ–≤ –∫–æ–ª–ª–±—ç–∫–∞
 520:Core/Src/tim.c **** }
 521:Core/Src/tim.c **** 
 522:Core/Src/tim.c **** //------------------------------------------------------------------------------------------//
 523:Core/Src/tim.c **** static void vTimerBtnBounceCallback(xTimerHandle xTimer) 
 524:Core/Src/tim.c **** {
 525:Core/Src/tim.c ****   ButtonBounceCallback ();
 526:Core/Src/tim.c **** }
 527:Core/Src/tim.c **** 
 528:Core/Src/tim.c **** //-------------------------------------------------------------------------------------------------
 529:Core/Src/tim.c **** void xTimersButtonBounce_Reload (uint16_t delay_ms)
 530:Core/Src/tim.c **** {
 531:Core/Src/tim.c **** 	xTimer_SetPeriod(xTimerBtnBounce, delay_ms);
 532:Core/Src/tim.c **** 	xTimer_Reload(xTimerBtnBounce);	
 533:Core/Src/tim.c **** }
 534:Core/Src/tim.c **** 
 535:Core/Src/tim.c **** //------------------------------------------------------------------------------------------//
 536:Core/Src/tim.c **** static void vTimerEncDelayCallback(xTimerHandle xTimer)
 537:Core/Src/tim.c **** {
ARM GAS  /tmp/ccdg0XkI.s 			page 13


 538:Core/Src/tim.c ****   EncoderDelayCallback ();
 539:Core/Src/tim.c **** }
 540:Core/Src/tim.c **** 
 541:Core/Src/tim.c **** //-------------------------------------------------------------------------------------------------
 542:Core/Src/tim.c **** void xTimerEncDelay_Reload (uint16_t delay_ms)
 543:Core/Src/tim.c **** {
 544:Core/Src/tim.c **** 	xTimer_SetPeriod(xTimerEncDelay, delay_ms);
 545:Core/Src/tim.c **** 	xTimer_Reload(xTimerEncDelay);	
 546:Core/Src/tim.c **** }
 547:Core/Src/tim.c **** 
 548:Core/Src/tim.c **** // –≤–æ–∑–≤—Ä–∞—â–∞–µ—Ç –∑–Ω–∞—á–µ–Ω–∏–µ SysTick---------------------------------------------------
 549:Core/Src/tim.c **** static uint32_t Get_SysTick(void)
 550:Core/Src/tim.c **** { 
 133              		.loc 1 550 1 is_stmt 1 view -0
 134              		.cfi_startproc
 135              		@ args = 0, pretend = 0, frame = 0
 136              		@ frame_needed = 0, uses_anonymous_args = 0
 137              		@ link register save eliminated.
 551:Core/Src/tim.c ****   return TicksCounter;  
 138              		.loc 1 551 3 view .LVU32
 552:Core/Src/tim.c **** }
 139              		.loc 1 552 1 is_stmt 0 view .LVU33
 140 0000 014B     		ldr	r3, .L12
 141 0002 1868     		ldr	r0, [r3]
 142 0004 7047     		bx	lr
 143              	.L13:
 144 0006 00BF     		.align	2
 145              	.L12:
 146 0008 00000000 		.word	.LANCHOR1
 147              		.cfi_endproc
 148              	.LFE979:
 150              		.section	.text.tim_delay_init,"ax",%progbits
 151              		.align	1
 152              		.syntax unified
 153              		.thumb
 154              		.thumb_func
 156              	tim_delay_init:
 157              	.LFB964:
 358:Core/Src/tim.c **** 	LL_TIM_InitTypeDef TIM_InitStruct = {0};
 158              		.loc 1 358 1 is_stmt 1 view -0
 159              		.cfi_startproc
 160              		@ args = 0, pretend = 0, frame = 24
 161              		@ frame_needed = 0, uses_anonymous_args = 0
 162 0000 10B5     		push	{r4, lr}
 163              	.LCFI1:
 164              		.cfi_def_cfa_offset 8
 165              		.cfi_offset 4, -8
 166              		.cfi_offset 14, -4
 167 0002 86B0     		sub	sp, sp, #24
 168              	.LCFI2:
 169              		.cfi_def_cfa_offset 32
 359:Core/Src/tim.c **** 
 170              		.loc 1 359 2 view .LVU35
 359:Core/Src/tim.c **** 
 171              		.loc 1 359 21 is_stmt 0 view .LVU36
 172 0004 0023     		movs	r3, #0
 173 0006 0193     		str	r3, [sp, #4]
ARM GAS  /tmp/ccdg0XkI.s 			page 14


 174 0008 0293     		str	r3, [sp, #8]
 175 000a 0393     		str	r3, [sp, #12]
 176 000c 0493     		str	r3, [sp, #16]
 177 000e 0593     		str	r3, [sp, #20]
 361:Core/Src/tim.c **** 
 178              		.loc 1 361 3 is_stmt 1 view .LVU37
 179              	.LVL7:
 180              	.LBB214:
 181              	.LBI214:
 182              		.file 2 "Drivers/STM32F1xx_HAL_Driver/Inc/stm32f1xx_ll_bus.h"
   1:Drivers/STM32F1xx_HAL_Driver/Inc/stm32f1xx_ll_bus.h **** /**
   2:Drivers/STM32F1xx_HAL_Driver/Inc/stm32f1xx_ll_bus.h ****   ******************************************************************************
   3:Drivers/STM32F1xx_HAL_Driver/Inc/stm32f1xx_ll_bus.h ****   * @file    stm32f1xx_ll_bus.h
   4:Drivers/STM32F1xx_HAL_Driver/Inc/stm32f1xx_ll_bus.h ****   * @author  MCD Application Team
   5:Drivers/STM32F1xx_HAL_Driver/Inc/stm32f1xx_ll_bus.h ****   * @brief   Header file of BUS LL module.
   6:Drivers/STM32F1xx_HAL_Driver/Inc/stm32f1xx_ll_bus.h **** 
   7:Drivers/STM32F1xx_HAL_Driver/Inc/stm32f1xx_ll_bus.h ****   @verbatim
   8:Drivers/STM32F1xx_HAL_Driver/Inc/stm32f1xx_ll_bus.h ****                       ##### RCC Limitations #####
   9:Drivers/STM32F1xx_HAL_Driver/Inc/stm32f1xx_ll_bus.h ****   ==============================================================================
  10:Drivers/STM32F1xx_HAL_Driver/Inc/stm32f1xx_ll_bus.h ****     [..]
  11:Drivers/STM32F1xx_HAL_Driver/Inc/stm32f1xx_ll_bus.h ****       A delay between an RCC peripheral clock enable and the effective peripheral
  12:Drivers/STM32F1xx_HAL_Driver/Inc/stm32f1xx_ll_bus.h ****       enabling should be taken into account in order to manage the peripheral read/write
  13:Drivers/STM32F1xx_HAL_Driver/Inc/stm32f1xx_ll_bus.h ****       from/to registers.
  14:Drivers/STM32F1xx_HAL_Driver/Inc/stm32f1xx_ll_bus.h ****       (+) This delay depends on the peripheral mapping.
  15:Drivers/STM32F1xx_HAL_Driver/Inc/stm32f1xx_ll_bus.h ****         (++) AHB & APB peripherals, 1 dummy read is necessary
  16:Drivers/STM32F1xx_HAL_Driver/Inc/stm32f1xx_ll_bus.h **** 
  17:Drivers/STM32F1xx_HAL_Driver/Inc/stm32f1xx_ll_bus.h ****     [..]
  18:Drivers/STM32F1xx_HAL_Driver/Inc/stm32f1xx_ll_bus.h ****       Workarounds:
  19:Drivers/STM32F1xx_HAL_Driver/Inc/stm32f1xx_ll_bus.h ****       (#) For AHB & APB peripherals, a dummy read to the peripheral register has been
  20:Drivers/STM32F1xx_HAL_Driver/Inc/stm32f1xx_ll_bus.h ****           inserted in each LL_{BUS}_GRP{x}_EnableClock() function.
  21:Drivers/STM32F1xx_HAL_Driver/Inc/stm32f1xx_ll_bus.h **** 
  22:Drivers/STM32F1xx_HAL_Driver/Inc/stm32f1xx_ll_bus.h ****   @endverbatim
  23:Drivers/STM32F1xx_HAL_Driver/Inc/stm32f1xx_ll_bus.h ****   ******************************************************************************
  24:Drivers/STM32F1xx_HAL_Driver/Inc/stm32f1xx_ll_bus.h ****   * @attention
  25:Drivers/STM32F1xx_HAL_Driver/Inc/stm32f1xx_ll_bus.h ****   *
  26:Drivers/STM32F1xx_HAL_Driver/Inc/stm32f1xx_ll_bus.h ****   * Copyright (c) 2016 STMicroelectronics.
  27:Drivers/STM32F1xx_HAL_Driver/Inc/stm32f1xx_ll_bus.h ****   * All rights reserved.
  28:Drivers/STM32F1xx_HAL_Driver/Inc/stm32f1xx_ll_bus.h ****   *
  29:Drivers/STM32F1xx_HAL_Driver/Inc/stm32f1xx_ll_bus.h ****   * This software is licensed under terms that can be found in the LICENSE file in
  30:Drivers/STM32F1xx_HAL_Driver/Inc/stm32f1xx_ll_bus.h ****   * the root directory of this software component.
  31:Drivers/STM32F1xx_HAL_Driver/Inc/stm32f1xx_ll_bus.h ****   * If no LICENSE file comes with this software, it is provided AS-IS.
  32:Drivers/STM32F1xx_HAL_Driver/Inc/stm32f1xx_ll_bus.h ****   ******************************************************************************
  33:Drivers/STM32F1xx_HAL_Driver/Inc/stm32f1xx_ll_bus.h ****   */
  34:Drivers/STM32F1xx_HAL_Driver/Inc/stm32f1xx_ll_bus.h **** 
  35:Drivers/STM32F1xx_HAL_Driver/Inc/stm32f1xx_ll_bus.h **** /* Define to prevent recursive inclusion -------------------------------------*/
  36:Drivers/STM32F1xx_HAL_Driver/Inc/stm32f1xx_ll_bus.h **** #ifndef __STM32F1xx_LL_BUS_H
  37:Drivers/STM32F1xx_HAL_Driver/Inc/stm32f1xx_ll_bus.h **** #define __STM32F1xx_LL_BUS_H
  38:Drivers/STM32F1xx_HAL_Driver/Inc/stm32f1xx_ll_bus.h **** 
  39:Drivers/STM32F1xx_HAL_Driver/Inc/stm32f1xx_ll_bus.h **** #ifdef __cplusplus
  40:Drivers/STM32F1xx_HAL_Driver/Inc/stm32f1xx_ll_bus.h **** extern "C" {
  41:Drivers/STM32F1xx_HAL_Driver/Inc/stm32f1xx_ll_bus.h **** #endif
  42:Drivers/STM32F1xx_HAL_Driver/Inc/stm32f1xx_ll_bus.h **** 
  43:Drivers/STM32F1xx_HAL_Driver/Inc/stm32f1xx_ll_bus.h **** /* Includes ------------------------------------------------------------------*/
  44:Drivers/STM32F1xx_HAL_Driver/Inc/stm32f1xx_ll_bus.h **** #include "stm32f1xx.h"
  45:Drivers/STM32F1xx_HAL_Driver/Inc/stm32f1xx_ll_bus.h **** 
  46:Drivers/STM32F1xx_HAL_Driver/Inc/stm32f1xx_ll_bus.h **** /** @addtogroup STM32F1xx_LL_Driver
  47:Drivers/STM32F1xx_HAL_Driver/Inc/stm32f1xx_ll_bus.h ****   * @{
ARM GAS  /tmp/ccdg0XkI.s 			page 15


  48:Drivers/STM32F1xx_HAL_Driver/Inc/stm32f1xx_ll_bus.h ****   */
  49:Drivers/STM32F1xx_HAL_Driver/Inc/stm32f1xx_ll_bus.h **** 
  50:Drivers/STM32F1xx_HAL_Driver/Inc/stm32f1xx_ll_bus.h **** #if defined(RCC)
  51:Drivers/STM32F1xx_HAL_Driver/Inc/stm32f1xx_ll_bus.h **** 
  52:Drivers/STM32F1xx_HAL_Driver/Inc/stm32f1xx_ll_bus.h **** /** @defgroup BUS_LL BUS
  53:Drivers/STM32F1xx_HAL_Driver/Inc/stm32f1xx_ll_bus.h ****   * @{
  54:Drivers/STM32F1xx_HAL_Driver/Inc/stm32f1xx_ll_bus.h ****   */
  55:Drivers/STM32F1xx_HAL_Driver/Inc/stm32f1xx_ll_bus.h **** 
  56:Drivers/STM32F1xx_HAL_Driver/Inc/stm32f1xx_ll_bus.h **** /* Private types -------------------------------------------------------------*/
  57:Drivers/STM32F1xx_HAL_Driver/Inc/stm32f1xx_ll_bus.h **** /* Private variables ---------------------------------------------------------*/
  58:Drivers/STM32F1xx_HAL_Driver/Inc/stm32f1xx_ll_bus.h **** 
  59:Drivers/STM32F1xx_HAL_Driver/Inc/stm32f1xx_ll_bus.h **** /* Private constants ---------------------------------------------------------*/
  60:Drivers/STM32F1xx_HAL_Driver/Inc/stm32f1xx_ll_bus.h **** #if defined(RCC_AHBRSTR_OTGFSRST) || defined(RCC_AHBRSTR_ETHMACRST)
  61:Drivers/STM32F1xx_HAL_Driver/Inc/stm32f1xx_ll_bus.h **** #define RCC_AHBRSTR_SUPPORT
  62:Drivers/STM32F1xx_HAL_Driver/Inc/stm32f1xx_ll_bus.h **** #endif /* RCC_AHBRSTR_OTGFSRST || RCC_AHBRSTR_ETHMACRST */
  63:Drivers/STM32F1xx_HAL_Driver/Inc/stm32f1xx_ll_bus.h **** 
  64:Drivers/STM32F1xx_HAL_Driver/Inc/stm32f1xx_ll_bus.h **** /* Private macros ------------------------------------------------------------*/
  65:Drivers/STM32F1xx_HAL_Driver/Inc/stm32f1xx_ll_bus.h **** 
  66:Drivers/STM32F1xx_HAL_Driver/Inc/stm32f1xx_ll_bus.h **** /* Exported types ------------------------------------------------------------*/
  67:Drivers/STM32F1xx_HAL_Driver/Inc/stm32f1xx_ll_bus.h **** /* Exported constants --------------------------------------------------------*/
  68:Drivers/STM32F1xx_HAL_Driver/Inc/stm32f1xx_ll_bus.h **** /** @defgroup BUS_LL_Exported_Constants BUS Exported Constants
  69:Drivers/STM32F1xx_HAL_Driver/Inc/stm32f1xx_ll_bus.h ****   * @{
  70:Drivers/STM32F1xx_HAL_Driver/Inc/stm32f1xx_ll_bus.h ****   */
  71:Drivers/STM32F1xx_HAL_Driver/Inc/stm32f1xx_ll_bus.h **** 
  72:Drivers/STM32F1xx_HAL_Driver/Inc/stm32f1xx_ll_bus.h **** /** @defgroup BUS_LL_EC_AHB1_GRP1_PERIPH  AHB1 GRP1 PERIPH
  73:Drivers/STM32F1xx_HAL_Driver/Inc/stm32f1xx_ll_bus.h ****   * @{
  74:Drivers/STM32F1xx_HAL_Driver/Inc/stm32f1xx_ll_bus.h ****   */
  75:Drivers/STM32F1xx_HAL_Driver/Inc/stm32f1xx_ll_bus.h **** #define LL_AHB1_GRP1_PERIPH_ALL            (uint32_t)0xFFFFFFFFU
  76:Drivers/STM32F1xx_HAL_Driver/Inc/stm32f1xx_ll_bus.h **** #define LL_AHB1_GRP1_PERIPH_CRC            RCC_AHBENR_CRCEN
  77:Drivers/STM32F1xx_HAL_Driver/Inc/stm32f1xx_ll_bus.h **** #define LL_AHB1_GRP1_PERIPH_DMA1           RCC_AHBENR_DMA1EN
  78:Drivers/STM32F1xx_HAL_Driver/Inc/stm32f1xx_ll_bus.h **** #if defined(DMA2)
  79:Drivers/STM32F1xx_HAL_Driver/Inc/stm32f1xx_ll_bus.h **** #define LL_AHB1_GRP1_PERIPH_DMA2           RCC_AHBENR_DMA2EN
  80:Drivers/STM32F1xx_HAL_Driver/Inc/stm32f1xx_ll_bus.h **** #endif /*DMA2*/
  81:Drivers/STM32F1xx_HAL_Driver/Inc/stm32f1xx_ll_bus.h **** #if defined(ETH)
  82:Drivers/STM32F1xx_HAL_Driver/Inc/stm32f1xx_ll_bus.h **** #define LL_AHB1_GRP1_PERIPH_ETHMAC         RCC_AHBENR_ETHMACEN
  83:Drivers/STM32F1xx_HAL_Driver/Inc/stm32f1xx_ll_bus.h **** #define LL_AHB1_GRP1_PERIPH_ETHMACRX       RCC_AHBENR_ETHMACRXEN
  84:Drivers/STM32F1xx_HAL_Driver/Inc/stm32f1xx_ll_bus.h **** #define LL_AHB1_GRP1_PERIPH_ETHMACTX       RCC_AHBENR_ETHMACTXEN
  85:Drivers/STM32F1xx_HAL_Driver/Inc/stm32f1xx_ll_bus.h **** #endif /*ETH*/
  86:Drivers/STM32F1xx_HAL_Driver/Inc/stm32f1xx_ll_bus.h **** #define LL_AHB1_GRP1_PERIPH_FLASH          RCC_AHBENR_FLITFEN
  87:Drivers/STM32F1xx_HAL_Driver/Inc/stm32f1xx_ll_bus.h **** #if defined(FSMC_Bank1)
  88:Drivers/STM32F1xx_HAL_Driver/Inc/stm32f1xx_ll_bus.h **** #define LL_AHB1_GRP1_PERIPH_FSMC           RCC_AHBENR_FSMCEN
  89:Drivers/STM32F1xx_HAL_Driver/Inc/stm32f1xx_ll_bus.h **** #endif /*FSMC_Bank1*/
  90:Drivers/STM32F1xx_HAL_Driver/Inc/stm32f1xx_ll_bus.h **** #if defined(USB_OTG_FS)
  91:Drivers/STM32F1xx_HAL_Driver/Inc/stm32f1xx_ll_bus.h **** #define LL_AHB1_GRP1_PERIPH_OTGFS          RCC_AHBENR_OTGFSEN
  92:Drivers/STM32F1xx_HAL_Driver/Inc/stm32f1xx_ll_bus.h **** #endif /*USB_OTG_FS*/
  93:Drivers/STM32F1xx_HAL_Driver/Inc/stm32f1xx_ll_bus.h **** #if defined(SDIO)
  94:Drivers/STM32F1xx_HAL_Driver/Inc/stm32f1xx_ll_bus.h **** #define LL_AHB1_GRP1_PERIPH_SDIO           RCC_AHBENR_SDIOEN
  95:Drivers/STM32F1xx_HAL_Driver/Inc/stm32f1xx_ll_bus.h **** #endif /*SDIO*/
  96:Drivers/STM32F1xx_HAL_Driver/Inc/stm32f1xx_ll_bus.h **** #define LL_AHB1_GRP1_PERIPH_SRAM           RCC_AHBENR_SRAMEN
  97:Drivers/STM32F1xx_HAL_Driver/Inc/stm32f1xx_ll_bus.h **** /**
  98:Drivers/STM32F1xx_HAL_Driver/Inc/stm32f1xx_ll_bus.h ****   * @}
  99:Drivers/STM32F1xx_HAL_Driver/Inc/stm32f1xx_ll_bus.h ****   */
 100:Drivers/STM32F1xx_HAL_Driver/Inc/stm32f1xx_ll_bus.h **** 
 101:Drivers/STM32F1xx_HAL_Driver/Inc/stm32f1xx_ll_bus.h **** /** @defgroup BUS_LL_EC_APB1_GRP1_PERIPH  APB1 GRP1 PERIPH
 102:Drivers/STM32F1xx_HAL_Driver/Inc/stm32f1xx_ll_bus.h ****   * @{
 103:Drivers/STM32F1xx_HAL_Driver/Inc/stm32f1xx_ll_bus.h ****   */
 104:Drivers/STM32F1xx_HAL_Driver/Inc/stm32f1xx_ll_bus.h **** #define LL_APB1_GRP1_PERIPH_ALL            (uint32_t)0xFFFFFFFFU
ARM GAS  /tmp/ccdg0XkI.s 			page 16


 105:Drivers/STM32F1xx_HAL_Driver/Inc/stm32f1xx_ll_bus.h **** #define LL_APB1_GRP1_PERIPH_BKP            RCC_APB1ENR_BKPEN
 106:Drivers/STM32F1xx_HAL_Driver/Inc/stm32f1xx_ll_bus.h **** #if defined(CAN1)
 107:Drivers/STM32F1xx_HAL_Driver/Inc/stm32f1xx_ll_bus.h **** #define LL_APB1_GRP1_PERIPH_CAN1           RCC_APB1ENR_CAN1EN
 108:Drivers/STM32F1xx_HAL_Driver/Inc/stm32f1xx_ll_bus.h **** #endif /*CAN1*/
 109:Drivers/STM32F1xx_HAL_Driver/Inc/stm32f1xx_ll_bus.h **** #if defined(CAN2)
 110:Drivers/STM32F1xx_HAL_Driver/Inc/stm32f1xx_ll_bus.h **** #define LL_APB1_GRP1_PERIPH_CAN2           RCC_APB1ENR_CAN2EN
 111:Drivers/STM32F1xx_HAL_Driver/Inc/stm32f1xx_ll_bus.h **** #endif /*CAN2*/
 112:Drivers/STM32F1xx_HAL_Driver/Inc/stm32f1xx_ll_bus.h **** #if defined(CEC)
 113:Drivers/STM32F1xx_HAL_Driver/Inc/stm32f1xx_ll_bus.h **** #define LL_APB1_GRP1_PERIPH_CEC            RCC_APB1ENR_CECEN
 114:Drivers/STM32F1xx_HAL_Driver/Inc/stm32f1xx_ll_bus.h **** #endif /*CEC*/
 115:Drivers/STM32F1xx_HAL_Driver/Inc/stm32f1xx_ll_bus.h **** #if defined(DAC)
 116:Drivers/STM32F1xx_HAL_Driver/Inc/stm32f1xx_ll_bus.h **** #define LL_APB1_GRP1_PERIPH_DAC1           RCC_APB1ENR_DACEN
 117:Drivers/STM32F1xx_HAL_Driver/Inc/stm32f1xx_ll_bus.h **** #endif /*DAC*/
 118:Drivers/STM32F1xx_HAL_Driver/Inc/stm32f1xx_ll_bus.h **** #define LL_APB1_GRP1_PERIPH_I2C1           RCC_APB1ENR_I2C1EN
 119:Drivers/STM32F1xx_HAL_Driver/Inc/stm32f1xx_ll_bus.h **** #if defined(I2C2)
 120:Drivers/STM32F1xx_HAL_Driver/Inc/stm32f1xx_ll_bus.h **** #define LL_APB1_GRP1_PERIPH_I2C2           RCC_APB1ENR_I2C2EN
 121:Drivers/STM32F1xx_HAL_Driver/Inc/stm32f1xx_ll_bus.h **** #endif /*I2C2*/
 122:Drivers/STM32F1xx_HAL_Driver/Inc/stm32f1xx_ll_bus.h **** #define LL_APB1_GRP1_PERIPH_PWR            RCC_APB1ENR_PWREN
 123:Drivers/STM32F1xx_HAL_Driver/Inc/stm32f1xx_ll_bus.h **** #if defined(SPI2)
 124:Drivers/STM32F1xx_HAL_Driver/Inc/stm32f1xx_ll_bus.h **** #define LL_APB1_GRP1_PERIPH_SPI2           RCC_APB1ENR_SPI2EN
 125:Drivers/STM32F1xx_HAL_Driver/Inc/stm32f1xx_ll_bus.h **** #endif /*SPI2*/
 126:Drivers/STM32F1xx_HAL_Driver/Inc/stm32f1xx_ll_bus.h **** #if defined(SPI3)
 127:Drivers/STM32F1xx_HAL_Driver/Inc/stm32f1xx_ll_bus.h **** #define LL_APB1_GRP1_PERIPH_SPI3           RCC_APB1ENR_SPI3EN
 128:Drivers/STM32F1xx_HAL_Driver/Inc/stm32f1xx_ll_bus.h **** #endif /*SPI3*/
 129:Drivers/STM32F1xx_HAL_Driver/Inc/stm32f1xx_ll_bus.h **** #if defined(TIM12)
 130:Drivers/STM32F1xx_HAL_Driver/Inc/stm32f1xx_ll_bus.h **** #define LL_APB1_GRP1_PERIPH_TIM12          RCC_APB1ENR_TIM12EN
 131:Drivers/STM32F1xx_HAL_Driver/Inc/stm32f1xx_ll_bus.h **** #endif /*TIM12*/
 132:Drivers/STM32F1xx_HAL_Driver/Inc/stm32f1xx_ll_bus.h **** #if defined(TIM13)
 133:Drivers/STM32F1xx_HAL_Driver/Inc/stm32f1xx_ll_bus.h **** #define LL_APB1_GRP1_PERIPH_TIM13          RCC_APB1ENR_TIM13EN
 134:Drivers/STM32F1xx_HAL_Driver/Inc/stm32f1xx_ll_bus.h **** #endif /*TIM13*/
 135:Drivers/STM32F1xx_HAL_Driver/Inc/stm32f1xx_ll_bus.h **** #if defined(TIM14)
 136:Drivers/STM32F1xx_HAL_Driver/Inc/stm32f1xx_ll_bus.h **** #define LL_APB1_GRP1_PERIPH_TIM14          RCC_APB1ENR_TIM14EN
 137:Drivers/STM32F1xx_HAL_Driver/Inc/stm32f1xx_ll_bus.h **** #endif /*TIM14*/
 138:Drivers/STM32F1xx_HAL_Driver/Inc/stm32f1xx_ll_bus.h **** #define LL_APB1_GRP1_PERIPH_TIM2           RCC_APB1ENR_TIM2EN
 139:Drivers/STM32F1xx_HAL_Driver/Inc/stm32f1xx_ll_bus.h **** #define LL_APB1_GRP1_PERIPH_TIM3           RCC_APB1ENR_TIM3EN
 140:Drivers/STM32F1xx_HAL_Driver/Inc/stm32f1xx_ll_bus.h **** #if defined(TIM4)
 141:Drivers/STM32F1xx_HAL_Driver/Inc/stm32f1xx_ll_bus.h **** #define LL_APB1_GRP1_PERIPH_TIM4           RCC_APB1ENR_TIM4EN
 142:Drivers/STM32F1xx_HAL_Driver/Inc/stm32f1xx_ll_bus.h **** #endif /*TIM4*/
 143:Drivers/STM32F1xx_HAL_Driver/Inc/stm32f1xx_ll_bus.h **** #if defined(TIM5)
 144:Drivers/STM32F1xx_HAL_Driver/Inc/stm32f1xx_ll_bus.h **** #define LL_APB1_GRP1_PERIPH_TIM5           RCC_APB1ENR_TIM5EN
 145:Drivers/STM32F1xx_HAL_Driver/Inc/stm32f1xx_ll_bus.h **** #endif /*TIM5*/
 146:Drivers/STM32F1xx_HAL_Driver/Inc/stm32f1xx_ll_bus.h **** #if defined(TIM6)
 147:Drivers/STM32F1xx_HAL_Driver/Inc/stm32f1xx_ll_bus.h **** #define LL_APB1_GRP1_PERIPH_TIM6           RCC_APB1ENR_TIM6EN
 148:Drivers/STM32F1xx_HAL_Driver/Inc/stm32f1xx_ll_bus.h **** #endif /*TIM6*/
 149:Drivers/STM32F1xx_HAL_Driver/Inc/stm32f1xx_ll_bus.h **** #if defined(TIM7)
 150:Drivers/STM32F1xx_HAL_Driver/Inc/stm32f1xx_ll_bus.h **** #define LL_APB1_GRP1_PERIPH_TIM7           RCC_APB1ENR_TIM7EN
 151:Drivers/STM32F1xx_HAL_Driver/Inc/stm32f1xx_ll_bus.h **** #endif /*TIM7*/
 152:Drivers/STM32F1xx_HAL_Driver/Inc/stm32f1xx_ll_bus.h **** #if defined(UART4)
 153:Drivers/STM32F1xx_HAL_Driver/Inc/stm32f1xx_ll_bus.h **** #define LL_APB1_GRP1_PERIPH_UART4          RCC_APB1ENR_UART4EN
 154:Drivers/STM32F1xx_HAL_Driver/Inc/stm32f1xx_ll_bus.h **** #endif /*UART4*/
 155:Drivers/STM32F1xx_HAL_Driver/Inc/stm32f1xx_ll_bus.h **** #if defined(UART5)
 156:Drivers/STM32F1xx_HAL_Driver/Inc/stm32f1xx_ll_bus.h **** #define LL_APB1_GRP1_PERIPH_UART5          RCC_APB1ENR_UART5EN
 157:Drivers/STM32F1xx_HAL_Driver/Inc/stm32f1xx_ll_bus.h **** #endif /*UART5*/
 158:Drivers/STM32F1xx_HAL_Driver/Inc/stm32f1xx_ll_bus.h **** #define LL_APB1_GRP1_PERIPH_USART2         RCC_APB1ENR_USART2EN
 159:Drivers/STM32F1xx_HAL_Driver/Inc/stm32f1xx_ll_bus.h **** #if defined(USART3)
 160:Drivers/STM32F1xx_HAL_Driver/Inc/stm32f1xx_ll_bus.h **** #define LL_APB1_GRP1_PERIPH_USART3         RCC_APB1ENR_USART3EN
 161:Drivers/STM32F1xx_HAL_Driver/Inc/stm32f1xx_ll_bus.h **** #endif /*USART3*/
ARM GAS  /tmp/ccdg0XkI.s 			page 17


 162:Drivers/STM32F1xx_HAL_Driver/Inc/stm32f1xx_ll_bus.h **** #if defined(USB)
 163:Drivers/STM32F1xx_HAL_Driver/Inc/stm32f1xx_ll_bus.h **** #define LL_APB1_GRP1_PERIPH_USB            RCC_APB1ENR_USBEN
 164:Drivers/STM32F1xx_HAL_Driver/Inc/stm32f1xx_ll_bus.h **** #endif /*USB*/
 165:Drivers/STM32F1xx_HAL_Driver/Inc/stm32f1xx_ll_bus.h **** #define LL_APB1_GRP1_PERIPH_WWDG           RCC_APB1ENR_WWDGEN
 166:Drivers/STM32F1xx_HAL_Driver/Inc/stm32f1xx_ll_bus.h **** /**
 167:Drivers/STM32F1xx_HAL_Driver/Inc/stm32f1xx_ll_bus.h ****   * @}
 168:Drivers/STM32F1xx_HAL_Driver/Inc/stm32f1xx_ll_bus.h ****   */
 169:Drivers/STM32F1xx_HAL_Driver/Inc/stm32f1xx_ll_bus.h **** 
 170:Drivers/STM32F1xx_HAL_Driver/Inc/stm32f1xx_ll_bus.h **** /** @defgroup BUS_LL_EC_APB2_GRP1_PERIPH  APB2 GRP1 PERIPH
 171:Drivers/STM32F1xx_HAL_Driver/Inc/stm32f1xx_ll_bus.h ****   * @{
 172:Drivers/STM32F1xx_HAL_Driver/Inc/stm32f1xx_ll_bus.h ****   */
 173:Drivers/STM32F1xx_HAL_Driver/Inc/stm32f1xx_ll_bus.h **** #define LL_APB2_GRP1_PERIPH_ALL            (uint32_t)0xFFFFFFFFU
 174:Drivers/STM32F1xx_HAL_Driver/Inc/stm32f1xx_ll_bus.h **** #define LL_APB2_GRP1_PERIPH_ADC1           RCC_APB2ENR_ADC1EN
 175:Drivers/STM32F1xx_HAL_Driver/Inc/stm32f1xx_ll_bus.h **** #if defined(ADC2)
 176:Drivers/STM32F1xx_HAL_Driver/Inc/stm32f1xx_ll_bus.h **** #define LL_APB2_GRP1_PERIPH_ADC2           RCC_APB2ENR_ADC2EN
 177:Drivers/STM32F1xx_HAL_Driver/Inc/stm32f1xx_ll_bus.h **** #endif /*ADC2*/
 178:Drivers/STM32F1xx_HAL_Driver/Inc/stm32f1xx_ll_bus.h **** #if defined(ADC3)
 179:Drivers/STM32F1xx_HAL_Driver/Inc/stm32f1xx_ll_bus.h **** #define LL_APB2_GRP1_PERIPH_ADC3           RCC_APB2ENR_ADC3EN
 180:Drivers/STM32F1xx_HAL_Driver/Inc/stm32f1xx_ll_bus.h **** #endif /*ADC3*/
 181:Drivers/STM32F1xx_HAL_Driver/Inc/stm32f1xx_ll_bus.h **** #define LL_APB2_GRP1_PERIPH_AFIO           RCC_APB2ENR_AFIOEN
 182:Drivers/STM32F1xx_HAL_Driver/Inc/stm32f1xx_ll_bus.h **** #define LL_APB2_GRP1_PERIPH_GPIOA          RCC_APB2ENR_IOPAEN
 183:Drivers/STM32F1xx_HAL_Driver/Inc/stm32f1xx_ll_bus.h **** #define LL_APB2_GRP1_PERIPH_GPIOB          RCC_APB2ENR_IOPBEN
 184:Drivers/STM32F1xx_HAL_Driver/Inc/stm32f1xx_ll_bus.h **** #define LL_APB2_GRP1_PERIPH_GPIOC          RCC_APB2ENR_IOPCEN
 185:Drivers/STM32F1xx_HAL_Driver/Inc/stm32f1xx_ll_bus.h **** #define LL_APB2_GRP1_PERIPH_GPIOD          RCC_APB2ENR_IOPDEN
 186:Drivers/STM32F1xx_HAL_Driver/Inc/stm32f1xx_ll_bus.h **** #if defined(GPIOE)
 187:Drivers/STM32F1xx_HAL_Driver/Inc/stm32f1xx_ll_bus.h **** #define LL_APB2_GRP1_PERIPH_GPIOE          RCC_APB2ENR_IOPEEN
 188:Drivers/STM32F1xx_HAL_Driver/Inc/stm32f1xx_ll_bus.h **** #endif /*GPIOE*/
 189:Drivers/STM32F1xx_HAL_Driver/Inc/stm32f1xx_ll_bus.h **** #if defined(GPIOF)
 190:Drivers/STM32F1xx_HAL_Driver/Inc/stm32f1xx_ll_bus.h **** #define LL_APB2_GRP1_PERIPH_GPIOF          RCC_APB2ENR_IOPFEN
 191:Drivers/STM32F1xx_HAL_Driver/Inc/stm32f1xx_ll_bus.h **** #endif /*GPIOF*/
 192:Drivers/STM32F1xx_HAL_Driver/Inc/stm32f1xx_ll_bus.h **** #if defined(GPIOG)
 193:Drivers/STM32F1xx_HAL_Driver/Inc/stm32f1xx_ll_bus.h **** #define LL_APB2_GRP1_PERIPH_GPIOG          RCC_APB2ENR_IOPGEN
 194:Drivers/STM32F1xx_HAL_Driver/Inc/stm32f1xx_ll_bus.h **** #endif /*GPIOG*/
 195:Drivers/STM32F1xx_HAL_Driver/Inc/stm32f1xx_ll_bus.h **** #define LL_APB2_GRP1_PERIPH_SPI1           RCC_APB2ENR_SPI1EN
 196:Drivers/STM32F1xx_HAL_Driver/Inc/stm32f1xx_ll_bus.h **** #if defined(TIM10)
 197:Drivers/STM32F1xx_HAL_Driver/Inc/stm32f1xx_ll_bus.h **** #define LL_APB2_GRP1_PERIPH_TIM10          RCC_APB2ENR_TIM10EN
 198:Drivers/STM32F1xx_HAL_Driver/Inc/stm32f1xx_ll_bus.h **** #endif /*TIM10*/
 199:Drivers/STM32F1xx_HAL_Driver/Inc/stm32f1xx_ll_bus.h **** #if defined(TIM11)
 200:Drivers/STM32F1xx_HAL_Driver/Inc/stm32f1xx_ll_bus.h **** #define LL_APB2_GRP1_PERIPH_TIM11          RCC_APB2ENR_TIM11EN
 201:Drivers/STM32F1xx_HAL_Driver/Inc/stm32f1xx_ll_bus.h **** #endif /*TIM11*/
 202:Drivers/STM32F1xx_HAL_Driver/Inc/stm32f1xx_ll_bus.h **** #if defined(TIM15)
 203:Drivers/STM32F1xx_HAL_Driver/Inc/stm32f1xx_ll_bus.h **** #define LL_APB2_GRP1_PERIPH_TIM15          RCC_APB2ENR_TIM15EN
 204:Drivers/STM32F1xx_HAL_Driver/Inc/stm32f1xx_ll_bus.h **** #endif /*TIM15*/
 205:Drivers/STM32F1xx_HAL_Driver/Inc/stm32f1xx_ll_bus.h **** #if defined(TIM16)
 206:Drivers/STM32F1xx_HAL_Driver/Inc/stm32f1xx_ll_bus.h **** #define LL_APB2_GRP1_PERIPH_TIM16          RCC_APB2ENR_TIM16EN
 207:Drivers/STM32F1xx_HAL_Driver/Inc/stm32f1xx_ll_bus.h **** #endif /*TIM16*/
 208:Drivers/STM32F1xx_HAL_Driver/Inc/stm32f1xx_ll_bus.h **** #if defined(TIM17)
 209:Drivers/STM32F1xx_HAL_Driver/Inc/stm32f1xx_ll_bus.h **** #define LL_APB2_GRP1_PERIPH_TIM17          RCC_APB2ENR_TIM17EN
 210:Drivers/STM32F1xx_HAL_Driver/Inc/stm32f1xx_ll_bus.h **** #endif /*TIM17*/
 211:Drivers/STM32F1xx_HAL_Driver/Inc/stm32f1xx_ll_bus.h **** #define LL_APB2_GRP1_PERIPH_TIM1           RCC_APB2ENR_TIM1EN
 212:Drivers/STM32F1xx_HAL_Driver/Inc/stm32f1xx_ll_bus.h **** #if defined(TIM8)
 213:Drivers/STM32F1xx_HAL_Driver/Inc/stm32f1xx_ll_bus.h **** #define LL_APB2_GRP1_PERIPH_TIM8           RCC_APB2ENR_TIM8EN
 214:Drivers/STM32F1xx_HAL_Driver/Inc/stm32f1xx_ll_bus.h **** #endif /*TIM8*/
 215:Drivers/STM32F1xx_HAL_Driver/Inc/stm32f1xx_ll_bus.h **** #if defined(TIM9)
 216:Drivers/STM32F1xx_HAL_Driver/Inc/stm32f1xx_ll_bus.h **** #define LL_APB2_GRP1_PERIPH_TIM9           RCC_APB2ENR_TIM9EN
 217:Drivers/STM32F1xx_HAL_Driver/Inc/stm32f1xx_ll_bus.h **** #endif /*TIM9*/
 218:Drivers/STM32F1xx_HAL_Driver/Inc/stm32f1xx_ll_bus.h **** #define LL_APB2_GRP1_PERIPH_USART1         RCC_APB2ENR_USART1EN
ARM GAS  /tmp/ccdg0XkI.s 			page 18


 219:Drivers/STM32F1xx_HAL_Driver/Inc/stm32f1xx_ll_bus.h **** /**
 220:Drivers/STM32F1xx_HAL_Driver/Inc/stm32f1xx_ll_bus.h ****   * @}
 221:Drivers/STM32F1xx_HAL_Driver/Inc/stm32f1xx_ll_bus.h ****   */
 222:Drivers/STM32F1xx_HAL_Driver/Inc/stm32f1xx_ll_bus.h **** 
 223:Drivers/STM32F1xx_HAL_Driver/Inc/stm32f1xx_ll_bus.h **** /**
 224:Drivers/STM32F1xx_HAL_Driver/Inc/stm32f1xx_ll_bus.h ****   * @}
 225:Drivers/STM32F1xx_HAL_Driver/Inc/stm32f1xx_ll_bus.h ****   */
 226:Drivers/STM32F1xx_HAL_Driver/Inc/stm32f1xx_ll_bus.h **** 
 227:Drivers/STM32F1xx_HAL_Driver/Inc/stm32f1xx_ll_bus.h **** /* Exported macro ------------------------------------------------------------*/
 228:Drivers/STM32F1xx_HAL_Driver/Inc/stm32f1xx_ll_bus.h **** 
 229:Drivers/STM32F1xx_HAL_Driver/Inc/stm32f1xx_ll_bus.h **** /* Exported functions --------------------------------------------------------*/
 230:Drivers/STM32F1xx_HAL_Driver/Inc/stm32f1xx_ll_bus.h **** /** @defgroup BUS_LL_Exported_Functions BUS Exported Functions
 231:Drivers/STM32F1xx_HAL_Driver/Inc/stm32f1xx_ll_bus.h ****   * @{
 232:Drivers/STM32F1xx_HAL_Driver/Inc/stm32f1xx_ll_bus.h ****   */
 233:Drivers/STM32F1xx_HAL_Driver/Inc/stm32f1xx_ll_bus.h **** 
 234:Drivers/STM32F1xx_HAL_Driver/Inc/stm32f1xx_ll_bus.h **** /** @defgroup BUS_LL_EF_AHB1 AHB1
 235:Drivers/STM32F1xx_HAL_Driver/Inc/stm32f1xx_ll_bus.h ****   * @{
 236:Drivers/STM32F1xx_HAL_Driver/Inc/stm32f1xx_ll_bus.h ****   */
 237:Drivers/STM32F1xx_HAL_Driver/Inc/stm32f1xx_ll_bus.h **** 
 238:Drivers/STM32F1xx_HAL_Driver/Inc/stm32f1xx_ll_bus.h **** /**
 239:Drivers/STM32F1xx_HAL_Driver/Inc/stm32f1xx_ll_bus.h ****   * @brief  Enable AHB1 peripherals clock.
 240:Drivers/STM32F1xx_HAL_Driver/Inc/stm32f1xx_ll_bus.h ****   * @rmtoll AHBENR       CRCEN         LL_AHB1_GRP1_EnableClock\n
 241:Drivers/STM32F1xx_HAL_Driver/Inc/stm32f1xx_ll_bus.h ****   *         AHBENR       DMA1EN        LL_AHB1_GRP1_EnableClock\n
 242:Drivers/STM32F1xx_HAL_Driver/Inc/stm32f1xx_ll_bus.h ****   *         AHBENR       DMA2EN        LL_AHB1_GRP1_EnableClock\n
 243:Drivers/STM32F1xx_HAL_Driver/Inc/stm32f1xx_ll_bus.h ****   *         AHBENR       ETHMACEN      LL_AHB1_GRP1_EnableClock\n
 244:Drivers/STM32F1xx_HAL_Driver/Inc/stm32f1xx_ll_bus.h ****   *         AHBENR       ETHMACRXEN    LL_AHB1_GRP1_EnableClock\n
 245:Drivers/STM32F1xx_HAL_Driver/Inc/stm32f1xx_ll_bus.h ****   *         AHBENR       ETHMACTXEN    LL_AHB1_GRP1_EnableClock\n
 246:Drivers/STM32F1xx_HAL_Driver/Inc/stm32f1xx_ll_bus.h ****   *         AHBENR       FLITFEN       LL_AHB1_GRP1_EnableClock\n
 247:Drivers/STM32F1xx_HAL_Driver/Inc/stm32f1xx_ll_bus.h ****   *         AHBENR       FSMCEN        LL_AHB1_GRP1_EnableClock\n
 248:Drivers/STM32F1xx_HAL_Driver/Inc/stm32f1xx_ll_bus.h ****   *         AHBENR       OTGFSEN       LL_AHB1_GRP1_EnableClock\n
 249:Drivers/STM32F1xx_HAL_Driver/Inc/stm32f1xx_ll_bus.h ****   *         AHBENR       SDIOEN        LL_AHB1_GRP1_EnableClock\n
 250:Drivers/STM32F1xx_HAL_Driver/Inc/stm32f1xx_ll_bus.h ****   *         AHBENR       SRAMEN        LL_AHB1_GRP1_EnableClock
 251:Drivers/STM32F1xx_HAL_Driver/Inc/stm32f1xx_ll_bus.h ****   * @param  Periphs This parameter can be a combination of the following values:
 252:Drivers/STM32F1xx_HAL_Driver/Inc/stm32f1xx_ll_bus.h ****   *         @arg @ref LL_AHB1_GRP1_PERIPH_CRC
 253:Drivers/STM32F1xx_HAL_Driver/Inc/stm32f1xx_ll_bus.h ****   *         @arg @ref LL_AHB1_GRP1_PERIPH_DMA1
 254:Drivers/STM32F1xx_HAL_Driver/Inc/stm32f1xx_ll_bus.h ****   *         @arg @ref LL_AHB1_GRP1_PERIPH_DMA2 (*)
 255:Drivers/STM32F1xx_HAL_Driver/Inc/stm32f1xx_ll_bus.h ****   *         @arg @ref LL_AHB1_GRP1_PERIPH_ETHMAC (*)
 256:Drivers/STM32F1xx_HAL_Driver/Inc/stm32f1xx_ll_bus.h ****   *         @arg @ref LL_AHB1_GRP1_PERIPH_ETHMACRX (*)
 257:Drivers/STM32F1xx_HAL_Driver/Inc/stm32f1xx_ll_bus.h ****   *         @arg @ref LL_AHB1_GRP1_PERIPH_ETHMACTX (*)
 258:Drivers/STM32F1xx_HAL_Driver/Inc/stm32f1xx_ll_bus.h ****   *         @arg @ref LL_AHB1_GRP1_PERIPH_FLASH
 259:Drivers/STM32F1xx_HAL_Driver/Inc/stm32f1xx_ll_bus.h ****   *         @arg @ref LL_AHB1_GRP1_PERIPH_FSMC (*)
 260:Drivers/STM32F1xx_HAL_Driver/Inc/stm32f1xx_ll_bus.h ****   *         @arg @ref LL_AHB1_GRP1_PERIPH_OTGFS (*)
 261:Drivers/STM32F1xx_HAL_Driver/Inc/stm32f1xx_ll_bus.h ****   *         @arg @ref LL_AHB1_GRP1_PERIPH_SDIO (*)
 262:Drivers/STM32F1xx_HAL_Driver/Inc/stm32f1xx_ll_bus.h ****   *         @arg @ref LL_AHB1_GRP1_PERIPH_SRAM
 263:Drivers/STM32F1xx_HAL_Driver/Inc/stm32f1xx_ll_bus.h ****   *
 264:Drivers/STM32F1xx_HAL_Driver/Inc/stm32f1xx_ll_bus.h ****   *         (*) value not defined in all devices.
 265:Drivers/STM32F1xx_HAL_Driver/Inc/stm32f1xx_ll_bus.h ****   * @retval None
 266:Drivers/STM32F1xx_HAL_Driver/Inc/stm32f1xx_ll_bus.h **** */
 267:Drivers/STM32F1xx_HAL_Driver/Inc/stm32f1xx_ll_bus.h **** __STATIC_INLINE void LL_AHB1_GRP1_EnableClock(uint32_t Periphs)
 268:Drivers/STM32F1xx_HAL_Driver/Inc/stm32f1xx_ll_bus.h **** {
 269:Drivers/STM32F1xx_HAL_Driver/Inc/stm32f1xx_ll_bus.h ****   __IO uint32_t tmpreg;
 270:Drivers/STM32F1xx_HAL_Driver/Inc/stm32f1xx_ll_bus.h ****   SET_BIT(RCC->AHBENR, Periphs);
 271:Drivers/STM32F1xx_HAL_Driver/Inc/stm32f1xx_ll_bus.h ****   /* Delay after an RCC peripheral clock enabling */
 272:Drivers/STM32F1xx_HAL_Driver/Inc/stm32f1xx_ll_bus.h ****   tmpreg = READ_BIT(RCC->AHBENR, Periphs);
 273:Drivers/STM32F1xx_HAL_Driver/Inc/stm32f1xx_ll_bus.h ****   (void)tmpreg;
 274:Drivers/STM32F1xx_HAL_Driver/Inc/stm32f1xx_ll_bus.h **** }
 275:Drivers/STM32F1xx_HAL_Driver/Inc/stm32f1xx_ll_bus.h **** 
ARM GAS  /tmp/ccdg0XkI.s 			page 19


 276:Drivers/STM32F1xx_HAL_Driver/Inc/stm32f1xx_ll_bus.h **** /**
 277:Drivers/STM32F1xx_HAL_Driver/Inc/stm32f1xx_ll_bus.h ****   * @brief  Check if AHB1 peripheral clock is enabled or not
 278:Drivers/STM32F1xx_HAL_Driver/Inc/stm32f1xx_ll_bus.h ****   * @rmtoll AHBENR       CRCEN         LL_AHB1_GRP1_IsEnabledClock\n
 279:Drivers/STM32F1xx_HAL_Driver/Inc/stm32f1xx_ll_bus.h ****   *         AHBENR       DMA1EN        LL_AHB1_GRP1_IsEnabledClock\n
 280:Drivers/STM32F1xx_HAL_Driver/Inc/stm32f1xx_ll_bus.h ****   *         AHBENR       DMA2EN        LL_AHB1_GRP1_IsEnabledClock\n
 281:Drivers/STM32F1xx_HAL_Driver/Inc/stm32f1xx_ll_bus.h ****   *         AHBENR       ETHMACEN      LL_AHB1_GRP1_IsEnabledClock\n
 282:Drivers/STM32F1xx_HAL_Driver/Inc/stm32f1xx_ll_bus.h ****   *         AHBENR       ETHMACRXEN    LL_AHB1_GRP1_IsEnabledClock\n
 283:Drivers/STM32F1xx_HAL_Driver/Inc/stm32f1xx_ll_bus.h ****   *         AHBENR       ETHMACTXEN    LL_AHB1_GRP1_IsEnabledClock\n
 284:Drivers/STM32F1xx_HAL_Driver/Inc/stm32f1xx_ll_bus.h ****   *         AHBENR       FLITFEN       LL_AHB1_GRP1_IsEnabledClock\n
 285:Drivers/STM32F1xx_HAL_Driver/Inc/stm32f1xx_ll_bus.h ****   *         AHBENR       FSMCEN        LL_AHB1_GRP1_IsEnabledClock\n
 286:Drivers/STM32F1xx_HAL_Driver/Inc/stm32f1xx_ll_bus.h ****   *         AHBENR       OTGFSEN       LL_AHB1_GRP1_IsEnabledClock\n
 287:Drivers/STM32F1xx_HAL_Driver/Inc/stm32f1xx_ll_bus.h ****   *         AHBENR       SDIOEN        LL_AHB1_GRP1_IsEnabledClock\n
 288:Drivers/STM32F1xx_HAL_Driver/Inc/stm32f1xx_ll_bus.h ****   *         AHBENR       SRAMEN        LL_AHB1_GRP1_IsEnabledClock
 289:Drivers/STM32F1xx_HAL_Driver/Inc/stm32f1xx_ll_bus.h ****   * @param  Periphs This parameter can be a combination of the following values:
 290:Drivers/STM32F1xx_HAL_Driver/Inc/stm32f1xx_ll_bus.h ****   *         @arg @ref LL_AHB1_GRP1_PERIPH_CRC
 291:Drivers/STM32F1xx_HAL_Driver/Inc/stm32f1xx_ll_bus.h ****   *         @arg @ref LL_AHB1_GRP1_PERIPH_DMA1
 292:Drivers/STM32F1xx_HAL_Driver/Inc/stm32f1xx_ll_bus.h ****   *         @arg @ref LL_AHB1_GRP1_PERIPH_DMA2 (*)
 293:Drivers/STM32F1xx_HAL_Driver/Inc/stm32f1xx_ll_bus.h ****   *         @arg @ref LL_AHB1_GRP1_PERIPH_ETHMAC (*)
 294:Drivers/STM32F1xx_HAL_Driver/Inc/stm32f1xx_ll_bus.h ****   *         @arg @ref LL_AHB1_GRP1_PERIPH_ETHMACRX (*)
 295:Drivers/STM32F1xx_HAL_Driver/Inc/stm32f1xx_ll_bus.h ****   *         @arg @ref LL_AHB1_GRP1_PERIPH_ETHMACTX (*)
 296:Drivers/STM32F1xx_HAL_Driver/Inc/stm32f1xx_ll_bus.h ****   *         @arg @ref LL_AHB1_GRP1_PERIPH_FLASH
 297:Drivers/STM32F1xx_HAL_Driver/Inc/stm32f1xx_ll_bus.h ****   *         @arg @ref LL_AHB1_GRP1_PERIPH_FSMC (*)
 298:Drivers/STM32F1xx_HAL_Driver/Inc/stm32f1xx_ll_bus.h ****   *         @arg @ref LL_AHB1_GRP1_PERIPH_OTGFS (*)
 299:Drivers/STM32F1xx_HAL_Driver/Inc/stm32f1xx_ll_bus.h ****   *         @arg @ref LL_AHB1_GRP1_PERIPH_SDIO (*)
 300:Drivers/STM32F1xx_HAL_Driver/Inc/stm32f1xx_ll_bus.h ****   *         @arg @ref LL_AHB1_GRP1_PERIPH_SRAM
 301:Drivers/STM32F1xx_HAL_Driver/Inc/stm32f1xx_ll_bus.h ****   *
 302:Drivers/STM32F1xx_HAL_Driver/Inc/stm32f1xx_ll_bus.h ****   *         (*) value not defined in all devices.
 303:Drivers/STM32F1xx_HAL_Driver/Inc/stm32f1xx_ll_bus.h ****   * @retval State of Periphs (1 or 0).
 304:Drivers/STM32F1xx_HAL_Driver/Inc/stm32f1xx_ll_bus.h **** */
 305:Drivers/STM32F1xx_HAL_Driver/Inc/stm32f1xx_ll_bus.h **** __STATIC_INLINE uint32_t LL_AHB1_GRP1_IsEnabledClock(uint32_t Periphs)
 306:Drivers/STM32F1xx_HAL_Driver/Inc/stm32f1xx_ll_bus.h **** {
 307:Drivers/STM32F1xx_HAL_Driver/Inc/stm32f1xx_ll_bus.h ****   return (READ_BIT(RCC->AHBENR, Periphs) == Periphs);
 308:Drivers/STM32F1xx_HAL_Driver/Inc/stm32f1xx_ll_bus.h **** }
 309:Drivers/STM32F1xx_HAL_Driver/Inc/stm32f1xx_ll_bus.h **** 
 310:Drivers/STM32F1xx_HAL_Driver/Inc/stm32f1xx_ll_bus.h **** /**
 311:Drivers/STM32F1xx_HAL_Driver/Inc/stm32f1xx_ll_bus.h ****   * @brief  Disable AHB1 peripherals clock.
 312:Drivers/STM32F1xx_HAL_Driver/Inc/stm32f1xx_ll_bus.h ****   * @rmtoll AHBENR       CRCEN         LL_AHB1_GRP1_DisableClock\n
 313:Drivers/STM32F1xx_HAL_Driver/Inc/stm32f1xx_ll_bus.h ****   *         AHBENR       DMA1EN        LL_AHB1_GRP1_DisableClock\n
 314:Drivers/STM32F1xx_HAL_Driver/Inc/stm32f1xx_ll_bus.h ****   *         AHBENR       DMA2EN        LL_AHB1_GRP1_DisableClock\n
 315:Drivers/STM32F1xx_HAL_Driver/Inc/stm32f1xx_ll_bus.h ****   *         AHBENR       ETHMACEN      LL_AHB1_GRP1_DisableClock\n
 316:Drivers/STM32F1xx_HAL_Driver/Inc/stm32f1xx_ll_bus.h ****   *         AHBENR       ETHMACRXEN    LL_AHB1_GRP1_DisableClock\n
 317:Drivers/STM32F1xx_HAL_Driver/Inc/stm32f1xx_ll_bus.h ****   *         AHBENR       ETHMACTXEN    LL_AHB1_GRP1_DisableClock\n
 318:Drivers/STM32F1xx_HAL_Driver/Inc/stm32f1xx_ll_bus.h ****   *         AHBENR       FLITFEN       LL_AHB1_GRP1_DisableClock\n
 319:Drivers/STM32F1xx_HAL_Driver/Inc/stm32f1xx_ll_bus.h ****   *         AHBENR       FSMCEN        LL_AHB1_GRP1_DisableClock\n
 320:Drivers/STM32F1xx_HAL_Driver/Inc/stm32f1xx_ll_bus.h ****   *         AHBENR       OTGFSEN       LL_AHB1_GRP1_DisableClock\n
 321:Drivers/STM32F1xx_HAL_Driver/Inc/stm32f1xx_ll_bus.h ****   *         AHBENR       SDIOEN        LL_AHB1_GRP1_DisableClock\n
 322:Drivers/STM32F1xx_HAL_Driver/Inc/stm32f1xx_ll_bus.h ****   *         AHBENR       SRAMEN        LL_AHB1_GRP1_DisableClock
 323:Drivers/STM32F1xx_HAL_Driver/Inc/stm32f1xx_ll_bus.h ****   * @param  Periphs This parameter can be a combination of the following values:
 324:Drivers/STM32F1xx_HAL_Driver/Inc/stm32f1xx_ll_bus.h ****   *         @arg @ref LL_AHB1_GRP1_PERIPH_CRC
 325:Drivers/STM32F1xx_HAL_Driver/Inc/stm32f1xx_ll_bus.h ****   *         @arg @ref LL_AHB1_GRP1_PERIPH_DMA1
 326:Drivers/STM32F1xx_HAL_Driver/Inc/stm32f1xx_ll_bus.h ****   *         @arg @ref LL_AHB1_GRP1_PERIPH_DMA2 (*)
 327:Drivers/STM32F1xx_HAL_Driver/Inc/stm32f1xx_ll_bus.h ****   *         @arg @ref LL_AHB1_GRP1_PERIPH_ETHMAC (*)
 328:Drivers/STM32F1xx_HAL_Driver/Inc/stm32f1xx_ll_bus.h ****   *         @arg @ref LL_AHB1_GRP1_PERIPH_ETHMACRX (*)
 329:Drivers/STM32F1xx_HAL_Driver/Inc/stm32f1xx_ll_bus.h ****   *         @arg @ref LL_AHB1_GRP1_PERIPH_ETHMACTX (*)
 330:Drivers/STM32F1xx_HAL_Driver/Inc/stm32f1xx_ll_bus.h ****   *         @arg @ref LL_AHB1_GRP1_PERIPH_FLASH
 331:Drivers/STM32F1xx_HAL_Driver/Inc/stm32f1xx_ll_bus.h ****   *         @arg @ref LL_AHB1_GRP1_PERIPH_FSMC (*)
 332:Drivers/STM32F1xx_HAL_Driver/Inc/stm32f1xx_ll_bus.h ****   *         @arg @ref LL_AHB1_GRP1_PERIPH_OTGFS (*)
ARM GAS  /tmp/ccdg0XkI.s 			page 20


 333:Drivers/STM32F1xx_HAL_Driver/Inc/stm32f1xx_ll_bus.h ****   *         @arg @ref LL_AHB1_GRP1_PERIPH_SDIO (*)
 334:Drivers/STM32F1xx_HAL_Driver/Inc/stm32f1xx_ll_bus.h ****   *         @arg @ref LL_AHB1_GRP1_PERIPH_SRAM
 335:Drivers/STM32F1xx_HAL_Driver/Inc/stm32f1xx_ll_bus.h ****   *
 336:Drivers/STM32F1xx_HAL_Driver/Inc/stm32f1xx_ll_bus.h ****   *         (*) value not defined in all devices.
 337:Drivers/STM32F1xx_HAL_Driver/Inc/stm32f1xx_ll_bus.h ****   * @retval None
 338:Drivers/STM32F1xx_HAL_Driver/Inc/stm32f1xx_ll_bus.h **** */
 339:Drivers/STM32F1xx_HAL_Driver/Inc/stm32f1xx_ll_bus.h **** __STATIC_INLINE void LL_AHB1_GRP1_DisableClock(uint32_t Periphs)
 340:Drivers/STM32F1xx_HAL_Driver/Inc/stm32f1xx_ll_bus.h **** {
 341:Drivers/STM32F1xx_HAL_Driver/Inc/stm32f1xx_ll_bus.h ****   CLEAR_BIT(RCC->AHBENR, Periphs);
 342:Drivers/STM32F1xx_HAL_Driver/Inc/stm32f1xx_ll_bus.h **** }
 343:Drivers/STM32F1xx_HAL_Driver/Inc/stm32f1xx_ll_bus.h **** 
 344:Drivers/STM32F1xx_HAL_Driver/Inc/stm32f1xx_ll_bus.h **** #if defined(RCC_AHBRSTR_SUPPORT)
 345:Drivers/STM32F1xx_HAL_Driver/Inc/stm32f1xx_ll_bus.h **** /**
 346:Drivers/STM32F1xx_HAL_Driver/Inc/stm32f1xx_ll_bus.h ****   * @brief  Force AHB1 peripherals reset.
 347:Drivers/STM32F1xx_HAL_Driver/Inc/stm32f1xx_ll_bus.h ****   * @rmtoll AHBRSTR      ETHMACRST     LL_AHB1_GRP1_ForceReset\n
 348:Drivers/STM32F1xx_HAL_Driver/Inc/stm32f1xx_ll_bus.h ****   *         AHBRSTR      OTGFSRST      LL_AHB1_GRP1_ForceReset
 349:Drivers/STM32F1xx_HAL_Driver/Inc/stm32f1xx_ll_bus.h ****   * @param  Periphs This parameter can be a combination of the following values:
 350:Drivers/STM32F1xx_HAL_Driver/Inc/stm32f1xx_ll_bus.h ****   *         @arg @ref LL_AHB1_GRP1_PERIPH_ALL
 351:Drivers/STM32F1xx_HAL_Driver/Inc/stm32f1xx_ll_bus.h ****   *         @arg @ref LL_AHB1_GRP1_PERIPH_ETHMAC (*)
 352:Drivers/STM32F1xx_HAL_Driver/Inc/stm32f1xx_ll_bus.h ****   *         @arg @ref LL_AHB1_GRP1_PERIPH_OTGFS (*)
 353:Drivers/STM32F1xx_HAL_Driver/Inc/stm32f1xx_ll_bus.h ****   *
 354:Drivers/STM32F1xx_HAL_Driver/Inc/stm32f1xx_ll_bus.h ****   *         (*) value not defined in all devices.
 355:Drivers/STM32F1xx_HAL_Driver/Inc/stm32f1xx_ll_bus.h ****   * @retval None
 356:Drivers/STM32F1xx_HAL_Driver/Inc/stm32f1xx_ll_bus.h **** */
 357:Drivers/STM32F1xx_HAL_Driver/Inc/stm32f1xx_ll_bus.h **** __STATIC_INLINE void LL_AHB1_GRP1_ForceReset(uint32_t Periphs)
 358:Drivers/STM32F1xx_HAL_Driver/Inc/stm32f1xx_ll_bus.h **** {
 359:Drivers/STM32F1xx_HAL_Driver/Inc/stm32f1xx_ll_bus.h ****   SET_BIT(RCC->AHBRSTR, Periphs);
 360:Drivers/STM32F1xx_HAL_Driver/Inc/stm32f1xx_ll_bus.h **** }
 361:Drivers/STM32F1xx_HAL_Driver/Inc/stm32f1xx_ll_bus.h **** 
 362:Drivers/STM32F1xx_HAL_Driver/Inc/stm32f1xx_ll_bus.h **** /**
 363:Drivers/STM32F1xx_HAL_Driver/Inc/stm32f1xx_ll_bus.h ****   * @brief  Release AHB1 peripherals reset.
 364:Drivers/STM32F1xx_HAL_Driver/Inc/stm32f1xx_ll_bus.h ****   * @rmtoll AHBRSTR      ETHMACRST     LL_AHB1_GRP1_ReleaseReset\n
 365:Drivers/STM32F1xx_HAL_Driver/Inc/stm32f1xx_ll_bus.h ****   *         AHBRSTR      OTGFSRST      LL_AHB1_GRP1_ReleaseReset
 366:Drivers/STM32F1xx_HAL_Driver/Inc/stm32f1xx_ll_bus.h ****   * @param  Periphs This parameter can be a combination of the following values:
 367:Drivers/STM32F1xx_HAL_Driver/Inc/stm32f1xx_ll_bus.h ****   *         @arg @ref LL_AHB1_GRP1_PERIPH_ALL
 368:Drivers/STM32F1xx_HAL_Driver/Inc/stm32f1xx_ll_bus.h ****   *         @arg @ref LL_AHB1_GRP1_PERIPH_ETHMAC (*)
 369:Drivers/STM32F1xx_HAL_Driver/Inc/stm32f1xx_ll_bus.h ****   *         @arg @ref LL_AHB1_GRP1_PERIPH_OTGFS (*)
 370:Drivers/STM32F1xx_HAL_Driver/Inc/stm32f1xx_ll_bus.h ****   *
 371:Drivers/STM32F1xx_HAL_Driver/Inc/stm32f1xx_ll_bus.h ****   *         (*) value not defined in all devices.
 372:Drivers/STM32F1xx_HAL_Driver/Inc/stm32f1xx_ll_bus.h ****   * @retval None
 373:Drivers/STM32F1xx_HAL_Driver/Inc/stm32f1xx_ll_bus.h **** */
 374:Drivers/STM32F1xx_HAL_Driver/Inc/stm32f1xx_ll_bus.h **** __STATIC_INLINE void LL_AHB1_GRP1_ReleaseReset(uint32_t Periphs)
 375:Drivers/STM32F1xx_HAL_Driver/Inc/stm32f1xx_ll_bus.h **** {
 376:Drivers/STM32F1xx_HAL_Driver/Inc/stm32f1xx_ll_bus.h ****   CLEAR_BIT(RCC->AHBRSTR, Periphs);
 377:Drivers/STM32F1xx_HAL_Driver/Inc/stm32f1xx_ll_bus.h **** }
 378:Drivers/STM32F1xx_HAL_Driver/Inc/stm32f1xx_ll_bus.h **** #endif /* RCC_AHBRSTR_SUPPORT */
 379:Drivers/STM32F1xx_HAL_Driver/Inc/stm32f1xx_ll_bus.h **** 
 380:Drivers/STM32F1xx_HAL_Driver/Inc/stm32f1xx_ll_bus.h **** /**
 381:Drivers/STM32F1xx_HAL_Driver/Inc/stm32f1xx_ll_bus.h ****   * @}
 382:Drivers/STM32F1xx_HAL_Driver/Inc/stm32f1xx_ll_bus.h ****   */
 383:Drivers/STM32F1xx_HAL_Driver/Inc/stm32f1xx_ll_bus.h **** 
 384:Drivers/STM32F1xx_HAL_Driver/Inc/stm32f1xx_ll_bus.h **** /** @defgroup BUS_LL_EF_APB1 APB1
 385:Drivers/STM32F1xx_HAL_Driver/Inc/stm32f1xx_ll_bus.h ****   * @{
 386:Drivers/STM32F1xx_HAL_Driver/Inc/stm32f1xx_ll_bus.h ****   */
 387:Drivers/STM32F1xx_HAL_Driver/Inc/stm32f1xx_ll_bus.h **** 
 388:Drivers/STM32F1xx_HAL_Driver/Inc/stm32f1xx_ll_bus.h **** /**
 389:Drivers/STM32F1xx_HAL_Driver/Inc/stm32f1xx_ll_bus.h ****   * @brief  Enable APB1 peripherals clock.
ARM GAS  /tmp/ccdg0XkI.s 			page 21


 390:Drivers/STM32F1xx_HAL_Driver/Inc/stm32f1xx_ll_bus.h ****   * @rmtoll APB1ENR      BKPEN         LL_APB1_GRP1_EnableClock\n
 391:Drivers/STM32F1xx_HAL_Driver/Inc/stm32f1xx_ll_bus.h ****   *         APB1ENR      CAN1EN        LL_APB1_GRP1_EnableClock\n
 392:Drivers/STM32F1xx_HAL_Driver/Inc/stm32f1xx_ll_bus.h ****   *         APB1ENR      CAN2EN        LL_APB1_GRP1_EnableClock\n
 393:Drivers/STM32F1xx_HAL_Driver/Inc/stm32f1xx_ll_bus.h ****   *         APB1ENR      CECEN         LL_APB1_GRP1_EnableClock\n
 394:Drivers/STM32F1xx_HAL_Driver/Inc/stm32f1xx_ll_bus.h ****   *         APB1ENR      DACEN         LL_APB1_GRP1_EnableClock\n
 395:Drivers/STM32F1xx_HAL_Driver/Inc/stm32f1xx_ll_bus.h ****   *         APB1ENR      I2C1EN        LL_APB1_GRP1_EnableClock\n
 396:Drivers/STM32F1xx_HAL_Driver/Inc/stm32f1xx_ll_bus.h ****   *         APB1ENR      I2C2EN        LL_APB1_GRP1_EnableClock\n
 397:Drivers/STM32F1xx_HAL_Driver/Inc/stm32f1xx_ll_bus.h ****   *         APB1ENR      PWREN         LL_APB1_GRP1_EnableClock\n
 398:Drivers/STM32F1xx_HAL_Driver/Inc/stm32f1xx_ll_bus.h ****   *         APB1ENR      SPI2EN        LL_APB1_GRP1_EnableClock\n
 399:Drivers/STM32F1xx_HAL_Driver/Inc/stm32f1xx_ll_bus.h ****   *         APB1ENR      SPI3EN        LL_APB1_GRP1_EnableClock\n
 400:Drivers/STM32F1xx_HAL_Driver/Inc/stm32f1xx_ll_bus.h ****   *         APB1ENR      TIM12EN       LL_APB1_GRP1_EnableClock\n
 401:Drivers/STM32F1xx_HAL_Driver/Inc/stm32f1xx_ll_bus.h ****   *         APB1ENR      TIM13EN       LL_APB1_GRP1_EnableClock\n
 402:Drivers/STM32F1xx_HAL_Driver/Inc/stm32f1xx_ll_bus.h ****   *         APB1ENR      TIM14EN       LL_APB1_GRP1_EnableClock\n
 403:Drivers/STM32F1xx_HAL_Driver/Inc/stm32f1xx_ll_bus.h ****   *         APB1ENR      TIM2EN        LL_APB1_GRP1_EnableClock\n
 404:Drivers/STM32F1xx_HAL_Driver/Inc/stm32f1xx_ll_bus.h ****   *         APB1ENR      TIM3EN        LL_APB1_GRP1_EnableClock\n
 405:Drivers/STM32F1xx_HAL_Driver/Inc/stm32f1xx_ll_bus.h ****   *         APB1ENR      TIM4EN        LL_APB1_GRP1_EnableClock\n
 406:Drivers/STM32F1xx_HAL_Driver/Inc/stm32f1xx_ll_bus.h ****   *         APB1ENR      TIM5EN        LL_APB1_GRP1_EnableClock\n
 407:Drivers/STM32F1xx_HAL_Driver/Inc/stm32f1xx_ll_bus.h ****   *         APB1ENR      TIM6EN        LL_APB1_GRP1_EnableClock\n
 408:Drivers/STM32F1xx_HAL_Driver/Inc/stm32f1xx_ll_bus.h ****   *         APB1ENR      TIM7EN        LL_APB1_GRP1_EnableClock\n
 409:Drivers/STM32F1xx_HAL_Driver/Inc/stm32f1xx_ll_bus.h ****   *         APB1ENR      UART4EN       LL_APB1_GRP1_EnableClock\n
 410:Drivers/STM32F1xx_HAL_Driver/Inc/stm32f1xx_ll_bus.h ****   *         APB1ENR      UART5EN       LL_APB1_GRP1_EnableClock\n
 411:Drivers/STM32F1xx_HAL_Driver/Inc/stm32f1xx_ll_bus.h ****   *         APB1ENR      USART2EN      LL_APB1_GRP1_EnableClock\n
 412:Drivers/STM32F1xx_HAL_Driver/Inc/stm32f1xx_ll_bus.h ****   *         APB1ENR      USART3EN      LL_APB1_GRP1_EnableClock\n
 413:Drivers/STM32F1xx_HAL_Driver/Inc/stm32f1xx_ll_bus.h ****   *         APB1ENR      USBEN         LL_APB1_GRP1_EnableClock\n
 414:Drivers/STM32F1xx_HAL_Driver/Inc/stm32f1xx_ll_bus.h ****   *         APB1ENR      WWDGEN        LL_APB1_GRP1_EnableClock
 415:Drivers/STM32F1xx_HAL_Driver/Inc/stm32f1xx_ll_bus.h ****   * @param  Periphs This parameter can be a combination of the following values:
 416:Drivers/STM32F1xx_HAL_Driver/Inc/stm32f1xx_ll_bus.h ****   *         @arg @ref LL_APB1_GRP1_PERIPH_BKP
 417:Drivers/STM32F1xx_HAL_Driver/Inc/stm32f1xx_ll_bus.h ****   *         @arg @ref LL_APB1_GRP1_PERIPH_CAN1 (*)
 418:Drivers/STM32F1xx_HAL_Driver/Inc/stm32f1xx_ll_bus.h ****   *         @arg @ref LL_APB1_GRP1_PERIPH_CAN2 (*)
 419:Drivers/STM32F1xx_HAL_Driver/Inc/stm32f1xx_ll_bus.h ****   *         @arg @ref LL_APB1_GRP1_PERIPH_CEC (*)
 420:Drivers/STM32F1xx_HAL_Driver/Inc/stm32f1xx_ll_bus.h ****   *         @arg @ref LL_APB1_GRP1_PERIPH_DAC1 (*)
 421:Drivers/STM32F1xx_HAL_Driver/Inc/stm32f1xx_ll_bus.h ****   *         @arg @ref LL_APB1_GRP1_PERIPH_I2C1
 422:Drivers/STM32F1xx_HAL_Driver/Inc/stm32f1xx_ll_bus.h ****   *         @arg @ref LL_APB1_GRP1_PERIPH_I2C2 (*)
 423:Drivers/STM32F1xx_HAL_Driver/Inc/stm32f1xx_ll_bus.h ****   *         @arg @ref LL_APB1_GRP1_PERIPH_PWR
 424:Drivers/STM32F1xx_HAL_Driver/Inc/stm32f1xx_ll_bus.h ****   *         @arg @ref LL_APB1_GRP1_PERIPH_SPI2 (*)
 425:Drivers/STM32F1xx_HAL_Driver/Inc/stm32f1xx_ll_bus.h ****   *         @arg @ref LL_APB1_GRP1_PERIPH_SPI3 (*)
 426:Drivers/STM32F1xx_HAL_Driver/Inc/stm32f1xx_ll_bus.h ****   *         @arg @ref LL_APB1_GRP1_PERIPH_TIM12 (*)
 427:Drivers/STM32F1xx_HAL_Driver/Inc/stm32f1xx_ll_bus.h ****   *         @arg @ref LL_APB1_GRP1_PERIPH_TIM13 (*)
 428:Drivers/STM32F1xx_HAL_Driver/Inc/stm32f1xx_ll_bus.h ****   *         @arg @ref LL_APB1_GRP1_PERIPH_TIM14 (*)
 429:Drivers/STM32F1xx_HAL_Driver/Inc/stm32f1xx_ll_bus.h ****   *         @arg @ref LL_APB1_GRP1_PERIPH_TIM2
 430:Drivers/STM32F1xx_HAL_Driver/Inc/stm32f1xx_ll_bus.h ****   *         @arg @ref LL_APB1_GRP1_PERIPH_TIM3
 431:Drivers/STM32F1xx_HAL_Driver/Inc/stm32f1xx_ll_bus.h ****   *         @arg @ref LL_APB1_GRP1_PERIPH_TIM4 (*)
 432:Drivers/STM32F1xx_HAL_Driver/Inc/stm32f1xx_ll_bus.h ****   *         @arg @ref LL_APB1_GRP1_PERIPH_TIM5 (*)
 433:Drivers/STM32F1xx_HAL_Driver/Inc/stm32f1xx_ll_bus.h ****   *         @arg @ref LL_APB1_GRP1_PERIPH_TIM6 (*)
 434:Drivers/STM32F1xx_HAL_Driver/Inc/stm32f1xx_ll_bus.h ****   *         @arg @ref LL_APB1_GRP1_PERIPH_TIM7 (*)
 435:Drivers/STM32F1xx_HAL_Driver/Inc/stm32f1xx_ll_bus.h ****   *         @arg @ref LL_APB1_GRP1_PERIPH_UART4 (*)
 436:Drivers/STM32F1xx_HAL_Driver/Inc/stm32f1xx_ll_bus.h ****   *         @arg @ref LL_APB1_GRP1_PERIPH_UART5 (*)
 437:Drivers/STM32F1xx_HAL_Driver/Inc/stm32f1xx_ll_bus.h ****   *         @arg @ref LL_APB1_GRP1_PERIPH_USART2
 438:Drivers/STM32F1xx_HAL_Driver/Inc/stm32f1xx_ll_bus.h ****   *         @arg @ref LL_APB1_GRP1_PERIPH_USART3 (*)
 439:Drivers/STM32F1xx_HAL_Driver/Inc/stm32f1xx_ll_bus.h ****   *         @arg @ref LL_APB1_GRP1_PERIPH_USB (*)
 440:Drivers/STM32F1xx_HAL_Driver/Inc/stm32f1xx_ll_bus.h ****   *         @arg @ref LL_APB1_GRP1_PERIPH_WWDG
 441:Drivers/STM32F1xx_HAL_Driver/Inc/stm32f1xx_ll_bus.h ****   *
 442:Drivers/STM32F1xx_HAL_Driver/Inc/stm32f1xx_ll_bus.h ****   *         (*) value not defined in all devices.
 443:Drivers/STM32F1xx_HAL_Driver/Inc/stm32f1xx_ll_bus.h ****   * @retval None
 444:Drivers/STM32F1xx_HAL_Driver/Inc/stm32f1xx_ll_bus.h **** */
 445:Drivers/STM32F1xx_HAL_Driver/Inc/stm32f1xx_ll_bus.h **** __STATIC_INLINE void LL_APB1_GRP1_EnableClock(uint32_t Periphs)
 183              		.loc 2 445 22 view .LVU38
ARM GAS  /tmp/ccdg0XkI.s 			page 22


 184              	.LBB215:
 446:Drivers/STM32F1xx_HAL_Driver/Inc/stm32f1xx_ll_bus.h **** {
 447:Drivers/STM32F1xx_HAL_Driver/Inc/stm32f1xx_ll_bus.h ****   __IO uint32_t tmpreg;
 185              		.loc 2 447 3 view .LVU39
 448:Drivers/STM32F1xx_HAL_Driver/Inc/stm32f1xx_ll_bus.h ****   SET_BIT(RCC->APB1ENR, Periphs);
 186              		.loc 2 448 3 view .LVU40
 187 0010 03F18043 		add	r3, r3, #1073741824
 188 0014 03F50433 		add	r3, r3, #135168
 189 0018 DA69     		ldr	r2, [r3, #28]
 190 001a 42F02002 		orr	r2, r2, #32
 191 001e DA61     		str	r2, [r3, #28]
 449:Drivers/STM32F1xx_HAL_Driver/Inc/stm32f1xx_ll_bus.h ****   /* Delay after an RCC peripheral clock enabling */
 450:Drivers/STM32F1xx_HAL_Driver/Inc/stm32f1xx_ll_bus.h ****   tmpreg = READ_BIT(RCC->APB1ENR, Periphs);
 192              		.loc 2 450 3 view .LVU41
 193              		.loc 2 450 12 is_stmt 0 view .LVU42
 194 0020 DB69     		ldr	r3, [r3, #28]
 195 0022 03F02003 		and	r3, r3, #32
 196              		.loc 2 450 10 view .LVU43
 197 0026 0093     		str	r3, [sp]
 451:Drivers/STM32F1xx_HAL_Driver/Inc/stm32f1xx_ll_bus.h ****   (void)tmpreg;
 198              		.loc 2 451 3 is_stmt 1 view .LVU44
 199 0028 009B     		ldr	r3, [sp]
 200              	.LVL8:
 201              		.loc 2 451 3 is_stmt 0 view .LVU45
 202              	.LBE215:
 203              	.LBE214:
 363:Core/Src/tim.c ****   TIM_InitStruct.CounterMode = LL_TIM_COUNTERMODE_UP;
 204              		.loc 1 363 3 is_stmt 1 view .LVU46
 363:Core/Src/tim.c ****   TIM_InitStruct.CounterMode = LL_TIM_COUNTERMODE_UP;
 205              		.loc 1 363 28 is_stmt 0 view .LVU47
 206 002a 4723     		movs	r3, #71
 207 002c ADF80430 		strh	r3, [sp, #4]	@ movhi
 364:Core/Src/tim.c ****   TIM_InitStruct.Autoreload = 0xFF;
 208              		.loc 1 364 3 is_stmt 1 view .LVU48
 365:Core/Src/tim.c ****   TIM_InitStruct.ClockDivision = LL_TIM_CLOCKDIVISION_DIV1;
 209              		.loc 1 365 3 view .LVU49
 365:Core/Src/tim.c ****   TIM_InitStruct.ClockDivision = LL_TIM_CLOCKDIVISION_DIV1;
 210              		.loc 1 365 29 is_stmt 0 view .LVU50
 211 0030 FF23     		movs	r3, #255
 212 0032 0393     		str	r3, [sp, #12]
 366:Core/Src/tim.c ****   LL_TIM_Init(TIM_DELAY_us, &TIM_InitStruct);
 213              		.loc 1 366 3 is_stmt 1 view .LVU51
 367:Core/Src/tim.c ****   LL_TIM_DisableARRPreload(TIM_DELAY_us);
 214              		.loc 1 367 3 view .LVU52
 215 0034 054C     		ldr	r4, .L16
 216 0036 01A9     		add	r1, sp, #4
 217 0038 2046     		mov	r0, r4
 218 003a FFF7FEFF 		bl	LL_TIM_Init
 219              	.LVL9:
 368:Core/Src/tim.c **** }
 220              		.loc 1 368 3 view .LVU53
 221              	.LBB216:
 222              	.LBI216:
 223              		.file 3 "Drivers/STM32F1xx_HAL_Driver/Inc/stm32f1xx_ll_tim.h"
   1:Drivers/STM32F1xx_HAL_Driver/Inc/stm32f1xx_ll_tim.h **** /**
   2:Drivers/STM32F1xx_HAL_Driver/Inc/stm32f1xx_ll_tim.h ****   ******************************************************************************
   3:Drivers/STM32F1xx_HAL_Driver/Inc/stm32f1xx_ll_tim.h ****   * @file    stm32f1xx_ll_tim.h
ARM GAS  /tmp/ccdg0XkI.s 			page 23


   4:Drivers/STM32F1xx_HAL_Driver/Inc/stm32f1xx_ll_tim.h ****   * @author  MCD Application Team
   5:Drivers/STM32F1xx_HAL_Driver/Inc/stm32f1xx_ll_tim.h ****   * @brief   Header file of TIM LL module.
   6:Drivers/STM32F1xx_HAL_Driver/Inc/stm32f1xx_ll_tim.h ****   ******************************************************************************
   7:Drivers/STM32F1xx_HAL_Driver/Inc/stm32f1xx_ll_tim.h ****   * @attention
   8:Drivers/STM32F1xx_HAL_Driver/Inc/stm32f1xx_ll_tim.h ****   *
   9:Drivers/STM32F1xx_HAL_Driver/Inc/stm32f1xx_ll_tim.h ****   * Copyright (c) 2016 STMicroelectronics.
  10:Drivers/STM32F1xx_HAL_Driver/Inc/stm32f1xx_ll_tim.h ****   * All rights reserved.
  11:Drivers/STM32F1xx_HAL_Driver/Inc/stm32f1xx_ll_tim.h ****   *
  12:Drivers/STM32F1xx_HAL_Driver/Inc/stm32f1xx_ll_tim.h ****   * This software is licensed under terms that can be found in the LICENSE file
  13:Drivers/STM32F1xx_HAL_Driver/Inc/stm32f1xx_ll_tim.h ****   * in the root directory of this software component.
  14:Drivers/STM32F1xx_HAL_Driver/Inc/stm32f1xx_ll_tim.h ****   * If no LICENSE file comes with this software, it is provided AS-IS.
  15:Drivers/STM32F1xx_HAL_Driver/Inc/stm32f1xx_ll_tim.h ****   *
  16:Drivers/STM32F1xx_HAL_Driver/Inc/stm32f1xx_ll_tim.h ****   ******************************************************************************
  17:Drivers/STM32F1xx_HAL_Driver/Inc/stm32f1xx_ll_tim.h ****   */
  18:Drivers/STM32F1xx_HAL_Driver/Inc/stm32f1xx_ll_tim.h **** 
  19:Drivers/STM32F1xx_HAL_Driver/Inc/stm32f1xx_ll_tim.h **** /* Define to prevent recursive inclusion -------------------------------------*/
  20:Drivers/STM32F1xx_HAL_Driver/Inc/stm32f1xx_ll_tim.h **** #ifndef __STM32F1xx_LL_TIM_H
  21:Drivers/STM32F1xx_HAL_Driver/Inc/stm32f1xx_ll_tim.h **** #define __STM32F1xx_LL_TIM_H
  22:Drivers/STM32F1xx_HAL_Driver/Inc/stm32f1xx_ll_tim.h **** 
  23:Drivers/STM32F1xx_HAL_Driver/Inc/stm32f1xx_ll_tim.h **** #ifdef __cplusplus
  24:Drivers/STM32F1xx_HAL_Driver/Inc/stm32f1xx_ll_tim.h **** extern "C" {
  25:Drivers/STM32F1xx_HAL_Driver/Inc/stm32f1xx_ll_tim.h **** #endif
  26:Drivers/STM32F1xx_HAL_Driver/Inc/stm32f1xx_ll_tim.h **** 
  27:Drivers/STM32F1xx_HAL_Driver/Inc/stm32f1xx_ll_tim.h **** /* Includes ------------------------------------------------------------------*/
  28:Drivers/STM32F1xx_HAL_Driver/Inc/stm32f1xx_ll_tim.h **** #include "stm32f1xx.h"
  29:Drivers/STM32F1xx_HAL_Driver/Inc/stm32f1xx_ll_tim.h **** 
  30:Drivers/STM32F1xx_HAL_Driver/Inc/stm32f1xx_ll_tim.h **** /** @addtogroup STM32F1xx_LL_Driver
  31:Drivers/STM32F1xx_HAL_Driver/Inc/stm32f1xx_ll_tim.h ****   * @{
  32:Drivers/STM32F1xx_HAL_Driver/Inc/stm32f1xx_ll_tim.h ****   */
  33:Drivers/STM32F1xx_HAL_Driver/Inc/stm32f1xx_ll_tim.h **** 
  34:Drivers/STM32F1xx_HAL_Driver/Inc/stm32f1xx_ll_tim.h **** #if defined (TIM1) || defined (TIM2) || defined (TIM3) || defined (TIM4) || defined (TIM5) || defin
  35:Drivers/STM32F1xx_HAL_Driver/Inc/stm32f1xx_ll_tim.h **** 
  36:Drivers/STM32F1xx_HAL_Driver/Inc/stm32f1xx_ll_tim.h **** /** @defgroup TIM_LL TIM
  37:Drivers/STM32F1xx_HAL_Driver/Inc/stm32f1xx_ll_tim.h ****   * @{
  38:Drivers/STM32F1xx_HAL_Driver/Inc/stm32f1xx_ll_tim.h ****   */
  39:Drivers/STM32F1xx_HAL_Driver/Inc/stm32f1xx_ll_tim.h **** 
  40:Drivers/STM32F1xx_HAL_Driver/Inc/stm32f1xx_ll_tim.h **** /* Private types -------------------------------------------------------------*/
  41:Drivers/STM32F1xx_HAL_Driver/Inc/stm32f1xx_ll_tim.h **** /* Private variables ---------------------------------------------------------*/
  42:Drivers/STM32F1xx_HAL_Driver/Inc/stm32f1xx_ll_tim.h **** /** @defgroup TIM_LL_Private_Variables TIM Private Variables
  43:Drivers/STM32F1xx_HAL_Driver/Inc/stm32f1xx_ll_tim.h ****   * @{
  44:Drivers/STM32F1xx_HAL_Driver/Inc/stm32f1xx_ll_tim.h ****   */
  45:Drivers/STM32F1xx_HAL_Driver/Inc/stm32f1xx_ll_tim.h **** static const uint8_t OFFSET_TAB_CCMRx[] =
  46:Drivers/STM32F1xx_HAL_Driver/Inc/stm32f1xx_ll_tim.h **** {
  47:Drivers/STM32F1xx_HAL_Driver/Inc/stm32f1xx_ll_tim.h ****   0x00U,   /* 0: TIMx_CH1  */
  48:Drivers/STM32F1xx_HAL_Driver/Inc/stm32f1xx_ll_tim.h ****   0x00U,   /* 1: TIMx_CH1N */
  49:Drivers/STM32F1xx_HAL_Driver/Inc/stm32f1xx_ll_tim.h ****   0x00U,   /* 2: TIMx_CH2  */
  50:Drivers/STM32F1xx_HAL_Driver/Inc/stm32f1xx_ll_tim.h ****   0x00U,   /* 3: TIMx_CH2N */
  51:Drivers/STM32F1xx_HAL_Driver/Inc/stm32f1xx_ll_tim.h ****   0x04U,   /* 4: TIMx_CH3  */
  52:Drivers/STM32F1xx_HAL_Driver/Inc/stm32f1xx_ll_tim.h ****   0x04U,   /* 5: TIMx_CH3N */
  53:Drivers/STM32F1xx_HAL_Driver/Inc/stm32f1xx_ll_tim.h ****   0x04U    /* 6: TIMx_CH4  */
  54:Drivers/STM32F1xx_HAL_Driver/Inc/stm32f1xx_ll_tim.h **** };
  55:Drivers/STM32F1xx_HAL_Driver/Inc/stm32f1xx_ll_tim.h **** 
  56:Drivers/STM32F1xx_HAL_Driver/Inc/stm32f1xx_ll_tim.h **** static const uint8_t SHIFT_TAB_OCxx[] =
  57:Drivers/STM32F1xx_HAL_Driver/Inc/stm32f1xx_ll_tim.h **** {
  58:Drivers/STM32F1xx_HAL_Driver/Inc/stm32f1xx_ll_tim.h ****   0U,            /* 0: OC1M, OC1FE, OC1PE */
  59:Drivers/STM32F1xx_HAL_Driver/Inc/stm32f1xx_ll_tim.h ****   0U,            /* 1: - NA */
  60:Drivers/STM32F1xx_HAL_Driver/Inc/stm32f1xx_ll_tim.h ****   8U,            /* 2: OC2M, OC2FE, OC2PE */
ARM GAS  /tmp/ccdg0XkI.s 			page 24


  61:Drivers/STM32F1xx_HAL_Driver/Inc/stm32f1xx_ll_tim.h ****   0U,            /* 3: - NA */
  62:Drivers/STM32F1xx_HAL_Driver/Inc/stm32f1xx_ll_tim.h ****   0U,            /* 4: OC3M, OC3FE, OC3PE */
  63:Drivers/STM32F1xx_HAL_Driver/Inc/stm32f1xx_ll_tim.h ****   0U,            /* 5: - NA */
  64:Drivers/STM32F1xx_HAL_Driver/Inc/stm32f1xx_ll_tim.h ****   8U             /* 6: OC4M, OC4FE, OC4PE */
  65:Drivers/STM32F1xx_HAL_Driver/Inc/stm32f1xx_ll_tim.h **** };
  66:Drivers/STM32F1xx_HAL_Driver/Inc/stm32f1xx_ll_tim.h **** 
  67:Drivers/STM32F1xx_HAL_Driver/Inc/stm32f1xx_ll_tim.h **** static const uint8_t SHIFT_TAB_ICxx[] =
  68:Drivers/STM32F1xx_HAL_Driver/Inc/stm32f1xx_ll_tim.h **** {
  69:Drivers/STM32F1xx_HAL_Driver/Inc/stm32f1xx_ll_tim.h ****   0U,            /* 0: CC1S, IC1PSC, IC1F */
  70:Drivers/STM32F1xx_HAL_Driver/Inc/stm32f1xx_ll_tim.h ****   0U,            /* 1: - NA */
  71:Drivers/STM32F1xx_HAL_Driver/Inc/stm32f1xx_ll_tim.h ****   8U,            /* 2: CC2S, IC2PSC, IC2F */
  72:Drivers/STM32F1xx_HAL_Driver/Inc/stm32f1xx_ll_tim.h ****   0U,            /* 3: - NA */
  73:Drivers/STM32F1xx_HAL_Driver/Inc/stm32f1xx_ll_tim.h ****   0U,            /* 4: CC3S, IC3PSC, IC3F */
  74:Drivers/STM32F1xx_HAL_Driver/Inc/stm32f1xx_ll_tim.h ****   0U,            /* 5: - NA */
  75:Drivers/STM32F1xx_HAL_Driver/Inc/stm32f1xx_ll_tim.h ****   8U             /* 6: CC4S, IC4PSC, IC4F */
  76:Drivers/STM32F1xx_HAL_Driver/Inc/stm32f1xx_ll_tim.h **** };
  77:Drivers/STM32F1xx_HAL_Driver/Inc/stm32f1xx_ll_tim.h **** 
  78:Drivers/STM32F1xx_HAL_Driver/Inc/stm32f1xx_ll_tim.h **** static const uint8_t SHIFT_TAB_CCxP[] =
  79:Drivers/STM32F1xx_HAL_Driver/Inc/stm32f1xx_ll_tim.h **** {
  80:Drivers/STM32F1xx_HAL_Driver/Inc/stm32f1xx_ll_tim.h ****   0U,            /* 0: CC1P */
  81:Drivers/STM32F1xx_HAL_Driver/Inc/stm32f1xx_ll_tim.h ****   2U,            /* 1: CC1NP */
  82:Drivers/STM32F1xx_HAL_Driver/Inc/stm32f1xx_ll_tim.h ****   4U,            /* 2: CC2P */
  83:Drivers/STM32F1xx_HAL_Driver/Inc/stm32f1xx_ll_tim.h ****   6U,            /* 3: CC2NP */
  84:Drivers/STM32F1xx_HAL_Driver/Inc/stm32f1xx_ll_tim.h ****   8U,            /* 4: CC3P */
  85:Drivers/STM32F1xx_HAL_Driver/Inc/stm32f1xx_ll_tim.h ****   10U,           /* 5: CC3NP */
  86:Drivers/STM32F1xx_HAL_Driver/Inc/stm32f1xx_ll_tim.h ****   12U            /* 6: CC4P */
  87:Drivers/STM32F1xx_HAL_Driver/Inc/stm32f1xx_ll_tim.h **** };
  88:Drivers/STM32F1xx_HAL_Driver/Inc/stm32f1xx_ll_tim.h **** 
  89:Drivers/STM32F1xx_HAL_Driver/Inc/stm32f1xx_ll_tim.h **** static const uint8_t SHIFT_TAB_OISx[] =
  90:Drivers/STM32F1xx_HAL_Driver/Inc/stm32f1xx_ll_tim.h **** {
  91:Drivers/STM32F1xx_HAL_Driver/Inc/stm32f1xx_ll_tim.h ****   0U,            /* 0: OIS1 */
  92:Drivers/STM32F1xx_HAL_Driver/Inc/stm32f1xx_ll_tim.h ****   1U,            /* 1: OIS1N */
  93:Drivers/STM32F1xx_HAL_Driver/Inc/stm32f1xx_ll_tim.h ****   2U,            /* 2: OIS2 */
  94:Drivers/STM32F1xx_HAL_Driver/Inc/stm32f1xx_ll_tim.h ****   3U,            /* 3: OIS2N */
  95:Drivers/STM32F1xx_HAL_Driver/Inc/stm32f1xx_ll_tim.h ****   4U,            /* 4: OIS3 */
  96:Drivers/STM32F1xx_HAL_Driver/Inc/stm32f1xx_ll_tim.h ****   5U,            /* 5: OIS3N */
  97:Drivers/STM32F1xx_HAL_Driver/Inc/stm32f1xx_ll_tim.h ****   6U             /* 6: OIS4 */
  98:Drivers/STM32F1xx_HAL_Driver/Inc/stm32f1xx_ll_tim.h **** };
  99:Drivers/STM32F1xx_HAL_Driver/Inc/stm32f1xx_ll_tim.h **** /**
 100:Drivers/STM32F1xx_HAL_Driver/Inc/stm32f1xx_ll_tim.h ****   * @}
 101:Drivers/STM32F1xx_HAL_Driver/Inc/stm32f1xx_ll_tim.h ****   */
 102:Drivers/STM32F1xx_HAL_Driver/Inc/stm32f1xx_ll_tim.h **** 
 103:Drivers/STM32F1xx_HAL_Driver/Inc/stm32f1xx_ll_tim.h **** /* Private constants ---------------------------------------------------------*/
 104:Drivers/STM32F1xx_HAL_Driver/Inc/stm32f1xx_ll_tim.h **** /** @defgroup TIM_LL_Private_Constants TIM Private Constants
 105:Drivers/STM32F1xx_HAL_Driver/Inc/stm32f1xx_ll_tim.h ****   * @{
 106:Drivers/STM32F1xx_HAL_Driver/Inc/stm32f1xx_ll_tim.h ****   */
 107:Drivers/STM32F1xx_HAL_Driver/Inc/stm32f1xx_ll_tim.h **** 
 108:Drivers/STM32F1xx_HAL_Driver/Inc/stm32f1xx_ll_tim.h **** 
 109:Drivers/STM32F1xx_HAL_Driver/Inc/stm32f1xx_ll_tim.h **** 
 110:Drivers/STM32F1xx_HAL_Driver/Inc/stm32f1xx_ll_tim.h **** /* Mask used to set the TDG[x:0] of the DTG bits of the TIMx_BDTR register */
 111:Drivers/STM32F1xx_HAL_Driver/Inc/stm32f1xx_ll_tim.h **** #define DT_DELAY_1 ((uint8_t)0x7F)
 112:Drivers/STM32F1xx_HAL_Driver/Inc/stm32f1xx_ll_tim.h **** #define DT_DELAY_2 ((uint8_t)0x3F)
 113:Drivers/STM32F1xx_HAL_Driver/Inc/stm32f1xx_ll_tim.h **** #define DT_DELAY_3 ((uint8_t)0x1F)
 114:Drivers/STM32F1xx_HAL_Driver/Inc/stm32f1xx_ll_tim.h **** #define DT_DELAY_4 ((uint8_t)0x1F)
 115:Drivers/STM32F1xx_HAL_Driver/Inc/stm32f1xx_ll_tim.h **** 
 116:Drivers/STM32F1xx_HAL_Driver/Inc/stm32f1xx_ll_tim.h **** /* Mask used to set the DTG[7:5] bits of the DTG bits of the TIMx_BDTR register */
 117:Drivers/STM32F1xx_HAL_Driver/Inc/stm32f1xx_ll_tim.h **** #define DT_RANGE_1 ((uint8_t)0x00)
ARM GAS  /tmp/ccdg0XkI.s 			page 25


 118:Drivers/STM32F1xx_HAL_Driver/Inc/stm32f1xx_ll_tim.h **** #define DT_RANGE_2 ((uint8_t)0x80)
 119:Drivers/STM32F1xx_HAL_Driver/Inc/stm32f1xx_ll_tim.h **** #define DT_RANGE_3 ((uint8_t)0xC0)
 120:Drivers/STM32F1xx_HAL_Driver/Inc/stm32f1xx_ll_tim.h **** #define DT_RANGE_4 ((uint8_t)0xE0)
 121:Drivers/STM32F1xx_HAL_Driver/Inc/stm32f1xx_ll_tim.h **** 
 122:Drivers/STM32F1xx_HAL_Driver/Inc/stm32f1xx_ll_tim.h **** 
 123:Drivers/STM32F1xx_HAL_Driver/Inc/stm32f1xx_ll_tim.h **** /**
 124:Drivers/STM32F1xx_HAL_Driver/Inc/stm32f1xx_ll_tim.h ****   * @}
 125:Drivers/STM32F1xx_HAL_Driver/Inc/stm32f1xx_ll_tim.h ****   */
 126:Drivers/STM32F1xx_HAL_Driver/Inc/stm32f1xx_ll_tim.h **** 
 127:Drivers/STM32F1xx_HAL_Driver/Inc/stm32f1xx_ll_tim.h **** /* Private macros ------------------------------------------------------------*/
 128:Drivers/STM32F1xx_HAL_Driver/Inc/stm32f1xx_ll_tim.h **** /** @defgroup TIM_LL_Private_Macros TIM Private Macros
 129:Drivers/STM32F1xx_HAL_Driver/Inc/stm32f1xx_ll_tim.h ****   * @{
 130:Drivers/STM32F1xx_HAL_Driver/Inc/stm32f1xx_ll_tim.h ****   */
 131:Drivers/STM32F1xx_HAL_Driver/Inc/stm32f1xx_ll_tim.h **** /** @brief  Convert channel id into channel index.
 132:Drivers/STM32F1xx_HAL_Driver/Inc/stm32f1xx_ll_tim.h ****   * @param  __CHANNEL__ This parameter can be one of the following values:
 133:Drivers/STM32F1xx_HAL_Driver/Inc/stm32f1xx_ll_tim.h ****   *         @arg @ref LL_TIM_CHANNEL_CH1
 134:Drivers/STM32F1xx_HAL_Driver/Inc/stm32f1xx_ll_tim.h ****   *         @arg @ref LL_TIM_CHANNEL_CH1N
 135:Drivers/STM32F1xx_HAL_Driver/Inc/stm32f1xx_ll_tim.h ****   *         @arg @ref LL_TIM_CHANNEL_CH2
 136:Drivers/STM32F1xx_HAL_Driver/Inc/stm32f1xx_ll_tim.h ****   *         @arg @ref LL_TIM_CHANNEL_CH2N
 137:Drivers/STM32F1xx_HAL_Driver/Inc/stm32f1xx_ll_tim.h ****   *         @arg @ref LL_TIM_CHANNEL_CH3
 138:Drivers/STM32F1xx_HAL_Driver/Inc/stm32f1xx_ll_tim.h ****   *         @arg @ref LL_TIM_CHANNEL_CH3N
 139:Drivers/STM32F1xx_HAL_Driver/Inc/stm32f1xx_ll_tim.h ****   *         @arg @ref LL_TIM_CHANNEL_CH4
 140:Drivers/STM32F1xx_HAL_Driver/Inc/stm32f1xx_ll_tim.h ****   * @retval none
 141:Drivers/STM32F1xx_HAL_Driver/Inc/stm32f1xx_ll_tim.h ****   */
 142:Drivers/STM32F1xx_HAL_Driver/Inc/stm32f1xx_ll_tim.h **** #define TIM_GET_CHANNEL_INDEX( __CHANNEL__) \
 143:Drivers/STM32F1xx_HAL_Driver/Inc/stm32f1xx_ll_tim.h ****   (((__CHANNEL__) == LL_TIM_CHANNEL_CH1) ? 0U :\
 144:Drivers/STM32F1xx_HAL_Driver/Inc/stm32f1xx_ll_tim.h ****    ((__CHANNEL__) == LL_TIM_CHANNEL_CH1N) ? 1U :\
 145:Drivers/STM32F1xx_HAL_Driver/Inc/stm32f1xx_ll_tim.h ****    ((__CHANNEL__) == LL_TIM_CHANNEL_CH2) ? 2U :\
 146:Drivers/STM32F1xx_HAL_Driver/Inc/stm32f1xx_ll_tim.h ****    ((__CHANNEL__) == LL_TIM_CHANNEL_CH2N) ? 3U :\
 147:Drivers/STM32F1xx_HAL_Driver/Inc/stm32f1xx_ll_tim.h ****    ((__CHANNEL__) == LL_TIM_CHANNEL_CH3) ? 4U :\
 148:Drivers/STM32F1xx_HAL_Driver/Inc/stm32f1xx_ll_tim.h ****    ((__CHANNEL__) == LL_TIM_CHANNEL_CH3N) ? 5U : 6U)
 149:Drivers/STM32F1xx_HAL_Driver/Inc/stm32f1xx_ll_tim.h **** 
 150:Drivers/STM32F1xx_HAL_Driver/Inc/stm32f1xx_ll_tim.h **** /** @brief  Calculate the deadtime sampling period(in ps).
 151:Drivers/STM32F1xx_HAL_Driver/Inc/stm32f1xx_ll_tim.h ****   * @param  __TIMCLK__ timer input clock frequency (in Hz).
 152:Drivers/STM32F1xx_HAL_Driver/Inc/stm32f1xx_ll_tim.h ****   * @param  __CKD__ This parameter can be one of the following values:
 153:Drivers/STM32F1xx_HAL_Driver/Inc/stm32f1xx_ll_tim.h ****   *         @arg @ref LL_TIM_CLOCKDIVISION_DIV1
 154:Drivers/STM32F1xx_HAL_Driver/Inc/stm32f1xx_ll_tim.h ****   *         @arg @ref LL_TIM_CLOCKDIVISION_DIV2
 155:Drivers/STM32F1xx_HAL_Driver/Inc/stm32f1xx_ll_tim.h ****   *         @arg @ref LL_TIM_CLOCKDIVISION_DIV4
 156:Drivers/STM32F1xx_HAL_Driver/Inc/stm32f1xx_ll_tim.h ****   * @retval none
 157:Drivers/STM32F1xx_HAL_Driver/Inc/stm32f1xx_ll_tim.h ****   */
 158:Drivers/STM32F1xx_HAL_Driver/Inc/stm32f1xx_ll_tim.h **** #define TIM_CALC_DTS(__TIMCLK__, __CKD__)                                                        \
 159:Drivers/STM32F1xx_HAL_Driver/Inc/stm32f1xx_ll_tim.h ****   (((__CKD__) == LL_TIM_CLOCKDIVISION_DIV1) ? ((uint64_t)1000000000000U/(__TIMCLK__))         : \
 160:Drivers/STM32F1xx_HAL_Driver/Inc/stm32f1xx_ll_tim.h ****    ((__CKD__) == LL_TIM_CLOCKDIVISION_DIV2) ? ((uint64_t)1000000000000U/((__TIMCLK__) >> 1U)) : \
 161:Drivers/STM32F1xx_HAL_Driver/Inc/stm32f1xx_ll_tim.h ****    ((uint64_t)1000000000000U/((__TIMCLK__) >> 2U)))
 162:Drivers/STM32F1xx_HAL_Driver/Inc/stm32f1xx_ll_tim.h **** /**
 163:Drivers/STM32F1xx_HAL_Driver/Inc/stm32f1xx_ll_tim.h ****   * @}
 164:Drivers/STM32F1xx_HAL_Driver/Inc/stm32f1xx_ll_tim.h ****   */
 165:Drivers/STM32F1xx_HAL_Driver/Inc/stm32f1xx_ll_tim.h **** 
 166:Drivers/STM32F1xx_HAL_Driver/Inc/stm32f1xx_ll_tim.h **** 
 167:Drivers/STM32F1xx_HAL_Driver/Inc/stm32f1xx_ll_tim.h **** /* Exported types ------------------------------------------------------------*/
 168:Drivers/STM32F1xx_HAL_Driver/Inc/stm32f1xx_ll_tim.h **** #if defined(USE_FULL_LL_DRIVER)
 169:Drivers/STM32F1xx_HAL_Driver/Inc/stm32f1xx_ll_tim.h **** /** @defgroup TIM_LL_ES_INIT TIM Exported Init structure
 170:Drivers/STM32F1xx_HAL_Driver/Inc/stm32f1xx_ll_tim.h ****   * @{
 171:Drivers/STM32F1xx_HAL_Driver/Inc/stm32f1xx_ll_tim.h ****   */
 172:Drivers/STM32F1xx_HAL_Driver/Inc/stm32f1xx_ll_tim.h **** 
 173:Drivers/STM32F1xx_HAL_Driver/Inc/stm32f1xx_ll_tim.h **** /**
 174:Drivers/STM32F1xx_HAL_Driver/Inc/stm32f1xx_ll_tim.h ****   * @brief  TIM Time Base configuration structure definition.
ARM GAS  /tmp/ccdg0XkI.s 			page 26


 175:Drivers/STM32F1xx_HAL_Driver/Inc/stm32f1xx_ll_tim.h ****   */
 176:Drivers/STM32F1xx_HAL_Driver/Inc/stm32f1xx_ll_tim.h **** typedef struct
 177:Drivers/STM32F1xx_HAL_Driver/Inc/stm32f1xx_ll_tim.h **** {
 178:Drivers/STM32F1xx_HAL_Driver/Inc/stm32f1xx_ll_tim.h ****   uint16_t Prescaler;         /*!< Specifies the prescaler value used to divide the TIM clock.
 179:Drivers/STM32F1xx_HAL_Driver/Inc/stm32f1xx_ll_tim.h ****                                    This parameter can be a number between Min_Data=0x0000 and Max_D
 180:Drivers/STM32F1xx_HAL_Driver/Inc/stm32f1xx_ll_tim.h **** 
 181:Drivers/STM32F1xx_HAL_Driver/Inc/stm32f1xx_ll_tim.h ****                                    This feature can be modified afterwards using unitary function
 182:Drivers/STM32F1xx_HAL_Driver/Inc/stm32f1xx_ll_tim.h ****                                    @ref LL_TIM_SetPrescaler().*/
 183:Drivers/STM32F1xx_HAL_Driver/Inc/stm32f1xx_ll_tim.h **** 
 184:Drivers/STM32F1xx_HAL_Driver/Inc/stm32f1xx_ll_tim.h ****   uint32_t CounterMode;       /*!< Specifies the counter mode.
 185:Drivers/STM32F1xx_HAL_Driver/Inc/stm32f1xx_ll_tim.h ****                                    This parameter can be a value of @ref TIM_LL_EC_COUNTERMODE.
 186:Drivers/STM32F1xx_HAL_Driver/Inc/stm32f1xx_ll_tim.h **** 
 187:Drivers/STM32F1xx_HAL_Driver/Inc/stm32f1xx_ll_tim.h ****                                    This feature can be modified afterwards using unitary function
 188:Drivers/STM32F1xx_HAL_Driver/Inc/stm32f1xx_ll_tim.h ****                                    @ref LL_TIM_SetCounterMode().*/
 189:Drivers/STM32F1xx_HAL_Driver/Inc/stm32f1xx_ll_tim.h **** 
 190:Drivers/STM32F1xx_HAL_Driver/Inc/stm32f1xx_ll_tim.h ****   uint32_t Autoreload;        /*!< Specifies the auto reload value to be loaded into the active
 191:Drivers/STM32F1xx_HAL_Driver/Inc/stm32f1xx_ll_tim.h ****                                    Auto-Reload Register at the next update event.
 192:Drivers/STM32F1xx_HAL_Driver/Inc/stm32f1xx_ll_tim.h ****                                    This parameter must be a number between Min_Data=0x0000 and Max_
 193:Drivers/STM32F1xx_HAL_Driver/Inc/stm32f1xx_ll_tim.h ****                                    Some timer instances may support 32 bits counters. In that case 
 194:Drivers/STM32F1xx_HAL_Driver/Inc/stm32f1xx_ll_tim.h ****                                    be a number between 0x0000 and 0xFFFFFFFF.
 195:Drivers/STM32F1xx_HAL_Driver/Inc/stm32f1xx_ll_tim.h **** 
 196:Drivers/STM32F1xx_HAL_Driver/Inc/stm32f1xx_ll_tim.h ****                                    This feature can be modified afterwards using unitary function
 197:Drivers/STM32F1xx_HAL_Driver/Inc/stm32f1xx_ll_tim.h ****                                    @ref LL_TIM_SetAutoReload().*/
 198:Drivers/STM32F1xx_HAL_Driver/Inc/stm32f1xx_ll_tim.h **** 
 199:Drivers/STM32F1xx_HAL_Driver/Inc/stm32f1xx_ll_tim.h ****   uint32_t ClockDivision;     /*!< Specifies the clock division.
 200:Drivers/STM32F1xx_HAL_Driver/Inc/stm32f1xx_ll_tim.h ****                                    This parameter can be a value of @ref TIM_LL_EC_CLOCKDIVISION.
 201:Drivers/STM32F1xx_HAL_Driver/Inc/stm32f1xx_ll_tim.h **** 
 202:Drivers/STM32F1xx_HAL_Driver/Inc/stm32f1xx_ll_tim.h ****                                    This feature can be modified afterwards using unitary function
 203:Drivers/STM32F1xx_HAL_Driver/Inc/stm32f1xx_ll_tim.h ****                                    @ref LL_TIM_SetClockDivision().*/
 204:Drivers/STM32F1xx_HAL_Driver/Inc/stm32f1xx_ll_tim.h **** 
 205:Drivers/STM32F1xx_HAL_Driver/Inc/stm32f1xx_ll_tim.h ****   uint32_t RepetitionCounter;  /*!< Specifies the repetition counter value. Each time the RCR downc
 206:Drivers/STM32F1xx_HAL_Driver/Inc/stm32f1xx_ll_tim.h ****                                    reaches zero, an update event is generated and counting restarts
 207:Drivers/STM32F1xx_HAL_Driver/Inc/stm32f1xx_ll_tim.h ****                                    from the RCR value (N).
 208:Drivers/STM32F1xx_HAL_Driver/Inc/stm32f1xx_ll_tim.h ****                                    This means in PWM mode that (N+1) corresponds to:
 209:Drivers/STM32F1xx_HAL_Driver/Inc/stm32f1xx_ll_tim.h ****                                       - the number of PWM periods in edge-aligned mode
 210:Drivers/STM32F1xx_HAL_Driver/Inc/stm32f1xx_ll_tim.h ****                                       - the number of half PWM period in center-aligned mode
 211:Drivers/STM32F1xx_HAL_Driver/Inc/stm32f1xx_ll_tim.h ****                                    GP timers: this parameter must be a number between Min_Data = 0x
 212:Drivers/STM32F1xx_HAL_Driver/Inc/stm32f1xx_ll_tim.h ****                                    Max_Data = 0xFF.
 213:Drivers/STM32F1xx_HAL_Driver/Inc/stm32f1xx_ll_tim.h ****                                    Advanced timers: this parameter must be a number between Min_Dat
 214:Drivers/STM32F1xx_HAL_Driver/Inc/stm32f1xx_ll_tim.h ****                                    Max_Data = 0xFFFF.
 215:Drivers/STM32F1xx_HAL_Driver/Inc/stm32f1xx_ll_tim.h **** 
 216:Drivers/STM32F1xx_HAL_Driver/Inc/stm32f1xx_ll_tim.h ****                                    This feature can be modified afterwards using unitary function
 217:Drivers/STM32F1xx_HAL_Driver/Inc/stm32f1xx_ll_tim.h ****                                    @ref LL_TIM_SetRepetitionCounter().*/
 218:Drivers/STM32F1xx_HAL_Driver/Inc/stm32f1xx_ll_tim.h **** } LL_TIM_InitTypeDef;
 219:Drivers/STM32F1xx_HAL_Driver/Inc/stm32f1xx_ll_tim.h **** 
 220:Drivers/STM32F1xx_HAL_Driver/Inc/stm32f1xx_ll_tim.h **** /**
 221:Drivers/STM32F1xx_HAL_Driver/Inc/stm32f1xx_ll_tim.h ****   * @brief  TIM Output Compare configuration structure definition.
 222:Drivers/STM32F1xx_HAL_Driver/Inc/stm32f1xx_ll_tim.h ****   */
 223:Drivers/STM32F1xx_HAL_Driver/Inc/stm32f1xx_ll_tim.h **** typedef struct
 224:Drivers/STM32F1xx_HAL_Driver/Inc/stm32f1xx_ll_tim.h **** {
 225:Drivers/STM32F1xx_HAL_Driver/Inc/stm32f1xx_ll_tim.h ****   uint32_t OCMode;        /*!< Specifies the output mode.
 226:Drivers/STM32F1xx_HAL_Driver/Inc/stm32f1xx_ll_tim.h ****                                This parameter can be a value of @ref TIM_LL_EC_OCMODE.
 227:Drivers/STM32F1xx_HAL_Driver/Inc/stm32f1xx_ll_tim.h **** 
 228:Drivers/STM32F1xx_HAL_Driver/Inc/stm32f1xx_ll_tim.h ****                                This feature can be modified afterwards using unitary function
 229:Drivers/STM32F1xx_HAL_Driver/Inc/stm32f1xx_ll_tim.h ****                                @ref LL_TIM_OC_SetMode().*/
 230:Drivers/STM32F1xx_HAL_Driver/Inc/stm32f1xx_ll_tim.h **** 
 231:Drivers/STM32F1xx_HAL_Driver/Inc/stm32f1xx_ll_tim.h ****   uint32_t OCState;       /*!< Specifies the TIM Output Compare state.
ARM GAS  /tmp/ccdg0XkI.s 			page 27


 232:Drivers/STM32F1xx_HAL_Driver/Inc/stm32f1xx_ll_tim.h ****                                This parameter can be a value of @ref TIM_LL_EC_OCSTATE.
 233:Drivers/STM32F1xx_HAL_Driver/Inc/stm32f1xx_ll_tim.h **** 
 234:Drivers/STM32F1xx_HAL_Driver/Inc/stm32f1xx_ll_tim.h ****                                This feature can be modified afterwards using unitary functions
 235:Drivers/STM32F1xx_HAL_Driver/Inc/stm32f1xx_ll_tim.h ****                                @ref LL_TIM_CC_EnableChannel() or @ref LL_TIM_CC_DisableChannel().*/
 236:Drivers/STM32F1xx_HAL_Driver/Inc/stm32f1xx_ll_tim.h **** 
 237:Drivers/STM32F1xx_HAL_Driver/Inc/stm32f1xx_ll_tim.h ****   uint32_t OCNState;      /*!< Specifies the TIM complementary Output Compare state.
 238:Drivers/STM32F1xx_HAL_Driver/Inc/stm32f1xx_ll_tim.h ****                                This parameter can be a value of @ref TIM_LL_EC_OCSTATE.
 239:Drivers/STM32F1xx_HAL_Driver/Inc/stm32f1xx_ll_tim.h **** 
 240:Drivers/STM32F1xx_HAL_Driver/Inc/stm32f1xx_ll_tim.h ****                                This feature can be modified afterwards using unitary functions
 241:Drivers/STM32F1xx_HAL_Driver/Inc/stm32f1xx_ll_tim.h ****                                @ref LL_TIM_CC_EnableChannel() or @ref LL_TIM_CC_DisableChannel().*/
 242:Drivers/STM32F1xx_HAL_Driver/Inc/stm32f1xx_ll_tim.h **** 
 243:Drivers/STM32F1xx_HAL_Driver/Inc/stm32f1xx_ll_tim.h ****   uint32_t CompareValue;  /*!< Specifies the Compare value to be loaded into the Capture Compare Re
 244:Drivers/STM32F1xx_HAL_Driver/Inc/stm32f1xx_ll_tim.h ****                                This parameter can be a number between Min_Data=0x0000 and Max_Data=
 245:Drivers/STM32F1xx_HAL_Driver/Inc/stm32f1xx_ll_tim.h **** 
 246:Drivers/STM32F1xx_HAL_Driver/Inc/stm32f1xx_ll_tim.h ****                                This feature can be modified afterwards using unitary function
 247:Drivers/STM32F1xx_HAL_Driver/Inc/stm32f1xx_ll_tim.h ****                                LL_TIM_OC_SetCompareCHx (x=1..6).*/
 248:Drivers/STM32F1xx_HAL_Driver/Inc/stm32f1xx_ll_tim.h **** 
 249:Drivers/STM32F1xx_HAL_Driver/Inc/stm32f1xx_ll_tim.h ****   uint32_t OCPolarity;    /*!< Specifies the output polarity.
 250:Drivers/STM32F1xx_HAL_Driver/Inc/stm32f1xx_ll_tim.h ****                                This parameter can be a value of @ref TIM_LL_EC_OCPOLARITY.
 251:Drivers/STM32F1xx_HAL_Driver/Inc/stm32f1xx_ll_tim.h **** 
 252:Drivers/STM32F1xx_HAL_Driver/Inc/stm32f1xx_ll_tim.h ****                                This feature can be modified afterwards using unitary function
 253:Drivers/STM32F1xx_HAL_Driver/Inc/stm32f1xx_ll_tim.h ****                                @ref LL_TIM_OC_SetPolarity().*/
 254:Drivers/STM32F1xx_HAL_Driver/Inc/stm32f1xx_ll_tim.h **** 
 255:Drivers/STM32F1xx_HAL_Driver/Inc/stm32f1xx_ll_tim.h ****   uint32_t OCNPolarity;   /*!< Specifies the complementary output polarity.
 256:Drivers/STM32F1xx_HAL_Driver/Inc/stm32f1xx_ll_tim.h ****                                This parameter can be a value of @ref TIM_LL_EC_OCPOLARITY.
 257:Drivers/STM32F1xx_HAL_Driver/Inc/stm32f1xx_ll_tim.h **** 
 258:Drivers/STM32F1xx_HAL_Driver/Inc/stm32f1xx_ll_tim.h ****                                This feature can be modified afterwards using unitary function
 259:Drivers/STM32F1xx_HAL_Driver/Inc/stm32f1xx_ll_tim.h ****                                @ref LL_TIM_OC_SetPolarity().*/
 260:Drivers/STM32F1xx_HAL_Driver/Inc/stm32f1xx_ll_tim.h **** 
 261:Drivers/STM32F1xx_HAL_Driver/Inc/stm32f1xx_ll_tim.h **** 
 262:Drivers/STM32F1xx_HAL_Driver/Inc/stm32f1xx_ll_tim.h ****   uint32_t OCIdleState;   /*!< Specifies the TIM Output Compare pin state during Idle state.
 263:Drivers/STM32F1xx_HAL_Driver/Inc/stm32f1xx_ll_tim.h ****                                This parameter can be a value of @ref TIM_LL_EC_OCIDLESTATE.
 264:Drivers/STM32F1xx_HAL_Driver/Inc/stm32f1xx_ll_tim.h **** 
 265:Drivers/STM32F1xx_HAL_Driver/Inc/stm32f1xx_ll_tim.h ****                                This feature can be modified afterwards using unitary function
 266:Drivers/STM32F1xx_HAL_Driver/Inc/stm32f1xx_ll_tim.h ****                                @ref LL_TIM_OC_SetIdleState().*/
 267:Drivers/STM32F1xx_HAL_Driver/Inc/stm32f1xx_ll_tim.h **** 
 268:Drivers/STM32F1xx_HAL_Driver/Inc/stm32f1xx_ll_tim.h ****   uint32_t OCNIdleState;  /*!< Specifies the TIM Output Compare pin state during Idle state.
 269:Drivers/STM32F1xx_HAL_Driver/Inc/stm32f1xx_ll_tim.h ****                                This parameter can be a value of @ref TIM_LL_EC_OCIDLESTATE.
 270:Drivers/STM32F1xx_HAL_Driver/Inc/stm32f1xx_ll_tim.h **** 
 271:Drivers/STM32F1xx_HAL_Driver/Inc/stm32f1xx_ll_tim.h ****                                This feature can be modified afterwards using unitary function
 272:Drivers/STM32F1xx_HAL_Driver/Inc/stm32f1xx_ll_tim.h ****                                @ref LL_TIM_OC_SetIdleState().*/
 273:Drivers/STM32F1xx_HAL_Driver/Inc/stm32f1xx_ll_tim.h **** } LL_TIM_OC_InitTypeDef;
 274:Drivers/STM32F1xx_HAL_Driver/Inc/stm32f1xx_ll_tim.h **** 
 275:Drivers/STM32F1xx_HAL_Driver/Inc/stm32f1xx_ll_tim.h **** /**
 276:Drivers/STM32F1xx_HAL_Driver/Inc/stm32f1xx_ll_tim.h ****   * @brief  TIM Input Capture configuration structure definition.
 277:Drivers/STM32F1xx_HAL_Driver/Inc/stm32f1xx_ll_tim.h ****   */
 278:Drivers/STM32F1xx_HAL_Driver/Inc/stm32f1xx_ll_tim.h **** 
 279:Drivers/STM32F1xx_HAL_Driver/Inc/stm32f1xx_ll_tim.h **** typedef struct
 280:Drivers/STM32F1xx_HAL_Driver/Inc/stm32f1xx_ll_tim.h **** {
 281:Drivers/STM32F1xx_HAL_Driver/Inc/stm32f1xx_ll_tim.h **** 
 282:Drivers/STM32F1xx_HAL_Driver/Inc/stm32f1xx_ll_tim.h ****   uint32_t ICPolarity;    /*!< Specifies the active edge of the input signal.
 283:Drivers/STM32F1xx_HAL_Driver/Inc/stm32f1xx_ll_tim.h ****                                This parameter can be a value of @ref TIM_LL_EC_IC_POLARITY.
 284:Drivers/STM32F1xx_HAL_Driver/Inc/stm32f1xx_ll_tim.h **** 
 285:Drivers/STM32F1xx_HAL_Driver/Inc/stm32f1xx_ll_tim.h ****                                This feature can be modified afterwards using unitary function
 286:Drivers/STM32F1xx_HAL_Driver/Inc/stm32f1xx_ll_tim.h ****                                @ref LL_TIM_IC_SetPolarity().*/
 287:Drivers/STM32F1xx_HAL_Driver/Inc/stm32f1xx_ll_tim.h **** 
 288:Drivers/STM32F1xx_HAL_Driver/Inc/stm32f1xx_ll_tim.h ****   uint32_t ICActiveInput; /*!< Specifies the input.
ARM GAS  /tmp/ccdg0XkI.s 			page 28


 289:Drivers/STM32F1xx_HAL_Driver/Inc/stm32f1xx_ll_tim.h ****                                This parameter can be a value of @ref TIM_LL_EC_ACTIVEINPUT.
 290:Drivers/STM32F1xx_HAL_Driver/Inc/stm32f1xx_ll_tim.h **** 
 291:Drivers/STM32F1xx_HAL_Driver/Inc/stm32f1xx_ll_tim.h ****                                This feature can be modified afterwards using unitary function
 292:Drivers/STM32F1xx_HAL_Driver/Inc/stm32f1xx_ll_tim.h ****                                @ref LL_TIM_IC_SetActiveInput().*/
 293:Drivers/STM32F1xx_HAL_Driver/Inc/stm32f1xx_ll_tim.h **** 
 294:Drivers/STM32F1xx_HAL_Driver/Inc/stm32f1xx_ll_tim.h ****   uint32_t ICPrescaler;   /*!< Specifies the Input Capture Prescaler.
 295:Drivers/STM32F1xx_HAL_Driver/Inc/stm32f1xx_ll_tim.h ****                                This parameter can be a value of @ref TIM_LL_EC_ICPSC.
 296:Drivers/STM32F1xx_HAL_Driver/Inc/stm32f1xx_ll_tim.h **** 
 297:Drivers/STM32F1xx_HAL_Driver/Inc/stm32f1xx_ll_tim.h ****                                This feature can be modified afterwards using unitary function
 298:Drivers/STM32F1xx_HAL_Driver/Inc/stm32f1xx_ll_tim.h ****                                @ref LL_TIM_IC_SetPrescaler().*/
 299:Drivers/STM32F1xx_HAL_Driver/Inc/stm32f1xx_ll_tim.h **** 
 300:Drivers/STM32F1xx_HAL_Driver/Inc/stm32f1xx_ll_tim.h ****   uint32_t ICFilter;      /*!< Specifies the input capture filter.
 301:Drivers/STM32F1xx_HAL_Driver/Inc/stm32f1xx_ll_tim.h ****                                This parameter can be a value of @ref TIM_LL_EC_IC_FILTER.
 302:Drivers/STM32F1xx_HAL_Driver/Inc/stm32f1xx_ll_tim.h **** 
 303:Drivers/STM32F1xx_HAL_Driver/Inc/stm32f1xx_ll_tim.h ****                                This feature can be modified afterwards using unitary function
 304:Drivers/STM32F1xx_HAL_Driver/Inc/stm32f1xx_ll_tim.h ****                                @ref LL_TIM_IC_SetFilter().*/
 305:Drivers/STM32F1xx_HAL_Driver/Inc/stm32f1xx_ll_tim.h **** } LL_TIM_IC_InitTypeDef;
 306:Drivers/STM32F1xx_HAL_Driver/Inc/stm32f1xx_ll_tim.h **** 
 307:Drivers/STM32F1xx_HAL_Driver/Inc/stm32f1xx_ll_tim.h **** 
 308:Drivers/STM32F1xx_HAL_Driver/Inc/stm32f1xx_ll_tim.h **** /**
 309:Drivers/STM32F1xx_HAL_Driver/Inc/stm32f1xx_ll_tim.h ****   * @brief  TIM Encoder interface configuration structure definition.
 310:Drivers/STM32F1xx_HAL_Driver/Inc/stm32f1xx_ll_tim.h ****   */
 311:Drivers/STM32F1xx_HAL_Driver/Inc/stm32f1xx_ll_tim.h **** typedef struct
 312:Drivers/STM32F1xx_HAL_Driver/Inc/stm32f1xx_ll_tim.h **** {
 313:Drivers/STM32F1xx_HAL_Driver/Inc/stm32f1xx_ll_tim.h ****   uint32_t EncoderMode;     /*!< Specifies the encoder resolution (x2 or x4).
 314:Drivers/STM32F1xx_HAL_Driver/Inc/stm32f1xx_ll_tim.h ****                                  This parameter can be a value of @ref TIM_LL_EC_ENCODERMODE.
 315:Drivers/STM32F1xx_HAL_Driver/Inc/stm32f1xx_ll_tim.h **** 
 316:Drivers/STM32F1xx_HAL_Driver/Inc/stm32f1xx_ll_tim.h ****                                  This feature can be modified afterwards using unitary function
 317:Drivers/STM32F1xx_HAL_Driver/Inc/stm32f1xx_ll_tim.h ****                                  @ref LL_TIM_SetEncoderMode().*/
 318:Drivers/STM32F1xx_HAL_Driver/Inc/stm32f1xx_ll_tim.h **** 
 319:Drivers/STM32F1xx_HAL_Driver/Inc/stm32f1xx_ll_tim.h ****   uint32_t IC1Polarity;     /*!< Specifies the active edge of TI1 input.
 320:Drivers/STM32F1xx_HAL_Driver/Inc/stm32f1xx_ll_tim.h ****                                  This parameter can be a value of @ref TIM_LL_EC_IC_POLARITY.
 321:Drivers/STM32F1xx_HAL_Driver/Inc/stm32f1xx_ll_tim.h **** 
 322:Drivers/STM32F1xx_HAL_Driver/Inc/stm32f1xx_ll_tim.h ****                                  This feature can be modified afterwards using unitary function
 323:Drivers/STM32F1xx_HAL_Driver/Inc/stm32f1xx_ll_tim.h ****                                  @ref LL_TIM_IC_SetPolarity().*/
 324:Drivers/STM32F1xx_HAL_Driver/Inc/stm32f1xx_ll_tim.h **** 
 325:Drivers/STM32F1xx_HAL_Driver/Inc/stm32f1xx_ll_tim.h ****   uint32_t IC1ActiveInput;  /*!< Specifies the TI1 input source
 326:Drivers/STM32F1xx_HAL_Driver/Inc/stm32f1xx_ll_tim.h ****                                  This parameter can be a value of @ref TIM_LL_EC_ACTIVEINPUT.
 327:Drivers/STM32F1xx_HAL_Driver/Inc/stm32f1xx_ll_tim.h **** 
 328:Drivers/STM32F1xx_HAL_Driver/Inc/stm32f1xx_ll_tim.h ****                                  This feature can be modified afterwards using unitary function
 329:Drivers/STM32F1xx_HAL_Driver/Inc/stm32f1xx_ll_tim.h ****                                  @ref LL_TIM_IC_SetActiveInput().*/
 330:Drivers/STM32F1xx_HAL_Driver/Inc/stm32f1xx_ll_tim.h **** 
 331:Drivers/STM32F1xx_HAL_Driver/Inc/stm32f1xx_ll_tim.h ****   uint32_t IC1Prescaler;    /*!< Specifies the TI1 input prescaler value.
 332:Drivers/STM32F1xx_HAL_Driver/Inc/stm32f1xx_ll_tim.h ****                                  This parameter can be a value of @ref TIM_LL_EC_ICPSC.
 333:Drivers/STM32F1xx_HAL_Driver/Inc/stm32f1xx_ll_tim.h **** 
 334:Drivers/STM32F1xx_HAL_Driver/Inc/stm32f1xx_ll_tim.h ****                                  This feature can be modified afterwards using unitary function
 335:Drivers/STM32F1xx_HAL_Driver/Inc/stm32f1xx_ll_tim.h ****                                  @ref LL_TIM_IC_SetPrescaler().*/
 336:Drivers/STM32F1xx_HAL_Driver/Inc/stm32f1xx_ll_tim.h **** 
 337:Drivers/STM32F1xx_HAL_Driver/Inc/stm32f1xx_ll_tim.h ****   uint32_t IC1Filter;       /*!< Specifies the TI1 input filter.
 338:Drivers/STM32F1xx_HAL_Driver/Inc/stm32f1xx_ll_tim.h ****                                  This parameter can be a value of @ref TIM_LL_EC_IC_FILTER.
 339:Drivers/STM32F1xx_HAL_Driver/Inc/stm32f1xx_ll_tim.h **** 
 340:Drivers/STM32F1xx_HAL_Driver/Inc/stm32f1xx_ll_tim.h ****                                  This feature can be modified afterwards using unitary function
 341:Drivers/STM32F1xx_HAL_Driver/Inc/stm32f1xx_ll_tim.h ****                                  @ref LL_TIM_IC_SetFilter().*/
 342:Drivers/STM32F1xx_HAL_Driver/Inc/stm32f1xx_ll_tim.h **** 
 343:Drivers/STM32F1xx_HAL_Driver/Inc/stm32f1xx_ll_tim.h ****   uint32_t IC2Polarity;      /*!< Specifies the active edge of TI2 input.
 344:Drivers/STM32F1xx_HAL_Driver/Inc/stm32f1xx_ll_tim.h ****                                  This parameter can be a value of @ref TIM_LL_EC_IC_POLARITY.
 345:Drivers/STM32F1xx_HAL_Driver/Inc/stm32f1xx_ll_tim.h **** 
ARM GAS  /tmp/ccdg0XkI.s 			page 29


 346:Drivers/STM32F1xx_HAL_Driver/Inc/stm32f1xx_ll_tim.h ****                                  This feature can be modified afterwards using unitary function
 347:Drivers/STM32F1xx_HAL_Driver/Inc/stm32f1xx_ll_tim.h ****                                  @ref LL_TIM_IC_SetPolarity().*/
 348:Drivers/STM32F1xx_HAL_Driver/Inc/stm32f1xx_ll_tim.h **** 
 349:Drivers/STM32F1xx_HAL_Driver/Inc/stm32f1xx_ll_tim.h ****   uint32_t IC2ActiveInput;  /*!< Specifies the TI2 input source
 350:Drivers/STM32F1xx_HAL_Driver/Inc/stm32f1xx_ll_tim.h ****                                  This parameter can be a value of @ref TIM_LL_EC_ACTIVEINPUT.
 351:Drivers/STM32F1xx_HAL_Driver/Inc/stm32f1xx_ll_tim.h **** 
 352:Drivers/STM32F1xx_HAL_Driver/Inc/stm32f1xx_ll_tim.h ****                                  This feature can be modified afterwards using unitary function
 353:Drivers/STM32F1xx_HAL_Driver/Inc/stm32f1xx_ll_tim.h ****                                  @ref LL_TIM_IC_SetActiveInput().*/
 354:Drivers/STM32F1xx_HAL_Driver/Inc/stm32f1xx_ll_tim.h **** 
 355:Drivers/STM32F1xx_HAL_Driver/Inc/stm32f1xx_ll_tim.h ****   uint32_t IC2Prescaler;    /*!< Specifies the TI2 input prescaler value.
 356:Drivers/STM32F1xx_HAL_Driver/Inc/stm32f1xx_ll_tim.h ****                                  This parameter can be a value of @ref TIM_LL_EC_ICPSC.
 357:Drivers/STM32F1xx_HAL_Driver/Inc/stm32f1xx_ll_tim.h **** 
 358:Drivers/STM32F1xx_HAL_Driver/Inc/stm32f1xx_ll_tim.h ****                                  This feature can be modified afterwards using unitary function
 359:Drivers/STM32F1xx_HAL_Driver/Inc/stm32f1xx_ll_tim.h ****                                  @ref LL_TIM_IC_SetPrescaler().*/
 360:Drivers/STM32F1xx_HAL_Driver/Inc/stm32f1xx_ll_tim.h **** 
 361:Drivers/STM32F1xx_HAL_Driver/Inc/stm32f1xx_ll_tim.h ****   uint32_t IC2Filter;       /*!< Specifies the TI2 input filter.
 362:Drivers/STM32F1xx_HAL_Driver/Inc/stm32f1xx_ll_tim.h ****                                  This parameter can be a value of @ref TIM_LL_EC_IC_FILTER.
 363:Drivers/STM32F1xx_HAL_Driver/Inc/stm32f1xx_ll_tim.h **** 
 364:Drivers/STM32F1xx_HAL_Driver/Inc/stm32f1xx_ll_tim.h ****                                  This feature can be modified afterwards using unitary function
 365:Drivers/STM32F1xx_HAL_Driver/Inc/stm32f1xx_ll_tim.h ****                                  @ref LL_TIM_IC_SetFilter().*/
 366:Drivers/STM32F1xx_HAL_Driver/Inc/stm32f1xx_ll_tim.h **** 
 367:Drivers/STM32F1xx_HAL_Driver/Inc/stm32f1xx_ll_tim.h **** } LL_TIM_ENCODER_InitTypeDef;
 368:Drivers/STM32F1xx_HAL_Driver/Inc/stm32f1xx_ll_tim.h **** 
 369:Drivers/STM32F1xx_HAL_Driver/Inc/stm32f1xx_ll_tim.h **** /**
 370:Drivers/STM32F1xx_HAL_Driver/Inc/stm32f1xx_ll_tim.h ****   * @brief  TIM Hall sensor interface configuration structure definition.
 371:Drivers/STM32F1xx_HAL_Driver/Inc/stm32f1xx_ll_tim.h ****   */
 372:Drivers/STM32F1xx_HAL_Driver/Inc/stm32f1xx_ll_tim.h **** typedef struct
 373:Drivers/STM32F1xx_HAL_Driver/Inc/stm32f1xx_ll_tim.h **** {
 374:Drivers/STM32F1xx_HAL_Driver/Inc/stm32f1xx_ll_tim.h **** 
 375:Drivers/STM32F1xx_HAL_Driver/Inc/stm32f1xx_ll_tim.h ****   uint32_t IC1Polarity;        /*!< Specifies the active edge of TI1 input.
 376:Drivers/STM32F1xx_HAL_Driver/Inc/stm32f1xx_ll_tim.h ****                                     This parameter can be a value of @ref TIM_LL_EC_IC_POLARITY.
 377:Drivers/STM32F1xx_HAL_Driver/Inc/stm32f1xx_ll_tim.h **** 
 378:Drivers/STM32F1xx_HAL_Driver/Inc/stm32f1xx_ll_tim.h ****                                     This feature can be modified afterwards using unitary function
 379:Drivers/STM32F1xx_HAL_Driver/Inc/stm32f1xx_ll_tim.h ****                                     @ref LL_TIM_IC_SetPolarity().*/
 380:Drivers/STM32F1xx_HAL_Driver/Inc/stm32f1xx_ll_tim.h **** 
 381:Drivers/STM32F1xx_HAL_Driver/Inc/stm32f1xx_ll_tim.h ****   uint32_t IC1Prescaler;       /*!< Specifies the TI1 input prescaler value.
 382:Drivers/STM32F1xx_HAL_Driver/Inc/stm32f1xx_ll_tim.h ****                                     Prescaler must be set to get a maximum counter period longer th
 383:Drivers/STM32F1xx_HAL_Driver/Inc/stm32f1xx_ll_tim.h ****                                     time interval between 2 consecutive changes on the Hall inputs.
 384:Drivers/STM32F1xx_HAL_Driver/Inc/stm32f1xx_ll_tim.h ****                                     This parameter can be a value of @ref TIM_LL_EC_ICPSC.
 385:Drivers/STM32F1xx_HAL_Driver/Inc/stm32f1xx_ll_tim.h **** 
 386:Drivers/STM32F1xx_HAL_Driver/Inc/stm32f1xx_ll_tim.h ****                                     This feature can be modified afterwards using unitary function
 387:Drivers/STM32F1xx_HAL_Driver/Inc/stm32f1xx_ll_tim.h ****                                     @ref LL_TIM_IC_SetPrescaler().*/
 388:Drivers/STM32F1xx_HAL_Driver/Inc/stm32f1xx_ll_tim.h **** 
 389:Drivers/STM32F1xx_HAL_Driver/Inc/stm32f1xx_ll_tim.h ****   uint32_t IC1Filter;          /*!< Specifies the TI1 input filter.
 390:Drivers/STM32F1xx_HAL_Driver/Inc/stm32f1xx_ll_tim.h ****                                     This parameter can be a value of
 391:Drivers/STM32F1xx_HAL_Driver/Inc/stm32f1xx_ll_tim.h ****                                     @ref TIM_LL_EC_IC_FILTER.
 392:Drivers/STM32F1xx_HAL_Driver/Inc/stm32f1xx_ll_tim.h **** 
 393:Drivers/STM32F1xx_HAL_Driver/Inc/stm32f1xx_ll_tim.h ****                                     This feature can be modified afterwards using unitary function
 394:Drivers/STM32F1xx_HAL_Driver/Inc/stm32f1xx_ll_tim.h ****                                     @ref LL_TIM_IC_SetFilter().*/
 395:Drivers/STM32F1xx_HAL_Driver/Inc/stm32f1xx_ll_tim.h **** 
 396:Drivers/STM32F1xx_HAL_Driver/Inc/stm32f1xx_ll_tim.h ****   uint32_t CommutationDelay;   /*!< Specifies the compare value to be loaded into the Capture Compa
 397:Drivers/STM32F1xx_HAL_Driver/Inc/stm32f1xx_ll_tim.h ****                                     A positive pulse (TRGO event) is generated with a programmable 
 398:Drivers/STM32F1xx_HAL_Driver/Inc/stm32f1xx_ll_tim.h ****                                     a change occurs on the Hall inputs.
 399:Drivers/STM32F1xx_HAL_Driver/Inc/stm32f1xx_ll_tim.h ****                                     This parameter can be a number between Min_Data = 0x0000 and Ma
 400:Drivers/STM32F1xx_HAL_Driver/Inc/stm32f1xx_ll_tim.h **** 
 401:Drivers/STM32F1xx_HAL_Driver/Inc/stm32f1xx_ll_tim.h ****                                     This feature can be modified afterwards using unitary function
 402:Drivers/STM32F1xx_HAL_Driver/Inc/stm32f1xx_ll_tim.h ****                                     @ref LL_TIM_OC_SetCompareCH2().*/
ARM GAS  /tmp/ccdg0XkI.s 			page 30


 403:Drivers/STM32F1xx_HAL_Driver/Inc/stm32f1xx_ll_tim.h **** } LL_TIM_HALLSENSOR_InitTypeDef;
 404:Drivers/STM32F1xx_HAL_Driver/Inc/stm32f1xx_ll_tim.h **** 
 405:Drivers/STM32F1xx_HAL_Driver/Inc/stm32f1xx_ll_tim.h **** /**
 406:Drivers/STM32F1xx_HAL_Driver/Inc/stm32f1xx_ll_tim.h ****   * @brief  BDTR (Break and Dead Time) structure definition
 407:Drivers/STM32F1xx_HAL_Driver/Inc/stm32f1xx_ll_tim.h ****   */
 408:Drivers/STM32F1xx_HAL_Driver/Inc/stm32f1xx_ll_tim.h **** typedef struct
 409:Drivers/STM32F1xx_HAL_Driver/Inc/stm32f1xx_ll_tim.h **** {
 410:Drivers/STM32F1xx_HAL_Driver/Inc/stm32f1xx_ll_tim.h ****   uint32_t OSSRState;            /*!< Specifies the Off-State selection used in Run mode.
 411:Drivers/STM32F1xx_HAL_Driver/Inc/stm32f1xx_ll_tim.h ****                                       This parameter can be a value of @ref TIM_LL_EC_OSSR
 412:Drivers/STM32F1xx_HAL_Driver/Inc/stm32f1xx_ll_tim.h **** 
 413:Drivers/STM32F1xx_HAL_Driver/Inc/stm32f1xx_ll_tim.h ****                                       This feature can be modified afterwards using unitary functio
 414:Drivers/STM32F1xx_HAL_Driver/Inc/stm32f1xx_ll_tim.h ****                                       @ref LL_TIM_SetOffStates()
 415:Drivers/STM32F1xx_HAL_Driver/Inc/stm32f1xx_ll_tim.h **** 
 416:Drivers/STM32F1xx_HAL_Driver/Inc/stm32f1xx_ll_tim.h ****                                       @note This bit-field cannot be modified as long as LOCK level
 417:Drivers/STM32F1xx_HAL_Driver/Inc/stm32f1xx_ll_tim.h ****                                        programmed. */
 418:Drivers/STM32F1xx_HAL_Driver/Inc/stm32f1xx_ll_tim.h **** 
 419:Drivers/STM32F1xx_HAL_Driver/Inc/stm32f1xx_ll_tim.h ****   uint32_t OSSIState;            /*!< Specifies the Off-State used in Idle state.
 420:Drivers/STM32F1xx_HAL_Driver/Inc/stm32f1xx_ll_tim.h ****                                       This parameter can be a value of @ref TIM_LL_EC_OSSI
 421:Drivers/STM32F1xx_HAL_Driver/Inc/stm32f1xx_ll_tim.h **** 
 422:Drivers/STM32F1xx_HAL_Driver/Inc/stm32f1xx_ll_tim.h ****                                       This feature can be modified afterwards using unitary functio
 423:Drivers/STM32F1xx_HAL_Driver/Inc/stm32f1xx_ll_tim.h ****                                       @ref LL_TIM_SetOffStates()
 424:Drivers/STM32F1xx_HAL_Driver/Inc/stm32f1xx_ll_tim.h **** 
 425:Drivers/STM32F1xx_HAL_Driver/Inc/stm32f1xx_ll_tim.h ****                                       @note This bit-field cannot be modified as long as LOCK level
 426:Drivers/STM32F1xx_HAL_Driver/Inc/stm32f1xx_ll_tim.h ****                                       programmed. */
 427:Drivers/STM32F1xx_HAL_Driver/Inc/stm32f1xx_ll_tim.h **** 
 428:Drivers/STM32F1xx_HAL_Driver/Inc/stm32f1xx_ll_tim.h ****   uint32_t LockLevel;            /*!< Specifies the LOCK level parameters.
 429:Drivers/STM32F1xx_HAL_Driver/Inc/stm32f1xx_ll_tim.h ****                                       This parameter can be a value of @ref TIM_LL_EC_LOCKLEVEL
 430:Drivers/STM32F1xx_HAL_Driver/Inc/stm32f1xx_ll_tim.h **** 
 431:Drivers/STM32F1xx_HAL_Driver/Inc/stm32f1xx_ll_tim.h ****                                       @note The LOCK bits can be written only once after the reset.
 432:Drivers/STM32F1xx_HAL_Driver/Inc/stm32f1xx_ll_tim.h ****                                       register has been written, their content is frozen until the 
 433:Drivers/STM32F1xx_HAL_Driver/Inc/stm32f1xx_ll_tim.h **** 
 434:Drivers/STM32F1xx_HAL_Driver/Inc/stm32f1xx_ll_tim.h ****   uint8_t DeadTime;              /*!< Specifies the delay time between the switching-off and the
 435:Drivers/STM32F1xx_HAL_Driver/Inc/stm32f1xx_ll_tim.h ****                                       switching-on of the outputs.
 436:Drivers/STM32F1xx_HAL_Driver/Inc/stm32f1xx_ll_tim.h ****                                       This parameter can be a number between Min_Data = 0x00 and Ma
 437:Drivers/STM32F1xx_HAL_Driver/Inc/stm32f1xx_ll_tim.h **** 
 438:Drivers/STM32F1xx_HAL_Driver/Inc/stm32f1xx_ll_tim.h ****                                       This feature can be modified afterwards using unitary functio
 439:Drivers/STM32F1xx_HAL_Driver/Inc/stm32f1xx_ll_tim.h ****                                       @ref LL_TIM_OC_SetDeadTime()
 440:Drivers/STM32F1xx_HAL_Driver/Inc/stm32f1xx_ll_tim.h **** 
 441:Drivers/STM32F1xx_HAL_Driver/Inc/stm32f1xx_ll_tim.h ****                                       @note This bit-field can not be modified as long as LOCK leve
 442:Drivers/STM32F1xx_HAL_Driver/Inc/stm32f1xx_ll_tim.h ****                                        programmed. */
 443:Drivers/STM32F1xx_HAL_Driver/Inc/stm32f1xx_ll_tim.h **** 
 444:Drivers/STM32F1xx_HAL_Driver/Inc/stm32f1xx_ll_tim.h ****   uint16_t BreakState;           /*!< Specifies whether the TIM Break input is enabled or not.
 445:Drivers/STM32F1xx_HAL_Driver/Inc/stm32f1xx_ll_tim.h ****                                       This parameter can be a value of @ref TIM_LL_EC_BREAK_ENABLE
 446:Drivers/STM32F1xx_HAL_Driver/Inc/stm32f1xx_ll_tim.h **** 
 447:Drivers/STM32F1xx_HAL_Driver/Inc/stm32f1xx_ll_tim.h ****                                       This feature can be modified afterwards using unitary functio
 448:Drivers/STM32F1xx_HAL_Driver/Inc/stm32f1xx_ll_tim.h ****                                       @ref LL_TIM_EnableBRK() or @ref LL_TIM_DisableBRK()
 449:Drivers/STM32F1xx_HAL_Driver/Inc/stm32f1xx_ll_tim.h **** 
 450:Drivers/STM32F1xx_HAL_Driver/Inc/stm32f1xx_ll_tim.h ****                                       @note This bit-field can not be modified as long as LOCK leve
 451:Drivers/STM32F1xx_HAL_Driver/Inc/stm32f1xx_ll_tim.h ****                                       programmed. */
 452:Drivers/STM32F1xx_HAL_Driver/Inc/stm32f1xx_ll_tim.h **** 
 453:Drivers/STM32F1xx_HAL_Driver/Inc/stm32f1xx_ll_tim.h ****   uint32_t BreakPolarity;        /*!< Specifies the TIM Break Input pin polarity.
 454:Drivers/STM32F1xx_HAL_Driver/Inc/stm32f1xx_ll_tim.h ****                                       This parameter can be a value of @ref TIM_LL_EC_BREAK_POLARIT
 455:Drivers/STM32F1xx_HAL_Driver/Inc/stm32f1xx_ll_tim.h **** 
 456:Drivers/STM32F1xx_HAL_Driver/Inc/stm32f1xx_ll_tim.h ****                                       This feature can be modified afterwards using unitary functio
 457:Drivers/STM32F1xx_HAL_Driver/Inc/stm32f1xx_ll_tim.h ****                                       @ref LL_TIM_ConfigBRK()
 458:Drivers/STM32F1xx_HAL_Driver/Inc/stm32f1xx_ll_tim.h **** 
 459:Drivers/STM32F1xx_HAL_Driver/Inc/stm32f1xx_ll_tim.h ****                                       @note This bit-field can not be modified as long as LOCK leve
ARM GAS  /tmp/ccdg0XkI.s 			page 31


 460:Drivers/STM32F1xx_HAL_Driver/Inc/stm32f1xx_ll_tim.h ****                                       programmed. */
 461:Drivers/STM32F1xx_HAL_Driver/Inc/stm32f1xx_ll_tim.h **** 
 462:Drivers/STM32F1xx_HAL_Driver/Inc/stm32f1xx_ll_tim.h ****   uint32_t AutomaticOutput;      /*!< Specifies whether the TIM Automatic Output feature is enabled
 463:Drivers/STM32F1xx_HAL_Driver/Inc/stm32f1xx_ll_tim.h ****                                       This parameter can be a value of @ref TIM_LL_EC_AUTOMATICOUTP
 464:Drivers/STM32F1xx_HAL_Driver/Inc/stm32f1xx_ll_tim.h **** 
 465:Drivers/STM32F1xx_HAL_Driver/Inc/stm32f1xx_ll_tim.h ****                                       This feature can be modified afterwards using unitary functio
 466:Drivers/STM32F1xx_HAL_Driver/Inc/stm32f1xx_ll_tim.h ****                                       @ref LL_TIM_EnableAutomaticOutput() or @ref LL_TIM_DisableAut
 467:Drivers/STM32F1xx_HAL_Driver/Inc/stm32f1xx_ll_tim.h **** 
 468:Drivers/STM32F1xx_HAL_Driver/Inc/stm32f1xx_ll_tim.h ****                                       @note This bit-field can not be modified as long as LOCK leve
 469:Drivers/STM32F1xx_HAL_Driver/Inc/stm32f1xx_ll_tim.h ****                                       programmed. */
 470:Drivers/STM32F1xx_HAL_Driver/Inc/stm32f1xx_ll_tim.h **** } LL_TIM_BDTR_InitTypeDef;
 471:Drivers/STM32F1xx_HAL_Driver/Inc/stm32f1xx_ll_tim.h **** 
 472:Drivers/STM32F1xx_HAL_Driver/Inc/stm32f1xx_ll_tim.h **** /**
 473:Drivers/STM32F1xx_HAL_Driver/Inc/stm32f1xx_ll_tim.h ****   * @}
 474:Drivers/STM32F1xx_HAL_Driver/Inc/stm32f1xx_ll_tim.h ****   */
 475:Drivers/STM32F1xx_HAL_Driver/Inc/stm32f1xx_ll_tim.h **** #endif /* USE_FULL_LL_DRIVER */
 476:Drivers/STM32F1xx_HAL_Driver/Inc/stm32f1xx_ll_tim.h **** 
 477:Drivers/STM32F1xx_HAL_Driver/Inc/stm32f1xx_ll_tim.h **** /* Exported constants --------------------------------------------------------*/
 478:Drivers/STM32F1xx_HAL_Driver/Inc/stm32f1xx_ll_tim.h **** /** @defgroup TIM_LL_Exported_Constants TIM Exported Constants
 479:Drivers/STM32F1xx_HAL_Driver/Inc/stm32f1xx_ll_tim.h ****   * @{
 480:Drivers/STM32F1xx_HAL_Driver/Inc/stm32f1xx_ll_tim.h ****   */
 481:Drivers/STM32F1xx_HAL_Driver/Inc/stm32f1xx_ll_tim.h **** 
 482:Drivers/STM32F1xx_HAL_Driver/Inc/stm32f1xx_ll_tim.h **** /** @defgroup TIM_LL_EC_GET_FLAG Get Flags Defines
 483:Drivers/STM32F1xx_HAL_Driver/Inc/stm32f1xx_ll_tim.h ****   * @brief    Flags defines which can be used with LL_TIM_ReadReg function.
 484:Drivers/STM32F1xx_HAL_Driver/Inc/stm32f1xx_ll_tim.h ****   * @{
 485:Drivers/STM32F1xx_HAL_Driver/Inc/stm32f1xx_ll_tim.h ****   */
 486:Drivers/STM32F1xx_HAL_Driver/Inc/stm32f1xx_ll_tim.h **** #define LL_TIM_SR_UIF                          TIM_SR_UIF           /*!< Update interrupt flag */
 487:Drivers/STM32F1xx_HAL_Driver/Inc/stm32f1xx_ll_tim.h **** #define LL_TIM_SR_CC1IF                        TIM_SR_CC1IF         /*!< Capture/compare 1 interrup
 488:Drivers/STM32F1xx_HAL_Driver/Inc/stm32f1xx_ll_tim.h **** #define LL_TIM_SR_CC2IF                        TIM_SR_CC2IF         /*!< Capture/compare 2 interrup
 489:Drivers/STM32F1xx_HAL_Driver/Inc/stm32f1xx_ll_tim.h **** #define LL_TIM_SR_CC3IF                        TIM_SR_CC3IF         /*!< Capture/compare 3 interrup
 490:Drivers/STM32F1xx_HAL_Driver/Inc/stm32f1xx_ll_tim.h **** #define LL_TIM_SR_CC4IF                        TIM_SR_CC4IF         /*!< Capture/compare 4 interrup
 491:Drivers/STM32F1xx_HAL_Driver/Inc/stm32f1xx_ll_tim.h **** #define LL_TIM_SR_COMIF                        TIM_SR_COMIF         /*!< COM interrupt flag */
 492:Drivers/STM32F1xx_HAL_Driver/Inc/stm32f1xx_ll_tim.h **** #define LL_TIM_SR_TIF                          TIM_SR_TIF           /*!< Trigger interrupt flag */
 493:Drivers/STM32F1xx_HAL_Driver/Inc/stm32f1xx_ll_tim.h **** #define LL_TIM_SR_BIF                          TIM_SR_BIF           /*!< Break interrupt flag */
 494:Drivers/STM32F1xx_HAL_Driver/Inc/stm32f1xx_ll_tim.h **** #define LL_TIM_SR_CC1OF                        TIM_SR_CC1OF         /*!< Capture/Compare 1 overcapt
 495:Drivers/STM32F1xx_HAL_Driver/Inc/stm32f1xx_ll_tim.h **** #define LL_TIM_SR_CC2OF                        TIM_SR_CC2OF         /*!< Capture/Compare 2 overcapt
 496:Drivers/STM32F1xx_HAL_Driver/Inc/stm32f1xx_ll_tim.h **** #define LL_TIM_SR_CC3OF                        TIM_SR_CC3OF         /*!< Capture/Compare 3 overcapt
 497:Drivers/STM32F1xx_HAL_Driver/Inc/stm32f1xx_ll_tim.h **** #define LL_TIM_SR_CC4OF                        TIM_SR_CC4OF         /*!< Capture/Compare 4 overcapt
 498:Drivers/STM32F1xx_HAL_Driver/Inc/stm32f1xx_ll_tim.h **** /**
 499:Drivers/STM32F1xx_HAL_Driver/Inc/stm32f1xx_ll_tim.h ****   * @}
 500:Drivers/STM32F1xx_HAL_Driver/Inc/stm32f1xx_ll_tim.h ****   */
 501:Drivers/STM32F1xx_HAL_Driver/Inc/stm32f1xx_ll_tim.h **** 
 502:Drivers/STM32F1xx_HAL_Driver/Inc/stm32f1xx_ll_tim.h **** #if defined(USE_FULL_LL_DRIVER)
 503:Drivers/STM32F1xx_HAL_Driver/Inc/stm32f1xx_ll_tim.h **** /** @defgroup TIM_LL_EC_BREAK_ENABLE Break Enable
 504:Drivers/STM32F1xx_HAL_Driver/Inc/stm32f1xx_ll_tim.h ****   * @{
 505:Drivers/STM32F1xx_HAL_Driver/Inc/stm32f1xx_ll_tim.h ****   */
 506:Drivers/STM32F1xx_HAL_Driver/Inc/stm32f1xx_ll_tim.h **** #define LL_TIM_BREAK_DISABLE            0x00000000U             /*!< Break function disabled */
 507:Drivers/STM32F1xx_HAL_Driver/Inc/stm32f1xx_ll_tim.h **** #define LL_TIM_BREAK_ENABLE             TIM_BDTR_BKE            /*!< Break function enabled */
 508:Drivers/STM32F1xx_HAL_Driver/Inc/stm32f1xx_ll_tim.h **** /**
 509:Drivers/STM32F1xx_HAL_Driver/Inc/stm32f1xx_ll_tim.h ****   * @}
 510:Drivers/STM32F1xx_HAL_Driver/Inc/stm32f1xx_ll_tim.h ****   */
 511:Drivers/STM32F1xx_HAL_Driver/Inc/stm32f1xx_ll_tim.h **** 
 512:Drivers/STM32F1xx_HAL_Driver/Inc/stm32f1xx_ll_tim.h **** /** @defgroup TIM_LL_EC_AUTOMATICOUTPUT_ENABLE Automatic output enable
 513:Drivers/STM32F1xx_HAL_Driver/Inc/stm32f1xx_ll_tim.h ****   * @{
 514:Drivers/STM32F1xx_HAL_Driver/Inc/stm32f1xx_ll_tim.h ****   */
 515:Drivers/STM32F1xx_HAL_Driver/Inc/stm32f1xx_ll_tim.h **** #define LL_TIM_AUTOMATICOUTPUT_DISABLE         0x00000000U             /*!< MOE can be set only by 
 516:Drivers/STM32F1xx_HAL_Driver/Inc/stm32f1xx_ll_tim.h **** #define LL_TIM_AUTOMATICOUTPUT_ENABLE          TIM_BDTR_AOE            /*!< MOE can be set by softw
ARM GAS  /tmp/ccdg0XkI.s 			page 32


 517:Drivers/STM32F1xx_HAL_Driver/Inc/stm32f1xx_ll_tim.h **** /**
 518:Drivers/STM32F1xx_HAL_Driver/Inc/stm32f1xx_ll_tim.h ****   * @}
 519:Drivers/STM32F1xx_HAL_Driver/Inc/stm32f1xx_ll_tim.h ****   */
 520:Drivers/STM32F1xx_HAL_Driver/Inc/stm32f1xx_ll_tim.h **** #endif /* USE_FULL_LL_DRIVER */
 521:Drivers/STM32F1xx_HAL_Driver/Inc/stm32f1xx_ll_tim.h **** 
 522:Drivers/STM32F1xx_HAL_Driver/Inc/stm32f1xx_ll_tim.h **** /** @defgroup TIM_LL_EC_IT IT Defines
 523:Drivers/STM32F1xx_HAL_Driver/Inc/stm32f1xx_ll_tim.h ****   * @brief    IT defines which can be used with LL_TIM_ReadReg and  LL_TIM_WriteReg functions.
 524:Drivers/STM32F1xx_HAL_Driver/Inc/stm32f1xx_ll_tim.h ****   * @{
 525:Drivers/STM32F1xx_HAL_Driver/Inc/stm32f1xx_ll_tim.h ****   */
 526:Drivers/STM32F1xx_HAL_Driver/Inc/stm32f1xx_ll_tim.h **** #define LL_TIM_DIER_UIE                        TIM_DIER_UIE         /*!< Update interrupt enable */
 527:Drivers/STM32F1xx_HAL_Driver/Inc/stm32f1xx_ll_tim.h **** #define LL_TIM_DIER_CC1IE                      TIM_DIER_CC1IE       /*!< Capture/compare 1 interrup
 528:Drivers/STM32F1xx_HAL_Driver/Inc/stm32f1xx_ll_tim.h **** #define LL_TIM_DIER_CC2IE                      TIM_DIER_CC2IE       /*!< Capture/compare 2 interrup
 529:Drivers/STM32F1xx_HAL_Driver/Inc/stm32f1xx_ll_tim.h **** #define LL_TIM_DIER_CC3IE                      TIM_DIER_CC3IE       /*!< Capture/compare 3 interrup
 530:Drivers/STM32F1xx_HAL_Driver/Inc/stm32f1xx_ll_tim.h **** #define LL_TIM_DIER_CC4IE                      TIM_DIER_CC4IE       /*!< Capture/compare 4 interrup
 531:Drivers/STM32F1xx_HAL_Driver/Inc/stm32f1xx_ll_tim.h **** #define LL_TIM_DIER_COMIE                      TIM_DIER_COMIE       /*!< COM interrupt enable */
 532:Drivers/STM32F1xx_HAL_Driver/Inc/stm32f1xx_ll_tim.h **** #define LL_TIM_DIER_TIE                        TIM_DIER_TIE         /*!< Trigger interrupt enable *
 533:Drivers/STM32F1xx_HAL_Driver/Inc/stm32f1xx_ll_tim.h **** #define LL_TIM_DIER_BIE                        TIM_DIER_BIE         /*!< Break interrupt enable */
 534:Drivers/STM32F1xx_HAL_Driver/Inc/stm32f1xx_ll_tim.h **** /**
 535:Drivers/STM32F1xx_HAL_Driver/Inc/stm32f1xx_ll_tim.h ****   * @}
 536:Drivers/STM32F1xx_HAL_Driver/Inc/stm32f1xx_ll_tim.h ****   */
 537:Drivers/STM32F1xx_HAL_Driver/Inc/stm32f1xx_ll_tim.h **** 
 538:Drivers/STM32F1xx_HAL_Driver/Inc/stm32f1xx_ll_tim.h **** /** @defgroup TIM_LL_EC_UPDATESOURCE Update Source
 539:Drivers/STM32F1xx_HAL_Driver/Inc/stm32f1xx_ll_tim.h ****   * @{
 540:Drivers/STM32F1xx_HAL_Driver/Inc/stm32f1xx_ll_tim.h ****   */
 541:Drivers/STM32F1xx_HAL_Driver/Inc/stm32f1xx_ll_tim.h **** #define LL_TIM_UPDATESOURCE_REGULAR            0x00000000U          /*!< Counter overflow/underflow
 542:Drivers/STM32F1xx_HAL_Driver/Inc/stm32f1xx_ll_tim.h **** #define LL_TIM_UPDATESOURCE_COUNTER            TIM_CR1_URS          /*!< Only counter overflow/unde
 543:Drivers/STM32F1xx_HAL_Driver/Inc/stm32f1xx_ll_tim.h **** /**
 544:Drivers/STM32F1xx_HAL_Driver/Inc/stm32f1xx_ll_tim.h ****   * @}
 545:Drivers/STM32F1xx_HAL_Driver/Inc/stm32f1xx_ll_tim.h ****   */
 546:Drivers/STM32F1xx_HAL_Driver/Inc/stm32f1xx_ll_tim.h **** 
 547:Drivers/STM32F1xx_HAL_Driver/Inc/stm32f1xx_ll_tim.h **** /** @defgroup TIM_LL_EC_ONEPULSEMODE One Pulse Mode
 548:Drivers/STM32F1xx_HAL_Driver/Inc/stm32f1xx_ll_tim.h ****   * @{
 549:Drivers/STM32F1xx_HAL_Driver/Inc/stm32f1xx_ll_tim.h ****   */
 550:Drivers/STM32F1xx_HAL_Driver/Inc/stm32f1xx_ll_tim.h **** #define LL_TIM_ONEPULSEMODE_SINGLE             TIM_CR1_OPM          /*!< Counter stops counting at 
 551:Drivers/STM32F1xx_HAL_Driver/Inc/stm32f1xx_ll_tim.h **** #define LL_TIM_ONEPULSEMODE_REPETITIVE         0x00000000U          /*!< Counter is not stopped at 
 552:Drivers/STM32F1xx_HAL_Driver/Inc/stm32f1xx_ll_tim.h **** /**
 553:Drivers/STM32F1xx_HAL_Driver/Inc/stm32f1xx_ll_tim.h ****   * @}
 554:Drivers/STM32F1xx_HAL_Driver/Inc/stm32f1xx_ll_tim.h ****   */
 555:Drivers/STM32F1xx_HAL_Driver/Inc/stm32f1xx_ll_tim.h **** 
 556:Drivers/STM32F1xx_HAL_Driver/Inc/stm32f1xx_ll_tim.h **** /** @defgroup TIM_LL_EC_COUNTERMODE Counter Mode
 557:Drivers/STM32F1xx_HAL_Driver/Inc/stm32f1xx_ll_tim.h ****   * @{
 558:Drivers/STM32F1xx_HAL_Driver/Inc/stm32f1xx_ll_tim.h ****   */
 559:Drivers/STM32F1xx_HAL_Driver/Inc/stm32f1xx_ll_tim.h **** #define LL_TIM_COUNTERMODE_UP                  0x00000000U          /*!<Counter used as upcounter *
 560:Drivers/STM32F1xx_HAL_Driver/Inc/stm32f1xx_ll_tim.h **** #define LL_TIM_COUNTERMODE_DOWN                TIM_CR1_DIR          /*!< Counter used as downcounte
 561:Drivers/STM32F1xx_HAL_Driver/Inc/stm32f1xx_ll_tim.h **** #define LL_TIM_COUNTERMODE_CENTER_DOWN         TIM_CR1_CMS_0        /*!< The counter counts up and 
 562:Drivers/STM32F1xx_HAL_Driver/Inc/stm32f1xx_ll_tim.h **** #define LL_TIM_COUNTERMODE_CENTER_UP           TIM_CR1_CMS_1        /*!<The counter counts up and d
 563:Drivers/STM32F1xx_HAL_Driver/Inc/stm32f1xx_ll_tim.h **** #define LL_TIM_COUNTERMODE_CENTER_UP_DOWN      TIM_CR1_CMS          /*!< The counter counts up and 
 564:Drivers/STM32F1xx_HAL_Driver/Inc/stm32f1xx_ll_tim.h **** /**
 565:Drivers/STM32F1xx_HAL_Driver/Inc/stm32f1xx_ll_tim.h ****   * @}
 566:Drivers/STM32F1xx_HAL_Driver/Inc/stm32f1xx_ll_tim.h ****   */
 567:Drivers/STM32F1xx_HAL_Driver/Inc/stm32f1xx_ll_tim.h **** 
 568:Drivers/STM32F1xx_HAL_Driver/Inc/stm32f1xx_ll_tim.h **** /** @defgroup TIM_LL_EC_CLOCKDIVISION Clock Division
 569:Drivers/STM32F1xx_HAL_Driver/Inc/stm32f1xx_ll_tim.h ****   * @{
 570:Drivers/STM32F1xx_HAL_Driver/Inc/stm32f1xx_ll_tim.h ****   */
 571:Drivers/STM32F1xx_HAL_Driver/Inc/stm32f1xx_ll_tim.h **** #define LL_TIM_CLOCKDIVISION_DIV1              0x00000000U          /*!< tDTS=tCK_INT */
 572:Drivers/STM32F1xx_HAL_Driver/Inc/stm32f1xx_ll_tim.h **** #define LL_TIM_CLOCKDIVISION_DIV2              TIM_CR1_CKD_0        /*!< tDTS=2*tCK_INT */
 573:Drivers/STM32F1xx_HAL_Driver/Inc/stm32f1xx_ll_tim.h **** #define LL_TIM_CLOCKDIVISION_DIV4              TIM_CR1_CKD_1        /*!< tDTS=4*tCK_INT */
ARM GAS  /tmp/ccdg0XkI.s 			page 33


 574:Drivers/STM32F1xx_HAL_Driver/Inc/stm32f1xx_ll_tim.h **** /**
 575:Drivers/STM32F1xx_HAL_Driver/Inc/stm32f1xx_ll_tim.h ****   * @}
 576:Drivers/STM32F1xx_HAL_Driver/Inc/stm32f1xx_ll_tim.h ****   */
 577:Drivers/STM32F1xx_HAL_Driver/Inc/stm32f1xx_ll_tim.h **** 
 578:Drivers/STM32F1xx_HAL_Driver/Inc/stm32f1xx_ll_tim.h **** /** @defgroup TIM_LL_EC_COUNTERDIRECTION Counter Direction
 579:Drivers/STM32F1xx_HAL_Driver/Inc/stm32f1xx_ll_tim.h ****   * @{
 580:Drivers/STM32F1xx_HAL_Driver/Inc/stm32f1xx_ll_tim.h ****   */
 581:Drivers/STM32F1xx_HAL_Driver/Inc/stm32f1xx_ll_tim.h **** #define LL_TIM_COUNTERDIRECTION_UP             0x00000000U          /*!< Timer counter counts up */
 582:Drivers/STM32F1xx_HAL_Driver/Inc/stm32f1xx_ll_tim.h **** #define LL_TIM_COUNTERDIRECTION_DOWN           TIM_CR1_DIR          /*!< Timer counter counts down 
 583:Drivers/STM32F1xx_HAL_Driver/Inc/stm32f1xx_ll_tim.h **** /**
 584:Drivers/STM32F1xx_HAL_Driver/Inc/stm32f1xx_ll_tim.h ****   * @}
 585:Drivers/STM32F1xx_HAL_Driver/Inc/stm32f1xx_ll_tim.h ****   */
 586:Drivers/STM32F1xx_HAL_Driver/Inc/stm32f1xx_ll_tim.h **** 
 587:Drivers/STM32F1xx_HAL_Driver/Inc/stm32f1xx_ll_tim.h **** /** @defgroup TIM_LL_EC_CCUPDATESOURCE Capture Compare  Update Source
 588:Drivers/STM32F1xx_HAL_Driver/Inc/stm32f1xx_ll_tim.h ****   * @{
 589:Drivers/STM32F1xx_HAL_Driver/Inc/stm32f1xx_ll_tim.h ****   */
 590:Drivers/STM32F1xx_HAL_Driver/Inc/stm32f1xx_ll_tim.h **** #define LL_TIM_CCUPDATESOURCE_COMG_ONLY        0x00000000U          /*!< Capture/compare control bi
 591:Drivers/STM32F1xx_HAL_Driver/Inc/stm32f1xx_ll_tim.h **** #define LL_TIM_CCUPDATESOURCE_COMG_AND_TRGI    TIM_CR2_CCUS         /*!< Capture/compare control bi
 592:Drivers/STM32F1xx_HAL_Driver/Inc/stm32f1xx_ll_tim.h **** /**
 593:Drivers/STM32F1xx_HAL_Driver/Inc/stm32f1xx_ll_tim.h ****   * @}
 594:Drivers/STM32F1xx_HAL_Driver/Inc/stm32f1xx_ll_tim.h ****   */
 595:Drivers/STM32F1xx_HAL_Driver/Inc/stm32f1xx_ll_tim.h **** 
 596:Drivers/STM32F1xx_HAL_Driver/Inc/stm32f1xx_ll_tim.h **** /** @defgroup TIM_LL_EC_CCDMAREQUEST Capture Compare DMA Request
 597:Drivers/STM32F1xx_HAL_Driver/Inc/stm32f1xx_ll_tim.h ****   * @{
 598:Drivers/STM32F1xx_HAL_Driver/Inc/stm32f1xx_ll_tim.h ****   */
 599:Drivers/STM32F1xx_HAL_Driver/Inc/stm32f1xx_ll_tim.h **** #define LL_TIM_CCDMAREQUEST_CC                 0x00000000U          /*!< CCx DMA request sent when 
 600:Drivers/STM32F1xx_HAL_Driver/Inc/stm32f1xx_ll_tim.h **** #define LL_TIM_CCDMAREQUEST_UPDATE             TIM_CR2_CCDS         /*!< CCx DMA requests sent when
 601:Drivers/STM32F1xx_HAL_Driver/Inc/stm32f1xx_ll_tim.h **** /**
 602:Drivers/STM32F1xx_HAL_Driver/Inc/stm32f1xx_ll_tim.h ****   * @}
 603:Drivers/STM32F1xx_HAL_Driver/Inc/stm32f1xx_ll_tim.h ****   */
 604:Drivers/STM32F1xx_HAL_Driver/Inc/stm32f1xx_ll_tim.h **** 
 605:Drivers/STM32F1xx_HAL_Driver/Inc/stm32f1xx_ll_tim.h **** /** @defgroup TIM_LL_EC_LOCKLEVEL Lock Level
 606:Drivers/STM32F1xx_HAL_Driver/Inc/stm32f1xx_ll_tim.h ****   * @{
 607:Drivers/STM32F1xx_HAL_Driver/Inc/stm32f1xx_ll_tim.h ****   */
 608:Drivers/STM32F1xx_HAL_Driver/Inc/stm32f1xx_ll_tim.h **** #define LL_TIM_LOCKLEVEL_OFF                   0x00000000U          /*!< LOCK OFF - No bit is write
 609:Drivers/STM32F1xx_HAL_Driver/Inc/stm32f1xx_ll_tim.h **** #define LL_TIM_LOCKLEVEL_1                     TIM_BDTR_LOCK_0      /*!< LOCK Level 1 */
 610:Drivers/STM32F1xx_HAL_Driver/Inc/stm32f1xx_ll_tim.h **** #define LL_TIM_LOCKLEVEL_2                     TIM_BDTR_LOCK_1      /*!< LOCK Level 2 */
 611:Drivers/STM32F1xx_HAL_Driver/Inc/stm32f1xx_ll_tim.h **** #define LL_TIM_LOCKLEVEL_3                     TIM_BDTR_LOCK        /*!< LOCK Level 3 */
 612:Drivers/STM32F1xx_HAL_Driver/Inc/stm32f1xx_ll_tim.h **** /**
 613:Drivers/STM32F1xx_HAL_Driver/Inc/stm32f1xx_ll_tim.h ****   * @}
 614:Drivers/STM32F1xx_HAL_Driver/Inc/stm32f1xx_ll_tim.h ****   */
 615:Drivers/STM32F1xx_HAL_Driver/Inc/stm32f1xx_ll_tim.h **** 
 616:Drivers/STM32F1xx_HAL_Driver/Inc/stm32f1xx_ll_tim.h **** /** @defgroup TIM_LL_EC_CHANNEL Channel
 617:Drivers/STM32F1xx_HAL_Driver/Inc/stm32f1xx_ll_tim.h ****   * @{
 618:Drivers/STM32F1xx_HAL_Driver/Inc/stm32f1xx_ll_tim.h ****   */
 619:Drivers/STM32F1xx_HAL_Driver/Inc/stm32f1xx_ll_tim.h **** #define LL_TIM_CHANNEL_CH1                     TIM_CCER_CC1E     /*!< Timer input/output channel 1 
 620:Drivers/STM32F1xx_HAL_Driver/Inc/stm32f1xx_ll_tim.h **** #define LL_TIM_CHANNEL_CH1N                    TIM_CCER_CC1NE    /*!< Timer complementary output ch
 621:Drivers/STM32F1xx_HAL_Driver/Inc/stm32f1xx_ll_tim.h **** #define LL_TIM_CHANNEL_CH2                     TIM_CCER_CC2E     /*!< Timer input/output channel 2 
 622:Drivers/STM32F1xx_HAL_Driver/Inc/stm32f1xx_ll_tim.h **** #define LL_TIM_CHANNEL_CH2N                    TIM_CCER_CC2NE    /*!< Timer complementary output ch
 623:Drivers/STM32F1xx_HAL_Driver/Inc/stm32f1xx_ll_tim.h **** #define LL_TIM_CHANNEL_CH3                     TIM_CCER_CC3E     /*!< Timer input/output channel 3 
 624:Drivers/STM32F1xx_HAL_Driver/Inc/stm32f1xx_ll_tim.h **** #define LL_TIM_CHANNEL_CH3N                    TIM_CCER_CC3NE    /*!< Timer complementary output ch
 625:Drivers/STM32F1xx_HAL_Driver/Inc/stm32f1xx_ll_tim.h **** #define LL_TIM_CHANNEL_CH4                     TIM_CCER_CC4E     /*!< Timer input/output channel 4 
 626:Drivers/STM32F1xx_HAL_Driver/Inc/stm32f1xx_ll_tim.h **** /**
 627:Drivers/STM32F1xx_HAL_Driver/Inc/stm32f1xx_ll_tim.h ****   * @}
 628:Drivers/STM32F1xx_HAL_Driver/Inc/stm32f1xx_ll_tim.h ****   */
 629:Drivers/STM32F1xx_HAL_Driver/Inc/stm32f1xx_ll_tim.h **** 
 630:Drivers/STM32F1xx_HAL_Driver/Inc/stm32f1xx_ll_tim.h **** #if defined(USE_FULL_LL_DRIVER)
ARM GAS  /tmp/ccdg0XkI.s 			page 34


 631:Drivers/STM32F1xx_HAL_Driver/Inc/stm32f1xx_ll_tim.h **** /** @defgroup TIM_LL_EC_OCSTATE Output Configuration State
 632:Drivers/STM32F1xx_HAL_Driver/Inc/stm32f1xx_ll_tim.h ****   * @{
 633:Drivers/STM32F1xx_HAL_Driver/Inc/stm32f1xx_ll_tim.h ****   */
 634:Drivers/STM32F1xx_HAL_Driver/Inc/stm32f1xx_ll_tim.h **** #define LL_TIM_OCSTATE_DISABLE                 0x00000000U             /*!< OCx is not active */
 635:Drivers/STM32F1xx_HAL_Driver/Inc/stm32f1xx_ll_tim.h **** #define LL_TIM_OCSTATE_ENABLE                  TIM_CCER_CC1E           /*!< OCx signal is output on
 636:Drivers/STM32F1xx_HAL_Driver/Inc/stm32f1xx_ll_tim.h **** /**
 637:Drivers/STM32F1xx_HAL_Driver/Inc/stm32f1xx_ll_tim.h ****   * @}
 638:Drivers/STM32F1xx_HAL_Driver/Inc/stm32f1xx_ll_tim.h ****   */
 639:Drivers/STM32F1xx_HAL_Driver/Inc/stm32f1xx_ll_tim.h **** #endif /* USE_FULL_LL_DRIVER */
 640:Drivers/STM32F1xx_HAL_Driver/Inc/stm32f1xx_ll_tim.h **** 
 641:Drivers/STM32F1xx_HAL_Driver/Inc/stm32f1xx_ll_tim.h **** /** @defgroup TIM_LL_EC_OCMODE Output Configuration Mode
 642:Drivers/STM32F1xx_HAL_Driver/Inc/stm32f1xx_ll_tim.h ****   * @{
 643:Drivers/STM32F1xx_HAL_Driver/Inc/stm32f1xx_ll_tim.h ****   */
 644:Drivers/STM32F1xx_HAL_Driver/Inc/stm32f1xx_ll_tim.h **** #define LL_TIM_OCMODE_FROZEN                   0x00000000U                                         
 645:Drivers/STM32F1xx_HAL_Driver/Inc/stm32f1xx_ll_tim.h **** #define LL_TIM_OCMODE_ACTIVE                   TIM_CCMR1_OC1M_0                                    
 646:Drivers/STM32F1xx_HAL_Driver/Inc/stm32f1xx_ll_tim.h **** #define LL_TIM_OCMODE_INACTIVE                 TIM_CCMR1_OC1M_1                                    
 647:Drivers/STM32F1xx_HAL_Driver/Inc/stm32f1xx_ll_tim.h **** #define LL_TIM_OCMODE_TOGGLE                   (TIM_CCMR1_OC1M_1 | TIM_CCMR1_OC1M_0)               
 648:Drivers/STM32F1xx_HAL_Driver/Inc/stm32f1xx_ll_tim.h **** #define LL_TIM_OCMODE_FORCED_INACTIVE          TIM_CCMR1_OC1M_2                                    
 649:Drivers/STM32F1xx_HAL_Driver/Inc/stm32f1xx_ll_tim.h **** #define LL_TIM_OCMODE_FORCED_ACTIVE            (TIM_CCMR1_OC1M_2 | TIM_CCMR1_OC1M_0)               
 650:Drivers/STM32F1xx_HAL_Driver/Inc/stm32f1xx_ll_tim.h **** #define LL_TIM_OCMODE_PWM1                     (TIM_CCMR1_OC1M_2 | TIM_CCMR1_OC1M_1)               
 651:Drivers/STM32F1xx_HAL_Driver/Inc/stm32f1xx_ll_tim.h **** #define LL_TIM_OCMODE_PWM2                     (TIM_CCMR1_OC1M_2 | TIM_CCMR1_OC1M_1 | TIM_CCMR1_OC1
 652:Drivers/STM32F1xx_HAL_Driver/Inc/stm32f1xx_ll_tim.h **** /**
 653:Drivers/STM32F1xx_HAL_Driver/Inc/stm32f1xx_ll_tim.h ****   * @}
 654:Drivers/STM32F1xx_HAL_Driver/Inc/stm32f1xx_ll_tim.h ****   */
 655:Drivers/STM32F1xx_HAL_Driver/Inc/stm32f1xx_ll_tim.h **** 
 656:Drivers/STM32F1xx_HAL_Driver/Inc/stm32f1xx_ll_tim.h **** /** @defgroup TIM_LL_EC_OCPOLARITY Output Configuration Polarity
 657:Drivers/STM32F1xx_HAL_Driver/Inc/stm32f1xx_ll_tim.h ****   * @{
 658:Drivers/STM32F1xx_HAL_Driver/Inc/stm32f1xx_ll_tim.h ****   */
 659:Drivers/STM32F1xx_HAL_Driver/Inc/stm32f1xx_ll_tim.h **** #define LL_TIM_OCPOLARITY_HIGH                 0x00000000U                 /*!< OCxactive high*/
 660:Drivers/STM32F1xx_HAL_Driver/Inc/stm32f1xx_ll_tim.h **** #define LL_TIM_OCPOLARITY_LOW                  TIM_CCER_CC1P               /*!< OCxactive low*/
 661:Drivers/STM32F1xx_HAL_Driver/Inc/stm32f1xx_ll_tim.h **** /**
 662:Drivers/STM32F1xx_HAL_Driver/Inc/stm32f1xx_ll_tim.h ****   * @}
 663:Drivers/STM32F1xx_HAL_Driver/Inc/stm32f1xx_ll_tim.h ****   */
 664:Drivers/STM32F1xx_HAL_Driver/Inc/stm32f1xx_ll_tim.h **** 
 665:Drivers/STM32F1xx_HAL_Driver/Inc/stm32f1xx_ll_tim.h **** /** @defgroup TIM_LL_EC_OCIDLESTATE Output Configuration Idle State
 666:Drivers/STM32F1xx_HAL_Driver/Inc/stm32f1xx_ll_tim.h ****   * @{
 667:Drivers/STM32F1xx_HAL_Driver/Inc/stm32f1xx_ll_tim.h ****   */
 668:Drivers/STM32F1xx_HAL_Driver/Inc/stm32f1xx_ll_tim.h **** #define LL_TIM_OCIDLESTATE_LOW                 0x00000000U             /*!<OCx=0 (after a dead-time
 669:Drivers/STM32F1xx_HAL_Driver/Inc/stm32f1xx_ll_tim.h **** #define LL_TIM_OCIDLESTATE_HIGH                TIM_CR2_OIS1            /*!<OCx=1 (after a dead-time
 670:Drivers/STM32F1xx_HAL_Driver/Inc/stm32f1xx_ll_tim.h **** /**
 671:Drivers/STM32F1xx_HAL_Driver/Inc/stm32f1xx_ll_tim.h ****   * @}
 672:Drivers/STM32F1xx_HAL_Driver/Inc/stm32f1xx_ll_tim.h ****   */
 673:Drivers/STM32F1xx_HAL_Driver/Inc/stm32f1xx_ll_tim.h **** 
 674:Drivers/STM32F1xx_HAL_Driver/Inc/stm32f1xx_ll_tim.h **** 
 675:Drivers/STM32F1xx_HAL_Driver/Inc/stm32f1xx_ll_tim.h **** /** @defgroup TIM_LL_EC_ACTIVEINPUT Active Input Selection
 676:Drivers/STM32F1xx_HAL_Driver/Inc/stm32f1xx_ll_tim.h ****   * @{
 677:Drivers/STM32F1xx_HAL_Driver/Inc/stm32f1xx_ll_tim.h ****   */
 678:Drivers/STM32F1xx_HAL_Driver/Inc/stm32f1xx_ll_tim.h **** #define LL_TIM_ACTIVEINPUT_DIRECTTI            (TIM_CCMR1_CC1S_0 << 16U) /*!< ICx is mapped on TIx 
 679:Drivers/STM32F1xx_HAL_Driver/Inc/stm32f1xx_ll_tim.h **** #define LL_TIM_ACTIVEINPUT_INDIRECTTI          (TIM_CCMR1_CC1S_1 << 16U) /*!< ICx is mapped on TIy 
 680:Drivers/STM32F1xx_HAL_Driver/Inc/stm32f1xx_ll_tim.h **** #define LL_TIM_ACTIVEINPUT_TRC                 (TIM_CCMR1_CC1S << 16U)   /*!< ICx is mapped on TRC 
 681:Drivers/STM32F1xx_HAL_Driver/Inc/stm32f1xx_ll_tim.h **** /**
 682:Drivers/STM32F1xx_HAL_Driver/Inc/stm32f1xx_ll_tim.h ****   * @}
 683:Drivers/STM32F1xx_HAL_Driver/Inc/stm32f1xx_ll_tim.h ****   */
 684:Drivers/STM32F1xx_HAL_Driver/Inc/stm32f1xx_ll_tim.h **** 
 685:Drivers/STM32F1xx_HAL_Driver/Inc/stm32f1xx_ll_tim.h **** /** @defgroup TIM_LL_EC_ICPSC Input Configuration Prescaler
 686:Drivers/STM32F1xx_HAL_Driver/Inc/stm32f1xx_ll_tim.h ****   * @{
 687:Drivers/STM32F1xx_HAL_Driver/Inc/stm32f1xx_ll_tim.h ****   */
ARM GAS  /tmp/ccdg0XkI.s 			page 35


 688:Drivers/STM32F1xx_HAL_Driver/Inc/stm32f1xx_ll_tim.h **** #define LL_TIM_ICPSC_DIV1                      0x00000000U                    /*!< No prescaler, ca
 689:Drivers/STM32F1xx_HAL_Driver/Inc/stm32f1xx_ll_tim.h **** #define LL_TIM_ICPSC_DIV2                      (TIM_CCMR1_IC1PSC_0 << 16U)    /*!< Capture is done 
 690:Drivers/STM32F1xx_HAL_Driver/Inc/stm32f1xx_ll_tim.h **** #define LL_TIM_ICPSC_DIV4                      (TIM_CCMR1_IC1PSC_1 << 16U)    /*!< Capture is done 
 691:Drivers/STM32F1xx_HAL_Driver/Inc/stm32f1xx_ll_tim.h **** #define LL_TIM_ICPSC_DIV8                      (TIM_CCMR1_IC1PSC << 16U)      /*!< Capture is done 
 692:Drivers/STM32F1xx_HAL_Driver/Inc/stm32f1xx_ll_tim.h **** /**
 693:Drivers/STM32F1xx_HAL_Driver/Inc/stm32f1xx_ll_tim.h ****   * @}
 694:Drivers/STM32F1xx_HAL_Driver/Inc/stm32f1xx_ll_tim.h ****   */
 695:Drivers/STM32F1xx_HAL_Driver/Inc/stm32f1xx_ll_tim.h **** 
 696:Drivers/STM32F1xx_HAL_Driver/Inc/stm32f1xx_ll_tim.h **** /** @defgroup TIM_LL_EC_IC_FILTER Input Configuration Filter
 697:Drivers/STM32F1xx_HAL_Driver/Inc/stm32f1xx_ll_tim.h ****   * @{
 698:Drivers/STM32F1xx_HAL_Driver/Inc/stm32f1xx_ll_tim.h ****   */
 699:Drivers/STM32F1xx_HAL_Driver/Inc/stm32f1xx_ll_tim.h **** #define LL_TIM_IC_FILTER_FDIV1                 0x00000000U                                         
 700:Drivers/STM32F1xx_HAL_Driver/Inc/stm32f1xx_ll_tim.h **** #define LL_TIM_IC_FILTER_FDIV1_N2              (TIM_CCMR1_IC1F_0 << 16U)                           
 701:Drivers/STM32F1xx_HAL_Driver/Inc/stm32f1xx_ll_tim.h **** #define LL_TIM_IC_FILTER_FDIV1_N4              (TIM_CCMR1_IC1F_1 << 16U)                           
 702:Drivers/STM32F1xx_HAL_Driver/Inc/stm32f1xx_ll_tim.h **** #define LL_TIM_IC_FILTER_FDIV1_N8              ((TIM_CCMR1_IC1F_1 | TIM_CCMR1_IC1F_0) << 16U)      
 703:Drivers/STM32F1xx_HAL_Driver/Inc/stm32f1xx_ll_tim.h **** #define LL_TIM_IC_FILTER_FDIV2_N6              (TIM_CCMR1_IC1F_2 << 16U)                           
 704:Drivers/STM32F1xx_HAL_Driver/Inc/stm32f1xx_ll_tim.h **** #define LL_TIM_IC_FILTER_FDIV2_N8              ((TIM_CCMR1_IC1F_2 | TIM_CCMR1_IC1F_0) << 16U)      
 705:Drivers/STM32F1xx_HAL_Driver/Inc/stm32f1xx_ll_tim.h **** #define LL_TIM_IC_FILTER_FDIV4_N6              ((TIM_CCMR1_IC1F_2 | TIM_CCMR1_IC1F_1) << 16U)      
 706:Drivers/STM32F1xx_HAL_Driver/Inc/stm32f1xx_ll_tim.h **** #define LL_TIM_IC_FILTER_FDIV4_N8              ((TIM_CCMR1_IC1F_2 | TIM_CCMR1_IC1F_1 | TIM_CCMR1_IC
 707:Drivers/STM32F1xx_HAL_Driver/Inc/stm32f1xx_ll_tim.h **** #define LL_TIM_IC_FILTER_FDIV8_N6              (TIM_CCMR1_IC1F_3 << 16U)                           
 708:Drivers/STM32F1xx_HAL_Driver/Inc/stm32f1xx_ll_tim.h **** #define LL_TIM_IC_FILTER_FDIV8_N8              ((TIM_CCMR1_IC1F_3 | TIM_CCMR1_IC1F_0) << 16U)      
 709:Drivers/STM32F1xx_HAL_Driver/Inc/stm32f1xx_ll_tim.h **** #define LL_TIM_IC_FILTER_FDIV16_N5             ((TIM_CCMR1_IC1F_3 | TIM_CCMR1_IC1F_1) << 16U)      
 710:Drivers/STM32F1xx_HAL_Driver/Inc/stm32f1xx_ll_tim.h **** #define LL_TIM_IC_FILTER_FDIV16_N6             ((TIM_CCMR1_IC1F_3 | TIM_CCMR1_IC1F_1 | TIM_CCMR1_IC
 711:Drivers/STM32F1xx_HAL_Driver/Inc/stm32f1xx_ll_tim.h **** #define LL_TIM_IC_FILTER_FDIV16_N8             ((TIM_CCMR1_IC1F_3 | TIM_CCMR1_IC1F_2) << 16U)      
 712:Drivers/STM32F1xx_HAL_Driver/Inc/stm32f1xx_ll_tim.h **** #define LL_TIM_IC_FILTER_FDIV32_N5             ((TIM_CCMR1_IC1F_3 | TIM_CCMR1_IC1F_2 | TIM_CCMR1_IC
 713:Drivers/STM32F1xx_HAL_Driver/Inc/stm32f1xx_ll_tim.h **** #define LL_TIM_IC_FILTER_FDIV32_N6             ((TIM_CCMR1_IC1F_3 | TIM_CCMR1_IC1F_2 | TIM_CCMR1_IC
 714:Drivers/STM32F1xx_HAL_Driver/Inc/stm32f1xx_ll_tim.h **** #define LL_TIM_IC_FILTER_FDIV32_N8             (TIM_CCMR1_IC1F << 16U)                             
 715:Drivers/STM32F1xx_HAL_Driver/Inc/stm32f1xx_ll_tim.h **** /**
 716:Drivers/STM32F1xx_HAL_Driver/Inc/stm32f1xx_ll_tim.h ****   * @}
 717:Drivers/STM32F1xx_HAL_Driver/Inc/stm32f1xx_ll_tim.h ****   */
 718:Drivers/STM32F1xx_HAL_Driver/Inc/stm32f1xx_ll_tim.h **** 
 719:Drivers/STM32F1xx_HAL_Driver/Inc/stm32f1xx_ll_tim.h **** /** @defgroup TIM_LL_EC_IC_POLARITY Input Configuration Polarity
 720:Drivers/STM32F1xx_HAL_Driver/Inc/stm32f1xx_ll_tim.h ****   * @{
 721:Drivers/STM32F1xx_HAL_Driver/Inc/stm32f1xx_ll_tim.h ****   */
 722:Drivers/STM32F1xx_HAL_Driver/Inc/stm32f1xx_ll_tim.h **** #define LL_TIM_IC_POLARITY_RISING              0x00000000U                      /*!< The circuit is
 723:Drivers/STM32F1xx_HAL_Driver/Inc/stm32f1xx_ll_tim.h **** #define LL_TIM_IC_POLARITY_FALLING             TIM_CCER_CC1P                    /*!< The circuit is
 724:Drivers/STM32F1xx_HAL_Driver/Inc/stm32f1xx_ll_tim.h **** /**
 725:Drivers/STM32F1xx_HAL_Driver/Inc/stm32f1xx_ll_tim.h ****   * @}
 726:Drivers/STM32F1xx_HAL_Driver/Inc/stm32f1xx_ll_tim.h ****   */
 727:Drivers/STM32F1xx_HAL_Driver/Inc/stm32f1xx_ll_tim.h **** 
 728:Drivers/STM32F1xx_HAL_Driver/Inc/stm32f1xx_ll_tim.h **** /** @defgroup TIM_LL_EC_CLOCKSOURCE Clock Source
 729:Drivers/STM32F1xx_HAL_Driver/Inc/stm32f1xx_ll_tim.h ****   * @{
 730:Drivers/STM32F1xx_HAL_Driver/Inc/stm32f1xx_ll_tim.h ****   */
 731:Drivers/STM32F1xx_HAL_Driver/Inc/stm32f1xx_ll_tim.h **** #define LL_TIM_CLOCKSOURCE_INTERNAL            0x00000000U                                         
 732:Drivers/STM32F1xx_HAL_Driver/Inc/stm32f1xx_ll_tim.h **** #define LL_TIM_CLOCKSOURCE_EXT_MODE1           (TIM_SMCR_SMS_2 | TIM_SMCR_SMS_1 | TIM_SMCR_SMS_0)  
 733:Drivers/STM32F1xx_HAL_Driver/Inc/stm32f1xx_ll_tim.h **** #define LL_TIM_CLOCKSOURCE_EXT_MODE2           TIM_SMCR_ECE                                        
 734:Drivers/STM32F1xx_HAL_Driver/Inc/stm32f1xx_ll_tim.h **** /**
 735:Drivers/STM32F1xx_HAL_Driver/Inc/stm32f1xx_ll_tim.h ****   * @}
 736:Drivers/STM32F1xx_HAL_Driver/Inc/stm32f1xx_ll_tim.h ****   */
 737:Drivers/STM32F1xx_HAL_Driver/Inc/stm32f1xx_ll_tim.h **** 
 738:Drivers/STM32F1xx_HAL_Driver/Inc/stm32f1xx_ll_tim.h **** /** @defgroup TIM_LL_EC_ENCODERMODE Encoder Mode
 739:Drivers/STM32F1xx_HAL_Driver/Inc/stm32f1xx_ll_tim.h ****   * @{
 740:Drivers/STM32F1xx_HAL_Driver/Inc/stm32f1xx_ll_tim.h ****   */
 741:Drivers/STM32F1xx_HAL_Driver/Inc/stm32f1xx_ll_tim.h **** #define LL_TIM_ENCODERMODE_X2_TI1                     TIM_SMCR_SMS_0                               
 742:Drivers/STM32F1xx_HAL_Driver/Inc/stm32f1xx_ll_tim.h **** #define LL_TIM_ENCODERMODE_X2_TI2                     TIM_SMCR_SMS_1                               
 743:Drivers/STM32F1xx_HAL_Driver/Inc/stm32f1xx_ll_tim.h **** #define LL_TIM_ENCODERMODE_X4_TI12                   (TIM_SMCR_SMS_1 | TIM_SMCR_SMS_0)             
 744:Drivers/STM32F1xx_HAL_Driver/Inc/stm32f1xx_ll_tim.h **** /**
ARM GAS  /tmp/ccdg0XkI.s 			page 36


 745:Drivers/STM32F1xx_HAL_Driver/Inc/stm32f1xx_ll_tim.h ****   * @}
 746:Drivers/STM32F1xx_HAL_Driver/Inc/stm32f1xx_ll_tim.h ****   */
 747:Drivers/STM32F1xx_HAL_Driver/Inc/stm32f1xx_ll_tim.h **** 
 748:Drivers/STM32F1xx_HAL_Driver/Inc/stm32f1xx_ll_tim.h **** /** @defgroup TIM_LL_EC_TRGO Trigger Output
 749:Drivers/STM32F1xx_HAL_Driver/Inc/stm32f1xx_ll_tim.h ****   * @{
 750:Drivers/STM32F1xx_HAL_Driver/Inc/stm32f1xx_ll_tim.h ****   */
 751:Drivers/STM32F1xx_HAL_Driver/Inc/stm32f1xx_ll_tim.h **** #define LL_TIM_TRGO_RESET                      0x00000000U                                     /*!<
 752:Drivers/STM32F1xx_HAL_Driver/Inc/stm32f1xx_ll_tim.h **** #define LL_TIM_TRGO_ENABLE                     TIM_CR2_MMS_0                                   /*!<
 753:Drivers/STM32F1xx_HAL_Driver/Inc/stm32f1xx_ll_tim.h **** #define LL_TIM_TRGO_UPDATE                     TIM_CR2_MMS_1                                   /*!<
 754:Drivers/STM32F1xx_HAL_Driver/Inc/stm32f1xx_ll_tim.h **** #define LL_TIM_TRGO_CC1IF                      (TIM_CR2_MMS_1 | TIM_CR2_MMS_0)                 /*!<
 755:Drivers/STM32F1xx_HAL_Driver/Inc/stm32f1xx_ll_tim.h **** #define LL_TIM_TRGO_OC1REF                     TIM_CR2_MMS_2                                   /*!<
 756:Drivers/STM32F1xx_HAL_Driver/Inc/stm32f1xx_ll_tim.h **** #define LL_TIM_TRGO_OC2REF                     (TIM_CR2_MMS_2 | TIM_CR2_MMS_0)                 /*!<
 757:Drivers/STM32F1xx_HAL_Driver/Inc/stm32f1xx_ll_tim.h **** #define LL_TIM_TRGO_OC3REF                     (TIM_CR2_MMS_2 | TIM_CR2_MMS_1)                 /*!<
 758:Drivers/STM32F1xx_HAL_Driver/Inc/stm32f1xx_ll_tim.h **** #define LL_TIM_TRGO_OC4REF                     (TIM_CR2_MMS_2 | TIM_CR2_MMS_1 | TIM_CR2_MMS_0) /*!<
 759:Drivers/STM32F1xx_HAL_Driver/Inc/stm32f1xx_ll_tim.h **** /**
 760:Drivers/STM32F1xx_HAL_Driver/Inc/stm32f1xx_ll_tim.h ****   * @}
 761:Drivers/STM32F1xx_HAL_Driver/Inc/stm32f1xx_ll_tim.h ****   */
 762:Drivers/STM32F1xx_HAL_Driver/Inc/stm32f1xx_ll_tim.h **** 
 763:Drivers/STM32F1xx_HAL_Driver/Inc/stm32f1xx_ll_tim.h **** 
 764:Drivers/STM32F1xx_HAL_Driver/Inc/stm32f1xx_ll_tim.h **** /** @defgroup TIM_LL_EC_SLAVEMODE Slave Mode
 765:Drivers/STM32F1xx_HAL_Driver/Inc/stm32f1xx_ll_tim.h ****   * @{
 766:Drivers/STM32F1xx_HAL_Driver/Inc/stm32f1xx_ll_tim.h ****   */
 767:Drivers/STM32F1xx_HAL_Driver/Inc/stm32f1xx_ll_tim.h **** #define LL_TIM_SLAVEMODE_DISABLED              0x00000000U                         /*!< Slave mode 
 768:Drivers/STM32F1xx_HAL_Driver/Inc/stm32f1xx_ll_tim.h **** #define LL_TIM_SLAVEMODE_RESET                 TIM_SMCR_SMS_2                      /*!< Reset Mode 
 769:Drivers/STM32F1xx_HAL_Driver/Inc/stm32f1xx_ll_tim.h **** #define LL_TIM_SLAVEMODE_GATED                 (TIM_SMCR_SMS_2 | TIM_SMCR_SMS_0)   /*!< Gated Mode 
 770:Drivers/STM32F1xx_HAL_Driver/Inc/stm32f1xx_ll_tim.h **** #define LL_TIM_SLAVEMODE_TRIGGER               (TIM_SMCR_SMS_2 | TIM_SMCR_SMS_1)   /*!< Trigger Mod
 771:Drivers/STM32F1xx_HAL_Driver/Inc/stm32f1xx_ll_tim.h **** /**
 772:Drivers/STM32F1xx_HAL_Driver/Inc/stm32f1xx_ll_tim.h ****   * @}
 773:Drivers/STM32F1xx_HAL_Driver/Inc/stm32f1xx_ll_tim.h ****   */
 774:Drivers/STM32F1xx_HAL_Driver/Inc/stm32f1xx_ll_tim.h **** 
 775:Drivers/STM32F1xx_HAL_Driver/Inc/stm32f1xx_ll_tim.h **** /** @defgroup TIM_LL_EC_TS Trigger Selection
 776:Drivers/STM32F1xx_HAL_Driver/Inc/stm32f1xx_ll_tim.h ****   * @{
 777:Drivers/STM32F1xx_HAL_Driver/Inc/stm32f1xx_ll_tim.h ****   */
 778:Drivers/STM32F1xx_HAL_Driver/Inc/stm32f1xx_ll_tim.h **** #define LL_TIM_TS_ITR0                         0x00000000U                                         
 779:Drivers/STM32F1xx_HAL_Driver/Inc/stm32f1xx_ll_tim.h **** #define LL_TIM_TS_ITR1                         TIM_SMCR_TS_0                                       
 780:Drivers/STM32F1xx_HAL_Driver/Inc/stm32f1xx_ll_tim.h **** #define LL_TIM_TS_ITR2                         TIM_SMCR_TS_1                                       
 781:Drivers/STM32F1xx_HAL_Driver/Inc/stm32f1xx_ll_tim.h **** #define LL_TIM_TS_ITR3                         (TIM_SMCR_TS_0 | TIM_SMCR_TS_1)                     
 782:Drivers/STM32F1xx_HAL_Driver/Inc/stm32f1xx_ll_tim.h **** #define LL_TIM_TS_TI1F_ED                      TIM_SMCR_TS_2                                       
 783:Drivers/STM32F1xx_HAL_Driver/Inc/stm32f1xx_ll_tim.h **** #define LL_TIM_TS_TI1FP1                       (TIM_SMCR_TS_2 | TIM_SMCR_TS_0)                     
 784:Drivers/STM32F1xx_HAL_Driver/Inc/stm32f1xx_ll_tim.h **** #define LL_TIM_TS_TI2FP2                       (TIM_SMCR_TS_2 | TIM_SMCR_TS_1)                     
 785:Drivers/STM32F1xx_HAL_Driver/Inc/stm32f1xx_ll_tim.h **** #define LL_TIM_TS_ETRF                         (TIM_SMCR_TS_2 | TIM_SMCR_TS_1 | TIM_SMCR_TS_0)     
 786:Drivers/STM32F1xx_HAL_Driver/Inc/stm32f1xx_ll_tim.h **** /**
 787:Drivers/STM32F1xx_HAL_Driver/Inc/stm32f1xx_ll_tim.h ****   * @}
 788:Drivers/STM32F1xx_HAL_Driver/Inc/stm32f1xx_ll_tim.h ****   */
 789:Drivers/STM32F1xx_HAL_Driver/Inc/stm32f1xx_ll_tim.h **** 
 790:Drivers/STM32F1xx_HAL_Driver/Inc/stm32f1xx_ll_tim.h **** /** @defgroup TIM_LL_EC_ETR_POLARITY External Trigger Polarity
 791:Drivers/STM32F1xx_HAL_Driver/Inc/stm32f1xx_ll_tim.h ****   * @{
 792:Drivers/STM32F1xx_HAL_Driver/Inc/stm32f1xx_ll_tim.h ****   */
 793:Drivers/STM32F1xx_HAL_Driver/Inc/stm32f1xx_ll_tim.h **** #define LL_TIM_ETR_POLARITY_NONINVERTED        0x00000000U             /*!< ETR is non-inverted, ac
 794:Drivers/STM32F1xx_HAL_Driver/Inc/stm32f1xx_ll_tim.h **** #define LL_TIM_ETR_POLARITY_INVERTED           TIM_SMCR_ETP            /*!< ETR is inverted, active
 795:Drivers/STM32F1xx_HAL_Driver/Inc/stm32f1xx_ll_tim.h **** /**
 796:Drivers/STM32F1xx_HAL_Driver/Inc/stm32f1xx_ll_tim.h ****   * @}
 797:Drivers/STM32F1xx_HAL_Driver/Inc/stm32f1xx_ll_tim.h ****   */
 798:Drivers/STM32F1xx_HAL_Driver/Inc/stm32f1xx_ll_tim.h **** 
 799:Drivers/STM32F1xx_HAL_Driver/Inc/stm32f1xx_ll_tim.h **** /** @defgroup TIM_LL_EC_ETR_PRESCALER External Trigger Prescaler
 800:Drivers/STM32F1xx_HAL_Driver/Inc/stm32f1xx_ll_tim.h ****   * @{
 801:Drivers/STM32F1xx_HAL_Driver/Inc/stm32f1xx_ll_tim.h ****   */
ARM GAS  /tmp/ccdg0XkI.s 			page 37


 802:Drivers/STM32F1xx_HAL_Driver/Inc/stm32f1xx_ll_tim.h **** #define LL_TIM_ETR_PRESCALER_DIV1              0x00000000U             /*!< ETR prescaler OFF */
 803:Drivers/STM32F1xx_HAL_Driver/Inc/stm32f1xx_ll_tim.h **** #define LL_TIM_ETR_PRESCALER_DIV2              TIM_SMCR_ETPS_0         /*!< ETR frequency is divide
 804:Drivers/STM32F1xx_HAL_Driver/Inc/stm32f1xx_ll_tim.h **** #define LL_TIM_ETR_PRESCALER_DIV4              TIM_SMCR_ETPS_1         /*!< ETR frequency is divide
 805:Drivers/STM32F1xx_HAL_Driver/Inc/stm32f1xx_ll_tim.h **** #define LL_TIM_ETR_PRESCALER_DIV8              TIM_SMCR_ETPS           /*!< ETR frequency is divide
 806:Drivers/STM32F1xx_HAL_Driver/Inc/stm32f1xx_ll_tim.h **** /**
 807:Drivers/STM32F1xx_HAL_Driver/Inc/stm32f1xx_ll_tim.h ****   * @}
 808:Drivers/STM32F1xx_HAL_Driver/Inc/stm32f1xx_ll_tim.h ****   */
 809:Drivers/STM32F1xx_HAL_Driver/Inc/stm32f1xx_ll_tim.h **** 
 810:Drivers/STM32F1xx_HAL_Driver/Inc/stm32f1xx_ll_tim.h **** /** @defgroup TIM_LL_EC_ETR_FILTER External Trigger Filter
 811:Drivers/STM32F1xx_HAL_Driver/Inc/stm32f1xx_ll_tim.h ****   * @{
 812:Drivers/STM32F1xx_HAL_Driver/Inc/stm32f1xx_ll_tim.h ****   */
 813:Drivers/STM32F1xx_HAL_Driver/Inc/stm32f1xx_ll_tim.h **** #define LL_TIM_ETR_FILTER_FDIV1                0x00000000U                                         
 814:Drivers/STM32F1xx_HAL_Driver/Inc/stm32f1xx_ll_tim.h **** #define LL_TIM_ETR_FILTER_FDIV1_N2             TIM_SMCR_ETF_0                                      
 815:Drivers/STM32F1xx_HAL_Driver/Inc/stm32f1xx_ll_tim.h **** #define LL_TIM_ETR_FILTER_FDIV1_N4             TIM_SMCR_ETF_1                                      
 816:Drivers/STM32F1xx_HAL_Driver/Inc/stm32f1xx_ll_tim.h **** #define LL_TIM_ETR_FILTER_FDIV1_N8             (TIM_SMCR_ETF_1 | TIM_SMCR_ETF_0)                   
 817:Drivers/STM32F1xx_HAL_Driver/Inc/stm32f1xx_ll_tim.h **** #define LL_TIM_ETR_FILTER_FDIV2_N6             TIM_SMCR_ETF_2                                      
 818:Drivers/STM32F1xx_HAL_Driver/Inc/stm32f1xx_ll_tim.h **** #define LL_TIM_ETR_FILTER_FDIV2_N8             (TIM_SMCR_ETF_2 | TIM_SMCR_ETF_0)                   
 819:Drivers/STM32F1xx_HAL_Driver/Inc/stm32f1xx_ll_tim.h **** #define LL_TIM_ETR_FILTER_FDIV4_N6             (TIM_SMCR_ETF_2 | TIM_SMCR_ETF_1)                   
 820:Drivers/STM32F1xx_HAL_Driver/Inc/stm32f1xx_ll_tim.h **** #define LL_TIM_ETR_FILTER_FDIV4_N8             (TIM_SMCR_ETF_2 | TIM_SMCR_ETF_1 | TIM_SMCR_ETF_0)  
 821:Drivers/STM32F1xx_HAL_Driver/Inc/stm32f1xx_ll_tim.h **** #define LL_TIM_ETR_FILTER_FDIV8_N6             TIM_SMCR_ETF_3                                      
 822:Drivers/STM32F1xx_HAL_Driver/Inc/stm32f1xx_ll_tim.h **** #define LL_TIM_ETR_FILTER_FDIV8_N8             (TIM_SMCR_ETF_3 | TIM_SMCR_ETF_0)                   
 823:Drivers/STM32F1xx_HAL_Driver/Inc/stm32f1xx_ll_tim.h **** #define LL_TIM_ETR_FILTER_FDIV16_N5            (TIM_SMCR_ETF_3 | TIM_SMCR_ETF_1)                   
 824:Drivers/STM32F1xx_HAL_Driver/Inc/stm32f1xx_ll_tim.h **** #define LL_TIM_ETR_FILTER_FDIV16_N6            (TIM_SMCR_ETF_3 | TIM_SMCR_ETF_1 | TIM_SMCR_ETF_0)  
 825:Drivers/STM32F1xx_HAL_Driver/Inc/stm32f1xx_ll_tim.h **** #define LL_TIM_ETR_FILTER_FDIV16_N8            (TIM_SMCR_ETF_3 | TIM_SMCR_ETF_2)                   
 826:Drivers/STM32F1xx_HAL_Driver/Inc/stm32f1xx_ll_tim.h **** #define LL_TIM_ETR_FILTER_FDIV32_N5            (TIM_SMCR_ETF_3 | TIM_SMCR_ETF_2 | TIM_SMCR_ETF_0)  
 827:Drivers/STM32F1xx_HAL_Driver/Inc/stm32f1xx_ll_tim.h **** #define LL_TIM_ETR_FILTER_FDIV32_N6            (TIM_SMCR_ETF_3 | TIM_SMCR_ETF_2 | TIM_SMCR_ETF_1)  
 828:Drivers/STM32F1xx_HAL_Driver/Inc/stm32f1xx_ll_tim.h **** #define LL_TIM_ETR_FILTER_FDIV32_N8            TIM_SMCR_ETF                                        
 829:Drivers/STM32F1xx_HAL_Driver/Inc/stm32f1xx_ll_tim.h **** /**
 830:Drivers/STM32F1xx_HAL_Driver/Inc/stm32f1xx_ll_tim.h ****   * @}
 831:Drivers/STM32F1xx_HAL_Driver/Inc/stm32f1xx_ll_tim.h ****   */
 832:Drivers/STM32F1xx_HAL_Driver/Inc/stm32f1xx_ll_tim.h **** 
 833:Drivers/STM32F1xx_HAL_Driver/Inc/stm32f1xx_ll_tim.h **** 
 834:Drivers/STM32F1xx_HAL_Driver/Inc/stm32f1xx_ll_tim.h **** /** @defgroup TIM_LL_EC_BREAK_POLARITY break polarity
 835:Drivers/STM32F1xx_HAL_Driver/Inc/stm32f1xx_ll_tim.h ****   * @{
 836:Drivers/STM32F1xx_HAL_Driver/Inc/stm32f1xx_ll_tim.h ****   */
 837:Drivers/STM32F1xx_HAL_Driver/Inc/stm32f1xx_ll_tim.h **** #define LL_TIM_BREAK_POLARITY_LOW              0x00000000U               /*!< Break input BRK is ac
 838:Drivers/STM32F1xx_HAL_Driver/Inc/stm32f1xx_ll_tim.h **** #define LL_TIM_BREAK_POLARITY_HIGH             TIM_BDTR_BKP              /*!< Break input BRK is ac
 839:Drivers/STM32F1xx_HAL_Driver/Inc/stm32f1xx_ll_tim.h **** /**
 840:Drivers/STM32F1xx_HAL_Driver/Inc/stm32f1xx_ll_tim.h ****   * @}
 841:Drivers/STM32F1xx_HAL_Driver/Inc/stm32f1xx_ll_tim.h ****   */
 842:Drivers/STM32F1xx_HAL_Driver/Inc/stm32f1xx_ll_tim.h **** 
 843:Drivers/STM32F1xx_HAL_Driver/Inc/stm32f1xx_ll_tim.h **** 
 844:Drivers/STM32F1xx_HAL_Driver/Inc/stm32f1xx_ll_tim.h **** 
 845:Drivers/STM32F1xx_HAL_Driver/Inc/stm32f1xx_ll_tim.h **** 
 846:Drivers/STM32F1xx_HAL_Driver/Inc/stm32f1xx_ll_tim.h **** /** @defgroup TIM_LL_EC_OSSI OSSI
 847:Drivers/STM32F1xx_HAL_Driver/Inc/stm32f1xx_ll_tim.h ****   * @{
 848:Drivers/STM32F1xx_HAL_Driver/Inc/stm32f1xx_ll_tim.h ****   */
 849:Drivers/STM32F1xx_HAL_Driver/Inc/stm32f1xx_ll_tim.h **** #define LL_TIM_OSSI_DISABLE                    0x00000000U             /*!< When inactive, OCx/OCxN
 850:Drivers/STM32F1xx_HAL_Driver/Inc/stm32f1xx_ll_tim.h **** #define LL_TIM_OSSI_ENABLE                     TIM_BDTR_OSSI           /*!< When inactive, OxC/OCxN
 851:Drivers/STM32F1xx_HAL_Driver/Inc/stm32f1xx_ll_tim.h **** /**
 852:Drivers/STM32F1xx_HAL_Driver/Inc/stm32f1xx_ll_tim.h ****   * @}
 853:Drivers/STM32F1xx_HAL_Driver/Inc/stm32f1xx_ll_tim.h ****   */
 854:Drivers/STM32F1xx_HAL_Driver/Inc/stm32f1xx_ll_tim.h **** 
 855:Drivers/STM32F1xx_HAL_Driver/Inc/stm32f1xx_ll_tim.h **** /** @defgroup TIM_LL_EC_OSSR OSSR
 856:Drivers/STM32F1xx_HAL_Driver/Inc/stm32f1xx_ll_tim.h ****   * @{
 857:Drivers/STM32F1xx_HAL_Driver/Inc/stm32f1xx_ll_tim.h ****   */
 858:Drivers/STM32F1xx_HAL_Driver/Inc/stm32f1xx_ll_tim.h **** #define LL_TIM_OSSR_DISABLE                    0x00000000U             /*!< When inactive, OCx/OCxN
ARM GAS  /tmp/ccdg0XkI.s 			page 38


 859:Drivers/STM32F1xx_HAL_Driver/Inc/stm32f1xx_ll_tim.h **** #define LL_TIM_OSSR_ENABLE                     TIM_BDTR_OSSR           /*!< When inactive, OC/OCN o
 860:Drivers/STM32F1xx_HAL_Driver/Inc/stm32f1xx_ll_tim.h **** /**
 861:Drivers/STM32F1xx_HAL_Driver/Inc/stm32f1xx_ll_tim.h ****   * @}
 862:Drivers/STM32F1xx_HAL_Driver/Inc/stm32f1xx_ll_tim.h ****   */
 863:Drivers/STM32F1xx_HAL_Driver/Inc/stm32f1xx_ll_tim.h **** 
 864:Drivers/STM32F1xx_HAL_Driver/Inc/stm32f1xx_ll_tim.h **** 
 865:Drivers/STM32F1xx_HAL_Driver/Inc/stm32f1xx_ll_tim.h **** /** @defgroup TIM_LL_EC_DMABURST_BASEADDR DMA Burst Base Address
 866:Drivers/STM32F1xx_HAL_Driver/Inc/stm32f1xx_ll_tim.h ****   * @{
 867:Drivers/STM32F1xx_HAL_Driver/Inc/stm32f1xx_ll_tim.h ****   */
 868:Drivers/STM32F1xx_HAL_Driver/Inc/stm32f1xx_ll_tim.h **** #define LL_TIM_DMABURST_BASEADDR_CR1           0x00000000U                                         
 869:Drivers/STM32F1xx_HAL_Driver/Inc/stm32f1xx_ll_tim.h **** #define LL_TIM_DMABURST_BASEADDR_CR2           TIM_DCR_DBA_0                                       
 870:Drivers/STM32F1xx_HAL_Driver/Inc/stm32f1xx_ll_tim.h **** #define LL_TIM_DMABURST_BASEADDR_SMCR          TIM_DCR_DBA_1                                       
 871:Drivers/STM32F1xx_HAL_Driver/Inc/stm32f1xx_ll_tim.h **** #define LL_TIM_DMABURST_BASEADDR_DIER          (TIM_DCR_DBA_1 |  TIM_DCR_DBA_0)                    
 872:Drivers/STM32F1xx_HAL_Driver/Inc/stm32f1xx_ll_tim.h **** #define LL_TIM_DMABURST_BASEADDR_SR            TIM_DCR_DBA_2                                       
 873:Drivers/STM32F1xx_HAL_Driver/Inc/stm32f1xx_ll_tim.h **** #define LL_TIM_DMABURST_BASEADDR_EGR           (TIM_DCR_DBA_2 | TIM_DCR_DBA_0)                     
 874:Drivers/STM32F1xx_HAL_Driver/Inc/stm32f1xx_ll_tim.h **** #define LL_TIM_DMABURST_BASEADDR_CCMR1         (TIM_DCR_DBA_2 | TIM_DCR_DBA_1)                     
 875:Drivers/STM32F1xx_HAL_Driver/Inc/stm32f1xx_ll_tim.h **** #define LL_TIM_DMABURST_BASEADDR_CCMR2         (TIM_DCR_DBA_2 | TIM_DCR_DBA_1 | TIM_DCR_DBA_0)     
 876:Drivers/STM32F1xx_HAL_Driver/Inc/stm32f1xx_ll_tim.h **** #define LL_TIM_DMABURST_BASEADDR_CCER          TIM_DCR_DBA_3                                       
 877:Drivers/STM32F1xx_HAL_Driver/Inc/stm32f1xx_ll_tim.h **** #define LL_TIM_DMABURST_BASEADDR_CNT           (TIM_DCR_DBA_3 | TIM_DCR_DBA_0)                     
 878:Drivers/STM32F1xx_HAL_Driver/Inc/stm32f1xx_ll_tim.h **** #define LL_TIM_DMABURST_BASEADDR_PSC           (TIM_DCR_DBA_3 | TIM_DCR_DBA_1)                     
 879:Drivers/STM32F1xx_HAL_Driver/Inc/stm32f1xx_ll_tim.h **** #define LL_TIM_DMABURST_BASEADDR_ARR           (TIM_DCR_DBA_3 | TIM_DCR_DBA_1 | TIM_DCR_DBA_0)     
 880:Drivers/STM32F1xx_HAL_Driver/Inc/stm32f1xx_ll_tim.h **** #define LL_TIM_DMABURST_BASEADDR_RCR           (TIM_DCR_DBA_3 | TIM_DCR_DBA_2)                     
 881:Drivers/STM32F1xx_HAL_Driver/Inc/stm32f1xx_ll_tim.h **** #define LL_TIM_DMABURST_BASEADDR_CCR1          (TIM_DCR_DBA_3 | TIM_DCR_DBA_2 | TIM_DCR_DBA_0)     
 882:Drivers/STM32F1xx_HAL_Driver/Inc/stm32f1xx_ll_tim.h **** #define LL_TIM_DMABURST_BASEADDR_CCR2          (TIM_DCR_DBA_3 | TIM_DCR_DBA_2 | TIM_DCR_DBA_1)     
 883:Drivers/STM32F1xx_HAL_Driver/Inc/stm32f1xx_ll_tim.h **** #define LL_TIM_DMABURST_BASEADDR_CCR3          (TIM_DCR_DBA_3 | TIM_DCR_DBA_2 | TIM_DCR_DBA_1 | TIM
 884:Drivers/STM32F1xx_HAL_Driver/Inc/stm32f1xx_ll_tim.h **** #define LL_TIM_DMABURST_BASEADDR_CCR4          TIM_DCR_DBA_4                                       
 885:Drivers/STM32F1xx_HAL_Driver/Inc/stm32f1xx_ll_tim.h **** #define LL_TIM_DMABURST_BASEADDR_BDTR          (TIM_DCR_DBA_4 | TIM_DCR_DBA_0)                     
 886:Drivers/STM32F1xx_HAL_Driver/Inc/stm32f1xx_ll_tim.h **** /**
 887:Drivers/STM32F1xx_HAL_Driver/Inc/stm32f1xx_ll_tim.h ****   * @}
 888:Drivers/STM32F1xx_HAL_Driver/Inc/stm32f1xx_ll_tim.h ****   */
 889:Drivers/STM32F1xx_HAL_Driver/Inc/stm32f1xx_ll_tim.h **** 
 890:Drivers/STM32F1xx_HAL_Driver/Inc/stm32f1xx_ll_tim.h **** /** @defgroup TIM_LL_EC_DMABURST_LENGTH DMA Burst Length
 891:Drivers/STM32F1xx_HAL_Driver/Inc/stm32f1xx_ll_tim.h ****   * @{
 892:Drivers/STM32F1xx_HAL_Driver/Inc/stm32f1xx_ll_tim.h ****   */
 893:Drivers/STM32F1xx_HAL_Driver/Inc/stm32f1xx_ll_tim.h **** #define LL_TIM_DMABURST_LENGTH_1TRANSFER       0x00000000U                                         
 894:Drivers/STM32F1xx_HAL_Driver/Inc/stm32f1xx_ll_tim.h **** #define LL_TIM_DMABURST_LENGTH_2TRANSFERS      TIM_DCR_DBL_0                                       
 895:Drivers/STM32F1xx_HAL_Driver/Inc/stm32f1xx_ll_tim.h **** #define LL_TIM_DMABURST_LENGTH_3TRANSFERS      TIM_DCR_DBL_1                                       
 896:Drivers/STM32F1xx_HAL_Driver/Inc/stm32f1xx_ll_tim.h **** #define LL_TIM_DMABURST_LENGTH_4TRANSFERS      (TIM_DCR_DBL_1 |  TIM_DCR_DBL_0)                    
 897:Drivers/STM32F1xx_HAL_Driver/Inc/stm32f1xx_ll_tim.h **** #define LL_TIM_DMABURST_LENGTH_5TRANSFERS      TIM_DCR_DBL_2                                       
 898:Drivers/STM32F1xx_HAL_Driver/Inc/stm32f1xx_ll_tim.h **** #define LL_TIM_DMABURST_LENGTH_6TRANSFERS      (TIM_DCR_DBL_2 | TIM_DCR_DBL_0)                     
 899:Drivers/STM32F1xx_HAL_Driver/Inc/stm32f1xx_ll_tim.h **** #define LL_TIM_DMABURST_LENGTH_7TRANSFERS      (TIM_DCR_DBL_2 | TIM_DCR_DBL_1)                     
 900:Drivers/STM32F1xx_HAL_Driver/Inc/stm32f1xx_ll_tim.h **** #define LL_TIM_DMABURST_LENGTH_8TRANSFERS      (TIM_DCR_DBL_2 | TIM_DCR_DBL_1 | TIM_DCR_DBL_0)     
 901:Drivers/STM32F1xx_HAL_Driver/Inc/stm32f1xx_ll_tim.h **** #define LL_TIM_DMABURST_LENGTH_9TRANSFERS      TIM_DCR_DBL_3                                       
 902:Drivers/STM32F1xx_HAL_Driver/Inc/stm32f1xx_ll_tim.h **** #define LL_TIM_DMABURST_LENGTH_10TRANSFERS     (TIM_DCR_DBL_3 | TIM_DCR_DBL_0)                     
 903:Drivers/STM32F1xx_HAL_Driver/Inc/stm32f1xx_ll_tim.h **** #define LL_TIM_DMABURST_LENGTH_11TRANSFERS     (TIM_DCR_DBL_3 | TIM_DCR_DBL_1)                     
 904:Drivers/STM32F1xx_HAL_Driver/Inc/stm32f1xx_ll_tim.h **** #define LL_TIM_DMABURST_LENGTH_12TRANSFERS     (TIM_DCR_DBL_3 | TIM_DCR_DBL_1 | TIM_DCR_DBL_0)     
 905:Drivers/STM32F1xx_HAL_Driver/Inc/stm32f1xx_ll_tim.h **** #define LL_TIM_DMABURST_LENGTH_13TRANSFERS     (TIM_DCR_DBL_3 | TIM_DCR_DBL_2)                     
 906:Drivers/STM32F1xx_HAL_Driver/Inc/stm32f1xx_ll_tim.h **** #define LL_TIM_DMABURST_LENGTH_14TRANSFERS     (TIM_DCR_DBL_3 | TIM_DCR_DBL_2 | TIM_DCR_DBL_0)     
 907:Drivers/STM32F1xx_HAL_Driver/Inc/stm32f1xx_ll_tim.h **** #define LL_TIM_DMABURST_LENGTH_15TRANSFERS     (TIM_DCR_DBL_3 | TIM_DCR_DBL_2 | TIM_DCR_DBL_1)     
 908:Drivers/STM32F1xx_HAL_Driver/Inc/stm32f1xx_ll_tim.h **** #define LL_TIM_DMABURST_LENGTH_16TRANSFERS     (TIM_DCR_DBL_3 | TIM_DCR_DBL_2 | TIM_DCR_DBL_1 | TIM
 909:Drivers/STM32F1xx_HAL_Driver/Inc/stm32f1xx_ll_tim.h **** #define LL_TIM_DMABURST_LENGTH_17TRANSFERS     TIM_DCR_DBL_4                                       
 910:Drivers/STM32F1xx_HAL_Driver/Inc/stm32f1xx_ll_tim.h **** #define LL_TIM_DMABURST_LENGTH_18TRANSFERS     (TIM_DCR_DBL_4 |  TIM_DCR_DBL_0)                    
 911:Drivers/STM32F1xx_HAL_Driver/Inc/stm32f1xx_ll_tim.h **** /**
 912:Drivers/STM32F1xx_HAL_Driver/Inc/stm32f1xx_ll_tim.h ****   * @}
 913:Drivers/STM32F1xx_HAL_Driver/Inc/stm32f1xx_ll_tim.h ****   */
 914:Drivers/STM32F1xx_HAL_Driver/Inc/stm32f1xx_ll_tim.h **** 
 915:Drivers/STM32F1xx_HAL_Driver/Inc/stm32f1xx_ll_tim.h **** 
ARM GAS  /tmp/ccdg0XkI.s 			page 39


 916:Drivers/STM32F1xx_HAL_Driver/Inc/stm32f1xx_ll_tim.h **** 
 917:Drivers/STM32F1xx_HAL_Driver/Inc/stm32f1xx_ll_tim.h **** /**
 918:Drivers/STM32F1xx_HAL_Driver/Inc/stm32f1xx_ll_tim.h ****   * @}
 919:Drivers/STM32F1xx_HAL_Driver/Inc/stm32f1xx_ll_tim.h ****   */
 920:Drivers/STM32F1xx_HAL_Driver/Inc/stm32f1xx_ll_tim.h **** 
 921:Drivers/STM32F1xx_HAL_Driver/Inc/stm32f1xx_ll_tim.h **** /* Exported macro ------------------------------------------------------------*/
 922:Drivers/STM32F1xx_HAL_Driver/Inc/stm32f1xx_ll_tim.h **** /** @defgroup TIM_LL_Exported_Macros TIM Exported Macros
 923:Drivers/STM32F1xx_HAL_Driver/Inc/stm32f1xx_ll_tim.h ****   * @{
 924:Drivers/STM32F1xx_HAL_Driver/Inc/stm32f1xx_ll_tim.h ****   */
 925:Drivers/STM32F1xx_HAL_Driver/Inc/stm32f1xx_ll_tim.h **** 
 926:Drivers/STM32F1xx_HAL_Driver/Inc/stm32f1xx_ll_tim.h **** /** @defgroup TIM_LL_EM_WRITE_READ Common Write and read registers Macros
 927:Drivers/STM32F1xx_HAL_Driver/Inc/stm32f1xx_ll_tim.h ****   * @{
 928:Drivers/STM32F1xx_HAL_Driver/Inc/stm32f1xx_ll_tim.h ****   */
 929:Drivers/STM32F1xx_HAL_Driver/Inc/stm32f1xx_ll_tim.h **** /**
 930:Drivers/STM32F1xx_HAL_Driver/Inc/stm32f1xx_ll_tim.h ****   * @brief  Write a value in TIM register.
 931:Drivers/STM32F1xx_HAL_Driver/Inc/stm32f1xx_ll_tim.h ****   * @param  __INSTANCE__ TIM Instance
 932:Drivers/STM32F1xx_HAL_Driver/Inc/stm32f1xx_ll_tim.h ****   * @param  __REG__ Register to be written
 933:Drivers/STM32F1xx_HAL_Driver/Inc/stm32f1xx_ll_tim.h ****   * @param  __VALUE__ Value to be written in the register
 934:Drivers/STM32F1xx_HAL_Driver/Inc/stm32f1xx_ll_tim.h ****   * @retval None
 935:Drivers/STM32F1xx_HAL_Driver/Inc/stm32f1xx_ll_tim.h ****   */
 936:Drivers/STM32F1xx_HAL_Driver/Inc/stm32f1xx_ll_tim.h **** #define LL_TIM_WriteReg(__INSTANCE__, __REG__, __VALUE__) WRITE_REG((__INSTANCE__)->__REG__, (__VAL
 937:Drivers/STM32F1xx_HAL_Driver/Inc/stm32f1xx_ll_tim.h **** 
 938:Drivers/STM32F1xx_HAL_Driver/Inc/stm32f1xx_ll_tim.h **** /**
 939:Drivers/STM32F1xx_HAL_Driver/Inc/stm32f1xx_ll_tim.h ****   * @brief  Read a value in TIM register.
 940:Drivers/STM32F1xx_HAL_Driver/Inc/stm32f1xx_ll_tim.h ****   * @param  __INSTANCE__ TIM Instance
 941:Drivers/STM32F1xx_HAL_Driver/Inc/stm32f1xx_ll_tim.h ****   * @param  __REG__ Register to be read
 942:Drivers/STM32F1xx_HAL_Driver/Inc/stm32f1xx_ll_tim.h ****   * @retval Register value
 943:Drivers/STM32F1xx_HAL_Driver/Inc/stm32f1xx_ll_tim.h ****   */
 944:Drivers/STM32F1xx_HAL_Driver/Inc/stm32f1xx_ll_tim.h **** #define LL_TIM_ReadReg(__INSTANCE__, __REG__) READ_REG((__INSTANCE__)->__REG__)
 945:Drivers/STM32F1xx_HAL_Driver/Inc/stm32f1xx_ll_tim.h **** /**
 946:Drivers/STM32F1xx_HAL_Driver/Inc/stm32f1xx_ll_tim.h ****   * @}
 947:Drivers/STM32F1xx_HAL_Driver/Inc/stm32f1xx_ll_tim.h ****   */
 948:Drivers/STM32F1xx_HAL_Driver/Inc/stm32f1xx_ll_tim.h **** 
 949:Drivers/STM32F1xx_HAL_Driver/Inc/stm32f1xx_ll_tim.h **** /**
 950:Drivers/STM32F1xx_HAL_Driver/Inc/stm32f1xx_ll_tim.h ****   * @brief  HELPER macro calculating DTG[0:7] in the TIMx_BDTR register to achieve the requested de
 951:Drivers/STM32F1xx_HAL_Driver/Inc/stm32f1xx_ll_tim.h ****   * @note ex: @ref __LL_TIM_CALC_DEADTIME (80000000, @ref LL_TIM_GetClockDivision (), 120);
 952:Drivers/STM32F1xx_HAL_Driver/Inc/stm32f1xx_ll_tim.h ****   * @param  __TIMCLK__ timer input clock frequency (in Hz)
 953:Drivers/STM32F1xx_HAL_Driver/Inc/stm32f1xx_ll_tim.h ****   * @param  __CKD__ This parameter can be one of the following values:
 954:Drivers/STM32F1xx_HAL_Driver/Inc/stm32f1xx_ll_tim.h ****   *         @arg @ref LL_TIM_CLOCKDIVISION_DIV1
 955:Drivers/STM32F1xx_HAL_Driver/Inc/stm32f1xx_ll_tim.h ****   *         @arg @ref LL_TIM_CLOCKDIVISION_DIV2
 956:Drivers/STM32F1xx_HAL_Driver/Inc/stm32f1xx_ll_tim.h ****   *         @arg @ref LL_TIM_CLOCKDIVISION_DIV4
 957:Drivers/STM32F1xx_HAL_Driver/Inc/stm32f1xx_ll_tim.h ****   * @param  __DT__ deadtime duration (in ns)
 958:Drivers/STM32F1xx_HAL_Driver/Inc/stm32f1xx_ll_tim.h ****   * @retval DTG[0:7]
 959:Drivers/STM32F1xx_HAL_Driver/Inc/stm32f1xx_ll_tim.h ****   */
 960:Drivers/STM32F1xx_HAL_Driver/Inc/stm32f1xx_ll_tim.h **** #define __LL_TIM_CALC_DEADTIME(__TIMCLK__, __CKD__, __DT__)  \
 961:Drivers/STM32F1xx_HAL_Driver/Inc/stm32f1xx_ll_tim.h ****   ( (((uint64_t)((__DT__)*1000U)) < ((DT_DELAY_1+1U) * TIM_CALC_DTS((__TIMCLK__), (__CKD__))))    ?
 962:Drivers/STM32F1xx_HAL_Driver/Inc/stm32f1xx_ll_tim.h ****     (uint8_t)(((uint64_t)((__DT__)*1000U) / TIM_CALC_DTS((__TIMCLK__), (__CKD__)))  & DT_DELAY_1) :
 963:Drivers/STM32F1xx_HAL_Driver/Inc/stm32f1xx_ll_tim.h ****     (((uint64_t)((__DT__)*1000U)) < ((64U + (DT_DELAY_2+1U)) * 2U * TIM_CALC_DTS((__TIMCLK__), (__C
 964:Drivers/STM32F1xx_HAL_Driver/Inc/stm32f1xx_ll_tim.h ****     (uint8_t)(DT_RANGE_2 | ((uint8_t)((uint8_t)((((uint64_t)((__DT__)*1000U))/ TIM_CALC_DTS((__TIMC
 965:Drivers/STM32F1xx_HAL_Driver/Inc/stm32f1xx_ll_tim.h ****                                                  (__CKD__))) >> 1U) - (uint8_t) 64) & DT_DELAY_2)) 
 966:Drivers/STM32F1xx_HAL_Driver/Inc/stm32f1xx_ll_tim.h ****     (((uint64_t)((__DT__)*1000U)) < ((32U + (DT_DELAY_3+1U)) * 8U * TIM_CALC_DTS((__TIMCLK__), (__C
 967:Drivers/STM32F1xx_HAL_Driver/Inc/stm32f1xx_ll_tim.h ****     (uint8_t)(DT_RANGE_3 | ((uint8_t)((uint8_t)(((((uint64_t)(__DT__)*1000U))/ TIM_CALC_DTS((__TIMC
 968:Drivers/STM32F1xx_HAL_Driver/Inc/stm32f1xx_ll_tim.h ****                                                  (__CKD__))) >> 3U) - (uint8_t) 32) & DT_DELAY_3)) 
 969:Drivers/STM32F1xx_HAL_Driver/Inc/stm32f1xx_ll_tim.h ****     (((uint64_t)((__DT__)*1000U)) < ((32U + (DT_DELAY_4+1U)) * 16U * TIM_CALC_DTS((__TIMCLK__), (__
 970:Drivers/STM32F1xx_HAL_Driver/Inc/stm32f1xx_ll_tim.h ****     (uint8_t)(DT_RANGE_4 | ((uint8_t)((uint8_t)(((((uint64_t)(__DT__)*1000U))/ TIM_CALC_DTS((__TIMC
 971:Drivers/STM32F1xx_HAL_Driver/Inc/stm32f1xx_ll_tim.h ****                                                  (__CKD__))) >> 4U) - (uint8_t) 32) & DT_DELAY_4)) 
 972:Drivers/STM32F1xx_HAL_Driver/Inc/stm32f1xx_ll_tim.h ****     0U)
ARM GAS  /tmp/ccdg0XkI.s 			page 40


 973:Drivers/STM32F1xx_HAL_Driver/Inc/stm32f1xx_ll_tim.h **** 
 974:Drivers/STM32F1xx_HAL_Driver/Inc/stm32f1xx_ll_tim.h **** /**
 975:Drivers/STM32F1xx_HAL_Driver/Inc/stm32f1xx_ll_tim.h ****   * @brief  HELPER macro calculating the prescaler value to achieve the required counter clock freq
 976:Drivers/STM32F1xx_HAL_Driver/Inc/stm32f1xx_ll_tim.h ****   * @note ex: @ref __LL_TIM_CALC_PSC (80000000, 1000000);
 977:Drivers/STM32F1xx_HAL_Driver/Inc/stm32f1xx_ll_tim.h ****   * @param  __TIMCLK__ timer input clock frequency (in Hz)
 978:Drivers/STM32F1xx_HAL_Driver/Inc/stm32f1xx_ll_tim.h ****   * @param  __CNTCLK__ counter clock frequency (in Hz)
 979:Drivers/STM32F1xx_HAL_Driver/Inc/stm32f1xx_ll_tim.h ****   * @retval Prescaler value  (between Min_Data=0 and Max_Data=65535)
 980:Drivers/STM32F1xx_HAL_Driver/Inc/stm32f1xx_ll_tim.h ****   */
 981:Drivers/STM32F1xx_HAL_Driver/Inc/stm32f1xx_ll_tim.h **** #define __LL_TIM_CALC_PSC(__TIMCLK__, __CNTCLK__)   \
 982:Drivers/STM32F1xx_HAL_Driver/Inc/stm32f1xx_ll_tim.h ****   (((__TIMCLK__) >= (__CNTCLK__)) ? (uint32_t)((((__TIMCLK__) + (__CNTCLK__)/2U)/(__CNTCLK__)) - 1U
 983:Drivers/STM32F1xx_HAL_Driver/Inc/stm32f1xx_ll_tim.h **** 
 984:Drivers/STM32F1xx_HAL_Driver/Inc/stm32f1xx_ll_tim.h **** /**
 985:Drivers/STM32F1xx_HAL_Driver/Inc/stm32f1xx_ll_tim.h ****   * @brief  HELPER macro calculating the auto-reload value to achieve the required output signal fr
 986:Drivers/STM32F1xx_HAL_Driver/Inc/stm32f1xx_ll_tim.h ****   * @note ex: @ref __LL_TIM_CALC_ARR (1000000, @ref LL_TIM_GetPrescaler (), 10000);
 987:Drivers/STM32F1xx_HAL_Driver/Inc/stm32f1xx_ll_tim.h ****   * @param  __TIMCLK__ timer input clock frequency (in Hz)
 988:Drivers/STM32F1xx_HAL_Driver/Inc/stm32f1xx_ll_tim.h ****   * @param  __PSC__ prescaler
 989:Drivers/STM32F1xx_HAL_Driver/Inc/stm32f1xx_ll_tim.h ****   * @param  __FREQ__ output signal frequency (in Hz)
 990:Drivers/STM32F1xx_HAL_Driver/Inc/stm32f1xx_ll_tim.h ****   * @retval  Auto-reload value  (between Min_Data=0 and Max_Data=65535)
 991:Drivers/STM32F1xx_HAL_Driver/Inc/stm32f1xx_ll_tim.h ****   */
 992:Drivers/STM32F1xx_HAL_Driver/Inc/stm32f1xx_ll_tim.h **** #define __LL_TIM_CALC_ARR(__TIMCLK__, __PSC__, __FREQ__) \
 993:Drivers/STM32F1xx_HAL_Driver/Inc/stm32f1xx_ll_tim.h ****   ((((__TIMCLK__)/((__PSC__) + 1U)) >= (__FREQ__)) ? (((__TIMCLK__)/((__FREQ__) * ((__PSC__) + 1U))
 994:Drivers/STM32F1xx_HAL_Driver/Inc/stm32f1xx_ll_tim.h **** 
 995:Drivers/STM32F1xx_HAL_Driver/Inc/stm32f1xx_ll_tim.h **** /**
 996:Drivers/STM32F1xx_HAL_Driver/Inc/stm32f1xx_ll_tim.h ****   * @brief  HELPER macro calculating the compare value required to achieve the required timer outpu
 997:Drivers/STM32F1xx_HAL_Driver/Inc/stm32f1xx_ll_tim.h ****   *         active/inactive delay.
 998:Drivers/STM32F1xx_HAL_Driver/Inc/stm32f1xx_ll_tim.h ****   * @note ex: @ref __LL_TIM_CALC_DELAY (1000000, @ref LL_TIM_GetPrescaler (), 10);
 999:Drivers/STM32F1xx_HAL_Driver/Inc/stm32f1xx_ll_tim.h ****   * @param  __TIMCLK__ timer input clock frequency (in Hz)
1000:Drivers/STM32F1xx_HAL_Driver/Inc/stm32f1xx_ll_tim.h ****   * @param  __PSC__ prescaler
1001:Drivers/STM32F1xx_HAL_Driver/Inc/stm32f1xx_ll_tim.h ****   * @param  __DELAY__ timer output compare active/inactive delay (in us)
1002:Drivers/STM32F1xx_HAL_Driver/Inc/stm32f1xx_ll_tim.h ****   * @retval Compare value  (between Min_Data=0 and Max_Data=65535)
1003:Drivers/STM32F1xx_HAL_Driver/Inc/stm32f1xx_ll_tim.h ****   */
1004:Drivers/STM32F1xx_HAL_Driver/Inc/stm32f1xx_ll_tim.h **** #define __LL_TIM_CALC_DELAY(__TIMCLK__, __PSC__, __DELAY__)  \
1005:Drivers/STM32F1xx_HAL_Driver/Inc/stm32f1xx_ll_tim.h ****   ((uint32_t)(((uint64_t)(__TIMCLK__) * (uint64_t)(__DELAY__)) \
1006:Drivers/STM32F1xx_HAL_Driver/Inc/stm32f1xx_ll_tim.h ****               / ((uint64_t)1000000U * (uint64_t)((__PSC__) + 1U))))
1007:Drivers/STM32F1xx_HAL_Driver/Inc/stm32f1xx_ll_tim.h **** 
1008:Drivers/STM32F1xx_HAL_Driver/Inc/stm32f1xx_ll_tim.h **** /**
1009:Drivers/STM32F1xx_HAL_Driver/Inc/stm32f1xx_ll_tim.h ****   * @brief  HELPER macro calculating the auto-reload value to achieve the required pulse duration
1010:Drivers/STM32F1xx_HAL_Driver/Inc/stm32f1xx_ll_tim.h ****   *         (when the timer operates in one pulse mode).
1011:Drivers/STM32F1xx_HAL_Driver/Inc/stm32f1xx_ll_tim.h ****   * @note ex: @ref __LL_TIM_CALC_PULSE (1000000, @ref LL_TIM_GetPrescaler (), 10, 20);
1012:Drivers/STM32F1xx_HAL_Driver/Inc/stm32f1xx_ll_tim.h ****   * @param  __TIMCLK__ timer input clock frequency (in Hz)
1013:Drivers/STM32F1xx_HAL_Driver/Inc/stm32f1xx_ll_tim.h ****   * @param  __PSC__ prescaler
1014:Drivers/STM32F1xx_HAL_Driver/Inc/stm32f1xx_ll_tim.h ****   * @param  __DELAY__ timer output compare active/inactive delay (in us)
1015:Drivers/STM32F1xx_HAL_Driver/Inc/stm32f1xx_ll_tim.h ****   * @param  __PULSE__ pulse duration (in us)
1016:Drivers/STM32F1xx_HAL_Driver/Inc/stm32f1xx_ll_tim.h ****   * @retval Auto-reload value  (between Min_Data=0 and Max_Data=65535)
1017:Drivers/STM32F1xx_HAL_Driver/Inc/stm32f1xx_ll_tim.h ****   */
1018:Drivers/STM32F1xx_HAL_Driver/Inc/stm32f1xx_ll_tim.h **** #define __LL_TIM_CALC_PULSE(__TIMCLK__, __PSC__, __DELAY__, __PULSE__)  \
1019:Drivers/STM32F1xx_HAL_Driver/Inc/stm32f1xx_ll_tim.h ****   ((uint32_t)(__LL_TIM_CALC_DELAY((__TIMCLK__), (__PSC__), (__PULSE__)) \
1020:Drivers/STM32F1xx_HAL_Driver/Inc/stm32f1xx_ll_tim.h ****               + __LL_TIM_CALC_DELAY((__TIMCLK__), (__PSC__), (__DELAY__))))
1021:Drivers/STM32F1xx_HAL_Driver/Inc/stm32f1xx_ll_tim.h **** 
1022:Drivers/STM32F1xx_HAL_Driver/Inc/stm32f1xx_ll_tim.h **** /**
1023:Drivers/STM32F1xx_HAL_Driver/Inc/stm32f1xx_ll_tim.h ****   * @brief  HELPER macro retrieving the ratio of the input capture prescaler
1024:Drivers/STM32F1xx_HAL_Driver/Inc/stm32f1xx_ll_tim.h ****   * @note ex: @ref __LL_TIM_GET_ICPSC_RATIO (@ref LL_TIM_IC_GetPrescaler ());
1025:Drivers/STM32F1xx_HAL_Driver/Inc/stm32f1xx_ll_tim.h ****   * @param  __ICPSC__ This parameter can be one of the following values:
1026:Drivers/STM32F1xx_HAL_Driver/Inc/stm32f1xx_ll_tim.h ****   *         @arg @ref LL_TIM_ICPSC_DIV1
1027:Drivers/STM32F1xx_HAL_Driver/Inc/stm32f1xx_ll_tim.h ****   *         @arg @ref LL_TIM_ICPSC_DIV2
1028:Drivers/STM32F1xx_HAL_Driver/Inc/stm32f1xx_ll_tim.h ****   *         @arg @ref LL_TIM_ICPSC_DIV4
1029:Drivers/STM32F1xx_HAL_Driver/Inc/stm32f1xx_ll_tim.h ****   *         @arg @ref LL_TIM_ICPSC_DIV8
ARM GAS  /tmp/ccdg0XkI.s 			page 41


1030:Drivers/STM32F1xx_HAL_Driver/Inc/stm32f1xx_ll_tim.h ****   * @retval Input capture prescaler ratio (1, 2, 4 or 8)
1031:Drivers/STM32F1xx_HAL_Driver/Inc/stm32f1xx_ll_tim.h ****   */
1032:Drivers/STM32F1xx_HAL_Driver/Inc/stm32f1xx_ll_tim.h **** #define __LL_TIM_GET_ICPSC_RATIO(__ICPSC__)  \
1033:Drivers/STM32F1xx_HAL_Driver/Inc/stm32f1xx_ll_tim.h ****   ((uint32_t)(0x01U << (((__ICPSC__) >> 16U) >> TIM_CCMR1_IC1PSC_Pos)))
1034:Drivers/STM32F1xx_HAL_Driver/Inc/stm32f1xx_ll_tim.h **** 
1035:Drivers/STM32F1xx_HAL_Driver/Inc/stm32f1xx_ll_tim.h **** 
1036:Drivers/STM32F1xx_HAL_Driver/Inc/stm32f1xx_ll_tim.h **** /**
1037:Drivers/STM32F1xx_HAL_Driver/Inc/stm32f1xx_ll_tim.h ****   * @}
1038:Drivers/STM32F1xx_HAL_Driver/Inc/stm32f1xx_ll_tim.h ****   */
1039:Drivers/STM32F1xx_HAL_Driver/Inc/stm32f1xx_ll_tim.h **** 
1040:Drivers/STM32F1xx_HAL_Driver/Inc/stm32f1xx_ll_tim.h **** /* Exported functions --------------------------------------------------------*/
1041:Drivers/STM32F1xx_HAL_Driver/Inc/stm32f1xx_ll_tim.h **** /** @defgroup TIM_LL_Exported_Functions TIM Exported Functions
1042:Drivers/STM32F1xx_HAL_Driver/Inc/stm32f1xx_ll_tim.h ****   * @{
1043:Drivers/STM32F1xx_HAL_Driver/Inc/stm32f1xx_ll_tim.h ****   */
1044:Drivers/STM32F1xx_HAL_Driver/Inc/stm32f1xx_ll_tim.h **** 
1045:Drivers/STM32F1xx_HAL_Driver/Inc/stm32f1xx_ll_tim.h **** /** @defgroup TIM_LL_EF_Time_Base Time Base configuration
1046:Drivers/STM32F1xx_HAL_Driver/Inc/stm32f1xx_ll_tim.h ****   * @{
1047:Drivers/STM32F1xx_HAL_Driver/Inc/stm32f1xx_ll_tim.h ****   */
1048:Drivers/STM32F1xx_HAL_Driver/Inc/stm32f1xx_ll_tim.h **** /**
1049:Drivers/STM32F1xx_HAL_Driver/Inc/stm32f1xx_ll_tim.h ****   * @brief  Enable timer counter.
1050:Drivers/STM32F1xx_HAL_Driver/Inc/stm32f1xx_ll_tim.h ****   * @rmtoll CR1          CEN           LL_TIM_EnableCounter
1051:Drivers/STM32F1xx_HAL_Driver/Inc/stm32f1xx_ll_tim.h ****   * @param  TIMx Timer instance
1052:Drivers/STM32F1xx_HAL_Driver/Inc/stm32f1xx_ll_tim.h ****   * @retval None
1053:Drivers/STM32F1xx_HAL_Driver/Inc/stm32f1xx_ll_tim.h ****   */
1054:Drivers/STM32F1xx_HAL_Driver/Inc/stm32f1xx_ll_tim.h **** __STATIC_INLINE void LL_TIM_EnableCounter(TIM_TypeDef *TIMx)
1055:Drivers/STM32F1xx_HAL_Driver/Inc/stm32f1xx_ll_tim.h **** {
1056:Drivers/STM32F1xx_HAL_Driver/Inc/stm32f1xx_ll_tim.h ****   SET_BIT(TIMx->CR1, TIM_CR1_CEN);
1057:Drivers/STM32F1xx_HAL_Driver/Inc/stm32f1xx_ll_tim.h **** }
1058:Drivers/STM32F1xx_HAL_Driver/Inc/stm32f1xx_ll_tim.h **** 
1059:Drivers/STM32F1xx_HAL_Driver/Inc/stm32f1xx_ll_tim.h **** /**
1060:Drivers/STM32F1xx_HAL_Driver/Inc/stm32f1xx_ll_tim.h ****   * @brief  Disable timer counter.
1061:Drivers/STM32F1xx_HAL_Driver/Inc/stm32f1xx_ll_tim.h ****   * @rmtoll CR1          CEN           LL_TIM_DisableCounter
1062:Drivers/STM32F1xx_HAL_Driver/Inc/stm32f1xx_ll_tim.h ****   * @param  TIMx Timer instance
1063:Drivers/STM32F1xx_HAL_Driver/Inc/stm32f1xx_ll_tim.h ****   * @retval None
1064:Drivers/STM32F1xx_HAL_Driver/Inc/stm32f1xx_ll_tim.h ****   */
1065:Drivers/STM32F1xx_HAL_Driver/Inc/stm32f1xx_ll_tim.h **** __STATIC_INLINE void LL_TIM_DisableCounter(TIM_TypeDef *TIMx)
1066:Drivers/STM32F1xx_HAL_Driver/Inc/stm32f1xx_ll_tim.h **** {
1067:Drivers/STM32F1xx_HAL_Driver/Inc/stm32f1xx_ll_tim.h ****   CLEAR_BIT(TIMx->CR1, TIM_CR1_CEN);
1068:Drivers/STM32F1xx_HAL_Driver/Inc/stm32f1xx_ll_tim.h **** }
1069:Drivers/STM32F1xx_HAL_Driver/Inc/stm32f1xx_ll_tim.h **** 
1070:Drivers/STM32F1xx_HAL_Driver/Inc/stm32f1xx_ll_tim.h **** /**
1071:Drivers/STM32F1xx_HAL_Driver/Inc/stm32f1xx_ll_tim.h ****   * @brief  Indicates whether the timer counter is enabled.
1072:Drivers/STM32F1xx_HAL_Driver/Inc/stm32f1xx_ll_tim.h ****   * @rmtoll CR1          CEN           LL_TIM_IsEnabledCounter
1073:Drivers/STM32F1xx_HAL_Driver/Inc/stm32f1xx_ll_tim.h ****   * @param  TIMx Timer instance
1074:Drivers/STM32F1xx_HAL_Driver/Inc/stm32f1xx_ll_tim.h ****   * @retval State of bit (1 or 0).
1075:Drivers/STM32F1xx_HAL_Driver/Inc/stm32f1xx_ll_tim.h ****   */
1076:Drivers/STM32F1xx_HAL_Driver/Inc/stm32f1xx_ll_tim.h **** __STATIC_INLINE uint32_t LL_TIM_IsEnabledCounter(const TIM_TypeDef *TIMx)
1077:Drivers/STM32F1xx_HAL_Driver/Inc/stm32f1xx_ll_tim.h **** {
1078:Drivers/STM32F1xx_HAL_Driver/Inc/stm32f1xx_ll_tim.h ****   return ((READ_BIT(TIMx->CR1, TIM_CR1_CEN) == (TIM_CR1_CEN)) ? 1UL : 0UL);
1079:Drivers/STM32F1xx_HAL_Driver/Inc/stm32f1xx_ll_tim.h **** }
1080:Drivers/STM32F1xx_HAL_Driver/Inc/stm32f1xx_ll_tim.h **** 
1081:Drivers/STM32F1xx_HAL_Driver/Inc/stm32f1xx_ll_tim.h **** /**
1082:Drivers/STM32F1xx_HAL_Driver/Inc/stm32f1xx_ll_tim.h ****   * @brief  Enable update event generation.
1083:Drivers/STM32F1xx_HAL_Driver/Inc/stm32f1xx_ll_tim.h ****   * @rmtoll CR1          UDIS          LL_TIM_EnableUpdateEvent
1084:Drivers/STM32F1xx_HAL_Driver/Inc/stm32f1xx_ll_tim.h ****   * @param  TIMx Timer instance
1085:Drivers/STM32F1xx_HAL_Driver/Inc/stm32f1xx_ll_tim.h ****   * @retval None
1086:Drivers/STM32F1xx_HAL_Driver/Inc/stm32f1xx_ll_tim.h ****   */
ARM GAS  /tmp/ccdg0XkI.s 			page 42


1087:Drivers/STM32F1xx_HAL_Driver/Inc/stm32f1xx_ll_tim.h **** __STATIC_INLINE void LL_TIM_EnableUpdateEvent(TIM_TypeDef *TIMx)
1088:Drivers/STM32F1xx_HAL_Driver/Inc/stm32f1xx_ll_tim.h **** {
1089:Drivers/STM32F1xx_HAL_Driver/Inc/stm32f1xx_ll_tim.h ****   CLEAR_BIT(TIMx->CR1, TIM_CR1_UDIS);
1090:Drivers/STM32F1xx_HAL_Driver/Inc/stm32f1xx_ll_tim.h **** }
1091:Drivers/STM32F1xx_HAL_Driver/Inc/stm32f1xx_ll_tim.h **** 
1092:Drivers/STM32F1xx_HAL_Driver/Inc/stm32f1xx_ll_tim.h **** /**
1093:Drivers/STM32F1xx_HAL_Driver/Inc/stm32f1xx_ll_tim.h ****   * @brief  Disable update event generation.
1094:Drivers/STM32F1xx_HAL_Driver/Inc/stm32f1xx_ll_tim.h ****   * @rmtoll CR1          UDIS          LL_TIM_DisableUpdateEvent
1095:Drivers/STM32F1xx_HAL_Driver/Inc/stm32f1xx_ll_tim.h ****   * @param  TIMx Timer instance
1096:Drivers/STM32F1xx_HAL_Driver/Inc/stm32f1xx_ll_tim.h ****   * @retval None
1097:Drivers/STM32F1xx_HAL_Driver/Inc/stm32f1xx_ll_tim.h ****   */
1098:Drivers/STM32F1xx_HAL_Driver/Inc/stm32f1xx_ll_tim.h **** __STATIC_INLINE void LL_TIM_DisableUpdateEvent(TIM_TypeDef *TIMx)
1099:Drivers/STM32F1xx_HAL_Driver/Inc/stm32f1xx_ll_tim.h **** {
1100:Drivers/STM32F1xx_HAL_Driver/Inc/stm32f1xx_ll_tim.h ****   SET_BIT(TIMx->CR1, TIM_CR1_UDIS);
1101:Drivers/STM32F1xx_HAL_Driver/Inc/stm32f1xx_ll_tim.h **** }
1102:Drivers/STM32F1xx_HAL_Driver/Inc/stm32f1xx_ll_tim.h **** 
1103:Drivers/STM32F1xx_HAL_Driver/Inc/stm32f1xx_ll_tim.h **** /**
1104:Drivers/STM32F1xx_HAL_Driver/Inc/stm32f1xx_ll_tim.h ****   * @brief  Indicates whether update event generation is enabled.
1105:Drivers/STM32F1xx_HAL_Driver/Inc/stm32f1xx_ll_tim.h ****   * @rmtoll CR1          UDIS          LL_TIM_IsEnabledUpdateEvent
1106:Drivers/STM32F1xx_HAL_Driver/Inc/stm32f1xx_ll_tim.h ****   * @param  TIMx Timer instance
1107:Drivers/STM32F1xx_HAL_Driver/Inc/stm32f1xx_ll_tim.h ****   * @retval Inverted state of bit (0 or 1).
1108:Drivers/STM32F1xx_HAL_Driver/Inc/stm32f1xx_ll_tim.h ****   */
1109:Drivers/STM32F1xx_HAL_Driver/Inc/stm32f1xx_ll_tim.h **** __STATIC_INLINE uint32_t LL_TIM_IsEnabledUpdateEvent(const TIM_TypeDef *TIMx)
1110:Drivers/STM32F1xx_HAL_Driver/Inc/stm32f1xx_ll_tim.h **** {
1111:Drivers/STM32F1xx_HAL_Driver/Inc/stm32f1xx_ll_tim.h ****   return ((READ_BIT(TIMx->CR1, TIM_CR1_UDIS) == (uint32_t)RESET) ? 1UL : 0UL);
1112:Drivers/STM32F1xx_HAL_Driver/Inc/stm32f1xx_ll_tim.h **** }
1113:Drivers/STM32F1xx_HAL_Driver/Inc/stm32f1xx_ll_tim.h **** 
1114:Drivers/STM32F1xx_HAL_Driver/Inc/stm32f1xx_ll_tim.h **** /**
1115:Drivers/STM32F1xx_HAL_Driver/Inc/stm32f1xx_ll_tim.h ****   * @brief  Set update event source
1116:Drivers/STM32F1xx_HAL_Driver/Inc/stm32f1xx_ll_tim.h ****   * @note Update event source set to LL_TIM_UPDATESOURCE_REGULAR: any of the following events
1117:Drivers/STM32F1xx_HAL_Driver/Inc/stm32f1xx_ll_tim.h ****   *       generate an update interrupt or DMA request if enabled:
1118:Drivers/STM32F1xx_HAL_Driver/Inc/stm32f1xx_ll_tim.h ****   *        - Counter overflow/underflow
1119:Drivers/STM32F1xx_HAL_Driver/Inc/stm32f1xx_ll_tim.h ****   *        - Setting the UG bit
1120:Drivers/STM32F1xx_HAL_Driver/Inc/stm32f1xx_ll_tim.h ****   *        - Update generation through the slave mode controller
1121:Drivers/STM32F1xx_HAL_Driver/Inc/stm32f1xx_ll_tim.h ****   * @note Update event source set to LL_TIM_UPDATESOURCE_COUNTER: only counter
1122:Drivers/STM32F1xx_HAL_Driver/Inc/stm32f1xx_ll_tim.h ****   *       overflow/underflow generates an update interrupt or DMA request if enabled.
1123:Drivers/STM32F1xx_HAL_Driver/Inc/stm32f1xx_ll_tim.h ****   * @rmtoll CR1          URS           LL_TIM_SetUpdateSource
1124:Drivers/STM32F1xx_HAL_Driver/Inc/stm32f1xx_ll_tim.h ****   * @param  TIMx Timer instance
1125:Drivers/STM32F1xx_HAL_Driver/Inc/stm32f1xx_ll_tim.h ****   * @param  UpdateSource This parameter can be one of the following values:
1126:Drivers/STM32F1xx_HAL_Driver/Inc/stm32f1xx_ll_tim.h ****   *         @arg @ref LL_TIM_UPDATESOURCE_REGULAR
1127:Drivers/STM32F1xx_HAL_Driver/Inc/stm32f1xx_ll_tim.h ****   *         @arg @ref LL_TIM_UPDATESOURCE_COUNTER
1128:Drivers/STM32F1xx_HAL_Driver/Inc/stm32f1xx_ll_tim.h ****   * @retval None
1129:Drivers/STM32F1xx_HAL_Driver/Inc/stm32f1xx_ll_tim.h ****   */
1130:Drivers/STM32F1xx_HAL_Driver/Inc/stm32f1xx_ll_tim.h **** __STATIC_INLINE void LL_TIM_SetUpdateSource(TIM_TypeDef *TIMx, uint32_t UpdateSource)
1131:Drivers/STM32F1xx_HAL_Driver/Inc/stm32f1xx_ll_tim.h **** {
1132:Drivers/STM32F1xx_HAL_Driver/Inc/stm32f1xx_ll_tim.h ****   MODIFY_REG(TIMx->CR1, TIM_CR1_URS, UpdateSource);
1133:Drivers/STM32F1xx_HAL_Driver/Inc/stm32f1xx_ll_tim.h **** }
1134:Drivers/STM32F1xx_HAL_Driver/Inc/stm32f1xx_ll_tim.h **** 
1135:Drivers/STM32F1xx_HAL_Driver/Inc/stm32f1xx_ll_tim.h **** /**
1136:Drivers/STM32F1xx_HAL_Driver/Inc/stm32f1xx_ll_tim.h ****   * @brief  Get actual event update source
1137:Drivers/STM32F1xx_HAL_Driver/Inc/stm32f1xx_ll_tim.h ****   * @rmtoll CR1          URS           LL_TIM_GetUpdateSource
1138:Drivers/STM32F1xx_HAL_Driver/Inc/stm32f1xx_ll_tim.h ****   * @param  TIMx Timer instance
1139:Drivers/STM32F1xx_HAL_Driver/Inc/stm32f1xx_ll_tim.h ****   * @retval Returned value can be one of the following values:
1140:Drivers/STM32F1xx_HAL_Driver/Inc/stm32f1xx_ll_tim.h ****   *         @arg @ref LL_TIM_UPDATESOURCE_REGULAR
1141:Drivers/STM32F1xx_HAL_Driver/Inc/stm32f1xx_ll_tim.h ****   *         @arg @ref LL_TIM_UPDATESOURCE_COUNTER
1142:Drivers/STM32F1xx_HAL_Driver/Inc/stm32f1xx_ll_tim.h ****   */
1143:Drivers/STM32F1xx_HAL_Driver/Inc/stm32f1xx_ll_tim.h **** __STATIC_INLINE uint32_t LL_TIM_GetUpdateSource(const TIM_TypeDef *TIMx)
ARM GAS  /tmp/ccdg0XkI.s 			page 43


1144:Drivers/STM32F1xx_HAL_Driver/Inc/stm32f1xx_ll_tim.h **** {
1145:Drivers/STM32F1xx_HAL_Driver/Inc/stm32f1xx_ll_tim.h ****   return (uint32_t)(READ_BIT(TIMx->CR1, TIM_CR1_URS));
1146:Drivers/STM32F1xx_HAL_Driver/Inc/stm32f1xx_ll_tim.h **** }
1147:Drivers/STM32F1xx_HAL_Driver/Inc/stm32f1xx_ll_tim.h **** 
1148:Drivers/STM32F1xx_HAL_Driver/Inc/stm32f1xx_ll_tim.h **** /**
1149:Drivers/STM32F1xx_HAL_Driver/Inc/stm32f1xx_ll_tim.h ****   * @brief  Set one pulse mode (one shot v.s. repetitive).
1150:Drivers/STM32F1xx_HAL_Driver/Inc/stm32f1xx_ll_tim.h ****   * @rmtoll CR1          OPM           LL_TIM_SetOnePulseMode
1151:Drivers/STM32F1xx_HAL_Driver/Inc/stm32f1xx_ll_tim.h ****   * @param  TIMx Timer instance
1152:Drivers/STM32F1xx_HAL_Driver/Inc/stm32f1xx_ll_tim.h ****   * @param  OnePulseMode This parameter can be one of the following values:
1153:Drivers/STM32F1xx_HAL_Driver/Inc/stm32f1xx_ll_tim.h ****   *         @arg @ref LL_TIM_ONEPULSEMODE_SINGLE
1154:Drivers/STM32F1xx_HAL_Driver/Inc/stm32f1xx_ll_tim.h ****   *         @arg @ref LL_TIM_ONEPULSEMODE_REPETITIVE
1155:Drivers/STM32F1xx_HAL_Driver/Inc/stm32f1xx_ll_tim.h ****   * @retval None
1156:Drivers/STM32F1xx_HAL_Driver/Inc/stm32f1xx_ll_tim.h ****   */
1157:Drivers/STM32F1xx_HAL_Driver/Inc/stm32f1xx_ll_tim.h **** __STATIC_INLINE void LL_TIM_SetOnePulseMode(TIM_TypeDef *TIMx, uint32_t OnePulseMode)
1158:Drivers/STM32F1xx_HAL_Driver/Inc/stm32f1xx_ll_tim.h **** {
1159:Drivers/STM32F1xx_HAL_Driver/Inc/stm32f1xx_ll_tim.h ****   MODIFY_REG(TIMx->CR1, TIM_CR1_OPM, OnePulseMode);
1160:Drivers/STM32F1xx_HAL_Driver/Inc/stm32f1xx_ll_tim.h **** }
1161:Drivers/STM32F1xx_HAL_Driver/Inc/stm32f1xx_ll_tim.h **** 
1162:Drivers/STM32F1xx_HAL_Driver/Inc/stm32f1xx_ll_tim.h **** /**
1163:Drivers/STM32F1xx_HAL_Driver/Inc/stm32f1xx_ll_tim.h ****   * @brief  Get actual one pulse mode.
1164:Drivers/STM32F1xx_HAL_Driver/Inc/stm32f1xx_ll_tim.h ****   * @rmtoll CR1          OPM           LL_TIM_GetOnePulseMode
1165:Drivers/STM32F1xx_HAL_Driver/Inc/stm32f1xx_ll_tim.h ****   * @param  TIMx Timer instance
1166:Drivers/STM32F1xx_HAL_Driver/Inc/stm32f1xx_ll_tim.h ****   * @retval Returned value can be one of the following values:
1167:Drivers/STM32F1xx_HAL_Driver/Inc/stm32f1xx_ll_tim.h ****   *         @arg @ref LL_TIM_ONEPULSEMODE_SINGLE
1168:Drivers/STM32F1xx_HAL_Driver/Inc/stm32f1xx_ll_tim.h ****   *         @arg @ref LL_TIM_ONEPULSEMODE_REPETITIVE
1169:Drivers/STM32F1xx_HAL_Driver/Inc/stm32f1xx_ll_tim.h ****   */
1170:Drivers/STM32F1xx_HAL_Driver/Inc/stm32f1xx_ll_tim.h **** __STATIC_INLINE uint32_t LL_TIM_GetOnePulseMode(const TIM_TypeDef *TIMx)
1171:Drivers/STM32F1xx_HAL_Driver/Inc/stm32f1xx_ll_tim.h **** {
1172:Drivers/STM32F1xx_HAL_Driver/Inc/stm32f1xx_ll_tim.h ****   return (uint32_t)(READ_BIT(TIMx->CR1, TIM_CR1_OPM));
1173:Drivers/STM32F1xx_HAL_Driver/Inc/stm32f1xx_ll_tim.h **** }
1174:Drivers/STM32F1xx_HAL_Driver/Inc/stm32f1xx_ll_tim.h **** 
1175:Drivers/STM32F1xx_HAL_Driver/Inc/stm32f1xx_ll_tim.h **** /**
1176:Drivers/STM32F1xx_HAL_Driver/Inc/stm32f1xx_ll_tim.h ****   * @brief  Set the timer counter counting mode.
1177:Drivers/STM32F1xx_HAL_Driver/Inc/stm32f1xx_ll_tim.h ****   * @note Macro IS_TIM_COUNTER_MODE_SELECT_INSTANCE(TIMx) can be used to
1178:Drivers/STM32F1xx_HAL_Driver/Inc/stm32f1xx_ll_tim.h ****   *       check whether or not the counter mode selection feature is supported
1179:Drivers/STM32F1xx_HAL_Driver/Inc/stm32f1xx_ll_tim.h ****   *       by a timer instance.
1180:Drivers/STM32F1xx_HAL_Driver/Inc/stm32f1xx_ll_tim.h ****   * @note Switching from Center Aligned counter mode to Edge counter mode (or reverse)
1181:Drivers/STM32F1xx_HAL_Driver/Inc/stm32f1xx_ll_tim.h ****   *       requires a timer reset to avoid unexpected direction
1182:Drivers/STM32F1xx_HAL_Driver/Inc/stm32f1xx_ll_tim.h ****   *       due to DIR bit readonly in center aligned mode.
1183:Drivers/STM32F1xx_HAL_Driver/Inc/stm32f1xx_ll_tim.h ****   * @rmtoll CR1          DIR           LL_TIM_SetCounterMode\n
1184:Drivers/STM32F1xx_HAL_Driver/Inc/stm32f1xx_ll_tim.h ****   *         CR1          CMS           LL_TIM_SetCounterMode
1185:Drivers/STM32F1xx_HAL_Driver/Inc/stm32f1xx_ll_tim.h ****   * @param  TIMx Timer instance
1186:Drivers/STM32F1xx_HAL_Driver/Inc/stm32f1xx_ll_tim.h ****   * @param  CounterMode This parameter can be one of the following values:
1187:Drivers/STM32F1xx_HAL_Driver/Inc/stm32f1xx_ll_tim.h ****   *         @arg @ref LL_TIM_COUNTERMODE_UP
1188:Drivers/STM32F1xx_HAL_Driver/Inc/stm32f1xx_ll_tim.h ****   *         @arg @ref LL_TIM_COUNTERMODE_DOWN
1189:Drivers/STM32F1xx_HAL_Driver/Inc/stm32f1xx_ll_tim.h ****   *         @arg @ref LL_TIM_COUNTERMODE_CENTER_UP
1190:Drivers/STM32F1xx_HAL_Driver/Inc/stm32f1xx_ll_tim.h ****   *         @arg @ref LL_TIM_COUNTERMODE_CENTER_DOWN
1191:Drivers/STM32F1xx_HAL_Driver/Inc/stm32f1xx_ll_tim.h ****   *         @arg @ref LL_TIM_COUNTERMODE_CENTER_UP_DOWN
1192:Drivers/STM32F1xx_HAL_Driver/Inc/stm32f1xx_ll_tim.h ****   * @retval None
1193:Drivers/STM32F1xx_HAL_Driver/Inc/stm32f1xx_ll_tim.h ****   */
1194:Drivers/STM32F1xx_HAL_Driver/Inc/stm32f1xx_ll_tim.h **** __STATIC_INLINE void LL_TIM_SetCounterMode(TIM_TypeDef *TIMx, uint32_t CounterMode)
1195:Drivers/STM32F1xx_HAL_Driver/Inc/stm32f1xx_ll_tim.h **** {
1196:Drivers/STM32F1xx_HAL_Driver/Inc/stm32f1xx_ll_tim.h ****   MODIFY_REG(TIMx->CR1, (TIM_CR1_DIR | TIM_CR1_CMS), CounterMode);
1197:Drivers/STM32F1xx_HAL_Driver/Inc/stm32f1xx_ll_tim.h **** }
1198:Drivers/STM32F1xx_HAL_Driver/Inc/stm32f1xx_ll_tim.h **** 
1199:Drivers/STM32F1xx_HAL_Driver/Inc/stm32f1xx_ll_tim.h **** /**
1200:Drivers/STM32F1xx_HAL_Driver/Inc/stm32f1xx_ll_tim.h ****   * @brief  Get actual counter mode.
ARM GAS  /tmp/ccdg0XkI.s 			page 44


1201:Drivers/STM32F1xx_HAL_Driver/Inc/stm32f1xx_ll_tim.h ****   * @note Macro IS_TIM_COUNTER_MODE_SELECT_INSTANCE(TIMx) can be used to
1202:Drivers/STM32F1xx_HAL_Driver/Inc/stm32f1xx_ll_tim.h ****   *       check whether or not the counter mode selection feature is supported
1203:Drivers/STM32F1xx_HAL_Driver/Inc/stm32f1xx_ll_tim.h ****   *       by a timer instance.
1204:Drivers/STM32F1xx_HAL_Driver/Inc/stm32f1xx_ll_tim.h ****   * @rmtoll CR1          DIR           LL_TIM_GetCounterMode\n
1205:Drivers/STM32F1xx_HAL_Driver/Inc/stm32f1xx_ll_tim.h ****   *         CR1          CMS           LL_TIM_GetCounterMode
1206:Drivers/STM32F1xx_HAL_Driver/Inc/stm32f1xx_ll_tim.h ****   * @param  TIMx Timer instance
1207:Drivers/STM32F1xx_HAL_Driver/Inc/stm32f1xx_ll_tim.h ****   * @retval Returned value can be one of the following values:
1208:Drivers/STM32F1xx_HAL_Driver/Inc/stm32f1xx_ll_tim.h ****   *         @arg @ref LL_TIM_COUNTERMODE_UP
1209:Drivers/STM32F1xx_HAL_Driver/Inc/stm32f1xx_ll_tim.h ****   *         @arg @ref LL_TIM_COUNTERMODE_DOWN
1210:Drivers/STM32F1xx_HAL_Driver/Inc/stm32f1xx_ll_tim.h ****   *         @arg @ref LL_TIM_COUNTERMODE_CENTER_UP
1211:Drivers/STM32F1xx_HAL_Driver/Inc/stm32f1xx_ll_tim.h ****   *         @arg @ref LL_TIM_COUNTERMODE_CENTER_DOWN
1212:Drivers/STM32F1xx_HAL_Driver/Inc/stm32f1xx_ll_tim.h ****   *         @arg @ref LL_TIM_COUNTERMODE_CENTER_UP_DOWN
1213:Drivers/STM32F1xx_HAL_Driver/Inc/stm32f1xx_ll_tim.h ****   */
1214:Drivers/STM32F1xx_HAL_Driver/Inc/stm32f1xx_ll_tim.h **** __STATIC_INLINE uint32_t LL_TIM_GetCounterMode(const TIM_TypeDef *TIMx)
1215:Drivers/STM32F1xx_HAL_Driver/Inc/stm32f1xx_ll_tim.h **** {
1216:Drivers/STM32F1xx_HAL_Driver/Inc/stm32f1xx_ll_tim.h ****   uint32_t counter_mode;
1217:Drivers/STM32F1xx_HAL_Driver/Inc/stm32f1xx_ll_tim.h **** 
1218:Drivers/STM32F1xx_HAL_Driver/Inc/stm32f1xx_ll_tim.h ****   counter_mode = (uint32_t)(READ_BIT(TIMx->CR1, TIM_CR1_CMS));
1219:Drivers/STM32F1xx_HAL_Driver/Inc/stm32f1xx_ll_tim.h **** 
1220:Drivers/STM32F1xx_HAL_Driver/Inc/stm32f1xx_ll_tim.h ****   if (counter_mode == 0U)
1221:Drivers/STM32F1xx_HAL_Driver/Inc/stm32f1xx_ll_tim.h ****   {
1222:Drivers/STM32F1xx_HAL_Driver/Inc/stm32f1xx_ll_tim.h ****     counter_mode = (uint32_t)(READ_BIT(TIMx->CR1, TIM_CR1_DIR));
1223:Drivers/STM32F1xx_HAL_Driver/Inc/stm32f1xx_ll_tim.h ****   }
1224:Drivers/STM32F1xx_HAL_Driver/Inc/stm32f1xx_ll_tim.h **** 
1225:Drivers/STM32F1xx_HAL_Driver/Inc/stm32f1xx_ll_tim.h ****   return counter_mode;
1226:Drivers/STM32F1xx_HAL_Driver/Inc/stm32f1xx_ll_tim.h **** }
1227:Drivers/STM32F1xx_HAL_Driver/Inc/stm32f1xx_ll_tim.h **** 
1228:Drivers/STM32F1xx_HAL_Driver/Inc/stm32f1xx_ll_tim.h **** /**
1229:Drivers/STM32F1xx_HAL_Driver/Inc/stm32f1xx_ll_tim.h ****   * @brief  Enable auto-reload (ARR) preload.
1230:Drivers/STM32F1xx_HAL_Driver/Inc/stm32f1xx_ll_tim.h ****   * @rmtoll CR1          ARPE          LL_TIM_EnableARRPreload
1231:Drivers/STM32F1xx_HAL_Driver/Inc/stm32f1xx_ll_tim.h ****   * @param  TIMx Timer instance
1232:Drivers/STM32F1xx_HAL_Driver/Inc/stm32f1xx_ll_tim.h ****   * @retval None
1233:Drivers/STM32F1xx_HAL_Driver/Inc/stm32f1xx_ll_tim.h ****   */
1234:Drivers/STM32F1xx_HAL_Driver/Inc/stm32f1xx_ll_tim.h **** __STATIC_INLINE void LL_TIM_EnableARRPreload(TIM_TypeDef *TIMx)
1235:Drivers/STM32F1xx_HAL_Driver/Inc/stm32f1xx_ll_tim.h **** {
1236:Drivers/STM32F1xx_HAL_Driver/Inc/stm32f1xx_ll_tim.h ****   SET_BIT(TIMx->CR1, TIM_CR1_ARPE);
1237:Drivers/STM32F1xx_HAL_Driver/Inc/stm32f1xx_ll_tim.h **** }
1238:Drivers/STM32F1xx_HAL_Driver/Inc/stm32f1xx_ll_tim.h **** 
1239:Drivers/STM32F1xx_HAL_Driver/Inc/stm32f1xx_ll_tim.h **** /**
1240:Drivers/STM32F1xx_HAL_Driver/Inc/stm32f1xx_ll_tim.h ****   * @brief  Disable auto-reload (ARR) preload.
1241:Drivers/STM32F1xx_HAL_Driver/Inc/stm32f1xx_ll_tim.h ****   * @rmtoll CR1          ARPE          LL_TIM_DisableARRPreload
1242:Drivers/STM32F1xx_HAL_Driver/Inc/stm32f1xx_ll_tim.h ****   * @param  TIMx Timer instance
1243:Drivers/STM32F1xx_HAL_Driver/Inc/stm32f1xx_ll_tim.h ****   * @retval None
1244:Drivers/STM32F1xx_HAL_Driver/Inc/stm32f1xx_ll_tim.h ****   */
1245:Drivers/STM32F1xx_HAL_Driver/Inc/stm32f1xx_ll_tim.h **** __STATIC_INLINE void LL_TIM_DisableARRPreload(TIM_TypeDef *TIMx)
 224              		.loc 3 1245 22 view .LVU54
 225              	.LBB217:
1246:Drivers/STM32F1xx_HAL_Driver/Inc/stm32f1xx_ll_tim.h **** {
1247:Drivers/STM32F1xx_HAL_Driver/Inc/stm32f1xx_ll_tim.h ****   CLEAR_BIT(TIMx->CR1, TIM_CR1_ARPE);
 226              		.loc 3 1247 3 view .LVU55
 227 003e 2368     		ldr	r3, [r4]
 228 0040 23F08003 		bic	r3, r3, #128
 229 0044 2360     		str	r3, [r4]
 230              	.LVL10:
 231              		.loc 3 1247 3 is_stmt 0 view .LVU56
 232              	.LBE217:
 233              	.LBE216:
ARM GAS  /tmp/ccdg0XkI.s 			page 45


 369:Core/Src/tim.c **** 
 234              		.loc 1 369 1 view .LVU57
 235 0046 06B0     		add	sp, sp, #24
 236              	.LCFI3:
 237              		.cfi_def_cfa_offset 8
 238              		@ sp needed
 239 0048 10BD     		pop	{r4, pc}
 240              	.L17:
 241 004a 00BF     		.align	2
 242              	.L16:
 243 004c 00140040 		.word	1073746944
 244              		.cfi_endproc
 245              	.LFE964:
 247              		.section	.text.timer_bounce_init,"ax",%progbits
 248              		.align	1
 249              		.syntax unified
 250              		.thumb
 251              		.thumb_func
 253              	timer_bounce_init:
 254              	.LFB966:
 384:Core/Src/tim.c **** 	LL_TIM_InitTypeDef TIM_InitStruct = {0};
 255              		.loc 1 384 1 is_stmt 1 view -0
 256              		.cfi_startproc
 257              		@ args = 0, pretend = 0, frame = 24
 258              		@ frame_needed = 0, uses_anonymous_args = 0
 259 0000 30B5     		push	{r4, r5, lr}
 260              	.LCFI4:
 261              		.cfi_def_cfa_offset 12
 262              		.cfi_offset 4, -12
 263              		.cfi_offset 5, -8
 264              		.cfi_offset 14, -4
 265 0002 87B0     		sub	sp, sp, #28
 266              	.LCFI5:
 267              		.cfi_def_cfa_offset 40
 385:Core/Src/tim.c **** 
 268              		.loc 1 385 2 view .LVU59
 385:Core/Src/tim.c **** 
 269              		.loc 1 385 21 is_stmt 0 view .LVU60
 270 0004 0025     		movs	r5, #0
 271 0006 0195     		str	r5, [sp, #4]
 272 0008 0295     		str	r5, [sp, #8]
 273 000a 0395     		str	r5, [sp, #12]
 274 000c 0495     		str	r5, [sp, #16]
 275 000e 0595     		str	r5, [sp, #20]
 387:Core/Src/tim.c **** 
 276              		.loc 1 387 3 is_stmt 1 view .LVU61
 277              	.LVL11:
 278              	.LBB218:
 279              	.LBI218:
 445:Drivers/STM32F1xx_HAL_Driver/Inc/stm32f1xx_ll_bus.h **** {
 280              		.loc 2 445 22 view .LVU62
 281              	.LBB219:
 447:Drivers/STM32F1xx_HAL_Driver/Inc/stm32f1xx_ll_bus.h ****   SET_BIT(RCC->APB1ENR, Periphs);
 282              		.loc 2 447 3 view .LVU63
 448:Drivers/STM32F1xx_HAL_Driver/Inc/stm32f1xx_ll_bus.h ****   /* Delay after an RCC peripheral clock enabling */
 283              		.loc 2 448 3 view .LVU64
 284 0010 164B     		ldr	r3, .L20
ARM GAS  /tmp/ccdg0XkI.s 			page 46


 285 0012 DA69     		ldr	r2, [r3, #28]
 286 0014 42F01002 		orr	r2, r2, #16
 287 0018 DA61     		str	r2, [r3, #28]
 450:Drivers/STM32F1xx_HAL_Driver/Inc/stm32f1xx_ll_bus.h ****   (void)tmpreg;
 288              		.loc 2 450 3 view .LVU65
 450:Drivers/STM32F1xx_HAL_Driver/Inc/stm32f1xx_ll_bus.h ****   (void)tmpreg;
 289              		.loc 2 450 12 is_stmt 0 view .LVU66
 290 001a DB69     		ldr	r3, [r3, #28]
 291 001c 03F01003 		and	r3, r3, #16
 450:Drivers/STM32F1xx_HAL_Driver/Inc/stm32f1xx_ll_bus.h ****   (void)tmpreg;
 292              		.loc 2 450 10 view .LVU67
 293 0020 0093     		str	r3, [sp]
 294              		.loc 2 451 3 is_stmt 1 view .LVU68
 295 0022 009B     		ldr	r3, [sp]
 296              	.LVL12:
 297              		.loc 2 451 3 is_stmt 0 view .LVU69
 298              	.LBE219:
 299              	.LBE218:
 389:Core/Src/tim.c ****   TIM_InitStruct.CounterMode = LL_TIM_COUNTERMODE_UP;
 300              		.loc 1 389 3 is_stmt 1 view .LVU70
 389:Core/Src/tim.c ****   TIM_InitStruct.CounterMode = LL_TIM_COUNTERMODE_UP;
 301              		.loc 1 389 28 is_stmt 0 view .LVU71
 302 0024 4723     		movs	r3, #71
 303 0026 ADF80430 		strh	r3, [sp, #4]	@ movhi
 390:Core/Src/tim.c ****   TIM_InitStruct.Autoreload = (1000-1);
 304              		.loc 1 390 3 is_stmt 1 view .LVU72
 391:Core/Src/tim.c ****   TIM_InitStruct.ClockDivision = LL_TIM_CLOCKDIVISION_DIV1;
 305              		.loc 1 391 3 view .LVU73
 391:Core/Src/tim.c ****   TIM_InitStruct.ClockDivision = LL_TIM_CLOCKDIVISION_DIV1;
 306              		.loc 1 391 29 is_stmt 0 view .LVU74
 307 002a 40F2E733 		movw	r3, #999
 308 002e 0393     		str	r3, [sp, #12]
 392:Core/Src/tim.c ****   TIM_InitStruct.RepetitionCounter = 0;
 309              		.loc 1 392 3 is_stmt 1 view .LVU75
 393:Core/Src/tim.c ****   LL_TIM_Init(TIM_BOUNCE_DELAY, &TIM_InitStruct);
 310              		.loc 1 393 3 view .LVU76
 394:Core/Src/tim.c ****   LL_TIM_DisableARRPreload(TIM_BOUNCE_DELAY);	
 311              		.loc 1 394 3 view .LVU77
 312 0030 0F4C     		ldr	r4, .L20+4
 313 0032 01A9     		add	r1, sp, #4
 314 0034 2046     		mov	r0, r4
 315 0036 FFF7FEFF 		bl	LL_TIM_Init
 316              	.LVL13:
 395:Core/Src/tim.c **** 	
 317              		.loc 1 395 3 view .LVU78
 318              	.LBB220:
 319              	.LBI220:
1245:Drivers/STM32F1xx_HAL_Driver/Inc/stm32f1xx_ll_tim.h **** {
 320              		.loc 3 1245 22 view .LVU79
 321              	.LBB221:
 322              		.loc 3 1247 3 view .LVU80
 323 003a 2368     		ldr	r3, [r4]
 324 003c 23F08003 		bic	r3, r3, #128
 325 0040 2360     		str	r3, [r4]
 326              	.LVL14:
 327              		.loc 3 1247 3 is_stmt 0 view .LVU81
 328              	.LBE221:
ARM GAS  /tmp/ccdg0XkI.s 			page 47


 329              	.LBE220:
 397:Core/Src/tim.c **** 	LL_TIM_EnableIT_UPDATE(TIM_BOUNCE_DELAY); //—Ä–∞–∑—Ä–µ—à–µ–Ω–∏–π –ø—Ä–µ—Ä—ã–≤–∞–Ω–∏–π –æ—Ç —Ç–∞–π–
 330              		.loc 1 397 2 is_stmt 1 view .LVU82
 331              	.LBB222:
 332              	.LBI222:
1248:Drivers/STM32F1xx_HAL_Driver/Inc/stm32f1xx_ll_tim.h **** }
1249:Drivers/STM32F1xx_HAL_Driver/Inc/stm32f1xx_ll_tim.h **** 
1250:Drivers/STM32F1xx_HAL_Driver/Inc/stm32f1xx_ll_tim.h **** /**
1251:Drivers/STM32F1xx_HAL_Driver/Inc/stm32f1xx_ll_tim.h ****   * @brief  Indicates whether auto-reload (ARR) preload is enabled.
1252:Drivers/STM32F1xx_HAL_Driver/Inc/stm32f1xx_ll_tim.h ****   * @rmtoll CR1          ARPE          LL_TIM_IsEnabledARRPreload
1253:Drivers/STM32F1xx_HAL_Driver/Inc/stm32f1xx_ll_tim.h ****   * @param  TIMx Timer instance
1254:Drivers/STM32F1xx_HAL_Driver/Inc/stm32f1xx_ll_tim.h ****   * @retval State of bit (1 or 0).
1255:Drivers/STM32F1xx_HAL_Driver/Inc/stm32f1xx_ll_tim.h ****   */
1256:Drivers/STM32F1xx_HAL_Driver/Inc/stm32f1xx_ll_tim.h **** __STATIC_INLINE uint32_t LL_TIM_IsEnabledARRPreload(const TIM_TypeDef *TIMx)
1257:Drivers/STM32F1xx_HAL_Driver/Inc/stm32f1xx_ll_tim.h **** {
1258:Drivers/STM32F1xx_HAL_Driver/Inc/stm32f1xx_ll_tim.h ****   return ((READ_BIT(TIMx->CR1, TIM_CR1_ARPE) == (TIM_CR1_ARPE)) ? 1UL : 0UL);
1259:Drivers/STM32F1xx_HAL_Driver/Inc/stm32f1xx_ll_tim.h **** }
1260:Drivers/STM32F1xx_HAL_Driver/Inc/stm32f1xx_ll_tim.h **** 
1261:Drivers/STM32F1xx_HAL_Driver/Inc/stm32f1xx_ll_tim.h **** /**
1262:Drivers/STM32F1xx_HAL_Driver/Inc/stm32f1xx_ll_tim.h ****   * @brief  Set the division ratio between the timer clock  and the sampling clock used by the dead
1263:Drivers/STM32F1xx_HAL_Driver/Inc/stm32f1xx_ll_tim.h ****   *         (when supported) and the digital filters.
1264:Drivers/STM32F1xx_HAL_Driver/Inc/stm32f1xx_ll_tim.h ****   * @note Macro IS_TIM_CLOCK_DIVISION_INSTANCE(TIMx) can be used to check
1265:Drivers/STM32F1xx_HAL_Driver/Inc/stm32f1xx_ll_tim.h ****   *       whether or not the clock division feature is supported by the timer
1266:Drivers/STM32F1xx_HAL_Driver/Inc/stm32f1xx_ll_tim.h ****   *       instance.
1267:Drivers/STM32F1xx_HAL_Driver/Inc/stm32f1xx_ll_tim.h ****   * @rmtoll CR1          CKD           LL_TIM_SetClockDivision
1268:Drivers/STM32F1xx_HAL_Driver/Inc/stm32f1xx_ll_tim.h ****   * @param  TIMx Timer instance
1269:Drivers/STM32F1xx_HAL_Driver/Inc/stm32f1xx_ll_tim.h ****   * @param  ClockDivision This parameter can be one of the following values:
1270:Drivers/STM32F1xx_HAL_Driver/Inc/stm32f1xx_ll_tim.h ****   *         @arg @ref LL_TIM_CLOCKDIVISION_DIV1
1271:Drivers/STM32F1xx_HAL_Driver/Inc/stm32f1xx_ll_tim.h ****   *         @arg @ref LL_TIM_CLOCKDIVISION_DIV2
1272:Drivers/STM32F1xx_HAL_Driver/Inc/stm32f1xx_ll_tim.h ****   *         @arg @ref LL_TIM_CLOCKDIVISION_DIV4
1273:Drivers/STM32F1xx_HAL_Driver/Inc/stm32f1xx_ll_tim.h ****   * @retval None
1274:Drivers/STM32F1xx_HAL_Driver/Inc/stm32f1xx_ll_tim.h ****   */
1275:Drivers/STM32F1xx_HAL_Driver/Inc/stm32f1xx_ll_tim.h **** __STATIC_INLINE void LL_TIM_SetClockDivision(TIM_TypeDef *TIMx, uint32_t ClockDivision)
1276:Drivers/STM32F1xx_HAL_Driver/Inc/stm32f1xx_ll_tim.h **** {
1277:Drivers/STM32F1xx_HAL_Driver/Inc/stm32f1xx_ll_tim.h ****   MODIFY_REG(TIMx->CR1, TIM_CR1_CKD, ClockDivision);
1278:Drivers/STM32F1xx_HAL_Driver/Inc/stm32f1xx_ll_tim.h **** }
1279:Drivers/STM32F1xx_HAL_Driver/Inc/stm32f1xx_ll_tim.h **** 
1280:Drivers/STM32F1xx_HAL_Driver/Inc/stm32f1xx_ll_tim.h **** /**
1281:Drivers/STM32F1xx_HAL_Driver/Inc/stm32f1xx_ll_tim.h ****   * @brief  Get the actual division ratio between the timer clock  and the sampling clock used by t
1282:Drivers/STM32F1xx_HAL_Driver/Inc/stm32f1xx_ll_tim.h ****   *         generators (when supported) and the digital filters.
1283:Drivers/STM32F1xx_HAL_Driver/Inc/stm32f1xx_ll_tim.h ****   * @note Macro IS_TIM_CLOCK_DIVISION_INSTANCE(TIMx) can be used to check
1284:Drivers/STM32F1xx_HAL_Driver/Inc/stm32f1xx_ll_tim.h ****   *       whether or not the clock division feature is supported by the timer
1285:Drivers/STM32F1xx_HAL_Driver/Inc/stm32f1xx_ll_tim.h ****   *       instance.
1286:Drivers/STM32F1xx_HAL_Driver/Inc/stm32f1xx_ll_tim.h ****   * @rmtoll CR1          CKD           LL_TIM_GetClockDivision
1287:Drivers/STM32F1xx_HAL_Driver/Inc/stm32f1xx_ll_tim.h ****   * @param  TIMx Timer instance
1288:Drivers/STM32F1xx_HAL_Driver/Inc/stm32f1xx_ll_tim.h ****   * @retval Returned value can be one of the following values:
1289:Drivers/STM32F1xx_HAL_Driver/Inc/stm32f1xx_ll_tim.h ****   *         @arg @ref LL_TIM_CLOCKDIVISION_DIV1
1290:Drivers/STM32F1xx_HAL_Driver/Inc/stm32f1xx_ll_tim.h ****   *         @arg @ref LL_TIM_CLOCKDIVISION_DIV2
1291:Drivers/STM32F1xx_HAL_Driver/Inc/stm32f1xx_ll_tim.h ****   *         @arg @ref LL_TIM_CLOCKDIVISION_DIV4
1292:Drivers/STM32F1xx_HAL_Driver/Inc/stm32f1xx_ll_tim.h ****   */
1293:Drivers/STM32F1xx_HAL_Driver/Inc/stm32f1xx_ll_tim.h **** __STATIC_INLINE uint32_t LL_TIM_GetClockDivision(const TIM_TypeDef *TIMx)
1294:Drivers/STM32F1xx_HAL_Driver/Inc/stm32f1xx_ll_tim.h **** {
1295:Drivers/STM32F1xx_HAL_Driver/Inc/stm32f1xx_ll_tim.h ****   return (uint32_t)(READ_BIT(TIMx->CR1, TIM_CR1_CKD));
1296:Drivers/STM32F1xx_HAL_Driver/Inc/stm32f1xx_ll_tim.h **** }
1297:Drivers/STM32F1xx_HAL_Driver/Inc/stm32f1xx_ll_tim.h **** 
1298:Drivers/STM32F1xx_HAL_Driver/Inc/stm32f1xx_ll_tim.h **** /**
1299:Drivers/STM32F1xx_HAL_Driver/Inc/stm32f1xx_ll_tim.h ****   * @brief  Set the counter value.
ARM GAS  /tmp/ccdg0XkI.s 			page 48


1300:Drivers/STM32F1xx_HAL_Driver/Inc/stm32f1xx_ll_tim.h ****   * @rmtoll CNT          CNT           LL_TIM_SetCounter
1301:Drivers/STM32F1xx_HAL_Driver/Inc/stm32f1xx_ll_tim.h ****   * @param  TIMx Timer instance
1302:Drivers/STM32F1xx_HAL_Driver/Inc/stm32f1xx_ll_tim.h ****   * @param  Counter Counter value (between Min_Data=0 and Max_Data=0xFFFF)
1303:Drivers/STM32F1xx_HAL_Driver/Inc/stm32f1xx_ll_tim.h ****   * @retval None
1304:Drivers/STM32F1xx_HAL_Driver/Inc/stm32f1xx_ll_tim.h ****   */
1305:Drivers/STM32F1xx_HAL_Driver/Inc/stm32f1xx_ll_tim.h **** __STATIC_INLINE void LL_TIM_SetCounter(TIM_TypeDef *TIMx, uint32_t Counter)
1306:Drivers/STM32F1xx_HAL_Driver/Inc/stm32f1xx_ll_tim.h **** {
1307:Drivers/STM32F1xx_HAL_Driver/Inc/stm32f1xx_ll_tim.h ****   WRITE_REG(TIMx->CNT, Counter);
1308:Drivers/STM32F1xx_HAL_Driver/Inc/stm32f1xx_ll_tim.h **** }
1309:Drivers/STM32F1xx_HAL_Driver/Inc/stm32f1xx_ll_tim.h **** 
1310:Drivers/STM32F1xx_HAL_Driver/Inc/stm32f1xx_ll_tim.h **** /**
1311:Drivers/STM32F1xx_HAL_Driver/Inc/stm32f1xx_ll_tim.h ****   * @brief  Get the counter value.
1312:Drivers/STM32F1xx_HAL_Driver/Inc/stm32f1xx_ll_tim.h ****   * @rmtoll CNT          CNT           LL_TIM_GetCounter
1313:Drivers/STM32F1xx_HAL_Driver/Inc/stm32f1xx_ll_tim.h ****   * @param  TIMx Timer instance
1314:Drivers/STM32F1xx_HAL_Driver/Inc/stm32f1xx_ll_tim.h ****   * @retval Counter value (between Min_Data=0 and Max_Data=0xFFFF)
1315:Drivers/STM32F1xx_HAL_Driver/Inc/stm32f1xx_ll_tim.h ****   */
1316:Drivers/STM32F1xx_HAL_Driver/Inc/stm32f1xx_ll_tim.h **** __STATIC_INLINE uint32_t LL_TIM_GetCounter(const TIM_TypeDef *TIMx)
1317:Drivers/STM32F1xx_HAL_Driver/Inc/stm32f1xx_ll_tim.h **** {
1318:Drivers/STM32F1xx_HAL_Driver/Inc/stm32f1xx_ll_tim.h ****   return (uint32_t)(READ_REG(TIMx->CNT));
1319:Drivers/STM32F1xx_HAL_Driver/Inc/stm32f1xx_ll_tim.h **** }
1320:Drivers/STM32F1xx_HAL_Driver/Inc/stm32f1xx_ll_tim.h **** 
1321:Drivers/STM32F1xx_HAL_Driver/Inc/stm32f1xx_ll_tim.h **** /**
1322:Drivers/STM32F1xx_HAL_Driver/Inc/stm32f1xx_ll_tim.h ****   * @brief  Get the current direction of the counter
1323:Drivers/STM32F1xx_HAL_Driver/Inc/stm32f1xx_ll_tim.h ****   * @rmtoll CR1          DIR           LL_TIM_GetDirection
1324:Drivers/STM32F1xx_HAL_Driver/Inc/stm32f1xx_ll_tim.h ****   * @param  TIMx Timer instance
1325:Drivers/STM32F1xx_HAL_Driver/Inc/stm32f1xx_ll_tim.h ****   * @retval Returned value can be one of the following values:
1326:Drivers/STM32F1xx_HAL_Driver/Inc/stm32f1xx_ll_tim.h ****   *         @arg @ref LL_TIM_COUNTERDIRECTION_UP
1327:Drivers/STM32F1xx_HAL_Driver/Inc/stm32f1xx_ll_tim.h ****   *         @arg @ref LL_TIM_COUNTERDIRECTION_DOWN
1328:Drivers/STM32F1xx_HAL_Driver/Inc/stm32f1xx_ll_tim.h ****   */
1329:Drivers/STM32F1xx_HAL_Driver/Inc/stm32f1xx_ll_tim.h **** __STATIC_INLINE uint32_t LL_TIM_GetDirection(const TIM_TypeDef *TIMx)
1330:Drivers/STM32F1xx_HAL_Driver/Inc/stm32f1xx_ll_tim.h **** {
1331:Drivers/STM32F1xx_HAL_Driver/Inc/stm32f1xx_ll_tim.h ****   return (uint32_t)(READ_BIT(TIMx->CR1, TIM_CR1_DIR));
1332:Drivers/STM32F1xx_HAL_Driver/Inc/stm32f1xx_ll_tim.h **** }
1333:Drivers/STM32F1xx_HAL_Driver/Inc/stm32f1xx_ll_tim.h **** 
1334:Drivers/STM32F1xx_HAL_Driver/Inc/stm32f1xx_ll_tim.h **** /**
1335:Drivers/STM32F1xx_HAL_Driver/Inc/stm32f1xx_ll_tim.h ****   * @brief  Set the prescaler value.
1336:Drivers/STM32F1xx_HAL_Driver/Inc/stm32f1xx_ll_tim.h ****   * @note The counter clock frequency CK_CNT is equal to fCK_PSC / (PSC[15:0] + 1).
1337:Drivers/STM32F1xx_HAL_Driver/Inc/stm32f1xx_ll_tim.h ****   * @note The prescaler can be changed on the fly as this control register is buffered. The new
1338:Drivers/STM32F1xx_HAL_Driver/Inc/stm32f1xx_ll_tim.h ****   *       prescaler ratio is taken into account at the next update event.
1339:Drivers/STM32F1xx_HAL_Driver/Inc/stm32f1xx_ll_tim.h ****   * @note Helper macro @ref __LL_TIM_CALC_PSC can be used to calculate the Prescaler parameter
1340:Drivers/STM32F1xx_HAL_Driver/Inc/stm32f1xx_ll_tim.h ****   * @rmtoll PSC          PSC           LL_TIM_SetPrescaler
1341:Drivers/STM32F1xx_HAL_Driver/Inc/stm32f1xx_ll_tim.h ****   * @param  TIMx Timer instance
1342:Drivers/STM32F1xx_HAL_Driver/Inc/stm32f1xx_ll_tim.h ****   * @param  Prescaler between Min_Data=0 and Max_Data=65535
1343:Drivers/STM32F1xx_HAL_Driver/Inc/stm32f1xx_ll_tim.h ****   * @retval None
1344:Drivers/STM32F1xx_HAL_Driver/Inc/stm32f1xx_ll_tim.h ****   */
1345:Drivers/STM32F1xx_HAL_Driver/Inc/stm32f1xx_ll_tim.h **** __STATIC_INLINE void LL_TIM_SetPrescaler(TIM_TypeDef *TIMx, uint32_t Prescaler)
1346:Drivers/STM32F1xx_HAL_Driver/Inc/stm32f1xx_ll_tim.h **** {
1347:Drivers/STM32F1xx_HAL_Driver/Inc/stm32f1xx_ll_tim.h ****   WRITE_REG(TIMx->PSC, Prescaler);
1348:Drivers/STM32F1xx_HAL_Driver/Inc/stm32f1xx_ll_tim.h **** }
1349:Drivers/STM32F1xx_HAL_Driver/Inc/stm32f1xx_ll_tim.h **** 
1350:Drivers/STM32F1xx_HAL_Driver/Inc/stm32f1xx_ll_tim.h **** /**
1351:Drivers/STM32F1xx_HAL_Driver/Inc/stm32f1xx_ll_tim.h ****   * @brief  Get the prescaler value.
1352:Drivers/STM32F1xx_HAL_Driver/Inc/stm32f1xx_ll_tim.h ****   * @rmtoll PSC          PSC           LL_TIM_GetPrescaler
1353:Drivers/STM32F1xx_HAL_Driver/Inc/stm32f1xx_ll_tim.h ****   * @param  TIMx Timer instance
1354:Drivers/STM32F1xx_HAL_Driver/Inc/stm32f1xx_ll_tim.h ****   * @retval  Prescaler value between Min_Data=0 and Max_Data=65535
1355:Drivers/STM32F1xx_HAL_Driver/Inc/stm32f1xx_ll_tim.h ****   */
1356:Drivers/STM32F1xx_HAL_Driver/Inc/stm32f1xx_ll_tim.h **** __STATIC_INLINE uint32_t LL_TIM_GetPrescaler(const TIM_TypeDef *TIMx)
ARM GAS  /tmp/ccdg0XkI.s 			page 49


1357:Drivers/STM32F1xx_HAL_Driver/Inc/stm32f1xx_ll_tim.h **** {
1358:Drivers/STM32F1xx_HAL_Driver/Inc/stm32f1xx_ll_tim.h ****   return (uint32_t)(READ_REG(TIMx->PSC));
1359:Drivers/STM32F1xx_HAL_Driver/Inc/stm32f1xx_ll_tim.h **** }
1360:Drivers/STM32F1xx_HAL_Driver/Inc/stm32f1xx_ll_tim.h **** 
1361:Drivers/STM32F1xx_HAL_Driver/Inc/stm32f1xx_ll_tim.h **** /**
1362:Drivers/STM32F1xx_HAL_Driver/Inc/stm32f1xx_ll_tim.h ****   * @brief  Set the auto-reload value.
1363:Drivers/STM32F1xx_HAL_Driver/Inc/stm32f1xx_ll_tim.h ****   * @note The counter is blocked while the auto-reload value is null.
1364:Drivers/STM32F1xx_HAL_Driver/Inc/stm32f1xx_ll_tim.h ****   * @note Helper macro @ref __LL_TIM_CALC_ARR can be used to calculate the AutoReload parameter
1365:Drivers/STM32F1xx_HAL_Driver/Inc/stm32f1xx_ll_tim.h ****   * @rmtoll ARR          ARR           LL_TIM_SetAutoReload
1366:Drivers/STM32F1xx_HAL_Driver/Inc/stm32f1xx_ll_tim.h ****   * @param  TIMx Timer instance
1367:Drivers/STM32F1xx_HAL_Driver/Inc/stm32f1xx_ll_tim.h ****   * @param  AutoReload between Min_Data=0 and Max_Data=65535
1368:Drivers/STM32F1xx_HAL_Driver/Inc/stm32f1xx_ll_tim.h ****   * @retval None
1369:Drivers/STM32F1xx_HAL_Driver/Inc/stm32f1xx_ll_tim.h ****   */
1370:Drivers/STM32F1xx_HAL_Driver/Inc/stm32f1xx_ll_tim.h **** __STATIC_INLINE void LL_TIM_SetAutoReload(TIM_TypeDef *TIMx, uint32_t AutoReload)
1371:Drivers/STM32F1xx_HAL_Driver/Inc/stm32f1xx_ll_tim.h **** {
1372:Drivers/STM32F1xx_HAL_Driver/Inc/stm32f1xx_ll_tim.h ****   WRITE_REG(TIMx->ARR, AutoReload);
1373:Drivers/STM32F1xx_HAL_Driver/Inc/stm32f1xx_ll_tim.h **** }
1374:Drivers/STM32F1xx_HAL_Driver/Inc/stm32f1xx_ll_tim.h **** 
1375:Drivers/STM32F1xx_HAL_Driver/Inc/stm32f1xx_ll_tim.h **** /**
1376:Drivers/STM32F1xx_HAL_Driver/Inc/stm32f1xx_ll_tim.h ****   * @brief  Get the auto-reload value.
1377:Drivers/STM32F1xx_HAL_Driver/Inc/stm32f1xx_ll_tim.h ****   * @rmtoll ARR          ARR           LL_TIM_GetAutoReload
1378:Drivers/STM32F1xx_HAL_Driver/Inc/stm32f1xx_ll_tim.h ****   * @param  TIMx Timer instance
1379:Drivers/STM32F1xx_HAL_Driver/Inc/stm32f1xx_ll_tim.h ****   * @retval Auto-reload value
1380:Drivers/STM32F1xx_HAL_Driver/Inc/stm32f1xx_ll_tim.h ****   */
1381:Drivers/STM32F1xx_HAL_Driver/Inc/stm32f1xx_ll_tim.h **** __STATIC_INLINE uint32_t LL_TIM_GetAutoReload(const TIM_TypeDef *TIMx)
1382:Drivers/STM32F1xx_HAL_Driver/Inc/stm32f1xx_ll_tim.h **** {
1383:Drivers/STM32F1xx_HAL_Driver/Inc/stm32f1xx_ll_tim.h ****   return (uint32_t)(READ_REG(TIMx->ARR));
1384:Drivers/STM32F1xx_HAL_Driver/Inc/stm32f1xx_ll_tim.h **** }
1385:Drivers/STM32F1xx_HAL_Driver/Inc/stm32f1xx_ll_tim.h **** 
1386:Drivers/STM32F1xx_HAL_Driver/Inc/stm32f1xx_ll_tim.h **** /**
1387:Drivers/STM32F1xx_HAL_Driver/Inc/stm32f1xx_ll_tim.h ****   * @brief  Set the repetition counter value.
1388:Drivers/STM32F1xx_HAL_Driver/Inc/stm32f1xx_ll_tim.h ****   * @note Macro IS_TIM_REPETITION_COUNTER_INSTANCE(TIMx) can be used to check
1389:Drivers/STM32F1xx_HAL_Driver/Inc/stm32f1xx_ll_tim.h ****   *       whether or not a timer instance supports a repetition counter.
1390:Drivers/STM32F1xx_HAL_Driver/Inc/stm32f1xx_ll_tim.h ****   * @rmtoll RCR          REP           LL_TIM_SetRepetitionCounter
1391:Drivers/STM32F1xx_HAL_Driver/Inc/stm32f1xx_ll_tim.h ****   * @param  TIMx Timer instance
1392:Drivers/STM32F1xx_HAL_Driver/Inc/stm32f1xx_ll_tim.h ****   * @param  RepetitionCounter between Min_Data=0 and Max_Data=255 or 65535 for advanced timer.
1393:Drivers/STM32F1xx_HAL_Driver/Inc/stm32f1xx_ll_tim.h ****   * @retval None
1394:Drivers/STM32F1xx_HAL_Driver/Inc/stm32f1xx_ll_tim.h ****   */
1395:Drivers/STM32F1xx_HAL_Driver/Inc/stm32f1xx_ll_tim.h **** __STATIC_INLINE void LL_TIM_SetRepetitionCounter(TIM_TypeDef *TIMx, uint32_t RepetitionCounter)
1396:Drivers/STM32F1xx_HAL_Driver/Inc/stm32f1xx_ll_tim.h **** {
1397:Drivers/STM32F1xx_HAL_Driver/Inc/stm32f1xx_ll_tim.h ****   WRITE_REG(TIMx->RCR, RepetitionCounter);
1398:Drivers/STM32F1xx_HAL_Driver/Inc/stm32f1xx_ll_tim.h **** }
1399:Drivers/STM32F1xx_HAL_Driver/Inc/stm32f1xx_ll_tim.h **** 
1400:Drivers/STM32F1xx_HAL_Driver/Inc/stm32f1xx_ll_tim.h **** /**
1401:Drivers/STM32F1xx_HAL_Driver/Inc/stm32f1xx_ll_tim.h ****   * @brief  Get the repetition counter value.
1402:Drivers/STM32F1xx_HAL_Driver/Inc/stm32f1xx_ll_tim.h ****   * @note Macro IS_TIM_REPETITION_COUNTER_INSTANCE(TIMx) can be used to check
1403:Drivers/STM32F1xx_HAL_Driver/Inc/stm32f1xx_ll_tim.h ****   *       whether or not a timer instance supports a repetition counter.
1404:Drivers/STM32F1xx_HAL_Driver/Inc/stm32f1xx_ll_tim.h ****   * @rmtoll RCR          REP           LL_TIM_GetRepetitionCounter
1405:Drivers/STM32F1xx_HAL_Driver/Inc/stm32f1xx_ll_tim.h ****   * @param  TIMx Timer instance
1406:Drivers/STM32F1xx_HAL_Driver/Inc/stm32f1xx_ll_tim.h ****   * @retval Repetition counter value
1407:Drivers/STM32F1xx_HAL_Driver/Inc/stm32f1xx_ll_tim.h ****   */
1408:Drivers/STM32F1xx_HAL_Driver/Inc/stm32f1xx_ll_tim.h **** __STATIC_INLINE uint32_t LL_TIM_GetRepetitionCounter(const TIM_TypeDef *TIMx)
1409:Drivers/STM32F1xx_HAL_Driver/Inc/stm32f1xx_ll_tim.h **** {
1410:Drivers/STM32F1xx_HAL_Driver/Inc/stm32f1xx_ll_tim.h ****   return (uint32_t)(READ_REG(TIMx->RCR));
1411:Drivers/STM32F1xx_HAL_Driver/Inc/stm32f1xx_ll_tim.h **** }
1412:Drivers/STM32F1xx_HAL_Driver/Inc/stm32f1xx_ll_tim.h **** 
1413:Drivers/STM32F1xx_HAL_Driver/Inc/stm32f1xx_ll_tim.h **** /**
ARM GAS  /tmp/ccdg0XkI.s 			page 50


1414:Drivers/STM32F1xx_HAL_Driver/Inc/stm32f1xx_ll_tim.h ****   * @}
1415:Drivers/STM32F1xx_HAL_Driver/Inc/stm32f1xx_ll_tim.h ****   */
1416:Drivers/STM32F1xx_HAL_Driver/Inc/stm32f1xx_ll_tim.h **** 
1417:Drivers/STM32F1xx_HAL_Driver/Inc/stm32f1xx_ll_tim.h **** /** @defgroup TIM_LL_EF_Capture_Compare Capture Compare configuration
1418:Drivers/STM32F1xx_HAL_Driver/Inc/stm32f1xx_ll_tim.h ****   * @{
1419:Drivers/STM32F1xx_HAL_Driver/Inc/stm32f1xx_ll_tim.h ****   */
1420:Drivers/STM32F1xx_HAL_Driver/Inc/stm32f1xx_ll_tim.h **** /**
1421:Drivers/STM32F1xx_HAL_Driver/Inc/stm32f1xx_ll_tim.h ****   * @brief  Enable  the capture/compare control bits (CCxE, CCxNE and OCxM) preload.
1422:Drivers/STM32F1xx_HAL_Driver/Inc/stm32f1xx_ll_tim.h ****   * @note CCxE, CCxNE and OCxM bits are preloaded, after having been written,
1423:Drivers/STM32F1xx_HAL_Driver/Inc/stm32f1xx_ll_tim.h ****   *       they are updated only when a commutation event (COM) occurs.
1424:Drivers/STM32F1xx_HAL_Driver/Inc/stm32f1xx_ll_tim.h ****   * @note Only on channels that have a complementary output.
1425:Drivers/STM32F1xx_HAL_Driver/Inc/stm32f1xx_ll_tim.h ****   * @note Macro IS_TIM_COMMUTATION_EVENT_INSTANCE(TIMx) can be used to check
1426:Drivers/STM32F1xx_HAL_Driver/Inc/stm32f1xx_ll_tim.h ****   *       whether or not a timer instance is able to generate a commutation event.
1427:Drivers/STM32F1xx_HAL_Driver/Inc/stm32f1xx_ll_tim.h ****   * @rmtoll CR2          CCPC          LL_TIM_CC_EnablePreload
1428:Drivers/STM32F1xx_HAL_Driver/Inc/stm32f1xx_ll_tim.h ****   * @param  TIMx Timer instance
1429:Drivers/STM32F1xx_HAL_Driver/Inc/stm32f1xx_ll_tim.h ****   * @retval None
1430:Drivers/STM32F1xx_HAL_Driver/Inc/stm32f1xx_ll_tim.h ****   */
1431:Drivers/STM32F1xx_HAL_Driver/Inc/stm32f1xx_ll_tim.h **** __STATIC_INLINE void LL_TIM_CC_EnablePreload(TIM_TypeDef *TIMx)
